 PeiVariable

 Timestamp is 68f5fe9a (Mon Oct 20 17:19:22 2025)

 Preferred load address is 0000000000010000

 Start         Length     Name                   Class
 0001:00000000 00000014H .text                   CODE
 0001:00000014 00005275H .text$mn                CODE
 0002:00000000 00000f48H .rdata                  DATA
 0002:00000f48 00000018H .rdata$voltmd           DATA
 0002:00000f60 0000015cH .rdata$zzzdbg           DATA
 0003:00000000 00000118H .data                   DATA
 0003:00000118 00000010H .bss                    DATA
 0004:00000000 00000384H .pdata                  DATA
 0005:00000000 00000130H .xdata                  DATA

  Address         Publics by Value              Rva+Base               Lib:Object

 0000:00000000       __hybrid_code_map          0000000000000000     <absolute>
 0000:00000000       __arm64x_redirection_metadata 0000000000000000     <absolute>
 0000:00000000       __arm64x_extra_rfe_table_size 0000000000000000     <absolute>
 0000:00000000       __guard_iat_count          0000000000000000     <absolute>
 0000:00000000       __guard_longjmp_count      0000000000000000     <absolute>
 0000:00000000       __dynamic_value_reloc_table 0000000000000000     <absolute>
 0000:00000000       __hybrid_auxiliary_iat     0000000000000000     <absolute>
 0000:00000000       __arm64x_extra_rfe_table   0000000000000000     <absolute>
 0000:00000000       __hybrid_code_map_count    0000000000000000     <absolute>
 0000:00000000       __hybrid_auxiliary_iat_copy 0000000000000000     <absolute>
 0000:00000000       __x64_code_ranges_to_entry_points_count 0000000000000000     <absolute>
 0000:00000000       __arm64x_native_entrypoint 0000000000000000     <absolute>
 0000:00000000       __guard_iat_table          0000000000000000     <absolute>
 0000:00000000       __guard_fids_count         0000000000000000     <absolute>
 0000:00000000       __guard_eh_cont_table      0000000000000000     <absolute>
 0000:00000000       __AbsoluteZero             0000000000000000     <absolute>
 0000:00000000       __guard_flags              0000000000000000     <absolute>
 0000:00000000       __enclave_config           0000000000000000     <absolute>
 0000:00000000       __guard_eh_cont_count      0000000000000000     <absolute>
 0000:00000000       __guard_check_icall_a64n_fptr 0000000000000000     <absolute>
 0000:00000000       __arm64x_redirection_metadata_count 0000000000000000     <absolute>
 0000:00000000       __guard_fids_table         0000000000000000     <absolute>
 0000:00000000       __x64_code_ranges_to_entry_points 0000000000000000     <absolute>
 0000:00000000       __guard_longjmp_table      0000000000000000     <absolute>
 0001:00000000       __report_rangecheckfailure 0000000000011000     StackCheckLibNull:StackCheckFunctionsMsvc.obj
 0001:00000001       __GSHandlerCheck           0000000000011001     StackCheckLibNull:StackCheckFunctionsMsvc.obj
 0001:00000002       __security_check_cookie    0000000000011002     StackCheckLibNull:StackCheckFunctionsMsvc.obj
 0001:00000010       CpuPause                   0000000000011010     BaseLib:CpuPause.obj
 0001:00000014       _ModuleEntryPoint          0000000000011014 f   PeimEntryPoint:PeimEntryPoint.obj
 0001:0000008c       ProcessLibraryConstructorList 000000000001108c f   PeiVariable:AutoGen.obj
 0001:00000098       ProcessModuleEntryPointList 0000000000011098 f   PeiVariable:AutoGen.obj
 0001:000000bc       PeimInitializeVariableServices 00000000000110bc f   PeiVariable:Variable.obj
 0001:000000f4       GetStartPointer            00000000000110f4 f   PeiVariable:Variable.obj
 0001:00000108       GetEndPointer              0000000000011108 f   PeiVariable:Variable.obj
 0001:00000124       IsValidVariableHeader      0000000000011124 f   PeiVariable:Variable.obj
 0001:00000148       GetVariableHeaderSize      0000000000011148 f   PeiVariable:Variable.obj
 0001:00000174       NameSizeOfVariable         0000000000011174 f   PeiVariable:Variable.obj
 0001:00000214       DataSizeOfVariable         0000000000011214 f   PeiVariable:Variable.obj
 0001:000002b4       GetVariableNamePtr         00000000000112b4 f   PeiVariable:Variable.obj
 0001:000002dc       GetVendorGuidPtr           00000000000112dc f   PeiVariable:Variable.obj
 0001:00000318       GetVariableDataPtr         0000000000011318 f   PeiVariable:Variable.obj
 0001:00000370       GetNextVariablePtr         0000000000011370 f   PeiVariable:Variable.obj
 0001:00000450       GetVariableStoreStatus     0000000000011450 f   PeiVariable:Variable.obj
 0001:00000544       CompareVariableName        0000000000011544 f   PeiVariable:Variable.obj
 0001:000006e4       CompareWithValidVariable   00000000000116e4 f   PeiVariable:Variable.obj
 0001:00000890       GetHobVariableStore        0000000000011890 f   PeiVariable:Variable.obj
 0001:00000b10       GetVariableStore           0000000000011b10 f   PeiVariable:Variable.obj
 0001:00000fb4       GetVariableHeader          0000000000011fb4 f   PeiVariable:Variable.obj
 0001:00001164       GetVariableNameOrData      0000000000012164 f   PeiVariable:Variable.obj
 0001:00001244       FindVariableEx             0000000000012244 f   PeiVariable:Variable.obj
 0001:000016a4       FindVariable               00000000000126a4 f   PeiVariable:Variable.obj
 0001:00001758       PeiGetVariable             0000000000012758 f   PeiVariable:Variable.obj
 0001:000018e0       PeiGetNextVariableName     00000000000128e0 f   PeiVariable:Variable.obj
 0001:00001da8       CalculateAuthVarStorageSize 0000000000012da8 f   PeiVariable:Variable.obj
 0001:00001e70       CalculateHobVariableCacheSize 0000000000012e70 f   PeiVariable:Variable.obj
 0001:00001f18       CalculateNvVariableCacheSize 0000000000012f18 f   PeiVariable:Variable.obj
 0001:00002120       BuildVariableRuntimeCacheInfoHob 0000000000013120 f   PeiVariable:Variable.obj
 0001:00002638       InternalAllocatePages      0000000000013638 f   PeiMemoryAllocationLib:MemoryAllocationLib.obj
 0001:00002688       AllocateRuntimePages       0000000000013688 f   PeiMemoryAllocationLib:MemoryAllocationLib.obj
 0001:000026a8       PeiServicesInstallPpi      00000000000136a8 f   PeiServicesLib:PeiServicesLib.obj
 0001:000026d8       PeiServicesLocatePpi       00000000000136d8 f   PeiServicesLib:PeiServicesLib.obj
 0001:00002728       PeiServicesNotifyPpi       0000000000013728 f   PeiServicesLib:PeiServicesLib.obj
 0001:00002758       PeiServicesGetHobList      0000000000013758 f   PeiServicesLib:PeiServicesLib.obj
 0001:00002788       PeiServicesCreateHob       0000000000013788 f   PeiServicesLib:PeiServicesLib.obj
 0001:000027cc       PeiServicesAllocatePages   00000000000137cc f   PeiServicesLib:PeiServicesLib.obj
 0001:0000280c       GetPeiServicesTablePointer 000000000001380c f   EmulatorPkgPeiServicesTablePointerLib:PeiServicesTablePointer.obj
 0001:00002890       DebugPrint                 0000000000013890 f   PeiDxeDebugLibReportStatusCode:DebugLib.obj
 0001:000028d4       DebugPrintMarker           00000000000138d4 f   PeiDxeDebugLibReportStatusCode:DebugLib.obj
 0001:0000307c       DebugVPrint                000000000001407c f   PeiDxeDebugLibReportStatusCode:DebugLib.obj
 0001:000030ac       DebugAssert                00000000000140ac f   PeiDxeDebugLibReportStatusCode:DebugLib.obj
 0001:00003448       DebugAssertEnabled         0000000000014448 f   PeiDxeDebugLibReportStatusCode:DebugLib.obj
 0001:0000346c       DebugPrintEnabled          000000000001446c f   PeiDxeDebugLibReportStatusCode:DebugLib.obj
 0001:00003490       DebugCodeEnabled           0000000000014490 f   PeiDxeDebugLibReportStatusCode:DebugLib.obj
 0001:000034b4       DebugPrintLevelEnabled     00000000000144b4 f   PeiDxeDebugLibReportStatusCode:DebugLib.obj
 0001:000034e8       GetHobList                 00000000000144e8 f   PeiHobLib:HobLib.obj
 0001:000035b4       GetNextHob                 00000000000145b4 f   PeiHobLib:HobLib.obj
 0001:00003648       GetNextGuidHob             0000000000014648 f   PeiHobLib:HobLib.obj
 0001:000036c0       GetFirstGuidHob            00000000000146c0 f   PeiHobLib:HobLib.obj
 0001:000036e8       InternalPeiCreateHob       00000000000146e8 f   PeiHobLib:HobLib.obj
 0001:00003768       BuildGuidHob               0000000000014768 f   PeiHobLib:HobLib.obj
 0001:0000382c       CopyMem                    000000000001482c f   BaseMemoryLib:CopyMemWrapper.obj
 0001:00003904       ZeroMem                    0000000000014904 f   BaseMemoryLib:ZeroMemWrapper.obj
 0001:000039ac       CompareMem                 00000000000149ac f   BaseMemoryLib:CompareMemWrapper.obj
 0001:00003ae0       CopyGuid                   0000000000014ae0 f   BaseMemoryLib:MemLibGuid.obj
 0001:00003b34       CompareGuid                0000000000014b34 f   BaseMemoryLib:MemLibGuid.obj
 0001:00003bbc       InternalMemCopyMem         0000000000014bbc f   BaseMemoryLib:CopyMem.obj
 0001:00004198       InternalMemZeroMem         0000000000015198 f   BaseMemoryLib:MemLibGeneric.obj
 0001:000041c0       InternalMemCompareMem      00000000000151c0 f   BaseMemoryLib:MemLibGeneric.obj
 0001:00004228       InternalMemSetMem          0000000000015228 f   BaseMemoryLib:SetMem.obj
 0001:000043bc       SafeUint64ToUint32         00000000000153bc f   BaseSafeIntLib:SafeIntLib.obj
 0001:00004538       GetVariableFlashNvStorageInfo 0000000000015538 f   BaseVariableFlashInfoLib:BaseVariableFlashInfoLib.obj
 0001:000045f8       MmUnblockMemoryRequest     00000000000155f8 f   MmUnblockMemoryLibNull:MmUnblockMemoryLibNull.obj
 0001:00004610       GetDebugPrintErrorLevel    0000000000015610 f   BaseDebugPrintErrorLevelLib:BaseDebugPrintErrorLevelLib.obj
 0001:00004618       InternalReportStatusCode   0000000000015618 f   PeiReportStatusCodeLib:ReportStatusCodeLib.obj
 0001:00004730       ReportStatusCodeEx         0000000000015730 f   PeiReportStatusCodeLib:ReportStatusCodeLib.obj
 0001:00004918       ReportProgressCodeEnabled  0000000000015918 f   PeiReportStatusCodeLib:ReportStatusCodeLib.obj
 0001:0000493c       ReportErrorCodeEnabled     000000000001593c f   PeiReportStatusCodeLib:ReportStatusCodeLib.obj
 0001:00004960       ReportDebugCodeEnabled     0000000000015960 f   PeiReportStatusCodeLib:ReportStatusCodeLib.obj
 0001:00004984       AsciiStrLen                0000000000015984 f   BaseLib:String.obj
 0001:00004a3c       AsciiStrSize               0000000000015a3c f   BaseLib:String.obj
 0001:00004a58       InternalSafeStringIsOverlap 0000000000015a58 f   BaseLib:SafeString.obj
 0001:00004abc       InternalSafeStringNoAsciiStrOverlap 0000000000015abc f   BaseLib:SafeString.obj
 0001:00004b10       AsciiStrnLenS              0000000000015b10 f   BaseLib:SafeString.obj
 0001:00004b7c       AsciiStrnCpyS              0000000000015b7c f   BaseLib:SafeString.obj
 0001:0000506c       CpuBreakpoint              000000000001606c f   BaseLib:CpuBreakpoint.obj
 0001:00005070       CpuDeadLoop                0000000000016070 f   BaseLib:CpuDeadLoop.obj
 0001:000050a0       ReadUnaligned64            00000000000160a0 f   BaseLib:Unaligned.obj
 0001:000050e8       WriteUnaligned64           00000000000160e8 f   BaseLib:Unaligned.obj
 0001:00005140       LShiftU64                  0000000000016140 f   BaseLib:LShiftU64.obj
 0001:00005194       InternalMathLShiftU64      0000000000016194 f   BaseLib:Math64.obj
 0001:000051b0       GetPcdPpiPointer           00000000000161b0 f   PeiPcdLib:PeiPcdLib.obj
 0001:00005254       LibPcdGet64                0000000000016254 f   PeiPcdLib:PeiPcdLib.obj
 0001:00005270       OemHookStatusCodeInitialize 0000000000016270 f   OemHookStatusCodeLibNull:OemHookStatusCodeLibNull.obj
 0001:00005274       OemHookStatusCodeReport    0000000000016274 f   OemHookStatusCodeLibNull:OemHookStatusCodeLibNull.obj
 0002:00000000       ??_C@_0CP@KCAHKNFK@?$CI?$CKPeiServices?$CJ?9?$DOHdr?4Revision?5?$DO?$DN@ 0000000000017000     PeimEntryPoint:PeimEntryPoint.obj
 0002:00000030       ??_C@_0EM@ODCMBAOE@D?3?2develop?2Self_develop?2edk2?2Md@ 0000000000017030     PeimEntryPoint:PeimEntryPoint.obj
 0002:0000007c       _gPeimRevision             000000000001707c     PeiVariable:AutoGen.obj
 0002:0000007c       _gPcd_FixedAtBuild_PcdFlashNvStorageVariableBase 000000000001707c     PeiVariable:AutoGen.obj
 0002:00000080       ??_C@_0M@JBBPLNMG@PeiVariable@ 0000000000017080     PeiVariable:AutoGen.obj
 0002:0000008c       _gPcd_FixedAtBuild_PcdEnableVariableRuntimeCache 000000000001708c     PeiVariable:AutoGen.obj
 0002:0000008d       _gPcd_FixedAtBuild_PcdReportStatusCodePropertyMask 000000000001708d     PeiVariable:AutoGen.obj
 0002:00000090       _gPcd_FixedAtBuild_PcdVariableStoreSize 0000000000017090     PeiVariable:AutoGen.obj
 0002:00000094       _gPcd_FixedAtBuild_PcdDebugPrintErrorLevel 0000000000017094     PeiVariable:AutoGen.obj
 0002:00000098       _gPcd_FixedAtBuild_PcdFlashNvStorageVariableSize 0000000000017098     PeiVariable:AutoGen.obj
 0002:000000a0       _gPcd_FixedAtBuild_PcdPeiServicesTablePage 00000000000170a0     PeiVariable:AutoGen.obj
 0002:000000a8       _gPcd_FixedAtBuild_PcdFixedDebugPrintErrorLevel 00000000000170a8     PeiVariable:AutoGen.obj
 0002:000000ac       _gPcd_FixedAtBuild_PcdEmuVariableNvModeEnable 00000000000170ac     PeiVariable:AutoGen.obj
 0002:000000b0       _gPcd_FixedAtBuild_PcdMaximumAsciiStringLength 00000000000170b0     PeiVariable:AutoGen.obj
 0002:000000b4       _gPcd_FixedAtBuild_PcdDebugPropertyMask 00000000000170b4     PeiVariable:AutoGen.obj
 0002:000000b8       ??_C@_0DO@HBKOCDEI@NameSizeOfVariable?5?$CIVariableHea@ 00000000000170b8     PeiVariable:Variable.obj
 0002:00000100       ??_C@_0EM@JPDKALFM@D?3?2develop?2Self_develop?2edk2?2Md@ 0000000000017100     PeiVariable:Variable.obj
 0002:00000150       ??_C@_0CF@HLANNKA@ERROR?3?5Found?5two?5Auth?5Variable?5@ 0000000000017150     PeiVariable:Variable.obj
 0002:00000178       ??_C@_0BC@FEDIJHFF@?$CI?$CIBOOLEAN?$CJ?$CI0?$DN?$DN1?$CJ?$CJ@ 0000000000017178     PeiVariable:Variable.obj
 0002:00000190       ??_C@_0DC@OLGEBAOD@ERROR?3?5Found?5one?5Auth?5?$CL?5one?5Nor@ 0000000000017190     PeiVariable:Variable.obj
 0002:000001c8       ??_C@_0CH@BEPNCMEL@ERROR?3?5Found?5two?5Normal?5Variabl@ 00000000000171c8     PeiVariable:Variable.obj
 0002:000001f0       ??_C@_0CB@DMEJJJHA@?6ASSERT_EFI_ERROR?5?$CIStatus?5?$DN?5?$CFr?$CJ@ 00000000000171f0     PeiVariable:Variable.obj
 0002:00000218       ??_C@_0DG@FLPEIDFK@?$CB?$CI?$CI?$CIRETURN_STATUS?$CJ?$CIStatus?$CJ?$CJ?5?$DO?$DN?5@ 0000000000017218     PeiVariable:Variable.obj
 0002:00000250       ??_C@_0BD@KOJGBFGG@NvStorageBase?5?$CB?$DN?50@ 0000000000017250     PeiVariable:Variable.obj
 0002:00000268       ??_C@_0DL@NNIAPBFA@PeiVariable?3?5NV?5storage?5is?5back@ 0000000000017268     PeiVariable:Variable.obj
 0002:000002b0       ??_C@_0FI@LMLIGKLO@PeiVariable?3?5High?5partial?5NV?5st@ 00000000000172b0     PeiVariable:Variable.obj
 0002:00000308       ??_C@_0DB@CGGLGCCM@Firmware?5Volume?5for?5Variable?5St@ 0000000000017308     PeiVariable:Variable.obj
 0002:00000340       ??_C@_0ED@ILKDGFCF@Index?5?$DM?5sizeof?5?$CIIndexTable?9?$DOInd@ 0000000000017340     PeiVariable:Variable.obj
 0002:00000388       ??_C@_0BM@PGGMHEJE@Type?5?$DM?5VariableStoreTypeMax@ 0000000000017388     PeiVariable:Variable.obj
 0002:000003a8       ??_C@_0BB@HEEDHDJN@VarNameSize?5?$CB?$DN?50@ 00000000000173a8     PeiVariable:Variable.obj
 0002:000003c0       ??_C@_0CE@HNKCLKPI@NvAuthFlag?5?$CG?$CG?5?$CI?$CBStoreInfo?4AuthF@ 00000000000173c0     PeiVariable:Variable.obj
 0002:000003e8       ??_C@_0BH@IACGKAP@Buffer?5?$CB?$DN?5?$CI?$CIvoid?5?$CK?$CJ?50?$CJ@ 00000000000173e8     PeiVariable:Variable.obj
 0002:00000400       ??_C@_0EJ@ICDBAJGD@PeiVariable?3?5CACHE_INFO_FLAG?5Bu@ 0000000000017400     PeiVariable:Variable.obj
 0002:00000450       ??_C@_0EJ@DJHPBPMC@PeiVariable?3?5Volatile?5cache?5Buf@ 0000000000017450     PeiVariable:Variable.obj
 0002:000004a0       ??_C@_0ED@GEDJKNFI@PeiVariable?3?5NV?5cache?5Buffer?5is@ 00000000000174a0     PeiVariable:Variable.obj
 0002:000004f0       ??_C@_0EE@DLGALII@PeiVariable?3?5HOB?5cache?5Buffer?5i@ 00000000000174f0     PeiVariable:Variable.obj
 0002:00000538       ??_C@_0CJ@GOHNPOEB@VariableRuntimeCacheInfo?5?$CB?$DN?5?$CI?$CIv@ 0000000000017538     PeiVariable:Variable.obj
 0002:00000568       ??_C@_0CI@MDPGFIOC@PeiServicesTablePointer?5?$CB?$DN?5?$CI?$CIvo@ 0000000000017568     EmulatorPkgPeiServicesTablePointerLib:PeiServicesTablePointer.obj
 0002:00000590       ??_C@_0GP@IFFCOGDB@D?3?2develop?2Self_develop?2edk2?2Em@ 0000000000017590     EmulatorPkgPeiServicesTablePointerLib:PeiServicesTablePointer.obj
 0002:00000600       ??_C@_0CJ@NHFDCOMG@?$CKPeiServicesTablePointer?5?$CB?$DN?5?$CI?$CIv@ 0000000000017600     EmulatorPkgPeiServicesTablePointerLib:PeiServicesTablePointer.obj
 0002:00000630       ??_C@_0BH@LKMBFCBF@Format?5?$CB?$DN?5?$CI?$CIvoid?5?$CK?$CJ?50?$CJ@ 0000000000017630     PeiDxeDebugLibReportStatusCode:DebugLib.obj
 0002:00000650       ??_C@_0FM@HDIIFGPN@D?3?2develop?2Self_develop?2edk2?2Md@ 0000000000017650     PeiDxeDebugLibReportStatusCode:DebugLib.obj
 0002:000006b0       ??_C@_0CP@EFCGCEBK@?$CICHAR8?5?$CK?$CJBaseListMarkerPointer?5@ 00000000000176b0     PeiDxeDebugLibReportStatusCode:DebugLib.obj
 0002:000006e0       ??_C@_01OHGJGJJP@?$FL@     00000000000176e0     PeiDxeDebugLibReportStatusCode:DebugLib.obj
 0002:000006e4       ??_C@_02PBFOLPKM@?$FN?5@   00000000000176e4     PeiDxeDebugLibReportStatusCode:DebugLib.obj
 0002:000006e8       ??_C@_0DP@DIFIPJMD@D?3?2develop?2Self_develop?2edk2?2Md@ 00000000000176e8     PeiHobLib:HobLib.obj
 0002:00000728       ??_C@_0BI@NCGMODPG@HobList?5?$CB?$DN?5?$CI?$CIvoid?5?$CK?$CJ?50?$CJ@ 0000000000017728     PeiHobLib:HobLib.obj
 0002:00000740       ??_C@_0BJ@NOLLDKJB@HobStart?5?$CB?$DN?5?$CI?$CIvoid?5?$CK?$CJ?50?$CJ@ 0000000000017740     PeiHobLib:HobLib.obj
 0002:00000760       ??_C@_0BE@PICCCCHF@Hob?5?$CB?$DN?5?$CI?$CIvoid?5?$CK?$CJ?50?$CJ@ 0000000000017760     PeiHobLib:HobLib.obj
 0002:00000778       ??_C@_0BF@PEDOPNMP@Guid?5?$CB?$DN?5?$CI?$CIvoid?5?$CK?$CJ?50?$CJ@ 0000000000017778     PeiHobLib:HobLib.obj
 0002:00000790       ??_C@_0DE@JLBHCAID@DataLength?5?$DM?$DN?5?$CI0xFFF8?5?9?5sizeof?5@ 0000000000017790     PeiHobLib:HobLib.obj
 0002:000007d0       ??_C@_0ED@MKGCMJG@?$CILength?5?9?51?$CJ?5?$DM?$DN?5?$CI0xFFFFFFFFFFFF@ 00000000000177d0     BaseMemoryLib:CopyMemWrapper.obj
 0002:00000820       ??_C@_0EL@NNLJGCCH@D?3?2develop?2Self_develop?2edk2?2Md@ 0000000000017820     BaseMemoryLib:CopyMemWrapper.obj
 0002:00000870       ??_C@_0DO@MAOBOFEG@?$CILength?5?9?51?$CJ?5?$DM?$DN?5?$CI0xFFFFFFFFFFFF@ 0000000000017870     BaseMemoryLib:CopyMemWrapper.obj
 0002:000008b0       ??_C@_0EL@GJBLADOA@D?3?2develop?2Self_develop?2edk2?2Md@ 00000000000178b0     BaseMemoryLib:ZeroMemWrapper.obj
 0002:00000900       ??_C@_0DG@EEENIGGL@Length?5?$DM?$DN?5?$CI0xFFFFFFFFFFFFFFFFUL@ 0000000000017900     BaseMemoryLib:ZeroMemWrapper.obj
 0002:00000938       ??_C@_0CC@JOEHDGKB@DestinationBuffer?5?$CB?$DN?5?$CI?$CIvoid?5?$CK?$CJ?5@ 0000000000017938     BaseMemoryLib:CompareMemWrapper.obj
 0002:00000960       ??_C@_0EO@FAHMLNEH@D?3?2develop?2Self_develop?2edk2?2Md@ 0000000000017960     BaseMemoryLib:CompareMemWrapper.obj
 0002:000009b0       ??_C@_0BN@MDMCNBCC@SourceBuffer?5?$CB?$DN?5?$CI?$CIvoid?5?$CK?$CJ?50?$CJ@ 00000000000179b0     BaseMemoryLib:CompareMemWrapper.obj
 0002:000009d0       ??_C@_0DC@HLELONJE@ERROR?3?5Found?5two?5variable?5flash@ 00000000000179d0     BaseVariableFlashInfoLib:BaseVariableFlashInfoLib.obj
 0002:00000a10       ??_C@_0GG@JPJEHFLI@D?3?2develop?2Self_develop?2edk2?2Md@ 0000000000017a10     BaseVariableFlashInfoLib:BaseVariableFlashInfoLib.obj
 0002:00000a80       ??_C@_0FP@KNAFGKGF@D?3?2develop?2Self_develop?2edk2?2Md@ 0000000000017a80     PeiReportStatusCodeLib:ReportStatusCodeLib.obj
 0002:00000ae0       ??_C@_0DN@HHIHPHHB@?$CB?$CI?$CIExtendedData?5?$DN?$DN?5?$CI?$CIvoid?5?$CK?$CJ?50?$CJ@ 0000000000017ae0     PeiReportStatusCodeLib:ReportStatusCodeLib.obj
 0002:00000b20       ??_C@_0DN@BBBIFINB@?$CB?$CI?$CIExtendedData?5?$CB?$DN?5?$CI?$CIvoid?5?$CK?$CJ?50?$CJ@ 0000000000017b20     PeiReportStatusCodeLib:ReportStatusCodeLib.obj
 0002:00000b60       ??_C@_0DI@MIEIGAOH@Status?5code?5extended?5data?5is?5to@ 0000000000017b60     PeiReportStatusCodeLib:ReportStatusCodeLib.obj
 0002:00000b98       ??_C@_0BH@MAAHKCPC@String?5?$CB?$DN?5?$CI?$CIvoid?5?$CK?$CJ?50?$CJ@ 0000000000017b98     BaseLib:String.obj
 0002:00000bb0       ??_C@_0DN@POJBHOAP@D?3?2develop?2Self_develop?2edk2?2Md@ 0000000000017bb0     BaseLib:String.obj
 0002:00000bf0       ??_C@_0DI@MDIKFADO@Length?5?$DM?5_gPcd_FixedAtBuild_Pcd@ 0000000000017bf0     BaseLib:String.obj
 0002:00000c30       ??_C@_0EB@DAKPBIJH@D?3?2develop?2Self_develop?2edk2?2Md@ 0000000000017c30     BaseLib:SafeString.obj
 0002:00000c78       ??_C@_0BO@ECNIOIHG@?$CIDestination?5?$CB?$DN?5?$CI?$CIvoid?5?$CK?$CJ?50?$CJ?$CJ@ 0000000000017c78     BaseLib:SafeString.obj
 0002:00000ca0       ??_C@_0EA@PDPDJJNN@?$CFa?$CI?$CFd?$CJ?5?$CFa?3?5SAFE_STRING_CONSTRAI@ 0000000000017ca0     BaseLib:SafeString.obj
 0002:00000ce0       ??_C@_0BJ@EAEEJIP@?$CISource?5?$CB?$DN?5?$CI?$CIvoid?5?$CK?$CJ?50?$CJ?$CJ@ 0000000000017ce0     BaseLib:SafeString.obj
 0002:00000d00       ??_C@_0P@PMIMLIHM@?$CIDestMax?5?$CB?$DN?50?$CJ@ 0000000000017d00     BaseLib:SafeString.obj
 0002:00000d10       ??_C@_0BG@EEGIIOKH@?$CIDestMax?5?$DO?5SourceLen?$CJ@ 0000000000017d10     BaseLib:SafeString.obj
 0002:00000d28       ??_C@_0DO@LJFOOPII@?$CIDestMax?5?$DM?$DN?5?$CI_gPcd_FixedAtBuild@ 0000000000017d28     BaseLib:SafeString.obj
 0002:00000d70       ??_C@_0FL@CDANCHFO@InternalSafeStringNoAsciiStrOve@ 0000000000017d70     BaseLib:SafeString.obj
 0002:00000dd0       ??_C@_0O@DIHNCLLG@AsciiStrnCpyS@ 0000000000017dd0     BaseLib:SafeString.obj
 0002:00000de0       ??_C@_0DN@DLAADCJE@?$CILength?5?$DM?$DN?5?$CI_gPcd_FixedAtBuild_@ 0000000000017de0     BaseLib:SafeString.obj
 0002:00000e20       ??_C@_0EA@FKBIDDGN@D?3?2develop?2Self_develop?2edk2?2Md@ 0000000000017e20     BaseLib:Unaligned.obj
 0002:00000e60       ??_C@_0L@MEMPDLHB@Count?5?$DM?564@ 0000000000017e60     BaseLib:LShiftU64.obj
 0002:00000e70       ??_C@_0EA@MLMAFFLG@D?3?2develop?2Self_develop?2edk2?2Md@ 0000000000017e70     BaseLib:LShiftU64.obj
 0002:00000eb0       ??_C@_0EC@NIBGDJIO@D?3?2develop?2Self_develop?2edk2?2Md@ 0000000000017eb0     PeiPcdLib:PeiPcdLib.obj
 0002:00000f48       __volatile_metadata        0000000000017f48     <linker-defined>
 0003:00000000       gEfiStatusCodeSpecificDataGuid 0000000000019000     PeiVariable:AutoGen.obj
 0003:00000010       gEfiPeiReadOnlyVariable2PpiGuid 0000000000019010     PeiVariable:AutoGen.obj
 0003:00000020       gEfiSystemNvDataFvGuid     0000000000019020     PeiVariable:AutoGen.obj
 0003:00000030       gVariableFlashInfoHobGuid  0000000000019030     PeiVariable:AutoGen.obj
 0003:00000040       gEfiVariableGuid           0000000000019040     PeiVariable:AutoGen.obj
 0003:00000050       gEfiVariableIndexTableGuid 0000000000019050     PeiVariable:AutoGen.obj
 0003:00000060       gEdkiiVariableRuntimeCacheInfoHobGuid 0000000000019060     PeiVariable:AutoGen.obj
 0003:00000070       gEfiCallerBaseName         0000000000019070     PeiVariable:AutoGen.obj
 0003:00000078       gEfiStatusCodeDataTypeDebugGuid 0000000000019078     PeiVariable:AutoGen.obj
 0003:00000088       gEfiAuthenticatedVariableGuid 0000000000019088     PeiVariable:AutoGen.obj
 0003:00000098       gEdkiiFaultTolerantWriteGuid 0000000000019098     PeiVariable:AutoGen.obj
 0003:000000a8       gEfiPeiMemoryDiscoveredPpiGuid 00000000000190a8     PeiVariable:AutoGen.obj
 0003:000000b8       gEfiCallerIdGuid           00000000000190b8     PeiVariable:AutoGen.obj
 0003:000000c8       gPcdPpiGuid                00000000000190c8     PeiVariable:AutoGen.obj
 0003:000000d8       mPostMemNotifyList         00000000000190d8     PeiVariable:Variable.obj
 0003:000000f0       mPpiListVariable           00000000000190f0     PeiVariable:Variable.obj
 0003:00000108       mVariablePpi               0000000000019108     PeiVariable:Variable.obj
 0003:00000120       __security_cookie          0000000000019120     StackCheckLibNull:StackCheckLibNullMsvc.obj

 entry point at        0001:00000014

 Static symbols

 0001:00004424       GetVariableFlashInfoFromHob 0000000000015424 f   BaseVariableFlashInfoLib:BaseVariableFlashInfoLib.obj
 0003:00000118       mDeadLoopComparator        0000000000019118     BaseLib:CpuDeadLoop.obj
 0005:00000000       $unwind$ProcessModuleEntryPointList 000000000001b000     PeiVariable:AutoGen.obj
 0005:00000000       $unwind$PeimInitializeVariableServices 000000000001b000     PeiVariable:Variable.obj
 0005:00000000       $unwind$LShiftU64          000000000001b000     BaseLib:LShiftU64.obj
 0005:00000000       $unwind$WriteUnaligned64   000000000001b000     BaseLib:Unaligned.obj
 0005:00000000       $unwind$InternalMemZeroMem 000000000001b000     BaseMemoryLib:MemLibGeneric.obj
 0005:00000000       $unwind$CopyGuid           000000000001b000     BaseMemoryLib:MemLibGuid.obj
 0005:00000000       $unwind$ZeroMem            000000000001b000     BaseMemoryLib:ZeroMemWrapper.obj
 0005:00000000       $unwind$_ModuleEntryPoint  000000000001b000     PeimEntryPoint:PeimEntryPoint.obj
 0005:00000008       $unwind$GetVariableHeaderSize 000000000001b008     PeiVariable:Variable.obj
 0005:00000010       $unwind$DataSizeOfVariable 000000000001b010     PeiVariable:Variable.obj
 0005:00000010       $unwind$GetVendorGuidPtr   000000000001b010     PeiVariable:Variable.obj
 0005:00000010       $unwind$NameSizeOfVariable 000000000001b010     PeiVariable:Variable.obj
 0005:00000018       $unwind$GetVariableNamePtr 000000000001b018     PeiVariable:Variable.obj
 0005:00000020       $unwind$GetVariableDataPtr 000000000001b020     PeiVariable:Variable.obj
 0005:00000020       $unwind$PeiServicesCreateHob 000000000001b020     PeiServicesLib:PeiServicesLib.obj
 0005:00000028       $unwind$GetNextVariablePtr 000000000001b028     PeiVariable:Variable.obj
 0005:00000030       $unwind$GetVariableStoreStatus 000000000001b030     PeiVariable:Variable.obj
 0005:00000030       $unwind$AsciiStrSize       000000000001b030     BaseLib:String.obj
 0005:00000030       $unwind$ReadUnaligned64    000000000001b030     BaseLib:Unaligned.obj
 0005:00000030       $unwind$AllocateRuntimePages 000000000001b030     PeiMemoryAllocationLib:MemoryAllocationLib.obj
 0005:00000030       $unwind$LibPcdGet64        000000000001b030     PeiPcdLib:PeiPcdLib.obj
 0005:00000038       $unwind$CompareVariableName 000000000001b038     PeiVariable:Variable.obj
 0005:00000038       $unwind$GetVariableNameOrData 000000000001b038     PeiVariable:Variable.obj
 0005:00000038       $unwind$PeiServicesLocatePpi 000000000001b038     PeiServicesLib:PeiServicesLib.obj
 0005:00000040       $unwind$DebugPrint         000000000001b040     PeiDxeDebugLibReportStatusCode:DebugLib.obj
 0005:00000040       $unwind$CompareWithValidVariable 000000000001b040     PeiVariable:Variable.obj
 0005:00000040       $unwind$FindVariable       000000000001b040     PeiVariable:Variable.obj
 0005:00000040       $unwind$InternalSafeStringNoAsciiStrOverlap 000000000001b040     BaseLib:SafeString.obj
 0005:00000048       $unwind$GetHobVariableStore 000000000001b048     PeiVariable:Variable.obj
 0005:00000048       $unwind$BuildGuidHob       000000000001b048     PeiHobLib:HobLib.obj
 0005:00000048       $unwind$GetNextGuidHob     000000000001b048     PeiHobLib:HobLib.obj
 0005:00000048       $unwind$GetNextHob         000000000001b048     PeiHobLib:HobLib.obj
 0005:00000048       $unwind$InternalPeiCreateHob 000000000001b048     PeiHobLib:HobLib.obj
 0005:00000050       $unwind$GetVariableStore   000000000001b050     PeiVariable:Variable.obj
 0005:00000058       $unwind$GetVariableHeader  000000000001b058     PeiVariable:Variable.obj
 0005:00000058       $unwind$InternalMemSetMem  000000000001b058     BaseMemoryLib:SetMem.obj
 0005:00000060       $unwind$FindVariableEx     000000000001b060     PeiVariable:Variable.obj
 0005:00000068       $unwind$PeiGetVariable     000000000001b068     PeiVariable:Variable.obj
 0005:00000070       $unwind$PeiGetNextVariableName 000000000001b070     PeiVariable:Variable.obj
 0005:00000078       $unwind$GetVariableFlashNvStorageInfo 000000000001b078     BaseVariableFlashInfoLib:BaseVariableFlashInfoLib.obj
 0005:00000078       $unwind$CalculateAuthVarStorageSize 000000000001b078     PeiVariable:Variable.obj
 0005:00000080       $unwind$CalculateHobVariableCacheSize 000000000001b080     PeiVariable:Variable.obj
 0005:00000088       $unwind$CalculateNvVariableCacheSize 000000000001b088     PeiVariable:Variable.obj
 0005:00000090       $unwind$BuildVariableRuntimeCacheInfoHob 000000000001b090     PeiVariable:Variable.obj
 0005:000000a0       $unwind$InternalAllocatePages 000000000001b0a0     PeiMemoryAllocationLib:MemoryAllocationLib.obj
 0005:000000a8       $unwind$GetVariableFlashInfoFromHob 000000000001b0a8     BaseVariableFlashInfoLib:BaseVariableFlashInfoLib.obj
 0005:000000a8       $unwind$AsciiStrLen        000000000001b0a8     BaseLib:String.obj
 0005:000000a8       $unwind$GetFirstGuidHob    000000000001b0a8     PeiHobLib:HobLib.obj
 0005:000000a8       $unwind$PeiServicesGetHobList 000000000001b0a8     PeiServicesLib:PeiServicesLib.obj
 0005:000000a8       $unwind$PeiServicesInstallPpi 000000000001b0a8     PeiServicesLib:PeiServicesLib.obj
 0005:000000a8       $unwind$PeiServicesNotifyPpi 000000000001b0a8     PeiServicesLib:PeiServicesLib.obj
 0005:000000b0       $unwind$PeiServicesAllocatePages 000000000001b0b0     PeiServicesLib:PeiServicesLib.obj
 0005:000000b8       $unwind$GetPeiServicesTablePointer 000000000001b0b8     EmulatorPkgPeiServicesTablePointerLib:PeiServicesTablePointer.obj
 0005:000000b8       $unwind$CpuDeadLoop        000000000001b0b8     BaseLib:CpuDeadLoop.obj
 0005:000000b8       $unwind$GetHobList         000000000001b0b8     PeiHobLib:HobLib.obj
 0005:000000b8       $unwind$GetPcdPpiPointer   000000000001b0b8     PeiPcdLib:PeiPcdLib.obj
 0005:000000c0       $unwind$DebugPrintMarker   000000000001b0c0     PeiDxeDebugLibReportStatusCode:DebugLib.obj
 0005:000000d0       $unwind$DebugVPrint        000000000001b0d0     PeiDxeDebugLibReportStatusCode:DebugLib.obj
 0005:000000d0       $unwind$CompareMem         000000000001b0d0     BaseMemoryLib:CompareMemWrapper.obj
 0005:000000d0       $unwind$CopyMem            000000000001b0d0     BaseMemoryLib:CopyMemWrapper.obj
 0005:000000d8       $unwind$DebugAssert        000000000001b0d8     PeiDxeDebugLibReportStatusCode:DebugLib.obj
 0005:000000e8       $unwind$DebugAssertEnabled 000000000001b0e8     PeiDxeDebugLibReportStatusCode:DebugLib.obj
 0005:000000e8       $unwind$DebugCodeEnabled   000000000001b0e8     PeiDxeDebugLibReportStatusCode:DebugLib.obj
 0005:000000e8       $unwind$DebugPrintEnabled  000000000001b0e8     PeiDxeDebugLibReportStatusCode:DebugLib.obj
 0005:000000e8       $unwind$ReportDebugCodeEnabled 000000000001b0e8     PeiReportStatusCodeLib:ReportStatusCodeLib.obj
 0005:000000e8       $unwind$ReportErrorCodeEnabled 000000000001b0e8     PeiReportStatusCodeLib:ReportStatusCodeLib.obj
 0005:000000e8       $unwind$ReportProgressCodeEnabled 000000000001b0e8     PeiReportStatusCodeLib:ReportStatusCodeLib.obj
 0005:000000f0       $unwind$DebugPrintLevelEnabled 000000000001b0f0     PeiDxeDebugLibReportStatusCode:DebugLib.obj
 0005:000000f8       $unwind$CompareGuid        000000000001b0f8     BaseMemoryLib:MemLibGuid.obj
 0005:00000100       $unwind$InternalMemCopyMem 000000000001b100     BaseMemoryLib:CopyMem.obj
 0005:00000108       $unwind$AsciiStrnLenS      000000000001b108     BaseLib:SafeString.obj
 0005:00000108       $unwind$SafeUint64ToUint32 000000000001b108     BaseSafeIntLib:SafeIntLib.obj
 0005:00000110       $unwind$InternalReportStatusCode 000000000001b110     PeiReportStatusCodeLib:ReportStatusCodeLib.obj
 0005:00000118       $unwind$ReportStatusCodeEx 000000000001b118     PeiReportStatusCodeLib:ReportStatusCodeLib.obj
 0005:00000128       $unwind$AsciiStrnCpyS      000000000001b128     BaseLib:SafeString.obj
