 UiApp

 Timestamp is 68f5d085 (Mon Oct 20 14:02:45 2025)

 Preferred load address is 0000000000010000

 Start         Length     Name                   Class
 0001:00000000 00000014H .text                   CODE
 0001:00000014 00031bd1H .text$mn                CODE
 0002:00000000 00006770H .rdata                  DATA
 0002:00006770 00000018H .rdata$voltmd           DATA
 0002:00006788 00000144H .rdata$zzzdbg           DATA
 0003:00000000 00007500H .data                   DATA
 0003:00007500 00000238H .bss                    DATA
 0004:00000000 00001764H .pdata                  DATA
 0005:00000000 0000050cH .xdata                  DATA

  Address         Publics by Value              Rva+Base               Lib:Object

 0000:00000000       __arm64x_redirection_metadata 0000000000000000     <absolute>
 0000:00000000       __guard_check_icall_a64n_fptr 0000000000000000     <absolute>
 0000:00000000       __guard_longjmp_table      0000000000000000     <absolute>
 0000:00000000       __guard_longjmp_count      0000000000000000     <absolute>
 0000:00000000       __x64_code_ranges_to_entry_points 0000000000000000     <absolute>
 0000:00000000       __guard_fids_table         0000000000000000     <absolute>
 0000:00000000       __guard_fids_count         0000000000000000     <absolute>
 0000:00000000       __arm64x_extra_rfe_table   0000000000000000     <absolute>
 0000:00000000       __AbsoluteZero             0000000000000000     <absolute>
 0000:00000000       __hybrid_auxiliary_iat_copy 0000000000000000     <absolute>
 0000:00000000       __hybrid_code_map          0000000000000000     <absolute>
 0000:00000000       __arm64x_extra_rfe_table_size 0000000000000000     <absolute>
 0000:00000000       __guard_iat_table          0000000000000000     <absolute>
 0000:00000000       __hybrid_auxiliary_iat     0000000000000000     <absolute>
 0000:00000000       __guard_iat_count          0000000000000000     <absolute>
 0000:00000000       __arm64x_redirection_metadata_count 0000000000000000     <absolute>
 0000:00000000       __enclave_config           0000000000000000     <absolute>
 0000:00000000       __x64_code_ranges_to_entry_points_count 0000000000000000     <absolute>
 0000:00000000       __guard_eh_cont_table      0000000000000000     <absolute>
 0000:00000000       __arm64x_native_entrypoint 0000000000000000     <absolute>
 0000:00000000       __guard_flags              0000000000000000     <absolute>
 0000:00000000       __guard_eh_cont_count      0000000000000000     <absolute>
 0000:00000000       __dynamic_value_reloc_table 0000000000000000     <absolute>
 0000:00000000       __hybrid_code_map_count    0000000000000000     <absolute>
 0001:00000000       CpuPause                   0000000000011000     BaseLib:CpuPause.obj
 0001:00000010       __report_rangecheckfailure 0000000000011010     StackCheckLibNull:StackCheckFunctionsMsvc.obj
 0001:00000011       __GSHandlerCheck           0000000000011011     StackCheckLibNull:StackCheckFunctionsMsvc.obj
 0001:00000012       __security_check_cookie    0000000000011012     StackCheckLibNull:StackCheckFunctionsMsvc.obj
 0001:00000014       _ModuleEntryPoint          0000000000011014 f   UefiApplicationEntryPoint:ApplicationEntryPoint.obj
 0001:00000084       ProcessLibraryConstructorList 0000000000011084 f   UiApp:AutoGen.obj
 0001:00000624       ProcessLibraryDestructorList 0000000000011624 f   UiApp:AutoGen.obj
 0001:00000870       ProcessModuleEntryPointList 0000000000011870 f   UiApp:AutoGen.obj
 0001:00000894       LibExtractConfig           0000000000011894 f   FileExplorerLib:FileExplorer.obj
 0001:00000894       BootManagerExtractConfig   0000000000011894 f   BootManagerUiLib:BootManager.obj
 0001:00000894       FakeExtractConfig          0000000000011894 f   UiApp:FrontPage.obj
 0001:00000894       DeviceManagerExtractConfig 0000000000011894 f   DeviceManagerUiLib:DeviceManager.obj
 0001:000008dc       DeviceManagerRouteConfig   00000000000118dc f   DeviceManagerUiLib:DeviceManager.obj
 0001:000008dc       BootManagerRouteConfig     00000000000118dc f   BootManagerUiLib:BootManager.obj
 0001:000008dc       LibRouteConfig             00000000000118dc f   FileExplorerLib:FileExplorer.obj
 0001:000008dc       FakeRouteConfig            00000000000118dc f   UiApp:FrontPage.obj
 0001:00000920       FrontPageCallback          0000000000011920 f   UiApp:FrontPage.obj
 0001:00000970       UpdateFrontPageForm        0000000000011970 f   UiApp:FrontPage.obj
 0001:00000aac       InitializeFrontPage        0000000000011aac f   UiApp:FrontPage.obj
 0001:00000c30       CallFrontPage              0000000000011c30 f   UiApp:FrontPage.obj
 0001:00000d34       FreeFrontPage              0000000000011d34 f   UiApp:FrontPage.obj
 0001:00000e28       ConvertProcessorToString   0000000000011e28 f   UiApp:FrontPage.obj
 0001:00000fc8       ConvertMemorySizeToString  0000000000011fc8 f   UiApp:FrontPage.obj
 0001:00001064       GetOptionalStringByIndex   0000000000012064 f   UiApp:FrontPage.obj
 0001:0000114c       UpdateFrontPageBannerStrings 000000000001214c f   UiApp:FrontPage.obj
 0001:000017d0       UiSetConsoleMode           00000000000127d0 f   UiApp:FrontPage.obj
 0001:000020a8       InitializeUserInterface    00000000000130a8 f   UiApp:FrontPage.obj
 0001:0000229c       UiEntry                    000000000001329c f   UiApp:FrontPage.obj
 0001:000023cc       EnableResetRequired        00000000000133cc f   UiApp:FrontPage.obj
 0001:000023d4       IsResetRequired            00000000000133d4 f   UiApp:FrontPage.obj
 0001:000023dc       SetupResetReminder         00000000000133dc f   UiApp:FrontPage.obj
 0001:000024f8       InitializeStringSupport    00000000000134f8 f   UiApp:String.obj
 0001:0000255c       UninitializeStringSupport  000000000001355c f   UiApp:String.obj
 0001:00002574       GetStringById              0000000000013574 f   UiApp:String.obj
 0001:00002598       ExportFonts                0000000000013598 f   UiApp:String.obj
 0001:000025c0       UiCustomizeFrontPage       00000000000135c0 f   UiApp:FrontPageCustomizedUi.obj
 0001:00002638       UiFrontPageCallbackHandler 0000000000013638 f   UiApp:FrontPageCustomizedUi.obj
 0001:000026ac       UiCustomizeFrontPageBanner 00000000000136ac f   UiApp:FrontPageCustomizedUi.obj
 0001:00002718       GetNextLanguage            0000000000013718 f   UiApp:FrontPageCustomizedUiSupport.obj
 0001:0000287c       LanguageChangeHandler      000000000001387c f   UiApp:FrontPageCustomizedUiSupport.obj
 0001:000029e4       UiSupportLibCallbackHandler 00000000000139e4 f   UiApp:FrontPageCustomizedUiSupport.obj
 0001:00002b48       UiCreateLanguageMenu       0000000000013b48 f   UiApp:FrontPageCustomizedUiSupport.obj
 0001:0000321c       UiCreateContinueMenu       000000000001421c f   UiApp:FrontPageCustomizedUiSupport.obj
 0001:00003254       UiCreateEmptyLine          0000000000014254 f   UiApp:FrontPageCustomizedUiSupport.obj
 0001:00003280       UiCreateResetMenu          0000000000014280 f   UiApp:FrontPageCustomizedUiSupport.obj
 0001:000032b8       ExtractDevicePathFromHiiHandle 00000000000142b8 f   UiApp:FrontPageCustomizedUiSupport.obj
 0001:00003350       RequiredDriver             0000000000014350 f   UiApp:FrontPageCustomizedUiSupport.obj
 0001:00003350       IsRequiredDriver           0000000000014350 f   BootMaintenanceManagerUiLib:BootMaintenanceManagerCustomizedUiSupport.obj
 0001:000034d8       UiListThirdPartyDrivers    00000000000144d8 f   UiApp:FrontPageCustomizedUiSupport.obj
 0001:000039ec       GetPcdProtocol             00000000000149ec f   DxePcdLib:DxePcdLib.obj
 0001:00003adc       LibPcdGet16                0000000000014adc f   DxePcdLib:DxePcdLib.obj
 0001:00003af8       LibPcdGetBool              0000000000014af8 f   DxePcdLib:DxePcdLib.obj
 0001:00003b14       LibPcdSet32S               0000000000014b14 f   DxePcdLib:DxePcdLib.obj
 0001:00003b3c       UnicodeVSPrint             0000000000014b3c f   BasePrintLib:PrintLib.obj
 0001:00003bfc       UnicodeSPrint              0000000000014bfc f   BasePrintLib:PrintLib.obj
 0001:00003c50       UnicodeValueToStringS      0000000000014c50 f   BasePrintLib:PrintLib.obj
 0001:00003cd4       SPrintLength               0000000000014cd4 f   BasePrintLib:PrintLib.obj
 0001:00003d48       BasePrintLibFillBuffer     0000000000014d48 f   BasePrintLib:PrintLibInternal.obj
 0001:00003dd4       BasePrintLibValueToString  0000000000014dd4 f   BasePrintLib:PrintLibInternal.obj
 0001:00003e3c       BasePrintLibConvertValueToStringS 0000000000014e3c f   BasePrintLib:PrintLibInternal.obj
 0001:00004590       BasePrintLibSPrintMarker   0000000000015590 f   BasePrintLib:PrintLibInternal.obj
 0001:000066ac       BasePrintLibSPrint         00000000000176ac f   BasePrintLib:PrintLibInternal.obj
 0001:00006714       DebugPrint                 0000000000017714 f   PeiDxeDebugLibReportStatusCode:DebugLib.obj
 0001:00006758       DebugPrintMarker           0000000000017758 f   PeiDxeDebugLibReportStatusCode:DebugLib.obj
 0001:00006f00       DebugVPrint                0000000000017f00 f   PeiDxeDebugLibReportStatusCode:DebugLib.obj
 0001:00006f30       DebugAssert                0000000000017f30 f   PeiDxeDebugLibReportStatusCode:DebugLib.obj
 0001:000072cc       DebugAssertEnabled         00000000000182cc f   PeiDxeDebugLibReportStatusCode:DebugLib.obj
 0001:000072f0       DebugPrintEnabled          00000000000182f0 f   PeiDxeDebugLibReportStatusCode:DebugLib.obj
 0001:00007314       DebugCodeEnabled           0000000000018314 f   PeiDxeDebugLibReportStatusCode:DebugLib.obj
 0001:00007338       DebugPrintLevelEnabled     0000000000018338 f   PeiDxeDebugLibReportStatusCode:DebugLib.obj
 0001:0000736c       CopyMem                    000000000001836c f   BaseMemoryLib:CopyMemWrapper.obj
 0001:00007444       CopyGuid                   0000000000018444 f   BaseMemoryLib:MemLibGuid.obj
 0001:00007498       CompareGuid                0000000000018498 f   BaseMemoryLib:MemLibGuid.obj
 0001:00007520       IsZeroGuid                 0000000000018520 f   BaseMemoryLib:MemLibGuid.obj
 0001:00007574       SetMem                     0000000000018574 f   BaseMemoryLib:SetMemWrapper.obj
 0001:000075f4       InternalMemCopyMem         00000000000185f4 f   BaseMemoryLib:CopyMem.obj
 0001:00007bd0       InternalMemSetMem          0000000000018bd0 f   BaseMemoryLib:SetMem.obj
 0001:00007d64       InternalAllocateAlignedPages 0000000000018d64 f   UefiMemoryAllocationLib:MemoryAllocationLib.obj
 0001:000080cc       AllocateAlignedReservedPages 00000000000190cc f   UefiMemoryAllocationLib:MemoryAllocationLib.obj
 0001:000080f0       FreeAlignedPages           00000000000190f0 f   UefiMemoryAllocationLib:MemoryAllocationLib.obj
 0001:000081c8       InternalAllocatePool       00000000000191c8 f   UefiMemoryAllocationLib:MemoryAllocationLib.obj
 0001:00008218       AllocatePool               0000000000019218 f   UefiMemoryAllocationLib:MemoryAllocationLib.obj
 0001:00008238       InternalAllocateZeroPool   0000000000019238 f   UefiMemoryAllocationLib:MemoryAllocationLib.obj
 0001:00008280       AllocateZeroPool           0000000000019280 f   UefiMemoryAllocationLib:MemoryAllocationLib.obj
 0001:000082a0       InternalAllocateCopyPool   00000000000192a0 f   UefiMemoryAllocationLib:MemoryAllocationLib.obj
 0001:00008364       AllocateCopyPool           0000000000019364 f   UefiMemoryAllocationLib:MemoryAllocationLib.obj
 0001:0000838c       InternalReallocatePool     000000000001938c f   UefiMemoryAllocationLib:MemoryAllocationLib.obj
 0001:00008410       ReallocatePool             0000000000019410 f   UefiMemoryAllocationLib:MemoryAllocationLib.obj
 0001:00008444       FreePool                   0000000000019444 f   UefiMemoryAllocationLib:MemoryAllocationLib.obj
 0001:000084e0       InternalGetReportStatusCode 00000000000194e0 f   DxeReportStatusCodeLib:ReportStatusCodeLib.obj
 0001:00008550       InternalReportStatusCode   0000000000019550 f   DxeReportStatusCodeLib:ReportStatusCodeLib.obj
 0001:00008608       ReportStatusCode           0000000000019608 f   DxeReportStatusCodeLib:ReportStatusCodeLib.obj
 0001:0000863c       ReportStatusCodeEx         000000000001963c f   DxeReportStatusCodeLib:ReportStatusCodeLib.obj
 0001:000088b8       ReportProgressCodeEnabled  00000000000198b8 f   DxeReportStatusCodeLib:ReportStatusCodeLib.obj
 0001:000088dc       ReportErrorCodeEnabled     00000000000198dc f   DxeReportStatusCodeLib:ReportStatusCodeLib.obj
 0001:00008900       ReportDebugCodeEnabled     0000000000019900 f   DxeReportStatusCodeLib:ReportStatusCodeLib.obj
 0001:00008924       InternalSafeStringIsOverlap 0000000000019924 f   BaseLib:SafeString.obj
 0001:00008988       InternalSafeStringNoStrOverlap 0000000000019988 f   BaseLib:SafeString.obj
 0001:000089e8       InternalSafeStringNoAsciiStrOverlap 00000000000199e8 f   BaseLib:SafeString.obj
 0001:00008a3c       StrnLenS                   0000000000019a3c f   BaseLib:SafeString.obj
 0001:00008ae0       StrnSizeS                  0000000000019ae0 f   BaseLib:SafeString.obj
 0001:00008b14       StrCpyS                    0000000000019b14 f   BaseLib:SafeString.obj
 0001:00008f84       StrnCpyS                   0000000000019f84 f   BaseLib:SafeString.obj
 0001:000094e8       StrCatS                    000000000001a4e8 f   BaseLib:SafeString.obj
 0001:00009a38       StrnCatS                   000000000001aa38 f   BaseLib:SafeString.obj
 0001:0000a094       AsciiStrnLenS              000000000001b094 f   BaseLib:SafeString.obj
 0001:0000a100       AsciiStrnCpyS              000000000001b100 f   BaseLib:SafeString.obj
 0001:0000a5f0       AsciiStrToUnicodeStrS      000000000001b5f0 f   BaseLib:SafeString.obj
 0001:0000aacc       StrLen                     000000000001bacc f   BaseLib:String.obj
 0001:0000abc0       StrSize                    000000000001bbc0 f   BaseLib:String.obj
 0001:0000abe0       StrCmp                     000000000001bbe0 f   BaseLib:String.obj
 0001:0000acb8       StrnCmp                    000000000001bcb8 f   BaseLib:String.obj
 0001:0000ae04       StrStr                     000000000001be04 f   BaseLib:String.obj
 0001:0000af3c       AsciiStrLen                000000000001bf3c f   BaseLib:String.obj
 0001:0000aff4       AsciiStrSize               000000000001bff4 f   BaseLib:String.obj
 0001:0000b010       AsciiStrCmp                000000000001c010 f   BaseLib:String.obj
 0001:0000b0e8       AsciiStrnCmp               000000000001c0e8 f   BaseLib:String.obj
 0001:0000b234       RShiftU64                  000000000001c234 f   BaseLib:RShiftU64.obj
 0001:0000b288       ReadUnaligned16            000000000001c288 f   BaseLib:Unaligned.obj
 0001:0000b2d0       WriteUnaligned16           000000000001c2d0 f   BaseLib:Unaligned.obj
 0001:0000b328       ReadUnaligned32            000000000001c328 f   BaseLib:Unaligned.obj
 0001:0000b370       WriteUnaligned32           000000000001c370 f   BaseLib:Unaligned.obj
 0001:0000b3c4       ReadUnaligned64            000000000001c3c4 f   BaseLib:Unaligned.obj
 0001:0000b40c       WriteUnaligned64           000000000001c40c f   BaseLib:Unaligned.obj
 0001:0000b464       DivU64x32Remainder         000000000001c464 f   BaseLib:DivU64x32Remainder.obj
 0001:0000b4c0       CpuBreakpoint              000000000001c4c0 f   BaseLib:CpuBreakpoint.obj
 0001:0000b4c4       CpuDeadLoop                000000000001c4c4 f   BaseLib:CpuDeadLoop.obj
 0001:0000b4f4       LShiftU64                  000000000001c4f4 f   BaseLib:LShiftU64.obj
 0001:0000b548       MultU64x32                 000000000001c548 f   BaseLib:MultU64x32.obj
 0001:0000b574       InternalMathLShiftU64      000000000001c574 f   BaseLib:Math64.obj
 0001:0000b590       InternalMathRShiftU64      000000000001c590 f   BaseLib:Math64.obj
 0001:0000b5ac       InternalMathMultU64x32     000000000001c5ac f   BaseLib:Math64.obj
 0001:0000b5c8       InternalMathDivRemU64x32   000000000001c5c8 f   BaseLib:Math64.obj
 0001:0000b620       GetDevicePathSize          000000000001c620 f   UefiDevicePathLib:UefiDevicePathLib.obj
 0001:0000b638       DuplicateDevicePath        000000000001c638 f   UefiDevicePathLib:UefiDevicePathLib.obj
 0001:0000b650       AppendDevicePath           000000000001c650 f   UefiDevicePathLib:UefiDevicePathLib.obj
 0001:0000b674       AppendDevicePathNode       000000000001c674 f   UefiDevicePathLib:UefiDevicePathLib.obj
 0001:0000b698       AppendDevicePathInstance   000000000001c698 f   UefiDevicePathLib:UefiDevicePathLib.obj
 0001:0000b6bc       GetNextDevicePathInstance  000000000001c6bc f   UefiDevicePathLib:UefiDevicePathLib.obj
 0001:0000b6e0       CreateDeviceNode           000000000001c6e0 f   UefiDevicePathLib:UefiDevicePathLib.obj
 0001:0000b70c       ConvertDevicePathToText    000000000001c70c f   UefiDevicePathLib:UefiDevicePathLib.obj
 0001:0000b738       DevicePathFromHandle       000000000001c738 f   UefiDevicePathLib:DevicePathUtilitiesDxeSmm.obj
 0001:0000b788       IsDevicePathValid          000000000001c788 f   UefiDevicePathLib:DevicePathUtilities.obj
 0001:0000b8f4       DevicePathType             000000000001c8f4 f   UefiDevicePathLib:DevicePathUtilities.obj
 0001:0000b93c       DevicePathSubType          000000000001c93c f   UefiDevicePathLib:DevicePathUtilities.obj
 0001:0000b984       DevicePathNodeLength       000000000001c984 f   UefiDevicePathLib:DevicePathUtilities.obj
 0001:0000b9e4       NextDevicePathNode         000000000001c9e4 f   UefiDevicePathLib:DevicePathUtilities.obj
 0001:0000ba3c       IsDevicePathEndType        000000000001ca3c f   UefiDevicePathLib:DevicePathUtilities.obj
 0001:0000baa0       IsDevicePathEnd            000000000001caa0 f   UefiDevicePathLib:DevicePathUtilities.obj
 0001:0000bb18       SetDevicePathNodeLength    000000000001cb18 f   UefiDevicePathLib:DevicePathUtilities.obj
 0001:0000bbbc       SetDevicePathEndNode       000000000001cbbc f   UefiDevicePathLib:DevicePathUtilities.obj
 0001:0000bc14       UefiDevicePathLibGetDevicePathSize 000000000001cc14 f   UefiDevicePathLib:DevicePathUtilities.obj
 0001:0000bc9c       UefiDevicePathLibDuplicateDevicePath 000000000001cc9c f   UefiDevicePathLib:DevicePathUtilities.obj
 0001:0000bcd4       UefiDevicePathLibAppendDevicePath 000000000001ccd4 f   UefiDevicePathLib:DevicePathUtilities.obj
 0001:0000bdf4       UefiDevicePathLibAppendDevicePathNode 000000000001cdf4 f   UefiDevicePathLib:DevicePathUtilities.obj
 0001:0000bec4       UefiDevicePathLibAppendDevicePathInstance 000000000001cec4 f   UefiDevicePathLib:DevicePathUtilities.obj
 0001:0000bfdc       UefiDevicePathLibGetNextDevicePathInstance 000000000001cfdc f   UefiDevicePathLib:DevicePathUtilities.obj
 0001:0000c120       UefiDevicePathLibCreateDeviceNode 000000000001d120 f   UefiDevicePathLib:DevicePathUtilities.obj
 0001:0000c18c       FileDevicePath             000000000001d18c f   UefiDevicePathLib:DevicePathUtilities.obj
 0001:0000c274       UefiDevicePathLibCatPrint  000000000001d274 f   UefiDevicePathLib:DevicePathToText.obj
 0001:0000c3d4       DevPathToTextPci           000000000001d3d4 f   UefiDevicePathLib:DevicePathToText.obj
 0001:0000c424       DevPathToTextPccard        000000000001d424 f   UefiDevicePathLib:DevicePathToText.obj
 0001:0000c468       DevPathToTextMemMap        000000000001d468 f   UefiDevicePathLib:DevicePathToText.obj
 0001:0000c4c0       DevPathToTextVendor        000000000001d4c0 f   UefiDevicePathLib:DevicePathToText.obj
 0001:0000c9e0       DevPathToTextController    000000000001d9e0 f   UefiDevicePathLib:DevicePathToText.obj
 0001:0000ca24       DevPathToTextBmc           000000000001da24 f   UefiDevicePathLib:DevicePathToText.obj
 0001:0000ca7c       DevPathToTextAcpi          000000000001da7c f   UefiDevicePathLib:DevicePathToText.obj
 0001:0000cc14       DevPathToTextAcpiEx        000000000001dc14 f   UefiDevicePathLib:DevicePathToText.obj
 0001:0000d1f8       DevPathToTextAcpiAdr       000000000001e1f8 f   UefiDevicePathLib:DevicePathToText.obj
 0001:0000d2bc       DevPathToTextAtapi         000000000001e2bc f   UefiDevicePathLib:DevicePathToText.obj
 0001:0000d384       DevPathToTextScsi          000000000001e384 f   UefiDevicePathLib:DevicePathToText.obj
 0001:0000d3d4       DevPathToTextFibre         000000000001e3d4 f   UefiDevicePathLib:DevicePathToText.obj
 0001:0000d420       DevPathToTextFibreEx       000000000001e420 f   UefiDevicePathLib:DevicePathToText.obj
 0001:0000d510       DevPathToTextSasEx         000000000001e510 f   UefiDevicePathLib:DevicePathToText.obj
 0001:0000d78c       DevPathToTextNVMe          000000000001e78c f   UefiDevicePathLib:DevicePathToText.obj
 0001:0000d8a4       DevPathToTextUfs           000000000001e8a4 f   UefiDevicePathLib:DevicePathToText.obj
 0001:0000d8f4       DevPathToTextSd            000000000001e8f4 f   UefiDevicePathLib:DevicePathToText.obj
 0001:0000d938       DevPathToTextEmmc          000000000001e938 f   UefiDevicePathLib:DevicePathToText.obj
 0001:0000d97c       DevPathToText1394          000000000001e97c f   UefiDevicePathLib:DevicePathToText.obj
 0001:0000d9c0       DevPathToTextUsb           000000000001e9c0 f   UefiDevicePathLib:DevicePathToText.obj
 0001:0000da10       DevPathToTextUsbWWID       000000000001ea10 f   UefiDevicePathLib:DevicePathToText.obj
 0001:0000db48       DevPathToTextLogicalUnit   000000000001eb48 f   UefiDevicePathLib:DevicePathToText.obj
 0001:0000db8c       DevPathToTextUsbClass      000000000001eb8c f   UefiDevicePathLib:DevicePathToText.obj
 0001:0000def4       DevPathToTextSata          000000000001eef4 f   UefiDevicePathLib:DevicePathToText.obj
 0001:0000df54       DevPathToTextI2O           000000000001ef54 f   UefiDevicePathLib:DevicePathToText.obj
 0001:0000df98       DevPathToTextMacAddr       000000000001ef98 f   UefiDevicePathLib:DevicePathToText.obj
 0001:0000e068       CatNetworkProtocol         000000000001f068 f   UefiDevicePathLib:DevicePathToText.obj
 0001:0000e0d0       CatIPv4Address             000000000001f0d0 f   UefiDevicePathLib:DevicePathToText.obj
 0001:0000e14c       CatIPv6Address             000000000001f14c f   UefiDevicePathLib:DevicePathToText.obj
 0001:0000e364       DevPathToTextIPv4          000000000001f364 f   UefiDevicePathLib:DevicePathToText.obj
 0001:0000e4b8       DevPathToTextIPv6          000000000001f4b8 f   UefiDevicePathLib:DevicePathToText.obj
 0001:0000e608       DevPathToTextInfiniBand    000000000001f608 f   UefiDevicePathLib:DevicePathToText.obj
 0001:0000e680       DevPathToTextUart          000000000001f680 f   UefiDevicePathLib:DevicePathToText.obj
 0001:0000e824       DevPathToTextiSCSI         000000000001f824 f   UefiDevicePathLib:DevicePathToText.obj
 0001:0000e9f0       DevPathToTextVlan          000000000001f9f0 f   UefiDevicePathLib:DevicePathToText.obj
 0001:0000ea34       DevPathToTextBluetooth     000000000001fa34 f   UefiDevicePathLib:DevicePathToText.obj
 0001:0000eafc       DevPathToTextWiFi          000000000001fafc f   UefiDevicePathLib:DevicePathToText.obj
 0001:0000eb98       DevPathToTextBluetoothLE   000000000001fb98 f   UefiDevicePathLib:DevicePathToText.obj
 0001:0000ec74       DevPathToTextDns           000000000001fc74 f   UefiDevicePathLib:DevicePathToText.obj
 0001:0000ed68       DevPathToTextUri           000000000001fd68 f   UefiDevicePathLib:DevicePathToText.obj
 0001:0000ee44       DevPathToTextHardDrive     000000000001fe44 f   UefiDevicePathLib:DevicePathToText.obj
 0001:0000ef60       DevPathToTextCDROM         000000000001ff60 f   UefiDevicePathLib:DevicePathToText.obj
 0001:0000efe0       DevPathToTextFilePath      000000000001ffe0 f   UefiDevicePathLib:DevicePathToText.obj
 0001:0000f024       DevPathToTextMediaProtocol 0000000000020024 f   UefiDevicePathLib:DevicePathToText.obj
 0001:0000f068       DevPathToTextFv            0000000000020068 f   UefiDevicePathLib:DevicePathToText.obj
 0001:0000f0ac       DevPathToTextFvFile        00000000000200ac f   UefiDevicePathLib:DevicePathToText.obj
 0001:0000f0f0       DevPathRelativeOffsetRange 00000000000200f0 f   UefiDevicePathLib:DevicePathToText.obj
 0001:0000f13c       DevPathToTextRamDisk       000000000002013c f   UefiDevicePathLib:DevicePathToText.obj
 0001:0000f540       DevPathToTextBBS           0000000000020540 f   UefiDevicePathLib:DevicePathToText.obj
 0001:0000f68c       DevPathToTextEndInstance   000000000002068c f   UefiDevicePathLib:DevicePathToText.obj
 0001:0000f6bc       DevPathToTextNodeGeneric   00000000000206bc f   UefiDevicePathLib:DevicePathToText.obj
 0001:0000f840       UefiDevicePathLibConvertDevicePathToText 0000000000020840 f   UefiDevicePathLib:DevicePathToText.obj
 0001:0000f9dc       UefiBootServicesTableLibConstructor 00000000000209dc f   UefiBootServicesTableLib:UefiBootServicesTableLib.obj
 0001:0000fab8       UefiRuntimeServicesTableLibConstructor 0000000000020ab8 f   UefiRuntimeServicesTableLib:UefiRuntimeServicesTableLib.obj
 0001:0000fb14       UefiLibConstructor         0000000000020b14 f   UefiLib:UefiLib.obj
 0001:0000fb24       EfiGetSystemConfigurationTable 0000000000020b24 f   UefiLib:UefiLib.obj
 0001:0000fc30       EfiEventEmptyFunction      0000000000020c30 f   UefiLib:UefiLib.obj
 0001:0000fc3c       EfiGetCurrentTpl           0000000000020c3c f   UefiLib:UefiLib.obj
 0001:0000fc70       EfiAcquireLock             0000000000020c70 f   UefiLib:UefiLib.obj
 0001:0000fd0c       EfiReleaseLock             0000000000020d0c f   UefiLib:UefiLib.obj
 0001:0000fdac       GetVariable2               0000000000020dac f   UefiLib:UefiLib.obj
 0001:0000ff50       GetEfiGlobalVariable2      0000000000020f50 f   UefiLib:UefiLib.obj
 0001:0000ff84       GetBestLanguage            0000000000020f84 f   UefiLib:UefiLib.obj
 0001:0001022c       UefiLibGetStringWidth      000000000002122c f   UefiLib:Console.obj
 0001:00010378       CreatePopUp                0000000000021378 f   UefiLib:Console.obj
 0001:00010b18       GetHobList                 0000000000021b18 f   DxeHobLib:HobLib.obj
 0001:00010bfc       HobLibConstructor          0000000000021bfc f   DxeHobLib:HobLib.obj
 0001:00010c18       GetNextHob                 0000000000021c18 f   DxeHobLib:HobLib.obj
 0001:00010cac       GetNextGuidHob             0000000000021cac f   DxeHobLib:HobLib.obj
 0001:00010d24       GetFirstGuidHob            0000000000021d24 f   DxeHobLib:HobLib.obj
 0001:00010d4c       GetBootModeHob             0000000000021d4c f   DxeHobLib:HobLib.obj
 0001:00010d68       UefiHiiServicesLibConstructor 0000000000021d68 f   UefiHiiServicesLib:UefiHiiServicesLib.obj
 0001:00010f8c       DxeServicesTableLibConstructor 0000000000021f8c f   DxeServicesTableLib:DxeServicesTableLib.obj
 0001:0001106c       HiiSetString               000000000002206c f   UefiHiiLib:HiiString.obj
 0001:000112b8       HiiGetString               00000000000222b8 f   UefiHiiLib:HiiString.obj
 0001:000112e8       HiiGetStringEx             00000000000222e8 f   UefiHiiLib:HiiString.obj
 0001:000115d8       InternalHiiExtractGuidFromHiiHandle 00000000000225d8 f   UefiHiiLib:HiiLib.obj
 0001:00011778       HiiAddPackages             0000000000022778 f   UefiHiiLib:HiiLib.obj
 0001:00011970       HiiRemovePackages          0000000000022970 f   UefiHiiLib:HiiLib.obj
 0001:00011a48       HiiGetHiiHandles           0000000000022a48 f   UefiHiiLib:HiiLib.obj
 0001:00011c94       HiiGetFormSetFromHiiHandle 0000000000022c94 f   UefiHiiLib:HiiLib.obj
 0001:00012034       InternalHiiLowerConfigString 0000000000023034 f   UefiHiiLib:HiiLib.obj
 0001:00012104       InternalHiiBlockToConfig   0000000000023104 f   UefiHiiLib:HiiLib.obj
 0001:000121d4       InternalHiiBrowserCallback 00000000000231d4 f   UefiHiiLib:HiiLib.obj
 0001:00012358       HiiConstructConfigHdr      0000000000023358 f   UefiHiiLib:HiiLib.obj
 0001:0001273c       InternalHiiCompareSubString 000000000002373c f   UefiHiiLib:HiiLib.obj
 0001:00012914       HiiIsConfigHdrMatch        0000000000023914 f   UefiHiiLib:HiiLib.obj
 0001:000129f0       HiiGetBrowserData          00000000000239f0 f   UefiHiiLib:HiiLib.obj
 0001:00012b04       HiiSetBrowserData          0000000000023b04 f   UefiHiiLib:HiiLib.obj
 0001:00012cb0       HiiAllocateOpCodeHandle    0000000000023cb0 f   UefiHiiLib:HiiLib.obj
 0001:00012d20       HiiFreeOpCodeHandle        0000000000023d20 f   UefiHiiLib:HiiLib.obj
 0001:00012d8c       InternalHiiOpCodeHandlePosition 0000000000023d8c f   UefiHiiLib:HiiLib.obj
 0001:00012d9c       InternalHiiOpCodeHandleBuffer 0000000000023d9c f   UefiHiiLib:HiiLib.obj
 0001:00012dac       InternalHiiGrowOpCodeHandle 0000000000023dac f   UefiHiiLib:HiiLib.obj
 0001:00012edc       InternalHiiCreateOpCodeExtended 0000000000023edc f   UefiHiiLib:HiiLib.obj
 0001:00012ffc       InternalHiiCreateOpCode    0000000000023ffc f   UefiHiiLib:HiiLib.obj
 0001:00013040       HiiCreateRawOpCodes        0000000000024040 f   UefiHiiLib:HiiLib.obj
 0001:000130b4       InternalHiiAppendOpCodes   00000000000240b4 f   UefiHiiLib:HiiLib.obj
 0001:00013120       HiiCreateEndOpCode         0000000000024120 f   UefiHiiLib:HiiLib.obj
 0001:00013148       HiiCreateOneOfOptionOpCode 0000000000024148 f   UefiHiiLib:HiiLib.obj
 0001:00013230       HiiCreateGuidOpCode        0000000000024230 f   UefiHiiLib:HiiLib.obj
 0001:00013374       HiiCreateActionOpCode      0000000000024374 f   UefiHiiLib:HiiLib.obj
 0001:0001343c       HiiCreateSubTitleOpCode    000000000002443c f   UefiHiiLib:HiiLib.obj
 0001:00013518       HiiCreateGotoOpCode        0000000000024518 f   UefiHiiLib:HiiLib.obj
 0001:000135e0       HiiCreateGotoExOpCode      00000000000245e0 f   UefiHiiLib:HiiLib.obj
 0001:00013740       HiiCreateCheckBoxOpCode    0000000000024740 f   UefiHiiLib:HiiLib.obj
 0001:00013898       HiiCreateNumericOpCode     0000000000024898 f   UefiHiiLib:HiiLib.obj
 0001:00013b18       HiiCreateStringOpCode      0000000000024b18 f   UefiHiiLib:HiiLib.obj
 0001:00013c88       HiiCreateOneOfOpCode       0000000000024c88 f   UefiHiiLib:HiiLib.obj
 0001:00013e68       HiiCreateOrderedListOpCode 0000000000024e68 f   UefiHiiLib:HiiLib.obj
 0001:00013ff8       HiiCreateTextOpCode        0000000000024ff8 f   UefiHiiLib:HiiLib.obj
 0001:0001405c       InternalHiiUpdateFormPackageData 000000000002505c f   UefiHiiLib:HiiLib.obj
 0001:00014590       HiiUpdateForm              0000000000025590 f   UefiHiiLib:HiiLib.obj
 0001:00014994       HiiGetSupportedLanguages   0000000000025994 f   UefiHiiLib:HiiLanguage.obj
 0001:00014a7c       BmConnectAllDriversToAllControllers 0000000000025a7c f   UefiBootManagerLib:BmConnect.obj
 0001:00014b2c       EfiBootManagerConnectAll   0000000000025b2c f   UefiBootManagerLib:BmConnect.obj
 0001:00014b44       EfiBootManagerConnectDevicePath 0000000000025b44 f   UefiBootManagerLib:BmConnect.obj
 0001:00014cdc       BmConnectUsbShortFormDevicePath 0000000000025cdc f   UefiBootManagerLib:BmConnect.obj
 0001:00014ee8       BmEndOfBdsPerfCode         0000000000025ee8 f   UefiBootManagerLib:BmBoot.obj
 0001:00014f34       BmIsAutoCreateBootOption   0000000000025f34 f   UefiBootManagerLib:BmBoot.obj
 0001:00014f74       BmFindBootOptionInVariable 0000000000025f74 f   UefiBootManagerLib:BmBoot.obj
 0001:000151e4       BmAdjustFvFilePath         00000000000261e4 f   UefiBootManagerLib:BmBoot.obj
 0001:000153c4       BmIsFvFilePath             00000000000263c4 f   UefiBootManagerLib:BmBoot.obj
 0001:00015484       BmMatchUsbClass            0000000000026484 f   UefiBootManagerLib:BmBoot.obj
 0001:0001563c       BmMatchUsbWwid             000000000002663c f   UefiBootManagerLib:BmBoot.obj
 0001:00015920       BmFindUsbDevice            0000000000026920 f   UefiBootManagerLib:BmBoot.obj
 0001:00015b50       BmExpandUsbDevicePath      0000000000026b50 f   UefiBootManagerLib:BmBoot.obj
 0001:00015cc0       BmExpandFileDevicePath     0000000000026cc0 f   UefiBootManagerLib:BmBoot.obj
 0001:00015eec       BmExpandUriDevicePath      0000000000026eec f   UefiBootManagerLib:BmBoot.obj
 0001:00016070       BmCachePartitionDevicePath 0000000000027070 f   UefiBootManagerLib:BmBoot.obj
 0001:000161a4       BmExpandPartitionDevicePath 00000000000271a4 f   UefiBootManagerLib:BmBoot.obj
 0001:000165d8       BmExpandMediaDevicePath    00000000000275d8 f   UefiBootManagerLib:BmBoot.obj
 0001:000169fc       BmMatchHttpBootDevicePath  00000000000279fc f   UefiBootManagerLib:BmBoot.obj
 0001:00016b94       BmExpandNetworkFileSystem  0000000000027b94 f   UefiBootManagerLib:BmBoot.obj
 0001:00016d18       BmGetRamDiskDevicePath     0000000000027d18 f   UefiBootManagerLib:BmBoot.obj
 0001:00016e0c       BmGetRamDiskMemoryInfo     0000000000027e0c f   UefiBootManagerLib:BmBoot.obj
 0001:00016fd0       BmDestroyRamDisk           0000000000027fd0 f   UefiBootManagerLib:BmBoot.obj
 0001:0001716c       BmExpandLoadFile           000000000002816c f   UefiBootManagerLib:BmBoot.obj
 0001:000174dc       BmExpandLoadFiles          00000000000284dc f   UefiBootManagerLib:BmBoot.obj
 0001:00017724       BmGetNextLoadOptionDevicePath 0000000000028724 f   UefiBootManagerLib:BmBoot.obj
 0001:00017a28       BmIsBootManagerMenuFilePath 0000000000028a28 f   UefiBootManagerLib:BmBoot.obj
 0001:00017a98       BmReportLoadFailure        0000000000028a98 f   UefiBootManagerLib:BmBoot.obj
 0001:00017c60       EfiBootManagerBoot         0000000000028c60 f   UefiBootManagerLib:BmBoot.obj
 0001:000187e4       BmMatchPartitionDevicePathNode 00000000000297e4 f   UefiBootManagerLib:BmBoot.obj
 0001:000188d4       BmEnumerateBootOptions     00000000000298d4 f   UefiBootManagerLib:BmBoot.obj
 0001:00019070       EfiBootManagerRefreshAllBootOption 000000000002a070 f   UefiBootManagerLib:BmBoot.obj
 0001:00019370       BmUpdateSystemTableConsole 000000000002a370 f   UefiBootManagerLib:BmConsole.obj
 0001:00019664       EfiBootManagerUpdateConsoleVariable 000000000002a664 f   UefiBootManagerLib:BmConsole.obj
 0001:00019840       EfiBootManagerConnectConsoleVariable 000000000002a840 f   UefiBootManagerLib:BmConsole.obj
 0001:00019b14       EfiBootManagerConnectAllDefaultConsoles 000000000002ab14 f   UefiBootManagerLib:BmConsole.obj
 0001:00019d64       BmForEachVariable          000000000002ad64 f   UefiBootManagerLib:BmLoadOption.obj
 0001:00019f48       BmGetFreeOptionNumber      000000000002af48 f   UefiBootManagerLib:BmLoadOption.obj
 0001:0001a1a4       EfiBootManagerLoadOptionToVariable 000000000002b1a4 f   UefiBootManagerLib:BmLoadOption.obj
 0001:0001a554       BmAddOptionNumberToOrderVariable 000000000002b554 f   UefiBootManagerLib:BmLoadOption.obj
 0001:0001a7c4       EfiBootManagerAddLoadOptionVariable 000000000002b7c4 f   UefiBootManagerLib:BmLoadOption.obj
 0001:0001a8fc       EfiBootManagerInitializeLoadOption 000000000002b8fc f   UefiBootManagerLib:BmLoadOption.obj
 0001:0001aa1c       EfiBootManagerFindLoadOption 000000000002ba1c f   UefiBootManagerLib:BmLoadOption.obj
 0001:0001ab4c       EfiBootManagerDeleteLoadOptionVariable 000000000002bb4c f   UefiBootManagerLib:BmLoadOption.obj
 0001:0001ad8c       BmGetDevicePathSizeEx      000000000002bd8c f   UefiBootManagerLib:BmLoadOption.obj
 0001:0001ae48       BmStrSizeEx                000000000002be48 f   UefiBootManagerLib:BmLoadOption.obj
 0001:0001af34       BmValidateOption           000000000002bf34 f   UefiBootManagerLib:BmLoadOption.obj
 0001:0001b010       EfiBootManagerIsValidLoadOptionVariableName 000000000002c010 f   UefiBootManagerLib:BmLoadOption.obj
 0001:0001b188       EfiBootManagerVariableToLoadOptionEx 000000000002c188 f   UefiBootManagerLib:BmLoadOption.obj
 0001:0001b418       EfiBootManagerVariableToLoadOption 000000000002c418 f   UefiBootManagerLib:BmLoadOption.obj
 0001:0001b444       BmCollectLoadOptions       000000000002c444 f   UefiBootManagerLib:BmLoadOption.obj
 0001:0001b65c       EfiBootManagerGetLoadOptions 000000000002c65c f   UefiBootManagerLib:BmLoadOption.obj
 0001:0001b9b8       EfiBootManagerFreeLoadOption 000000000002c9b8 f   UefiBootManagerLib:BmLoadOption.obj
 0001:0001ba2c       EfiBootManagerFreeLoadOptions 000000000002ca2c f   UefiBootManagerLib:BmLoadOption.obj
 0001:0001baa0       BmIsLoadOptionPeHeaderValid 000000000002caa0 f   UefiBootManagerLib:BmLoadOption.obj
 0001:0001bbe4       BmGetNextLoadOptionBuffer  000000000002cbe4 f   UefiBootManagerLib:BmLoadOption.obj
 0001:0001bdf0       BmDevicePathType           000000000002cdf0 f   UefiBootManagerLib:BmBootDescription.obj
 0001:0001bf74       BmEliminateExtraSpaces     000000000002cf74 f   UefiBootManagerLib:BmBootDescription.obj
 0001:0001c01c       BmSwapBytes                000000000002d01c f   UefiBootManagerLib:BmBootDescription.obj
 0001:0001c0c0       BmGetSdMmcManufacturerName 000000000002d0c0 f   UefiBootManagerLib:BmBootDescription.obj
 0001:0001c178       BmGetEmmcTypeDescription   000000000002d178 f   UefiBootManagerLib:BmBootDescription.obj
 0001:0001c204       BmGetSdMmcDescription      000000000002d204 f   UefiBootManagerLib:BmBootDescription.obj
 0001:0001c34c       BmGetDescriptionFromDiskInfo 000000000002d34c f   UefiBootManagerLib:BmBootDescription.obj
 0001:0001c9bc       BmGetUsbDescription        000000000002d9bc f   UefiBootManagerLib:BmBootDescription.obj
 0001:0001cccc       BmGetNetworkDescription    000000000002dccc f   UefiBootManagerLib:BmBootDescription.obj
 0001:0001d148       BmGetLoadFileDescription   000000000002e148 f   UefiBootManagerLib:BmBootDescription.obj
 0001:0001d248       BmGetNvmeDescription       000000000002e248 f   UefiBootManagerLib:BmBootDescription.obj
 0001:0001d5c4       BmGetMiscDescription       000000000002e5c4 f   UefiBootManagerLib:BmBootDescription.obj
 0001:0001d80c       BmGetBootDescription       000000000002e80c f   UefiBootManagerLib:BmBootDescription.obj
 0001:0001da54       BmMakeBootOptionDescriptionUnique 000000000002ea54 f   UefiBootManagerLib:BmBootDescription.obj
 0001:0001dccc       BmHotkeyCallback           000000000002eccc f   UefiBootManagerLib:BmHotkey.obj
 0001:0001e0fc       BmGetActiveConsoleIn       000000000002f0fc f   UefiBootManagerLib:BmHotkey.obj
 0001:0001e1ec       BmUnregisterHotkeyNotify   000000000002f1ec f   UefiBootManagerLib:BmHotkey.obj
 0001:0001e3f4       BmStopHotkeyService        000000000002f3f4 f   UefiBootManagerLib:BmHotkey.obj
 0001:0001e538       BmDelPartMatchInstance     000000000002f538 f   UefiBootManagerLib:BmMisc.obj
 0001:0001e65c       BmMatchDevicePaths         000000000002f65c f   UefiBootManagerLib:BmMisc.obj
 0001:0001e65c       MatchDevicePaths           000000000002f65c f   BootMaintenanceManagerUiLib:ConsoleOption.obj
 0001:0001e6f4       BmSetMemoryTypeInformationVariable 000000000002f6f4 f   UefiBootManagerLib:BmMisc.obj
 0001:0001eba0       BmSetVariableAndReportStatusCodeOnError 000000000002fba0 f   UefiBootManagerLib:BmMisc.obj
 0001:0001ee2c       BmPrintDp                  000000000002fe2c f   UefiBootManagerLib:BmMisc.obj
 0001:0001eea0       BmCharToUint               000000000002fea0 f   UefiBootManagerLib:BmMisc.obj
 0001:0001eef0       BmGetControllerName        000000000002fef0 f   UefiBootManagerLib:BmDriverHealth.obj
 0001:0001f0f8       BmGetDriverName            00000000000300f8 f   UefiBootManagerLib:BmDriverHealth.obj
 0001:0001f2bc       BmDisplayMessages          00000000000302bc f   UefiBootManagerLib:BmDriverHealth.obj
 0001:0001f534       BmRepairNotify             0000000000030534 f   UefiBootManagerLib:BmDriverHealth.obj
 0001:0001f5a4       BmGetSingleControllerHealthStatus 00000000000305a4 f   UefiBootManagerLib:BmDriverHealth.obj
 0001:0001f978       EfiBootManagerGetDriverHealthInfo 0000000000030978 f   UefiBootManagerLib:BmDriverHealth.obj
 0001:0001fd10       EfiBootManagerFreeDriverHealthInfo 0000000000030d10 f   UefiBootManagerLib:BmDriverHealth.obj
 0001:0001fd80       BmRepairAllControllers     0000000000030d80 f   UefiBootManagerLib:BmDriverHealth.obj
 0001:000205e0       LibCallback                00000000000315e0 f   FileExplorerLib:FileExplorer.obj
 0001:000208d0       LibCreateMenuEntry         00000000000318d0 f   FileExplorerLib:FileExplorer.obj
 0001:00020934       LibGetMenuEntry            0000000000031934 f   FileExplorerLib:FileExplorer.obj
 0001:00020a44       LibDestroyMenuEntry        0000000000031a44 f   FileExplorerLib:FileExplorer.obj
 0001:00020b0c       LibFreeMenu                0000000000031b0c f   FileExplorerLib:FileExplorer.obj
 0001:00020bf0       LibOpenRoot                0000000000031bf0 f   FileExplorerLib:FileExplorer.obj
 0001:00020c80       LibDevicePathToStr         0000000000031c80 f   FileExplorerLib:FileExplorer.obj
 0001:00020d88       LibStrDuplicate            0000000000031d88 f   FileExplorerLib:FileExplorer.obj
 0001:00020e08       LibFileInfo                0000000000031e08 f   FileExplorerLib:FileExplorer.obj
 0001:00020ec8       LibGetTypeFromName         0000000000031ec8 f   FileExplorerLib:FileExplorer.obj
 0001:00020f40       LibToLowerString           0000000000031f40 f   FileExplorerLib:FileExplorer.obj
 0001:00020f9c       LibIsSupportedFileType     0000000000031f9c f   FileExplorerLib:FileExplorer.obj
 0001:00021070       LibAppendFileName          0000000000032070 f   FileExplorerLib:FileExplorer.obj
 0001:00021364       LibFindFileSystem          0000000000032364 f   FileExplorerLib:FileExplorer.obj
 0001:00021628       LibGetFileHandleFromMenu   0000000000032628 f   FileExplorerLib:FileExplorer.obj
 0001:000216c8       LibGetFileHandleFromDevicePath 00000000000326c8 f   FileExplorerLib:FileExplorer.obj
 0001:00021a28       LibCreateNewFile           0000000000032a28 f   FileExplorerLib:FileExplorer.obj
 0001:00021b88       LibFindFiles               0000000000032b88 f   FileExplorerLib:FileExplorer.obj
 0001:00021ec8       LibRefreshUpdateData       0000000000032ec8 f   FileExplorerLib:FileExplorer.obj
 0001:00021f94       LibUpdateFileExplorePage   0000000000032f94 f   FileExplorerLib:FileExplorer.obj
 0001:000221a8       LibUpdateFileExplorer      00000000000331a8 f   FileExplorerLib:FileExplorer.obj
 0001:000222a8       LibGetDevicePath           00000000000332a8 f   FileExplorerLib:FileExplorer.obj
 0001:00022324       ChooseFile                 0000000000033324 f   FileExplorerLib:FileExplorer.obj
 0001:00022530       FileExplorerLibConstructor 0000000000033530 f   FileExplorerLib:FileExplorer.obj
 0001:00022730       FileExplorerLibDestructor  0000000000033730 f   FileExplorerLib:FileExplorer.obj
 0001:00022868       DmExtractDevicePathFromHiiHandle 0000000000033868 f   DeviceManagerUiLib:DeviceManager.obj
 0001:00022900       GetMacAddressString        0000000000033900 f   DeviceManagerUiLib:DeviceManager.obj
 0001:00022c30       AddIdToMacDeviceList       0000000000033c30 f   DeviceManagerUiLib:DeviceManager.obj
 0001:00022df0       IsMacAddressDevicePath     0000000000033df0 f   DeviceManagerUiLib:DeviceManager.obj
 0001:00022f4c       IsNeedAddNetworkMenu       0000000000033f4c f   DeviceManagerUiLib:DeviceManager.obj
 0001:00023234       CreateDeviceManagerForm    0000000000034234 f   DeviceManagerUiLib:DeviceManager.obj
 0001:00023afc       DeviceManagerCallback      0000000000034afc f   DeviceManagerUiLib:DeviceManager.obj
 0001:00023c18       DeviceManagerUiLibConstructor 0000000000034c18 f   DeviceManagerUiLib:DeviceManager.obj
 0001:00023d60       DeviceManagerUiLibDestructor 0000000000034d60 f   DeviceManagerUiLib:DeviceManager.obj
 0001:00023e40       BmSetConsoleMode           0000000000034e40 f   BootManagerUiLib:BootManager.obj
 0001:00024718       BmSetupResetReminder       0000000000035718 f   BootManagerUiLib:BootManager.obj
 0001:0002486c       GroupMultipleLegacyBootOption4SameType 000000000003586c f   BootManagerUiLib:BootManager.obj
 0001:00024bd8       BmDevicePathToStr          0000000000035bd8 f   BootManagerUiLib:BootManager.obj
 0001:00024ce0       UpdateBootManager          0000000000035ce0 f   BootManagerUiLib:BootManager.obj
 0001:000252e8       BmInitialBootModeInfo      00000000000362e8 f   BootManagerUiLib:BootManager.obj
 0001:0002543c       BootManagerCallback        000000000003643c f   BootManagerUiLib:BootManager.obj
 0001:000255bc       BootManagerUiLibConstructor 00000000000365bc f   BootManagerUiLib:BootManager.obj
 0001:00025704       BootManagerUiLibDestructor 0000000000036704 f   BootManagerUiLib:BootManager.obj
 0001:000257e4       BmmSetConsoleMode          00000000000367e4 f   BootMaintenanceManagerUiLib:BootMaintenance.obj
 0001:000260bc       UiDevicePathToStr          00000000000370bc f   BootMaintenanceManagerUiLib:BootMaintenance.obj
 0001:000261c4       ExtractFileNameFromDevicePath 00000000000371c4 f   BootMaintenanceManagerUiLib:BootMaintenance.obj
 0001:000262b0       HiiToLower                 00000000000372b0 f   BootMaintenanceManagerUiLib:BootMaintenance.obj
 0001:0002637c       UpdateProgress             000000000003737c f   BootMaintenanceManagerUiLib:BootMaintenance.obj
 0001:0002643c       UpdateTerminalContent      000000000003743c f   BootMaintenanceManagerUiLib:BootMaintenance.obj
 0001:00026720       UpdateConsoleContent       0000000000037720 f   BootMaintenanceManagerUiLib:BootMaintenance.obj
 0001:00026b60       BootMaintExtractConfig     0000000000037b60 f   BootMaintenanceManagerUiLib:BootMaintenance.obj
 0001:00026e48       BootMaintRouteConfig       0000000000037e48 f   BootMaintenanceManagerUiLib:BootMaintenance.obj
 0001:00027b14       BootMaintCallback          0000000000038b14 f   BootMaintenanceManagerUiLib:BootMaintenance.obj
 0001:000284e8       DiscardChangeHandler       00000000000394e8 f   BootMaintenanceManagerUiLib:BootMaintenance.obj
 0001:00028710       CleanUselessBeforeSubmit   0000000000039710 f   BootMaintenanceManagerUiLib:BootMaintenance.obj
 0001:0002881c       CustomizeMenus             000000000003981c f   BootMaintenanceManagerUiLib:BootMaintenance.obj
 0001:00028960       InitializeBmmConfig        0000000000039960 f   BootMaintenanceManagerUiLib:BootMaintenance.obj
 0001:00028a9c       InitAllMenu                0000000000039a9c f   BootMaintenanceManagerUiLib:BootMaintenance.obj
 0001:00028b1c       FreeAllMenu                0000000000039b1c f   BootMaintenanceManagerUiLib:BootMaintenance.obj
 0001:00028b64       BmmInitialBootModeInfo     0000000000039b64 f   BootMaintenanceManagerUiLib:BootMaintenance.obj
 0001:00028cb8       BootMaintenanceManagerUiLibConstructor 0000000000039cb8 f   BootMaintenanceManagerUiLib:BootMaintenance.obj
 0001:00028f9c       BootMaintenanceManagerUiLibDestructor 0000000000039f9c f   BootMaintenanceManagerUiLib:BootMaintenance.obj
 0001:00029058       CreateUpdateData           000000000003a058 f   BootMaintenanceManagerUiLib:UpdatePage.obj
 0001:00029150       RefreshUpdateData          000000000003a150 f   BootMaintenanceManagerUiLib:UpdatePage.obj
 0001:000291ac       UpdatePageStart            000000000003a1ac f   BootMaintenanceManagerUiLib:UpdatePage.obj
 0001:00029208       UpdatePageEnd              000000000003a208 f   BootMaintenanceManagerUiLib:UpdatePage.obj
 0001:000292bc       CleanUpPage                000000000003a2bc f   BootMaintenanceManagerUiLib:UpdatePage.obj
 0001:00029314       UpdateConCOMPage           000000000003a314 f   BootMaintenanceManagerUiLib:UpdatePage.obj
 0001:000293b0       UpdateBootDelPage          000000000003a3b0 f   BootMaintenanceManagerUiLib:UpdatePage.obj
 0001:0002953c       UpdateDrvAddHandlePage     000000000003a53c f   BootMaintenanceManagerUiLib:UpdatePage.obj
 0001:000295d8       UpdateDrvDelPage           000000000003a5d8 f   BootMaintenanceManagerUiLib:UpdatePage.obj
 0001:00029754       UpdateDriverAddHandleDescPage 000000000003a754 f   BootMaintenanceManagerUiLib:UpdatePage.obj
 0001:0002989c       UpdateConsolePage          000000000003a89c f   BootMaintenanceManagerUiLib:UpdatePage.obj
 0001:00029ca4       UpdateOrderPage            000000000003aca4 f   BootMaintenanceManagerUiLib:UpdatePage.obj
 0001:00029fd0       UpdateConModePage          000000000003afd0 f   BootMaintenanceManagerUiLib:UpdatePage.obj
 0001:0002a3b4       UpdateTerminalPage         000000000003b3b4 f   BootMaintenanceManagerUiLib:UpdatePage.obj
 0001:0002aa90       UpdateOptionPage           000000000003ba90 f   BootMaintenanceManagerUiLib:UpdatePage.obj
 0001:0002ac9c       UpdatePageBody             000000000003bc9c f   BootMaintenanceManagerUiLib:UpdatePage.obj
 0001:0002ad78       UpdatePageId               000000000003bd78 f   BootMaintenanceManagerUiLib:UpdatePage.obj
 0001:0002ae24       BmmSetupResetReminder      000000000003be24 f   BootMaintenanceManagerUiLib:BootOption.obj
 0001:0002af78       BOpt_CreateMenuEntry       000000000003bf78 f   BootMaintenanceManagerUiLib:BootOption.obj
 0001:0002b070       BOpt_DestroyMenuEntry      000000000003c070 f   BootMaintenanceManagerUiLib:BootOption.obj
 0001:0002b230       BOpt_GetMenuEntry          000000000003c230 f   BootMaintenanceManagerUiLib:BootOption.obj
 0001:0002b340       BOpt_FreeMenu              000000000003c340 f   BootMaintenanceManagerUiLib:BootOption.obj
 0001:0002b424       BOpt_GetBootOptions        000000000003c424 f   BootMaintenanceManagerUiLib:BootOption.obj
 0001:0002ba6c       BOpt_FindDrivers           000000000003ca6c f   BootMaintenanceManagerUiLib:BootOption.obj
 0001:0002bc98       BOpt_GetOptionNumber       000000000003cc98 f   BootMaintenanceManagerUiLib:BootOption.obj
 0001:0002be30       BOpt_GetBootOptionNumber   000000000003ce30 f   BootMaintenanceManagerUiLib:BootOption.obj
 0001:0002be48       BOpt_GetDriverOptionNumber 000000000003ce48 f   BootMaintenanceManagerUiLib:BootOption.obj
 0001:0002be60       BOpt_GetDriverOptions      000000000003ce60 f   BootMaintenanceManagerUiLib:BootOption.obj
 0001:0002c288       GetBootOrder               000000000003d288 f   BootMaintenanceManagerUiLib:BootOption.obj
 0001:0002c3c4       GetDriverOrder             000000000003d3c4 f   BootMaintenanceManagerUiLib:BootOption.obj
 0001:0002c500       BootFromFile               000000000003d500 f   BootMaintenanceManagerUiLib:BootOption.obj
 0001:0002c60c       ReSendForm                 000000000003d60c f   BootMaintenanceManagerUiLib:BootOption.obj
 0001:0002c688       CreateBootOptionFromFile   000000000003d688 f   BootMaintenanceManagerUiLib:BootOption.obj
 0001:0002c6a4       CreateDriverOptionFromFile 000000000003d6a4 f   BootMaintenanceManagerUiLib:BootOption.obj
 0001:0002c6c0       Var_DelBootOption          000000000003d6c0 f   BootMaintenanceManagerUiLib:Variable.obj
 0001:0002c7f4       Var_DelDriverOption        000000000003d7f4 f   BootMaintenanceManagerUiLib:Variable.obj
 0001:0002c908       Var_UpdateConsoleOption    000000000003d908 f   BootMaintenanceManagerUiLib:Variable.obj
 0001:0002cbf8       Var_UpdateConsoleInpOption 000000000003dbf8 f   BootMaintenanceManagerUiLib:Variable.obj
 0001:0002cc1c       Var_UpdateConsoleOutOption 000000000003dc1c f   BootMaintenanceManagerUiLib:Variable.obj
 0001:0002cc40       Var_UpdateErrorOutOption   000000000003dc40 f   BootMaintenanceManagerUiLib:Variable.obj
 0001:0002cc64       Var_UpdateDriverOption     000000000003dc64 f   BootMaintenanceManagerUiLib:Variable.obj
 0001:0002d084       Var_UpdateBootOption       000000000003e084 f   BootMaintenanceManagerUiLib:Variable.obj
 0001:0002d4ec       Var_UpdateBootNext         000000000003e4ec f   BootMaintenanceManagerUiLib:Variable.obj
 0001:0002d674       Var_UpdateBootOrder        000000000003e674 f   BootMaintenanceManagerUiLib:Variable.obj
 0001:0002d874       Var_UpdateDriverOrder      000000000003e874 f   BootMaintenanceManagerUiLib:Variable.obj
 0001:0002d9d4       Var_UpdateConMode          000000000003e9d4 f   BootMaintenanceManagerUiLib:Variable.obj
 0001:0002da8c       IsIsaSerialNode            000000000003ea8c f   BootMaintenanceManagerUiLib:ConsoleOption.obj
 0001:0002dae8       ChangeTerminalDevicePath   000000000003eae8 f   BootMaintenanceManagerUiLib:ConsoleOption.obj
 0001:0002dd60       RetrieveUartUid            000000000003ed60 f   BootMaintenanceManagerUiLib:ConsoleOption.obj
 0001:0002de50       SortedUartHandle           000000000003ee50 f   BootMaintenanceManagerUiLib:ConsoleOption.obj
 0001:0002df84       LocateSerialIo             000000000003ef84 f   BootMaintenanceManagerUiLib:ConsoleOption.obj
 0001:0002e584       UpdateComAttributeFromVariable 000000000003f584 f   BootMaintenanceManagerUiLib:ConsoleOption.obj
 0001:0002e830       GetConsoleMenu             000000000003f830 f   BootMaintenanceManagerUiLib:ConsoleOption.obj
 0001:0002eb9c       GetAllConsoles             000000000003fb9c f   BootMaintenanceManagerUiLib:ConsoleOption.obj
 0001:0002ebc8       FreeAllConsoles            000000000003fbc8 f   BootMaintenanceManagerUiLib:ConsoleOption.obj
 0001:0002ec04       IsTerminalDevicePath       000000000003fc04 f   BootMaintenanceManagerUiLib:ConsoleOption.obj
 0001:0002eda8       GetConsoleOutMode          000000000003fda8 f   BootMaintenanceManagerUiLib:ConsoleOption.obj
 0001:0002ee74       GetConsoleInCheck          000000000003fe74 f   BootMaintenanceManagerUiLib:ConsoleOption.obj
 0001:0002efe4       GetConsoleOutCheck         000000000003ffe4 f   BootMaintenanceManagerUiLib:ConsoleOption.obj
 0001:0002f154       GetConsoleErrCheck         0000000000040154 f   BootMaintenanceManagerUiLib:ConsoleOption.obj
 0001:0002f2c4       GetTerminalAttribute       00000000000402c4 f   BootMaintenanceManagerUiLib:ConsoleOption.obj
 0001:0002f534       UiCustomizeBMMPage         0000000000040534 f   BootMaintenanceManagerUiLib:BootMaintenanceManagerCustomizedUi.obj
 0001:0002f5cc       EfiLibDeleteVariable       00000000000405cc f   BootMaintenanceManagerUiLib:BmLib.obj
 0001:0002f604       EfiDevicePathInstanceCount 0000000000040604 f   BootMaintenanceManagerUiLib:BmLib.obj
 0001:0002f644       EfiLibStrFromDatahub       0000000000040644 f   BootMaintenanceManagerUiLib:BmLib.obj
 0001:0002f64c       BmmCreateBootNextMenu      000000000004064c f   BootMaintenanceManagerUiLib:BootMaintenanceManagerCustomizedUiSupport.obj
 0001:0002f7f8       BmmCreateTimeOutMenu       00000000000407f8 f   BootMaintenanceManagerUiLib:BootMaintenanceManagerCustomizedUiSupport.obj
 0001:0002f860       BmmCreateBootOptionMenu    0000000000040860 f   BootMaintenanceManagerUiLib:BootMaintenanceManagerCustomizedUiSupport.obj
 0001:0002f898       BmmCreateDriverOptionMenu  0000000000040898 f   BootMaintenanceManagerUiLib:BootMaintenanceManagerCustomizedUiSupport.obj
 0001:0002f8d0       BmmCreateComOptionMenu     00000000000408d0 f   BootMaintenanceManagerUiLib:BootMaintenanceManagerCustomizedUiSupport.obj
 0001:0002f908       BmmCreateBootFromFileMenu  0000000000040908 f   BootMaintenanceManagerUiLib:BootMaintenanceManagerCustomizedUiSupport.obj
 0001:0002f940       BmmCreateEmptyLine         0000000000040940 f   BootMaintenanceManagerUiLib:BootMaintenanceManagerCustomizedUiSupport.obj
 0001:0002f96c       ExtractDevicePathFromHandle 000000000004096c f   BootMaintenanceManagerUiLib:BootMaintenanceManagerCustomizedUiSupport.obj
 0001:0002fa04       BmmListThirdPartyDrivers   0000000000040a04 f   BootMaintenanceManagerUiLib:BootMaintenanceManagerCustomizedUiSupport.obj
 0001:0002fefc       GetDebugPrintErrorLevel    0000000000040efc f   BaseDebugPrintErrorLevelLib:BaseDebugPrintErrorLevelLib.obj
 0001:0002ff04       ZeroMem                    0000000000040f04 f   BaseMemoryLib:ZeroMemWrapper.obj
 0001:0002ffac       SetMem16                   0000000000040fac f   BaseMemoryLib:SetMem16Wrapper.obj
 0001:000300e0       CompareMem                 00000000000410e0 f   BaseMemoryLib:CompareMemWrapper.obj
 0001:00030214       IsZeroBuffer               0000000000041214 f   BaseMemoryLib:IsZeroBufferWrapper.obj
 0001:000302b4       InternalMemSetMem16        00000000000412b4 f   BaseMemoryLib:MemLibGeneric.obj
 0001:000302f8       InternalMemZeroMem         00000000000412f8 f   BaseMemoryLib:MemLibGeneric.obj
 0001:00030320       InternalMemCompareMem      0000000000041320 f   BaseMemoryLib:MemLibGeneric.obj
 0001:00030388       InternalMemIsZeroBuffer    0000000000041388 f   BaseMemoryLib:MemLibGeneric.obj
 0001:000303e4       InternalBaseLibIsListValid 00000000000413e4 f   BaseLib:LinkedList.obj
 0001:00030500       IsNodeInList               0000000000041500 f   BaseLib:LinkedList.obj
 0001:00030600       InitializeListHead         0000000000041600 f   BaseLib:LinkedList.obj
 0001:00030660       InsertTailList             0000000000041660 f   BaseLib:LinkedList.obj
 0001:00030748       GetFirstNode               0000000000041748 f   BaseLib:LinkedList.obj
 0001:0003079c       GetNextNode                000000000004179c f   BaseLib:LinkedList.obj
 0001:0003084c       IsListEmpty                000000000004184c f   BaseLib:LinkedList.obj
 0001:000308b4       IsNull                     00000000000418b4 f   BaseLib:LinkedList.obj
 0001:00030978       RemoveEntryList            0000000000041978 f   BaseLib:LinkedList.obj
 0001:000309f4       EfiCreateEventLegacyBootEx 00000000000419f4 f   UefiLib:UefiNotTiano.obj
 0001:00030b30       EfiCreateEventReadyToBoot  0000000000041b30 f   UefiLib:UefiNotTiano.obj
 0001:00030b58       EfiCreateEventReadyToBootEx 0000000000041b58 f   UefiLib:UefiNotTiano.obj
 0001:00030c94       EfiSignalEventReadyToBoot  0000000000041c94 f   UefiLib:UefiNotTiano.obj
 0001:00030d48       EfiGetNameGuidFromFwVolDevicePathNode 0000000000041d48 f   UefiLib:UefiNotTiano.obj
 0001:00030dc0       InternalPrint              0000000000041dc0 f   UefiLib:UefiLibPrint.obj
 0001:00030f44       Print                      0000000000041f44 f   UefiLib:UefiLibPrint.obj
 0001:0003102c       CreateBasicVariablePolicy  000000000004202c f   VariablePolicyHelperLib:VariablePolicyHelperLib.obj
 0001:00031208       RegisterBasicVariablePolicy 0000000000042208 f   VariablePolicyHelperLib:VariablePolicyHelperLib.obj
 0001:000312cc       GetFileBufferByFilePath    00000000000422cc f   DxeServicesLib:DxeServicesLib.obj
 0001:00031b78       EndPerformanceMeasurementEx 0000000000042b78 f   BasePerformanceLibNull:PerformanceLib.obj
 0001:00031b78       StartPerformanceMeasurementEx 0000000000042b78 f   BasePerformanceLibNull:PerformanceLib.obj
 0001:00031b78       LogPerformanceMeasurement  0000000000042b78 f   BasePerformanceLibNull:PerformanceLib.obj
 0001:00031b90       PerformanceMeasurementEnabled 0000000000042b90 f   BasePerformanceLibNull:PerformanceLib.obj
 0001:00031bb4       LogPerformanceMeasurementEnabled 0000000000042bb4 f   BasePerformanceLibNull:PerformanceLib.obj
 0002:00000000       _gPcd_FixedAtBuild_PcdMaxRepairCount 0000000000043000     UiApp:AutoGen.obj
 0002:00000000       _gUefiDriverRevision       0000000000043000     UiApp:AutoGen.obj
 0002:00000000       _gPcd_FixedAtBuild_PcdMaximumDevicePathNodeCount 0000000000043000     UiApp:AutoGen.obj
 0002:00000004       ??_C@_05NODKPMNK@UiApp@    0000000000043004     UiApp:AutoGen.obj
 0002:00000010       ??_C@_0CB@DMEJJJHA@?6ASSERT_EFI_ERROR?5?$CIStatus?5?$DN?5?$CFr?$CJ@ 0000000000043010     UiApp:AutoGen.obj
 0002:00000038       ??_C@_0DG@FLPEIDFK@?$CB?$CI?$CI?$CIRETURN_STATUS?$CJ?$CIStatus?$CJ?$CJ?5?$DO?$DN?5@ 0000000000043038     UiApp:AutoGen.obj
 0002:00000070       ??_C@_0GN@IJPLIKGD@D?3?2develop?2EDK2?2edk2?2Build?2Emul@ 0000000000043070     UiApp:AutoGen.obj
 0002:000000e0       _gPcd_FixedAtBuild_PcdDriverHealthConfigureForm 00000000000430e0     UiApp:AutoGen.obj
 0002:000000f0       _gPcd_FixedAtBuild_PcdErrorCodeSetVariable 00000000000430f0     UiApp:AutoGen.obj
 0002:000000f4       _gPcd_FixedAtBuild_PcdMaximumUnicodeStringLength 00000000000430f4     UiApp:AutoGen.obj
 0002:000000f4       _gPcd_FixedAtBuild_PcdMaximumAsciiStringLength 00000000000430f4     UiApp:AutoGen.obj
 0002:000000f4       _gPcd_FixedAtBuild_PcdMaximumLinkedListLength 00000000000430f4     UiApp:AutoGen.obj
 0002:000000f8       _gPcd_FixedAtBuild_PcdReportStatusCodePropertyMask 00000000000430f8     UiApp:AutoGen.obj
 0002:000000fc       _gPcd_FixedAtBuild_PcdFirmwareVersionString 00000000000430fc     UiApp:AutoGen.obj
 0002:00000100       _gPcd_FixedAtBuild_PcdDebugPrintErrorLevel 0000000000043100     UiApp:AutoGen.obj
 0002:00000104       _gPcd_FixedAtBuild_PcdUefiLibMaxPrintBufferSize 0000000000043104     UiApp:AutoGen.obj
 0002:00000108       _gPcd_FixedAtBuild_PcdFixedDebugPrintErrorLevel 0000000000043108     UiApp:AutoGen.obj
 0002:0000010c       _gPcd_FixedAtBuild_PcdResetOnMemoryTypeInformationChange 000000000004310c     UiApp:AutoGen.obj
 0002:0000010c       _gPcd_FixedAtBuild_PcdPerformanceLibraryPropertyMask 000000000004310c     UiApp:AutoGen.obj
 0002:0000010c       _gPcd_FixedAtBuild_PcdVerifyNodeInList 000000000004310c     UiApp:AutoGen.obj
 0002:00000110       _gPcd_FixedAtBuild_PcdBootManagerMenuFile 0000000000043110     UiApp:AutoGen.obj
 0002:00000120       _gPcd_FixedAtBuild_PcdDebugPropertyMask 0000000000043120     UiApp:AutoGen.obj
 0002:00000128       _gPcd_FixedAtBuild_PcdUefiVariableDefaultPlatformLangCodes 0000000000043128     UiApp:AutoGen.obj
 0002:0000013c       _gPcd_FixedAtBuild_PcdProgressCodeOsLoaderLoad 000000000004313c     UiApp:AutoGen.obj
 0002:00000140       _gPcd_FixedAtBuild_PcdProgressCodeOsLoaderStart 0000000000043140     UiApp:AutoGen.obj
 0002:00000148       ??_C@_0CC@PIBHJFDN@StartOpCodeHandle?5?$CB?$DN?5?$CI?$CIvoid?5?$CK?$CJ?5@ 0000000000043148     UiApp:FrontPage.obj
 0002:00000170       ??_C@_0EA@IFMPOLLJ@D?3?2develop?2EDK2?2edk2?2MdeModuleP@ 0000000000043170     UiApp:FrontPage.obj
 0002:000001b0       ??_C@_0CA@FMKGPAPI@EndOpCodeHandle?5?$CB?$DN?5?$CI?$CIvoid?5?$CK?$CJ?50?$CJ@ 00000000000431b0     UiApp:FrontPage.obj
 0002:000001d0       ??_C@_0CM@HGKGDJCC@gFrontPagePrivate?4HiiHandle?5?$CB?$DN?5@ 00000000000431d0     UiApp:FrontPage.obj
 0002:00000200       ??_C@_0BN@KDBDLHMK@StringBuffer?5?$CB?$DN?5?$CI?$CIvoid?5?$CK?$CJ?50?$CJ@ 0000000000043200     UiApp:FrontPage.obj
 0002:00000220       ??_C@_13JOFGPIOO@?$AA?4@   0000000000043220     UiApp:FrontPage.obj
 0002:00000228       ??_C@_19JHPJJHFE@?$AA?5?$AAG?$AAH?$AAz@ 0000000000043228     UiApp:FrontPage.obj
 0002:00000238       ??_C@_1BA@NLEEMPFA@?$AA?5?$AAM?$AAB?$AA?5?$AAR?$AAA?$AAM@ 0000000000043238     UiApp:FrontPage.obj
 0002:00000248       ??_C@_0BK@KLJHMMPJ@HiiHandle?5?$CB?$DN?5?$CI?$CIvoid?5?$CK?$CJ?50?$CJ@ 0000000000043248     UiApp:FrontPage.obj
 0002:00000268       ??_C@_0BO@IOFODAMB@StringBuffer1?5?$CB?$DN?5?$CI?$CIvoid?5?$CK?$CJ?50?$CJ@ 0000000000043268     UiApp:FrontPage.obj
 0002:00000288       ??_C@_0BO@GENIONKD@StringBuffer2?5?$CB?$DN?5?$CI?$CIvoid?5?$CK?$CJ?50?$CJ@ 0000000000043288     UiApp:FrontPage.obj
 0002:000002b0       ??_C@_1FM@DPJPLHJF@?$AAC?$AAo?$AAn?$AAf?$AAi?$AAg?$AAu?$AAr?$AAa?$AAt?$AAi?$AAo?$AAn?$AA?5?$AAc@ 00000000000432b0     UiApp:FrontPage.obj
 0002:00000310       ??_C@_1CK@LOFHOMO@?$AAP?$AAr?$AAe?$AAs?$AAs?$AA?5?$AAE?$AAN?$AAT?$AAE?$AAR?$AA?5?$AAt?$AAo?$AA?5@ 0000000000043310     UiApp:FrontPage.obj
 0002:00000340       ??_C@_0CC@HFEIDHIP@gStringPackHandle?5?$CB?$DN?5?$CI?$CIvoid?5?$CK?$CJ?5@ 0000000000043340     UiApp:String.obj
 0002:00000368       ??_C@_0DN@MIIAOKJA@D?3?2develop?2EDK2?2edk2?2MdeModuleP@ 0000000000043368     UiApp:String.obj
 0002:000003a8       ??_C@_0BJ@NJEGJHFI@LangCode?5?$CB?$DN?5?$CI?$CIvoid?5?$CK?$CJ?50?$CJ@ 00000000000433a8     UiApp:FrontPageCustomizedUiSupport.obj
 0002:000003d0       ??_C@_0FD@MIDCMNCK@D?3?2develop?2EDK2?2edk2?2MdeModuleP@ 00000000000433d0     UiApp:FrontPageCustomizedUiSupport.obj
 0002:00000428       ??_C@_0BK@FANDPBIH@?$CKLangCode?5?$CB?$DN?5?$CI?$CIvoid?5?$CK?$CJ?50?$CJ@ 0000000000043428     UiApp:FrontPageCustomizedUiSupport.obj
 0002:00000448       ??_C@_0BF@KEEBGAAP@Lang?5?$CB?$DN?5?$CI?$CIvoid?5?$CK?$CJ?50?$CJ@ 0000000000043448     UiApp:FrontPageCustomizedUiSupport.obj
 0002:00000460       ??_C@_1BK@GGGENMOA@?$AAP?$AAl?$AAa?$AAt?$AAf?$AAo?$AAr?$AAm?$AAL?$AAa?$AAn?$AAg@ 0000000000043460     UiApp:FrontPageCustomizedUiSupport.obj
 0002:00000480       ??_C@_0BC@FEDIJHFF@?$CI?$CIBOOLEAN?$CJ?$CI0?$DN?$DN1?$CJ?$CJ@ 0000000000043480     UiApp:FrontPageCustomizedUiSupport.obj
 0002:00000498       ??_C@_0CE@KJODLANI@OptionsOpCodeHandle?5?$CB?$DN?5?$CI?$CIvoid?5?$CK@ 0000000000043498     UiApp:FrontPageCustomizedUiSupport.obj
 0002:000004c0       ??_C@_1CE@GLBFGNOF@?$AAP?$AAl?$AAa?$AAt?$AAf?$AAo?$AAr?$AAm?$AAL?$AAa?$AAn?$AAg?$AAC?$AAo?$AAd@ 00000000000434c0     UiApp:FrontPageCustomizedUiSupport.obj
 0002:000004e8       ??_C@_0CA@MJALGHG@gLanguageString?5?$CB?$DN?5?$CI?$CIvoid?5?$CK?$CJ?50?$CJ@ 00000000000434e8     UiApp:FrontPageCustomizedUiSupport.obj
 0002:00000508       ??_C@_0BP@CAHLJC@gLanguageToken?5?$CB?$DN?5?$CI?$CIvoid?5?$CK?$CJ?50?$CJ@ 0000000000043508     UiApp:FrontPageCustomizedUiSupport.obj
 0002:00000528       ??_C@_0BH@OOIJJHNK@Handle?5?$CB?$DN?5?$CI?$CIvoid?5?$CK?$CJ?50?$CJ@ 0000000000043528     UiApp:FrontPageCustomizedUiSupport.obj
 0002:00000540       ??_C@_0BL@IONPMOEP@HiiHandles?5?$CB?$DN?5?$CI?$CIvoid?5?$CK?$CJ?50?$CJ@ 0000000000043540     UiApp:FrontPageCustomizedUiSupport.obj
 0002:00000560       ??_C@_0BP@DAEDPINL@gHiiDriverList?5?$CB?$DN?5?$CI?$CIvoid?5?$CK?$CJ?50?$CJ@ 0000000000043560     UiApp:FrontPageCustomizedUiSupport.obj
 0002:00000580       ??_C@_0BH@MAAHKCPC@String?5?$CB?$DN?5?$CI?$CIvoid?5?$CK?$CJ?50?$CJ@ 0000000000043580     UiApp:FrontPageCustomizedUiSupport.obj
 0002:00000598       ??_C@_0BO@BDDNGENM@DriverListPtr?5?$CB?$DN?5?$CI?$CIvoid?5?$CK?$CJ?50?$CJ@ 0000000000043598     UiApp:FrontPageCustomizedUiSupport.obj
 0002:000005b8       ??_C@_0DK@EENHMBAL@D?3?2develop?2EDK2?2edk2?2MdePkg?2Lib@ 00000000000435b8     DxePcdLib:DxePcdLib.obj
 0002:000005f8       ??_C@_0BF@OOKDELHM@mPcd?5?$CB?$DN?5?$CI?$CIvoid?5?$CK?$CJ?50?$CJ@ 00000000000435f8     DxePcdLib:DxePcdLib.obj
 0002:00000610       ??_C@_0BF@PEDOPNMP@Guid?5?$CB?$DN?5?$CI?$CIvoid?5?$CK?$CJ?50?$CJ@ 0000000000043610     DxePcdLib:DxePcdLib.obj
 0002:00000628       ??_C@_0BH@IACGKAP@Buffer?5?$CB?$DN?5?$CI?$CIvoid?5?$CK?$CJ?50?$CJ@ 0000000000043628     DxePcdLib:DxePcdLib.obj
 0002:00000640       ??_C@_0CI@BGLNHBLM@?$CI?$CI?$CIUINTN?$CJ?5?$CIStartOfBuffer?$CJ?$CJ?5?$CG?50x@ 0000000000043640     BasePrintLib:PrintLib.obj
 0002:00000668       ??_C@_0DM@PGBJNMOK@D?3?2develop?2EDK2?2edk2?2MdePkg?2Lib@ 0000000000043668     BasePrintLib:PrintLib.obj
 0002:000006a8       ??_C@_0CH@KJLBGOBB@?$CI?$CI?$CIUINTN?$CJ?5?$CIFormatString?$CJ?$CJ?5?$CG?50x0@ 00000000000436a8     BasePrintLib:PrintLib.obj
 0002:000006d0       ??_C@_0CB@LDBAOPMG@?$CI?$CI?$CIUINTN?$CJ?5?$CIBuffer?$CJ?$CJ?5?$CG?50x01?$CJ?5?$DN?$DN?5@ 00000000000436d0     BasePrintLib:PrintLib.obj
 0002:00000700       ??_C@_0EE@MECDHINL@D?3?2develop?2EDK2?2edk2?2MdePkg?2Lib@ 0000000000043700     BasePrintLib:PrintLibInternal.obj
 0002:00000748       ??_C@_0BJ@CNKJJNE@?$CIBuffer?5?$CB?$DN?5?$CI?$CIvoid?5?$CK?$CJ?50?$CJ?$CJ@ 0000000000043748     BasePrintLib:PrintLibInternal.obj
 0002:00000770       ??_C@_0EB@HDGIDCIO@?$CIBufferSize?5?$DM?$DN?5?$CI_gPcd_FixedAtBu@ 0000000000043770     BasePrintLib:PrintLibInternal.obj
 0002:000007c0       ??_C@_0FJ@HAEMOBLP@?$CIBufferSize?5?$DM?$DN?5?$CI_gPcd_FixedAtBu@ 00000000000437c0     BasePrintLib:PrintLibInternal.obj
 0002:00000820       ??_C@_0CO@OJNGHNJG@?$CI?$CIFlags?5?$CG?5?$HO?$CI0x01?5?$HM?50x08?5?$HM?50x20?5@ 0000000000043820     BasePrintLib:PrintLibInternal.obj
 0002:00000850       ??_C@_0DB@HIDPIAGP@?$CI?$CI?$CIFlags?5?$CG?50x08?$CJ?5?$DN?$DN?50?$CJ?5?$HM?$HM?5?$CI?$CIFla@ 0000000000043850     BasePrintLib:PrintLibInternal.obj
 0002:00000888       ??_C@_0N@PNKFBKME@?$CIWidth?5?$DM?538?$CJ@ 0000000000043888     BasePrintLib:PrintLibInternal.obj
 0002:00000898       ??_C@_0CI@HPJOGFNE@?$CIBufferSize?5?$DO?$DN?5?$CIWidth?5?$CL?51?$CJ?5?$CK?5In@ 0000000000043898     BasePrintLib:PrintLibInternal.obj
 0002:000008c0       ??_C@_0BJ@PPAKKDJG@?$CIFormat?5?$CB?$DN?5?$CI?$CIvoid?5?$CK?$CJ?50?$CJ?$CJ@ 00000000000438c0     BasePrintLib:PrintLibInternal.obj
 0002:000008e0       ??_C@_0ED@LPDDCECB@?$CIBufferSize?5?$DM?$DN?5?$CI_gPcd_FixedAtBu@ 00000000000438e0     BasePrintLib:PrintLibInternal.obj
 0002:00000930       ??_C@_0IM@BFJJFLGB@?$CIStrnLenS?5?$CI?$CICHAR16?5?$CK?$CJFormat?0?5?$CI_@ 0000000000043930     BasePrintLib:PrintLibInternal.obj
 0002:000009c0       ??_C@_0ID@PLGJGION@?$CIAsciiStrnLenS?5?$CIFormat?0?5?$CI_gPcd_@ 00000000000439c0     BasePrintLib:PrintLibInternal.obj
 0002:00000a48       ??_C@_0O@MLOLIMFM@?$DMnull?5string?$DO@ 0000000000043a48     BasePrintLib:PrintLibInternal.obj
 0002:00000a58       ??_C@_0M@BJJDNPHK@?$DMnull?5guid?$DO@ 0000000000043a58     BasePrintLib:PrintLibInternal.obj
 0002:00000a68       ??_C@_0DB@PMLHLBMO@?$CF08x?9?$CF04x?9?$CF04x?9?$CF02x?$CF02x?9?$CF02x?$CF02@ 0000000000043a68     BasePrintLib:PrintLibInternal.obj
 0002:00000aa0       ??_C@_0M@LHGBCIKM@?$DMnull?5time?$DO@ 0000000000043aa0     BasePrintLib:PrintLibInternal.obj
 0002:00000ab0       ??_C@_0BK@FCPKCIDD@?$CF02d?1?$CF02d?1?$CF04d?5?5?$CF02d?3?$CF02d@ 0000000000043ab0     BasePrintLib:PrintLibInternal.obj
 0002:00000acc       ??_C@_04JIMNDDED@?$CF08X@  0000000000043acc     BasePrintLib:PrintLibInternal.obj
 0002:00000ad4       ??_C@_02PCIJFNDE@?$AN?6@   0000000000043ad4     BasePrintLib:PrintLibInternal.obj
 0002:00000ad8       ??_C@_01LIIJDEN@?$AN@      0000000000043ad8     BasePrintLib:PrintLibInternal.obj
 0002:00000ae0       mWarningString             0000000000043ae0     BasePrintLib:PrintLibInternal.obj
 0002:00000bb0       mErrorString               0000000000043bb0     BasePrintLib:PrintLibInternal.obj
 0002:00000e90       mHexStr                    0000000000043e90     BasePrintLib:PrintLibInternal.obj
 0002:00000ea0       ??_C@_0BH@LKMBFCBF@Format?5?$CB?$DN?5?$CI?$CIvoid?5?$CK?$CJ?50?$CJ@ 0000000000043ea0     PeiDxeDebugLibReportStatusCode:DebugLib.obj
 0002:00000ec0       ??_C@_0FE@BEFIIBEL@D?3?2develop?2EDK2?2edk2?2MdeModuleP@ 0000000000043ec0     PeiDxeDebugLibReportStatusCode:DebugLib.obj
 0002:00000f18       ??_C@_0CP@EFCGCEBK@?$CICHAR8?5?$CK?$CJBaseListMarkerPointer?5@ 0000000000043f18     PeiDxeDebugLibReportStatusCode:DebugLib.obj
 0002:00000f48       ??_C@_01OHGJGJJP@?$FL@     0000000000043f48     PeiDxeDebugLibReportStatusCode:DebugLib.obj
 0002:00000f4c       ??_C@_02PBFOLPKM@?$FN?5@   0000000000043f4c     PeiDxeDebugLibReportStatusCode:DebugLib.obj
 0002:00000f50       ??_C@_0ED@MKGCMJG@?$CILength?5?9?51?$CJ?5?$DM?$DN?5?$CI0xFFFFFFFFFFFF@ 0000000000043f50     BaseMemoryLib:CopyMemWrapper.obj
 0002:00000fa0       ??_C@_0ED@JLFCAFGL@D?3?2develop?2EDK2?2edk2?2MdePkg?2Lib@ 0000000000043fa0     BaseMemoryLib:CopyMemWrapper.obj
 0002:00000fe8       ??_C@_0DO@MAOBOFEG@?$CILength?5?9?51?$CJ?5?$DM?$DN?5?$CI0xFFFFFFFFFFFF@ 0000000000043fe8     BaseMemoryLib:CopyMemWrapper.obj
 0002:00001028       ??_C@_0DG@EEENIGGL@Length?5?$DM?$DN?5?$CI0xFFFFFFFFFFFFFFFFUL@ 0000000000044028     BaseMemoryLib:MemLibGuid.obj
 0002:00001060       ??_C@_0DI@DAGDPLPG@?$CILength?5?9?51?$CJ?5?$DM?$DN?5?$CI0xFFFFFFFFFFFF@ 0000000000044060     BaseMemoryLib:SetMemWrapper.obj
 0002:000010a0       ??_C@_0EC@NIFDAJKM@D?3?2develop?2EDK2?2edk2?2MdePkg?2Lib@ 00000000000440a0     BaseMemoryLib:SetMemWrapper.obj
 0002:000010e8       ??_C@_0L@LBCNCHJA@Pages?5?$CB?$DN?50@ 00000000000440e8     UefiMemoryAllocationLib:MemoryAllocationLib.obj
 0002:00001100       ??_C@_0FC@FCCEPMJI@D?3?2develop?2EDK2?2edk2?2MdePkg?2Lib@ 0000000000044100     UefiMemoryAllocationLib:MemoryAllocationLib.obj
 0002:00001158       ??_C@_0CD@GECBLADO@?$CIAlignment?5?$CG?5?$CIAlignment?5?9?51?$CJ?$CJ?5?$DN@ 0000000000044158     UefiMemoryAllocationLib:MemoryAllocationLib.obj
 0002:00001180       ??_C@_0BC@BDMGDFME@RealPages?5?$DO?5Pages@ 0000000000044180     UefiMemoryAllocationLib:MemoryAllocationLib.obj
 0002:00001198       ??_C@_0DO@GEEICOOO@AllocationSize?5?$DM?$DN?5?$CI0xFFFFFFFFFF@ 0000000000044198     UefiMemoryAllocationLib:MemoryAllocationLib.obj
 0002:000011e0       ??_C@_0FH@KLOBJBPP@D?3?2develop?2EDK2?2edk2?2MdeModuleP@ 00000000000441e0     DxeReportStatusCodeLib:ReportStatusCodeLib.obj
 0002:00001238       ??_C@_0BM@HAIDGOCB@Description?5?$CB?$DN?5?$CI?$CIvoid?5?$CK?$CJ?50?$CJ@ 0000000000044238     DxeReportStatusCodeLib:ReportStatusCodeLib.obj
 0002:00001258       ??_C@_0BL@JFODOCGB@DevicePath?5?$CB?$DN?5?$CI?$CIvoid?5?$CK?$CJ?50?$CJ@ 0000000000044258     DxeReportStatusCodeLib:ReportStatusCodeLib.obj
 0002:00001278       ??_C@_0DN@HHIHPHHB@?$CB?$CI?$CIExtendedData?5?$DN?$DN?5?$CI?$CIvoid?5?$CK?$CJ?50?$CJ@ 0000000000044278     DxeReportStatusCodeLib:ReportStatusCodeLib.obj
 0002:000012b8       ??_C@_0DN@BBBIFINB@?$CB?$CI?$CIExtendedData?5?$CB?$DN?5?$CI?$CIvoid?5?$CK?$CJ?50?$CJ@ 00000000000442b8     DxeReportStatusCodeLib:ReportStatusCodeLib.obj
 0002:000012f8       ??_C@_0CC@GFNLNIOC@?$CI?$CIUINTN?$CJString?5?$CG?50x00000001?$CJ?5?$DN?$DN@ 00000000000442f8     BaseLib:SafeString.obj
 0002:00001320       ??_C@_0DJ@DNFJNBOO@D?3?2develop?2EDK2?2edk2?2MdePkg?2Lib@ 0000000000044320     BaseLib:SafeString.obj
 0002:00001360       ??_C@_0CH@LALFPBMC@?$CI?$CIUINTN?$CJDestination?5?$CG?50x0000000@ 0000000000044360     BaseLib:SafeString.obj
 0002:00001388       ??_C@_0CC@HEBCMBPF@?$CI?$CIUINTN?$CJSource?5?$CG?50x00000001?$CJ?5?$DN?$DN@ 0000000000044388     BaseLib:SafeString.obj
 0002:000013b0       ??_C@_0BO@ECNIOIHG@?$CIDestination?5?$CB?$DN?5?$CI?$CIvoid?5?$CK?$CJ?50?$CJ?$CJ@ 00000000000443b0     BaseLib:SafeString.obj
 0002:000013d0       ??_C@_07KBGDFDAM@StrCpyS@  00000000000443d0     BaseLib:SafeString.obj
 0002:000013e0       ??_C@_0EA@PDPDJJNN@?$CFa?$CI?$CFd?$CJ?5?$CFa?3?5SAFE_STRING_CONSTRAI@ 00000000000443e0     BaseLib:SafeString.obj
 0002:00001420       ??_C@_0BJ@EAEEJIP@?$CISource?5?$CB?$DN?5?$CI?$CIvoid?5?$CK?$CJ?50?$CJ?$CJ@ 0000000000044420     BaseLib:SafeString.obj
 0002:00001440       ??_C@_0EA@BBALOHPI@?$CIDestMax?5?$DM?$DN?5?$CI_gPcd_FixedAtBuild@ 0000000000044440     BaseLib:SafeString.obj
 0002:00001480       ??_C@_0P@PMIMLIHM@?$CIDestMax?5?$CB?$DN?50?$CJ@ 0000000000044480     BaseLib:SafeString.obj
 0002:00001490       ??_C@_0BG@EEGIIOKH@?$CIDestMax?5?$DO?5SourceLen?$CJ@ 0000000000044490     BaseLib:SafeString.obj
 0002:000014b0       ??_C@_0FH@PPBLBDBJ@InternalSafeStringNoStrOverlap?5@ 00000000000444b0     BaseLib:SafeString.obj
 0002:00001508       ??_C@_08INOAHJON@StrnCpyS@ 0000000000044508     BaseLib:SafeString.obj
 0002:00001518       ??_C@_0DP@PBOJGJC@?$CILength?5?$DM?$DN?5?$CI_gPcd_FixedAtBuild_@ 0000000000044518     BaseLib:SafeString.obj
 0002:00001558       ??_C@_07EBBOPAKF@StrCatS@  0000000000044558     BaseLib:SafeString.obj
 0002:00001560       ??_C@_0P@BHOOOJPD@?$CICopyLen?5?$CB?$DN?50?$CJ@ 0000000000044560     BaseLib:SafeString.obj
 0002:00001570       ??_C@_0BG@BPGICNPK@?$CICopyLen?5?$DO?5SourceLen?$CJ@ 0000000000044570     BaseLib:SafeString.obj
 0002:00001588       ??_C@_08GNJNNKEE@StrnCatS@ 0000000000044588     BaseLib:SafeString.obj
 0002:00001598       ??_C@_0DO@LJFOOPII@?$CIDestMax?5?$DM?$DN?5?$CI_gPcd_FixedAtBuild@ 0000000000044598     BaseLib:SafeString.obj
 0002:000015e0       ??_C@_0FL@CDANCHFO@InternalSafeStringNoAsciiStrOve@ 00000000000445e0     BaseLib:SafeString.obj
 0002:00001640       ??_C@_0O@DIHNCLLG@AsciiStrnCpyS@ 0000000000044640     BaseLib:SafeString.obj
 0002:00001650       ??_C@_0DN@DLAADCJE@?$CILength?5?$DM?$DN?5?$CI_gPcd_FixedAtBuild_@ 0000000000044650     BaseLib:SafeString.obj
 0002:00001690       ??_C@_0BG@MFINJFHO@AsciiStrToUnicodeStrS@ 0000000000044690     BaseLib:SafeString.obj
 0002:000016b0       ??_C@_0GF@GCLJAOAI@?$CBInternalSafeStringIsOverlap?5?$CID@ 00000000000446b0     BaseLib:SafeString.obj
 0002:00001718       ??_C@_0DF@EAHDDLM@D?3?2develop?2EDK2?2edk2?2MdePkg?2Lib@ 0000000000044718     BaseLib:String.obj
 0002:00001750       ??_C@_0DK@EOJCOAME@Length?5?$DM?5_gPcd_FixedAtBuild_Pcd@ 0000000000044750     BaseLib:String.obj
 0002:00001790       ??_C@_0BL@JAAMOCAJ@StrSize?5?$CIFirstString?$CJ?5?$CB?$DN?50@ 0000000000044790     BaseLib:String.obj
 0002:000017b0       ??_C@_0BM@DALBOILC@StrSize?5?$CISecondString?$CJ?5?$CB?$DN?50@ 00000000000447b0     BaseLib:String.obj
 0002:000017d0       ??_C@_0DL@LFIMEMJP@Length?5?$DM?$DN?5_gPcd_FixedAtBuild_Pc@ 00000000000447d0     BaseLib:String.obj
 0002:00001810       ??_C@_0BG@KBNOLIGE@StrSize?5?$CIString?$CJ?5?$CB?$DN?50@ 0000000000044810     BaseLib:String.obj
 0002:00001828       ??_C@_0BM@NNBLOHJD@StrSize?5?$CISearchString?$CJ?5?$CB?$DN?50@ 0000000000044828     BaseLib:String.obj
 0002:00001848       ??_C@_0DI@MDIKFADO@Length?5?$DM?5_gPcd_FixedAtBuild_Pcd@ 0000000000044848     BaseLib:String.obj
 0002:00001880       ??_C@_0BL@IKFBNFIL@AsciiStrSize?5?$CIFirstString?$CJ@ 0000000000044880     BaseLib:String.obj
 0002:000018a0       ??_C@_0BM@EDNOKLLE@AsciiStrSize?5?$CISecondString?$CJ@ 00000000000448a0     BaseLib:String.obj
 0002:000018c0       ??_C@_0DJ@JJHGIFMP@Length?5?$DM?$DN?5_gPcd_FixedAtBuild_Pc@ 00000000000448c0     BaseLib:String.obj
 0002:00001900       ??_C@_0L@MEMPDLHB@Count?5?$DM?564@ 0000000000044900     BaseLib:RShiftU64.obj
 0002:00001910       ??_C@_0DI@LFEKCMNO@D?3?2develop?2EDK2?2edk2?2MdePkg?2Lib@ 0000000000044910     BaseLib:RShiftU64.obj
 0002:00001948       ??_C@_0DI@MBLLHEOH@D?3?2develop?2EDK2?2edk2?2MdePkg?2Lib@ 0000000000044948     BaseLib:Unaligned.obj
 0002:00001980       ??_C@_0N@KGHEHMDL@Divisor?5?$CB?$DN?50@ 0000000000044980     BaseLib:DivU64x32Remainder.obj
 0002:00001990       ??_C@_0EB@NJAKFAEH@D?3?2develop?2EDK2?2edk2?2MdePkg?2Lib@ 0000000000044990     BaseLib:DivU64x32Remainder.obj
 0002:000019d8       ??_C@_0DI@FAGDBCDM@D?3?2develop?2EDK2?2edk2?2MdePkg?2Lib@ 00000000000449d8     BaseLib:LShiftU64.obj
 0002:00001a10       ??_C@_0BF@CBLMFKOC@Node?5?$CB?$DN?5?$CI?$CIvoid?5?$CK?$CJ?50?$CJ@ 0000000000044a10     UefiDevicePathLib:DevicePathUtilities.obj
 0002:00001a30       ??_C@_0EM@ILCAIIGE@D?3?2develop?2EDK2?2edk2?2MdePkg?2Lib@ 0000000000044a30     UefiDevicePathLib:DevicePathUtilities.obj
 0002:00001a80       ??_C@_0EH@ENCEEKKL@?$CILength?5?$DO?$DN?5sizeof?5?$CIEFI_DEVICE_P@ 0000000000044a80     UefiDevicePathLib:DevicePathUtilities.obj
 0002:00001ac8       ??_C@_0BF@MBJFHGBE@Size?5?$CB?$DN?5?$CI?$CIvoid?5?$CK?$CJ?50?$CJ@ 0000000000044ac8     UefiDevicePathLib:DevicePathUtilities.obj
 0002:00001ae0       mUefiDevicePathLibEndDevicePath 0000000000044ae0     UefiDevicePathLib:DevicePathUtilities.obj
 0002:00001ae8       ??_C@_1BA@NGCDBIG@?$AAP?$AAr?$AAi?$AAm?$AAa?$AAr?$AAy@ 0000000000044ae8     UefiDevicePathLib:DevicePathFromText.obj
 0002:00001af8       ??_C@_1BE@BGLPHBHD@?$AAS?$AAe?$AAc?$AAo?$AAn?$AAd?$AAa?$AAr?$AAy@ 0000000000044af8     UefiDevicePathLib:DevicePathFromText.obj
 0002:00001b10       ??_C@_1O@MHJLHGPK@?$AAM?$AAa?$AAs?$AAt?$AAe?$AAr@ 0000000000044b10     UefiDevicePathLib:DevicePathFromText.obj
 0002:00001b20       ??_C@_1M@MJNGBMFK@?$AAS?$AAl?$AAa?$AAv?$AAe@ 0000000000044b20     UefiDevicePathLib:DevicePathFromText.obj
 0002:00001b30       ??_C@_1BA@NAMMFHHL@?$AAX?$AAo?$AAn?$AAX?$AAo?$AAf?$AAf@ 0000000000044b30     UefiDevicePathLib:DevicePathFromText.obj
 0002:00001b40       ??_C@_1BC@MAICEHGI@?$AAH?$AAa?$AAr?$AAd?$AAw?$AAa?$AAr?$AAe@ 0000000000044b40     UefiDevicePathLib:DevicePathFromText.obj
 0002:00001b58       ??_C@_19BPNGBNAI@?$AAS?$AAA?$AAT?$AAA@ 0000000000044b58     UefiDevicePathLib:DevicePathFromText.obj
 0002:00001b68       ??_C@_17FMMIKNDG@?$AAS?$AAA?$AAS@ 0000000000044b68     UefiDevicePathLib:DevicePathFromText.obj
 0002:00001b70       ??_C@_1BC@KMFBFJEN@?$AAE?$AAx?$AAt?$AAe?$AAr?$AAn?$AAa?$AAl@ 0000000000044b70     UefiDevicePathLib:DevicePathFromText.obj
 0002:00001b88       ??_C@_1BC@FBOHHDN@?$AAI?$AAn?$AAt?$AAe?$AAr?$AAn?$AAa?$AAl@ 0000000000044b88     UefiDevicePathLib:DevicePathFromText.obj
 0002:00001ba0       ??_C@_1BC@EEIMPKHO@?$AAE?$AAx?$AAp?$AAa?$AAn?$AAd?$AAe?$AAd@ 0000000000044ba0     UefiDevicePathLib:DevicePathFromText.obj
 0002:00001bb8       ??_C@_1O@MDCABJAO@?$AAD?$AAi?$AAr?$AAe?$AAc?$AAt@ 0000000000044bb8     UefiDevicePathLib:DevicePathFromText.obj
 0002:00001bc8       ??_C@_17NINPJKOM@?$AAU?$AAD?$AAP@ 0000000000044bc8     UefiDevicePathLib:DevicePathFromText.obj
 0002:00001bd0       ??_C@_17JHAKKMK@?$AAT?$AAC?$AAP@ 0000000000044bd0     UefiDevicePathLib:DevicePathFromText.obj
 0002:00001bd8       ??_C@_1O@ECDFCEKO@?$AAS?$AAt?$AAa?$AAt?$AAi?$AAc@ 0000000000044bd8     UefiDevicePathLib:DevicePathFromText.obj
 0002:00001be8       ??_C@_1O@HNAACJMJ@?$AAC?$AAR?$AAC?$AA3?$AA2?$AAC@ 0000000000044be8     UefiDevicePathLib:DevicePathFromText.obj
 0002:00001bf8       ??_C@_19KLMLHLJG@?$AAN?$AAo?$AAn?$AAe@ 0000000000044bf8     UefiDevicePathLib:DevicePathFromText.obj
 0002:00001c08       ??_C@_1BC@PDNIOEEC@?$AAC?$AAH?$AAA?$AAP?$AA_?$AAU?$AAN?$AAI@ 0000000000044c08     UefiDevicePathLib:DevicePathFromText.obj
 0002:00001c20       ??_C@_17LNBJLOE@?$AAM?$AAB?$AAR@ 0000000000044c20     UefiDevicePathLib:DevicePathFromText.obj
 0002:00001c28       ??_C@_17PBGEHLGA@?$AAG?$AAP?$AAT@ 0000000000044c28     UefiDevicePathLib:DevicePathFromText.obj
 0002:00001c30       ??_C@_1O@CLMODHEM@?$AAF?$AAl?$AAo?$AAp?$AAp?$AAy@ 0000000000044c30     UefiDevicePathLib:DevicePathFromText.obj
 0002:00001c40       ??_C@_15LJEABJDH@?$AAH?$AAD@ 0000000000044c40     UefiDevicePathLib:DevicePathFromText.obj
 0002:00001c48       ??_C@_1M@NEPFDHKI@?$AAC?$AAD?$AAR?$AAO?$AAM@ 0000000000044c48     UefiDevicePathLib:DevicePathFromText.obj
 0002:00001c58       ??_C@_1O@IJBLAFEH@?$AAP?$AAC?$AAM?$AAC?$AAI?$AAA@ 0000000000044c58     UefiDevicePathLib:DevicePathFromText.obj
 0002:00001c68       ??_C@_17DMBMDHNL@?$AAU?$AAS?$AAB@ 0000000000044c68     UefiDevicePathLib:DevicePathFromText.obj
 0002:00001c70       ??_C@_1BA@IFBJBPAK@?$AAN?$AAe?$AAt?$AAw?$AAo?$AAr?$AAk@ 0000000000044c70     UefiDevicePathLib:DevicePathFromText.obj
 0002:00001c80       ??_C@_1BK@PDLLBLKH@?$AAH?$AAa?$AAr?$AAd?$AAw?$AAa?$AAr?$AAe?$AAP?$AAa?$AAt?$AAh@ 0000000000044c80     UefiDevicePathLib:DevicePathFromText.obj
 0002:00001ca0       ??_C@_1BC@EJFCJMMM@?$AAA?$AAc?$AAp?$AAi?$AAP?$AAa?$AAt?$AAh@ 0000000000044ca0     UefiDevicePathLib:DevicePathFromText.obj
 0002:00001cb8       ??_C@_17DACEHHP@?$AAM?$AAs?$AAg@ 0000000000044cb8     UefiDevicePathLib:DevicePathFromText.obj
 0002:00001cc0       ??_C@_1BC@NAJEJDIH@?$AAU?$AAs?$AAb?$AAA?$AAu?$AAd?$AAi?$AAo@ 0000000000044cc0     UefiDevicePathLib:DevicePathFromText.obj
 0002:00001cd8       ??_C@_1BM@EBMHFGAN@?$AAU?$AAs?$AAb?$AAC?$AAD?$AAC?$AAC?$AAo?$AAn?$AAt?$AAr?$AAo?$AAl@ 0000000000044cd8     UefiDevicePathLib:DevicePathFromText.obj
 0002:00001cf8       ??_C@_1O@MNHDOJBH@?$AAU?$AAs?$AAb?$AAH?$AAI?$AAD@ 0000000000044cf8     UefiDevicePathLib:DevicePathFromText.obj
 0002:00001d08       ??_C@_1BC@PPLGKLBF@?$AAU?$AAs?$AAb?$AAI?$AAm?$AAa?$AAg?$AAe@ 0000000000044d08     UefiDevicePathLib:DevicePathFromText.obj
 0002:00001d20       ??_C@_1BG@PFAKNBDK@?$AAU?$AAs?$AAb?$AAP?$AAr?$AAi?$AAn?$AAt?$AAe?$AAr@ 0000000000044d20     UefiDevicePathLib:DevicePathFromText.obj
 0002:00001d38       ??_C@_1BO@PDNPADEO@?$AAU?$AAs?$AAb?$AAM?$AAa?$AAs?$AAs?$AAS?$AAt?$AAo?$AAr?$AAa?$AAg?$AAe@ 0000000000044d38     UefiDevicePathLib:DevicePathFromText.obj
 0002:00001d58       ??_C@_1O@DLJCNOCD@?$AAU?$AAs?$AAb?$AAH?$AAu?$AAb@ 0000000000044d58     UefiDevicePathLib:DevicePathFromText.obj
 0002:00001d68       ??_C@_1BG@HNPFOCNE@?$AAU?$AAs?$AAb?$AAC?$AAD?$AAC?$AAD?$AAa?$AAt?$AAa@ 0000000000044d68     UefiDevicePathLib:DevicePathFromText.obj
 0002:00001d80       ??_C@_1BK@COBNKHKO@?$AAU?$AAs?$AAb?$AAS?$AAm?$AAa?$AAr?$AAt?$AAC?$AAa?$AAr?$AAd@ 0000000000044d80     UefiDevicePathLib:DevicePathFromText.obj
 0002:00001da0       ??_C@_1BC@OCEEDGOJ@?$AAU?$AAs?$AAb?$AAV?$AAi?$AAd?$AAe?$AAo@ 0000000000044da0     UefiDevicePathLib:DevicePathFromText.obj
 0002:00001db8       ??_C@_1BM@LPAMJGAO@?$AAU?$AAs?$AAb?$AAD?$AAi?$AAa?$AAg?$AAn?$AAo?$AAs?$AAt?$AAi?$AAc@ 0000000000044db8     UefiDevicePathLib:DevicePathFromText.obj
 0002:00001dd8       ??_C@_1BI@FHBIGIDC@?$AAU?$AAs?$AAb?$AAW?$AAi?$AAr?$AAe?$AAl?$AAe?$AAs?$AAs@ 0000000000044dd8     UefiDevicePathLib:DevicePathFromText.obj
 0002:00001df0       ??_C@_1BE@MHMKEMCG@?$AAM?$AAe?$AAd?$AAi?$AAa?$AAP?$AAa?$AAt?$AAh@ 0000000000044df0     UefiDevicePathLib:DevicePathFromText.obj
 0002:00001e08       ??_C@_1M@OFOICAAP@?$AAM?$AAe?$AAd?$AAi?$AAa@ 0000000000044e08     UefiDevicePathLib:DevicePathFromText.obj
 0002:00001e18       ??_C@_1BA@EPIJMJOF@?$AAB?$AAb?$AAs?$AAP?$AAa?$AAt?$AAh@ 0000000000044e18     UefiDevicePathLib:DevicePathFromText.obj
 0002:00001e28       ??_C@_0BJ@NNFHKMPH@Str?9?$DOStr?5?$CB?$DN?5?$CI?$CIvoid?5?$CK?$CJ?50?$CJ@ 0000000000044e28     UefiDevicePathLib:DevicePathToText.obj
 0002:00001e50       ??_C@_0EJ@KKLMEDML@D?3?2develop?2EDK2?2edk2?2MdePkg?2Lib@ 0000000000044e50     UefiDevicePathLib:DevicePathToText.obj
 0002:00001ea0       ??_C@_1BO@OAGLMPIF@?$AAP?$AAc?$AAi?$AA?$CI?$AA0?$AAx?$AA?$CF?$AAx?$AA?0?$AA0?$AAx?$AA?$CF?$AAx?$AA?$CJ@ 0000000000044ea0     UefiDevicePathLib:DevicePathToText.obj
 0002:00001ec0       ??_C@_1BK@KCEBDNMK@?$AAP?$AAc?$AAC?$AAa?$AAr?$AAd?$AA?$CI?$AA0?$AAx?$AA?$CF?$AAx?$AA?$CJ@ 0000000000044ec0     UefiDevicePathLib:DevicePathToText.obj
 0002:00001ee0       ??_C@_1DO@IFCJNKPC@?$AAM?$AAe?$AAm?$AAo?$AAr?$AAy?$AAM?$AAa?$AAp?$AAp?$AAe?$AAd?$AA?$CI?$AA0?$AAx@ 0000000000044ee0     UefiDevicePathLib:DevicePathToText.obj
 0002:00001f20       ??_C@_15FLNOEOHI@?$AAH?$AAw@ 0000000000044f20     UefiDevicePathLib:DevicePathToText.obj
 0002:00001f28       ??_C@_1BI@PHHNEBMB@?$AAV?$AAe?$AAn?$AAP?$AAc?$AAA?$AAn?$AAs?$AAi?$AA?$CI?$AA?$CJ@ 0000000000044f28     UefiDevicePathLib:DevicePathToText.obj
 0002:00001f40       ??_C@_1BG@IAIKNGNN@?$AAV?$AAe?$AAn?$AAV?$AAt?$AA1?$AA0?$AA0?$AA?$CI?$AA?$CJ@ 0000000000044f40     UefiDevicePathLib:DevicePathToText.obj
 0002:00001f58       ??_C@_1BO@COEKAAEN@?$AAV?$AAe?$AAn?$AAV?$AAt?$AA1?$AA0?$AA0?$AAP?$AAl?$AAu?$AAs?$AA?$CI?$AA?$CJ@ 0000000000044f58     UefiDevicePathLib:DevicePathToText.obj
 0002:00001f78       ??_C@_1BE@IDDFGEGE@?$AAV?$AAe?$AAn?$AAU?$AAt?$AAf?$AA8?$AA?$CI?$AA?$CJ@ 0000000000044f78     UefiDevicePathLib:DevicePathToText.obj
 0002:00001f90       ??_C@_1CC@FKEHNDLA@?$AAU?$AAa?$AAr?$AAt?$AAF?$AAl?$AAo?$AAw?$AAC?$AAt?$AAr?$AAl?$AA?$CI?$AA?$CF?$AAs@ 0000000000044f90     UefiDevicePathLib:DevicePathToText.obj
 0002:00001fb8       ??_C@_1CM@MBOKCKGI@?$AAS?$AAA?$AAS?$AA?$CI?$AA0?$AAx?$AA?$CF?$AAl?$AAx?$AA?0?$AA0?$AAx?$AA?$CF?$AAl?$AAx@ 0000000000044fb8     UefiDevicePathLib:DevicePathToText.obj
 0002:00001fe8       ??_C@_1CE@FDCOMKL@?$AAN?$AAo?$AAT?$AAo?$AAp?$AAo?$AAl?$AAo?$AAg?$AAy?$AA?0?$AA0?$AA?0?$AA0?$AA?0@ 0000000000044fe8     UefiDevicePathLib:DevicePathToText.obj
 0002:00002010       ??_C@_1BE@MLBJKAMN@?$AA?$CF?$AAs?$AA?0?$AA?$CF?$AAs?$AA?0?$AA?$CF?$AAs?$AA?0@ 0000000000045010     UefiDevicePathLib:DevicePathToText.obj
 0002:00002024       ??_C@_15KAKDEJHH@?$AA0?$AA?0@ 0000000000045024     UefiDevicePathLib:DevicePathToText.obj
 0002:00002030       ??_C@_1M@MJJODJOA@?$AA0?$AAx?$AA?$CF?$AAx?$AA?0@ 0000000000045030     UefiDevicePathLib:DevicePathToText.obj
 0002:00002040       ??_C@_1BI@EOONELPP@?$AA0?$AAx?$AA?$CF?$AAx?$AA?0?$AA0?$AA?0?$AA0?$AA?0?$AA0?$AA?0@ 0000000000045040     UefiDevicePathLib:DevicePathToText.obj
 0002:00002058       ??_C@_1M@POEAMJNC@?$AA0?$AAx?$AA?$CF?$AAx?$AA?$CJ@ 0000000000045058     UefiDevicePathLib:DevicePathToText.obj
 0002:00002068       ??_C@_1BI@IHPCIEPJ@?$AAD?$AAe?$AAb?$AAu?$AAg?$AAP?$AAo?$AAr?$AAt?$AA?$CI?$AA?$CJ@ 0000000000045068     UefiDevicePathLib:DevicePathToText.obj
 0002:00002080       ??_C@_13HGPDMIBE@?$AA?$DP@ 0000000000045080     UefiDevicePathLib:DevicePathToText.obj
 0002:00002088       ??_C@_1BC@EAAHJKNI@?$AAV?$AAe?$AAn?$AA?$CF?$AAs?$AA?$CI?$AA?$CF?$AAg@ 0000000000045088     UefiDevicePathLib:DevicePathToText.obj
 0002:0000209c       ??_C@_13DEFPDAGF@?$AA?0@   000000000004509c     UefiDevicePathLib:DevicePathToText.obj
 0002:000020a0       ??_C@_19NHPFCCLF@?$AA?$CF?$AA0?$AA2?$AAx@ 00000000000450a0     UefiDevicePathLib:DevicePathToText.obj
 0002:000020ac       ??_C@_13DIBMAFH@?$AA?$CJ@  00000000000450ac     UefiDevicePathLib:DevicePathToText.obj
 0002:000020b0       ??_C@_1BG@PDEHEHNB@?$AAC?$AAt?$AAr?$AAl?$AA?$CI?$AA0?$AAx?$AA?$CF?$AAx?$AA?$CJ@ 00000000000450b0     UefiDevicePathLib:DevicePathToText.obj
 0002:000020c8       ??_C@_1CA@OCDNKJMI@?$AAB?$AAM?$AAC?$AA?$CI?$AA0?$AAx?$AA?$CF?$AAx?$AA?0?$AA0?$AAx?$AA?$CF?$AAl?$AAx?$AA?$CJ@ 00000000000450c8     UefiDevicePathLib:DevicePathToText.obj
 0002:000020e8       ??_C@_1BM@LLBDFMIK@?$AAP?$AAc?$AAi?$AAR?$AAo?$AAo?$AAt?$AA?$CI?$AA0?$AAx?$AA?$CF?$AAx?$AA?$CJ@ 00000000000450e8     UefiDevicePathLib:DevicePathToText.obj
 0002:00002108       ??_C@_1BO@IHBMGOPI@?$AAP?$AAc?$AAi?$AAe?$AAR?$AAo?$AAo?$AAt?$AA?$CI?$AA0?$AAx?$AA?$CF?$AAx?$AA?$CJ@ 0000000000045108     UefiDevicePathLib:DevicePathToText.obj
 0002:00002128       ??_C@_1BK@NGLNBACO@?$AAF?$AAl?$AAo?$AAp?$AAp?$AAy?$AA?$CI?$AA0?$AAx?$AA?$CF?$AAx?$AA?$CJ@ 0000000000045128     UefiDevicePathLib:DevicePathToText.obj
 0002:00002148       ??_C@_1BO@OEKEOEOK@?$AAK?$AAe?$AAy?$AAb?$AAo?$AAa?$AAr?$AAd?$AA?$CI?$AA0?$AAx?$AA?$CF?$AAx?$AA?$CJ@ 0000000000045148     UefiDevicePathLib:DevicePathToText.obj
 0002:00002168       ??_C@_1BK@PMIGPGKH@?$AAS?$AAe?$AAr?$AAi?$AAa?$AAl?$AA?$CI?$AA0?$AAx?$AA?$CF?$AAx?$AA?$CJ@ 0000000000045168     UefiDevicePathLib:DevicePathToText.obj
 0002:00002188       ??_C@_1CG@CPMOJELH@?$AAP?$AAa?$AAr?$AAa?$AAl?$AAl?$AAe?$AAl?$AAP?$AAo?$AAr?$AAt?$AA?$CI?$AA0?$AAx@ 0000000000045188     UefiDevicePathLib:DevicePathToText.obj
 0002:000021b0       ??_C@_1CG@JCMCADBM@?$AAA?$AAc?$AAp?$AAi?$AA?$CI?$AAP?$AAN?$AAP?$AA?$CF?$AA0?$AA4?$AAx?$AA?0?$AA0?$AAx@ 00000000000451b0     UefiDevicePathLib:DevicePathToText.obj
 0002:000021d8       ??_C@_1CE@CLIAMHCD@?$AAA?$AAc?$AAp?$AAi?$AA?$CI?$AA0?$AAx?$AA?$CF?$AA0?$AA8?$AAx?$AA?0?$AA0?$AAx?$AA?$CF@ 00000000000451d8     UefiDevicePathLib:DevicePathToText.obj
 0002:00002200       ??_C@_1BI@IBECIOLF@?$AAP?$AAc?$AAi?$AAR?$AAo?$AAo?$AAt?$AA?$CI?$AA?$CF?$AAa?$AA?$CJ@ 0000000000045200     UefiDevicePathLib:DevicePathToText.obj
 0002:00002218       ??_C@_1BK@HOGBDMPI@?$AAP?$AAc?$AAi?$AAe?$AAR?$AAo?$AAo?$AAt?$AA?$CI?$AA?$CF?$AAa?$AA?$CJ@ 0000000000045218     UefiDevicePathLib:DevicePathToText.obj
 0002:00002238       ??_C@_1BG@BGLICHDL@?$AA?$CF?$AAc?$AA?$CF?$AAc?$AA?$CF?$AAc?$AA?$CF?$AA0?$AA4?$AAX@ 0000000000045238     UefiDevicePathLib:DevicePathToText.obj
 0002:00002250       ??_C@_1CC@CMCFGMM@?$AAA?$AAc?$AAp?$AAi?$AAE?$AAx?$AAp?$AA?$CI?$AA?$CF?$AAs?$AA?0?$AA0?$AA?0?$AA?$CF?$AAa@ 0000000000045250     UefiDevicePathLib:DevicePathToText.obj
 0002:00002278       ??_C@_1CE@CGEKHGFF@?$AAA?$AAc?$AAp?$AAi?$AAE?$AAx?$AAp?$AA?$CI?$AA?$CF?$AAs?$AA?0?$AA?$CF?$AAs?$AA?0?$AA?$CF@ 0000000000045278     UefiDevicePathLib:DevicePathToText.obj
 0002:000022a0       ??_C@_1BG@EEDCOCH@?$AAA?$AAc?$AAp?$AAi?$AAE?$AAx?$AA?$CI?$AA?$CF?$AAa?$AA?0@ 00000000000452a0     UefiDevicePathLib:DevicePathToText.obj
 0002:000022b8       ??_C@_1BG@EKFNINLH@?$AAA?$AAc?$AAp?$AAi?$AAE?$AAx?$AA?$CI?$AA?$CF?$AAs?$AA?0@ 00000000000452b8     UefiDevicePathLib:DevicePathToText.obj
 0002:000022d0       ??_C@_17CAHIANN@?$AA?$CF?$AAa?$AA?0@ 00000000000452d0     UefiDevicePathLib:DevicePathToText.obj
 0002:000022d8       ??_C@_17EMBJCDEN@?$AA?$CF?$AAs?$AA?0@ 00000000000452d8     UefiDevicePathLib:DevicePathToText.obj
 0002:000022e0       ??_C@_17DFNJHAOP@?$AA?$CF?$AAa?$AA?$CJ@ 00000000000452e0     UefiDevicePathLib:DevicePathToText.obj
 0002:000022e8       ??_C@_1DI@HGKBPPFE@?$AAA?$AAc?$AAp?$AAi?$AAE?$AAx?$AA?$CI?$AA?$CF?$AAs?$AA?0?$AA?$CF?$AAs?$AA?0?$AA0?$AAx@ 00000000000452e8     UefiDevicePathLib:DevicePathToText.obj
 0002:00002320       ??_C@_1BK@IMGBACLG@?$AAA?$AAc?$AAp?$AAi?$AAA?$AAd?$AAr?$AA?$CI?$AA0?$AAx?$AA?$CF?$AAx@ 0000000000045320     UefiDevicePathLib:DevicePathToText.obj
 0002:00002340       ??_C@_1M@HHLNLLAC@?$AA?0?$AA0?$AAx?$AA?$CF?$AAx@ 0000000000045340     UefiDevicePathLib:DevicePathToText.obj
 0002:00002350       ??_C@_1BE@HBALDGNG@?$AAA?$AAt?$AAa?$AA?$CI?$AA0?$AAx?$AA?$CF?$AAx?$AA?$CJ@ 0000000000045350     UefiDevicePathLib:DevicePathToText.obj
 0002:00002368       ??_C@_1CA@EFDNFHKP@?$AAA?$AAt?$AAa?$AA?$CI?$AA?$CF?$AAs?$AA?0?$AA?$CF?$AAs?$AA?0?$AA0?$AAx?$AA?$CF?$AAx?$AA?$CJ@ 0000000000045368     UefiDevicePathLib:DevicePathToText.obj
 0002:00002388       ??_C@_1CA@JGIMMJKB@?$AAS?$AAc?$AAs?$AAi?$AA?$CI?$AA0?$AAx?$AA?$CF?$AAx?$AA?0?$AA0?$AAx?$AA?$CF?$AAx?$AA?$CJ@ 0000000000045388     UefiDevicePathLib:DevicePathToText.obj
 0002:000023a8       ??_C@_1CG@OFFLOOAD@?$AAF?$AAi?$AAb?$AAr?$AAe?$AA?$CI?$AA0?$AAx?$AA?$CF?$AAl?$AAx?$AA?0?$AA0?$AAx?$AA?$CF@ 00000000000453a8     UefiDevicePathLib:DevicePathToText.obj
 0002:000023d0       ??_C@_1BG@EHEKANON@?$AAF?$AAi?$AAb?$AAr?$AAe?$AAE?$AAx?$AA?$CI?$AA0?$AAx@ 00000000000453d0     UefiDevicePathLib:DevicePathToText.obj
 0002:000023e8       ??_C@_17JOPFNIFB@?$AA?0?$AA0?$AAx@ 00000000000453e8     UefiDevicePathLib:DevicePathToText.obj
 0002:000023f0       ??_C@_1BC@CKFHLIJB@?$AAS?$AAa?$AAs?$AAE?$AAx?$AA?$CI?$AA0?$AAx@ 00000000000453f0     UefiDevicePathLib:DevicePathToText.obj
 0002:00002408       ??_C@_1O@IEGBGPLN@?$AA?0?$AA0?$AAx?$AA?$CF?$AAx?$AA?0@ 0000000000045408     UefiDevicePathLib:DevicePathToText.obj
 0002:00002418       ??_C@_1CC@FKOFEPIC@?$AAN?$AAo?$AAT?$AAo?$AAp?$AAo?$AAl?$AAo?$AAg?$AAy?$AA?0?$AA0?$AA?0?$AA0?$AA?0@ 0000000000045418     UefiDevicePathLib:DevicePathToText.obj
 0002:0000243c       ??_C@_13COJANIEC@?$AA0@    000000000004543c     UefiDevicePathLib:DevicePathToText.obj
 0002:00002440       ??_C@_19PCNJIDGC@?$AA0?$AAx?$AA?$CF?$AAx@ 0000000000045440     UefiDevicePathLib:DevicePathToText.obj
 0002:00002450       ??_C@_1BG@JCDPLMKI@?$AA0?$AAx?$AA?$CF?$AAx?$AA?0?$AA0?$AA?0?$AA0?$AA?0?$AA0@ 0000000000045450     UefiDevicePathLib:DevicePathToText.obj
 0002:00002470       ??_C@_1GG@KPIKGINP@?$AAN?$AAV?$AAM?$AAe?$AA?$CI?$AA0?$AAx?$AA?$CF?$AAx?$AA?0?$AA?$CF?$AA0?$AA2?$AAx?$AA?9@ 0000000000045470     UefiDevicePathLib:DevicePathToText.obj
 0002:000024d8       ??_C@_1BO@HJLBIHHO@?$AAU?$AAF?$AAS?$AA?$CI?$AA0?$AAx?$AA?$CF?$AAx?$AA?0?$AA0?$AAx?$AA?$CF?$AAx?$AA?$CJ@ 00000000000454d8     UefiDevicePathLib:DevicePathToText.obj
 0002:000024f8       ??_C@_1BC@JIFEONHJ@?$AAS?$AAD?$AA?$CI?$AA0?$AAx?$AA?$CF?$AAx?$AA?$CJ@ 00000000000454f8     UefiDevicePathLib:DevicePathToText.obj
 0002:00002510       ??_C@_1BG@BHOAMFEP@?$AAe?$AAM?$AAM?$AAC?$AA?$CI?$AA0?$AAx?$AA?$CF?$AAx?$AA?$CJ@ 0000000000045510     UefiDevicePathLib:DevicePathToText.obj
 0002:00002528       ??_C@_1BM@OFMOJDLM@?$AAI?$AA1?$AA3?$AA9?$AA4?$AA?$CI?$AA?$CF?$AA0?$AA1?$AA6?$AAl?$AAx?$AA?$CJ@ 0000000000045528     UefiDevicePathLib:DevicePathToText.obj
 0002:00002548       ??_C@_1BO@CIMDKCCI@?$AAU?$AAS?$AAB?$AA?$CI?$AA0?$AAx?$AA?$CF?$AAx?$AA?0?$AA0?$AAx?$AA?$CF?$AAx?$AA?$CJ@ 0000000000045548     UefiDevicePathLib:DevicePathToText.obj
 0002:00002568       ??_C@_0BH@GADOMDOK@NewStr?5?$CB?$DN?5?$CI?$CIvoid?5?$CK?$CJ?50?$CJ@ 0000000000045568     UefiDevicePathLib:DevicePathToText.obj
 0002:00002580       ??_C@_1DK@IPDOPIPA@?$AAU?$AAs?$AAb?$AAW?$AAw?$AAi?$AAd?$AA?$CI?$AA0?$AAx?$AA?$CF?$AAx?$AA?0?$AA0?$AAx@ 0000000000045580     UefiDevicePathLib:DevicePathToText.obj
 0002:000025c0       ??_C@_1BG@NJNCNCKM@?$AAU?$AAn?$AAi?$AAt?$AA?$CI?$AA0?$AAx?$AA?$CF?$AAx?$AA?$CJ@ 00000000000455c0     UefiDevicePathLib:DevicePathToText.obj
 0002:000025d8       ??_C@_1CM@JDEAFCK@?$AA?$CI?$AA0?$AAx?$AA?$CF?$AAx?$AA?0?$AA0?$AAx?$AA?$CF?$AAx?$AA?0?$AA0?$AAx?$AA?$CF?$AAx@ 00000000000455d8     UefiDevicePathLib:DevicePathToText.obj
 0002:00002610       ??_C@_1FA@DIDNHLOK@?$AAU?$AAs?$AAb?$AAD?$AAe?$AAv?$AAi?$AAc?$AAe?$AAF?$AAi?$AAr?$AAm?$AAw?$AAa@ 0000000000045610     UefiDevicePathLib:DevicePathToText.obj
 0002:00002660       ??_C@_1DM@JLMEALMP@?$AAU?$AAs?$AAb?$AAI?$AAr?$AAd?$AAa?$AAB?$AAr?$AAi?$AAd?$AAg?$AAe?$AA?$CI?$AA0@ 0000000000045660     UefiDevicePathLib:DevicePathToText.obj
 0002:000026a0       ??_C@_1EM@PFIODAIB@?$AAU?$AAs?$AAb?$AAT?$AAe?$AAs?$AAt?$AAA?$AAn?$AAd?$AAM?$AAe?$AAa?$AAs?$AAu@ 00000000000456a0     UefiDevicePathLib:DevicePathToText.obj
 0002:000026f0       ??_C@_1EG@NMOJJABI@?$AAU?$AAs?$AAb?$AAC?$AAl?$AAa?$AAs?$AAs?$AA?$CI?$AA0?$AAx?$AA?$CF?$AAx?$AA?0?$AA0@ 00000000000456f0     UefiDevicePathLib:DevicePathToText.obj
 0002:00002738       ??_C@_1CK@MHLLPHIN@?$AAS?$AAa?$AAt?$AAa?$AA?$CI?$AA0?$AAx?$AA?$CF?$AAx?$AA?0?$AA0?$AAx?$AA?$CF?$AAx?$AA?0@ 0000000000045738     UefiDevicePathLib:DevicePathToText.obj
 0002:00002768       ??_C@_1BE@GPJMKBFH@?$AAI?$AA2?$AAO?$AA?$CI?$AA0?$AAx?$AA?$CF?$AAx?$AA?$CJ@ 0000000000045768     UefiDevicePathLib:DevicePathToText.obj
 0002:00002780       ??_C@_19HOEMCGPJ@?$AAM?$AAA?$AAC?$AA?$CI@ 0000000000045780     UefiDevicePathLib:DevicePathToText.obj
 0002:00002790       ??_C@_1O@LDLPJPIP@?$AA?0?$AA0?$AAx?$AA?$CF?$AAx?$AA?$CJ@ 0000000000045790     UefiDevicePathLib:DevicePathToText.obj
 0002:000027a0       ??_C@_1BI@FCMLLAGN@?$AA?$CF?$AAd?$AA?4?$AA?$CF?$AAd?$AA?4?$AA?$CF?$AAd?$AA?4?$AA?$CF?$AAd@ 00000000000457a0     UefiDevicePathLib:DevicePathToText.obj
 0002:000027c0       ??_C@_1JA@HKGNNMMG@?$AA?$CF?$AA0?$AA2?$AAx?$AA?$CF?$AA0?$AA2?$AAx?$AA?3?$AA?$CF?$AA0?$AA2?$AAx?$AA?$CF?$AA0@ 00000000000457c0     UefiDevicePathLib:DevicePathToText.obj
 0002:00002850       ??_C@_1M@KGGIME@?$AAI?$AAP?$AAv?$AA4?$AA?$CI@ 0000000000045850     UefiDevicePathLib:DevicePathToText.obj
 0002:00002860       ??_C@_19DDJNJOGL@?$AAD?$AAH?$AAC?$AAP@ 0000000000045860     UefiDevicePathLib:DevicePathToText.obj
 0002:00002870       ??_C@_19JPNAHHAM@?$AA?0?$AA?$CF?$AAs?$AA?0@ 0000000000045870     UefiDevicePathLib:DevicePathToText.obj
 0002:00002880       ??_C@_1M@ENGOMJMP@?$AAI?$AAP?$AAv?$AA6?$AA?$CI@ 0000000000045880     UefiDevicePathLib:DevicePathToText.obj
 0002:00002890       ??_C@_1BC@CMHMGCCH@?$AA?0?$AAS?$AAt?$AAa?$AAt?$AAi?$AAc?$AA?0@ 0000000000045890     UefiDevicePathLib:DevicePathToText.obj
 0002:000028a8       ??_C@_1DC@LOFPJEEL@?$AA?0?$AAS?$AAt?$AAa?$AAt?$AAe?$AAl?$AAe?$AAs?$AAs?$AAA?$AAu?$AAt?$AAo?$AAC@ 00000000000458a8     UefiDevicePathLib:DevicePathToText.obj
 0002:000028e0       ??_C@_1DA@HMGEOIF@?$AA?0?$AAS?$AAt?$AAa?$AAt?$AAe?$AAf?$AAu?$AAl?$AAA?$AAu?$AAt?$AAo?$AAC?$AAo@ 00000000000458e0     UefiDevicePathLib:DevicePathToText.obj
 0002:00002910       ??_C@_1EM@IPHLFBGI@?$AAI?$AAn?$AAf?$AAi?$AAn?$AAi?$AAb?$AAa?$AAn?$AAd?$AA?$CI?$AA0?$AAx?$AA?$CF?$AAx@ 0000000000045910     UefiDevicePathLib:DevicePathToText.obj
 0002:00002960       ??_C@_1BM@EHGODEHA@?$AAU?$AAa?$AAr?$AAt?$AA?$CI?$AAD?$AAE?$AAF?$AAA?$AAU?$AAL?$AAT?$AA?0@ 0000000000045960     UefiDevicePathLib:DevicePathToText.obj
 0002:00002980       ??_C@_1BE@OEIOOGGH@?$AAU?$AAa?$AAr?$AAt?$AA?$CI?$AA?$CF?$AAl?$AAd?$AA?0@ 0000000000045980     UefiDevicePathLib:DevicePathToText.obj
 0002:00002998       ??_C@_1BC@DDKPDLCJ@?$AAD?$AAE?$AAF?$AAA?$AAU?$AAL?$AAT?$AA?0@ 0000000000045998     UefiDevicePathLib:DevicePathToText.obj
 0002:000029b0       ??_C@_17FCMKBBGO@?$AA?$CF?$AAd?$AA?0@ 00000000000459b0     UefiDevicePathLib:DevicePathToText.obj
 0002:000029b8       ??_C@_17EPMPCBNG@?$AA?$CF?$AAc?$AA?0@ 00000000000459b8     UefiDevicePathLib:DevicePathToText.obj
 0002:000029c0       ??_C@_15HMOPGJC@?$AAD?$AA?$CJ@ 00000000000459c0     UefiDevicePathLib:DevicePathToText.obj
 0002:000029c8       ??_C@_15FMCBGKOA@?$AA1?$AA?$CJ@ 00000000000459c8     UefiDevicePathLib:DevicePathToText.obj
 0002:000029d0       ??_C@_19PODFHIEB@?$AA1?$AA?4?$AA5?$AA?$CJ@ 00000000000459d0     UefiDevicePathLib:DevicePathToText.obj
 0002:000029dc       ??_C@_15NKLFBIEO@?$AA2?$AA?$CJ@ 00000000000459dc     UefiDevicePathLib:DevicePathToText.obj
 0002:000029e4       ??_C@_15HEHGDBEE@?$AAx?$AA?$CJ@ 00000000000459e4     UefiDevicePathLib:DevicePathToText.obj
 0002:000029f0       ??_C@_1CC@OKJDLPLB@?$AAi?$AAS?$AAC?$AAS?$AAI?$AA?$CI?$AA?$CF?$AAa?$AA?0?$AA0?$AAx?$AA?$CF?$AAx?$AA?0?$AA0@ 00000000000459f0     UefiDevicePathLib:DevicePathToText.obj
 0002:00002a18       ??_C@_1BA@FMEKDPAI@?$AAC?$AAH?$AAA?$AAP?$AA_?$AAB?$AAI@ 0000000000045a18     UefiDevicePathLib:DevicePathToText.obj
 0002:00002a28       ??_C@_1BC@EFEBCBGB@?$AAr?$AAe?$AAs?$AAe?$AAr?$AAv?$AAe?$AAd@ 0000000000045a28     UefiDevicePathLib:DevicePathToText.obj
 0002:00002a40       ??_C@_17HLMHNDHP@?$AA?$CF?$AAs?$AA?$CJ@ 0000000000045a40     UefiDevicePathLib:DevicePathToText.obj
 0002:00002a48       ??_C@_1BC@OPCHKNKH@?$AAV?$AAl?$AAa?$AAn?$AA?$CI?$AA?$CF?$AAd?$AA?$CJ@ 0000000000045a48     UefiDevicePathLib:DevicePathToText.obj
 0002:00002a60       ??_C@_1EI@EPMFLBAJ@?$AAB?$AAl?$AAu?$AAe?$AAt?$AAo?$AAo?$AAt?$AAh?$AA?$CI?$AA?$CF?$AA0?$AA2?$AAx?$AA?$CF@ 0000000000045a60     UefiDevicePathLib:DevicePathToText.obj
 0002:00002aa8       ??_C@_1BE@DKODNJMI@?$AAW?$AAi?$AA?9?$AAF?$AAi?$AA?$CI?$AA?$CF?$AAa?$AA?$CJ@ 0000000000045aa8     UefiDevicePathLib:DevicePathToText.obj
 0002:00002ac0       ??_C@_1FK@LABBEHKJ@?$AAB?$AAl?$AAu?$AAe?$AAt?$AAo?$AAo?$AAt?$AAh?$AAL?$AAE?$AA?$CI?$AA?$CF?$AA0?$AA2@ 0000000000045ac0     UefiDevicePathLib:DevicePathToText.obj
 0002:00002b20       ??_C@_19KGHFHKGE@?$AAD?$AAn?$AAs?$AA?$CI@ 0000000000045b20     UefiDevicePathLib:DevicePathToText.obj
 0002:00002b30       ??_C@_0BH@EDBFFFOA@UriStr?5?$CB?$DN?5?$CI?$CIvoid?5?$CK?$CJ?50?$CJ@ 0000000000045b30     UefiDevicePathLib:DevicePathToText.obj
 0002:00002b48       ??_C@_1BA@OMDAJDPE@?$AAU?$AAr?$AAi?$AA?$CI?$AA?$CF?$AAa?$AA?$CJ@ 0000000000045b48     UefiDevicePathLib:DevicePathToText.obj
 0002:00002b58       ??_C@_1CA@HNPFGNEH@?$AAH?$AAD?$AA?$CI?$AA?$CF?$AAd?$AA?0?$AA?$CF?$AAs?$AA?0?$AA0?$AAx?$AA?$CF?$AA0?$AA8?$AAx@ 0000000000045b58     UefiDevicePathLib:DevicePathToText.obj
 0002:00002b78       ??_C@_1BI@MINPIKNN@?$AAH?$AAD?$AA?$CI?$AA?$CF?$AAd?$AA?0?$AA?$CF?$AAs?$AA?0?$AA?$CF?$AAg@ 0000000000045b78     UefiDevicePathLib:DevicePathToText.obj
 0002:00002b90       ??_C@_1BG@INGFHNLC@?$AAH?$AAD?$AA?$CI?$AA?$CF?$AAd?$AA?0?$AA?$CF?$AAd?$AA?0?$AA0@ 0000000000045b90     UefiDevicePathLib:DevicePathToText.obj
 0002:00002ba8       ??_C@_1BM@NOEIAAGN@?$AA?0?$AA0?$AAx?$AA?$CF?$AAl?$AAx?$AA?0?$AA0?$AAx?$AA?$CF?$AAl?$AAx?$AA?$CJ@ 0000000000045ba8     UefiDevicePathLib:DevicePathToText.obj
 0002:00002bc8       ??_C@_1BI@EEHCFNDN@?$AAC?$AAD?$AAR?$AAO?$AAM?$AA?$CI?$AA0?$AAx?$AA?$CF?$AAx?$AA?$CJ@ 0000000000045bc8     UefiDevicePathLib:DevicePathToText.obj
 0002:00002be0       ??_C@_1DA@JMLBJEDN@?$AAC?$AAD?$AAR?$AAO?$AAM?$AA?$CI?$AA0?$AAx?$AA?$CF?$AAx?$AA?0?$AA0?$AAx?$AA?$CF?$AAl@ 0000000000045be0     UefiDevicePathLib:DevicePathToText.obj
 0002:00002c10       ??_C@_15GANGMFKL@?$AA?$CF?$AAs@ 0000000000045c10     UefiDevicePathLib:DevicePathToText.obj
 0002:00002c18       ??_C@_1BE@CJGJAKDA@?$AAM?$AAe?$AAd?$AAi?$AAa?$AA?$CI?$AA?$CF?$AAg?$AA?$CJ@ 0000000000045c18     UefiDevicePathLib:DevicePathToText.obj
 0002:00002c30       ??_C@_1O@HJJPOOCL@?$AAF?$AAv?$AA?$CI?$AA?$CF?$AAg?$AA?$CJ@ 0000000000045c30     UefiDevicePathLib:DevicePathToText.obj
 0002:00002c40       ??_C@_1BG@MHENELFF@?$AAF?$AAv?$AAF?$AAi?$AAl?$AAe?$AA?$CI?$AA?$CF?$AAg?$AA?$CJ@ 0000000000045c40     UefiDevicePathLib:DevicePathToText.obj
 0002:00002c58       ??_C@_1CI@FAOKAOM@?$AAO?$AAf?$AAf?$AAs?$AAe?$AAt?$AA?$CI?$AA0?$AAx?$AA?$CF?$AAl?$AAx?$AA?0?$AA0?$AAx@ 0000000000045c58     UefiDevicePathLib:DevicePathToText.obj
 0002:00002c80       ??_C@_1DI@GJAGNPCG@?$AAV?$AAi?$AAr?$AAt?$AAu?$AAa?$AAl?$AAD?$AAi?$AAs?$AAk?$AA?$CI?$AA0?$AAx?$AA?$CF@ 0000000000045c80     UefiDevicePathLib:DevicePathToText.obj
 0002:00002cb8       ??_C@_1DE@FBEBFJJD@?$AAV?$AAi?$AAr?$AAt?$AAu?$AAa?$AAl?$AAC?$AAD?$AA?$CI?$AA0?$AAx?$AA?$CF?$AAl?$AAx@ 0000000000045cb8     UefiDevicePathLib:DevicePathToText.obj
 0002:00002cf0       ??_C@_1EM@PFGFJDCD@?$AAP?$AAe?$AAr?$AAs?$AAi?$AAs?$AAt?$AAe?$AAn?$AAt?$AAV?$AAi?$AAr?$AAt?$AAu@ 0000000000045cf0     UefiDevicePathLib:DevicePathToText.obj
 0002:00002d40       ??_C@_1EI@IJLGIAIE@?$AAP?$AAe?$AAr?$AAs?$AAi?$AAs?$AAt?$AAe?$AAn?$AAt?$AAV?$AAi?$AAr?$AAt?$AAu@ 0000000000045d40     UefiDevicePathLib:DevicePathToText.obj
 0002:00002d88       ??_C@_1DG@IFGHOPEL@?$AAR?$AAa?$AAm?$AAD?$AAi?$AAs?$AAk?$AA?$CI?$AA0?$AAx?$AA?$CF?$AAl?$AAx?$AA?0?$AA0@ 0000000000045d88     UefiDevicePathLib:DevicePathToText.obj
 0002:00002dc0       ??_C@_1BE@EICHFCPK@?$AAB?$AAB?$AAS?$AA?$CI?$AA?$CF?$AAs?$AA?0?$AA?$CF?$AAa@ 0000000000045dc0     UefiDevicePathLib:DevicePathToText.obj
 0002:00002dd8       ??_C@_1BI@EAEHELAJ@?$AAB?$AAB?$AAS?$AA?$CI?$AA0?$AAx?$AA?$CF?$AAx?$AA?0?$AA?$CF?$AAa@ 0000000000045dd8     UefiDevicePathLib:DevicePathToText.obj
 0002:00002df0       ??_C@_1BG@BNMBFAIA@?$AAP?$AAa?$AAt?$AAh?$AA?$CI?$AA?$CF?$AAd?$AA?0?$AA?$CF?$AAd@ 0000000000045df0     UefiDevicePathLib:DevicePathToText.obj
 0002:00002e08       ??_C@_1M@NAHACGNB@?$AA?$CF?$AAs?$AA?$CI?$AA?$CF?$AAd@ 0000000000045e08     UefiDevicePathLib:DevicePathToText.obj
 0002:00002e14       ??_C@_13CGOKJPIL@?$AA?1@   0000000000045e14     UefiDevicePathLib:DevicePathToText.obj
 0002:00002e20       mUefiDevicePathLibToTextTableGeneric 0000000000045e20     UefiDevicePathLib:DevicePathToText.obj
 0002:00002e80       mUefiDevicePathLibToTextTable 0000000000045e80     UefiDevicePathLib:DevicePathToText.obj
 0002:000031a0       ??_C@_0BN@COECPDCC@gImageHandle?5?$CB?$DN?5?$CI?$CIvoid?5?$CK?$CJ?50?$CJ@ 00000000000461a0     UefiBootServicesTableLib:UefiBootServicesTableLib.obj
 0002:000031c0       ??_C@_0FI@GPPFIFID@D?3?2develop?2EDK2?2edk2?2MdePkg?2Lib@ 00000000000461c0     UefiBootServicesTableLib:UefiBootServicesTableLib.obj
 0002:00003218       ??_C@_0BE@DGNHAHIL@gST?5?$CB?$DN?5?$CI?$CIvoid?5?$CK?$CJ?50?$CJ@ 0000000000046218     UefiBootServicesTableLib:UefiBootServicesTableLib.obj
 0002:00003230       ??_C@_0BE@BDFJLGLN@gBS?5?$CB?$DN?5?$CI?$CIvoid?5?$CK?$CJ?50?$CJ@ 0000000000046230     UefiBootServicesTableLib:UefiBootServicesTableLib.obj
 0002:00003248       ??_C@_0BE@OBDFIHND@gRT?5?$CB?$DN?5?$CI?$CIvoid?5?$CK?$CJ?50?$CJ@ 0000000000046248     UefiRuntimeServicesTableLib:UefiRuntimeServicesTableLib.obj
 0002:00003260       ??_C@_0FO@FKLKMJDF@D?3?2develop?2EDK2?2edk2?2MdePkg?2Lib@ 0000000000046260     UefiRuntimeServicesTableLib:UefiRuntimeServicesTableLib.obj
 0002:000032c0       ??_C@_0BK@PPOBBAMB@TableGuid?5?$CB?$DN?5?$CI?$CIvoid?5?$CK?$CJ?50?$CJ@ 00000000000462c0     UefiLib:UefiLib.obj
 0002:000032e0       ??_C@_0DG@PLINABMB@D?3?2develop?2EDK2?2edk2?2MdePkg?2Lib@ 00000000000462e0     UefiLib:UefiLib.obj
 0002:00003318       ??_C@_0BG@JDKEGFNB@Table?5?$CB?$DN?5?$CI?$CIvoid?5?$CK?$CJ?50?$CJ@ 0000000000046318     UefiLib:UefiLib.obj
 0002:00003330       ??_C@_0BF@OGAHIMFI@Name?5?$CB?$DN?5?$CI?$CIvoid?5?$CK?$CJ?50?$CJ@ 0000000000046330     UefiLib:UefiLib.obj
 0002:00003348       ??_C@_0BF@JGGLMCFN@Lock?5?$CB?$DN?5?$CI?$CIvoid?5?$CK?$CJ?50?$CJ@ 0000000000046348     UefiLib:UefiLib.obj
 0002:00003360       ??_C@_0BO@IJOPPPFL@Lock?9?$DOLock?5?$DN?$DN?5EfiLockReleased@ 0000000000046360     UefiLib:UefiLib.obj
 0002:00003380       ??_C@_0BO@FHNOFLFJ@Lock?9?$DOLock?5?$DN?$DN?5EfiLockAcquired@ 0000000000046380     UefiLib:UefiLib.obj
 0002:000033a0       ??_C@_0EG@GOBFPEEP@Name?5?$CB?$DN?5?$CI?$CIvoid?5?$CK?$CJ?50?$CJ?5?$CG?$CG?5Guid?5?$CB?$DN@ 00000000000463a0     UefiLib:UefiLib.obj
 0002:000033e8       ??_C@_0BH@FMEOEIBC@?$CKValue?5?$CB?$DN?5?$CI?$CIvoid?5?$CK?$CJ?50?$CJ@ 00000000000463e8     UefiLib:UefiLib.obj
 0002:00003400       ??_C@_0CD@OLFKAJF@SupportedLanguages?5?$CB?$DN?5?$CI?$CIvoid?5?$CK?$CJ@ 0000000000046400     UefiLib:UefiLib.obj
 0002:00003428       ??_C@_0BD@BHENKNKP@NumberOfLines?5?$CB?$DN?50@ 0000000000046428     UefiLib:Console.obj
 0002:00003440       ??_C@_0DG@IAFHGCJE@D?3?2develop?2EDK2?2edk2?2MdePkg?2Lib@ 0000000000046440     UefiLib:Console.obj
 0002:00003478       ??_C@_0P@ICDOOCHP@MaxLength?5?$CB?$DN?50@ 0000000000046478     UefiLib:Console.obj
 0002:00003488       ??_C@_0BF@DMEONNDO@Line?5?$CB?$DN?5?$CI?$CIvoid?5?$CK?$CJ?50?$CJ@ 0000000000046488     UefiLib:Console.obj
 0002:000034a0       ??_C@_0BK@IHAIHFJE@TmpString?5?$CB?$DN?5?$CI?$CIvoid?5?$CK?$CJ?50?$CJ@ 00000000000464a0     UefiLib:Console.obj
 0002:000034c0       ??_C@_17LGKOMLJ@?$AA?4?$AA?4?$AA?4@ 00000000000464c0     UefiLib:Console.obj
 0002:000034c8       ??_C@_0DH@ENOHAOEJ@D?3?2develop?2EDK2?2edk2?2MdePkg?2Lib@ 00000000000464c8     DxeHobLib:HobLib.obj
 0002:00003500       ??_C@_0BJ@OBFMLLDO@mHobList?5?$CB?$DN?5?$CI?$CIvoid?5?$CK?$CJ?50?$CJ@ 0000000000046500     DxeHobLib:HobLib.obj
 0002:00003520       ??_C@_0BJ@NOLLDKJB@HobStart?5?$CB?$DN?5?$CI?$CIvoid?5?$CK?$CJ?50?$CJ@ 0000000000046520     DxeHobLib:HobLib.obj
 0002:00003540       ??_C@_0FC@DLFLKFFJ@D?3?2develop?2EDK2?2edk2?2MdeModuleP@ 0000000000046540     UefiHiiServicesLib:UefiHiiServicesLib.obj
 0002:000035a0       ??_C@_0EO@KJOBJECO@D?3?2develop?2EDK2?2edk2?2MdePkg?2Lib@ 00000000000465a0     DxeServicesTableLib:DxeServicesTableLib.obj
 0002:000035f0       ??_C@_0BE@IOIFLNKO@gDS?5?$CB?$DN?5?$CI?$CIvoid?5?$CK?$CJ?50?$CJ@ 00000000000465f0     DxeServicesTableLib:DxeServicesTableLib.obj
 0002:00003610       ??_C@_0EB@KCHLIKEJ@D?3?2develop?2EDK2?2edk2?2MdeModuleP@ 0000000000046610     UefiHiiLib:HiiString.obj
 0002:00003654       ??_C@_06PLDEFKP@x?9UEFI@   0000000000046654     UefiHiiLib:HiiString.obj
 0002:00003660       ??_C@_0CA@OEKIMLLB@PackageListGuid?5?$CB?$DN?5?$CI?$CIvoid?5?$CK?$CJ?50?$CJ@ 0000000000046660     UefiHiiLib:HiiString.obj
 0002:00003680       ??_C@_0O@EMMLPDMJ@StringId?5?$CB?$DN?50@ 0000000000046680     UefiHiiLib:HiiString.obj
 0002:00003690       ??_C@_0DA@MAJHLAPK@?$CB?$CI?$CBTryBestLanguage?5?$CG?$CG?5Language?5@ 0000000000046690     UefiHiiLib:HiiString.obj
 0002:000036c0       ??_C@_00CNPNBAHC@@         00000000000466c0     UefiHiiLib:HiiString.obj
 0002:000036c8       ??_C@_0DO@KBNMBPDE@D?3?2develop?2EDK2?2edk2?2MdeModuleP@ 00000000000466c8     UefiHiiLib:HiiLib.obj
 0002:00003708       ??_C@_0DK@MCEDFOEJ@Status?5?$CB?$DN?5?$CI?$CIRETURN_STATUS?$CJ?$CI0x80@ 0000000000046708     UefiHiiLib:HiiLib.obj
 0002:00003748       ??_C@_0BP@JFMDNGDC@HiiPackageList?5?$CB?$DN?5?$CI?$CIvoid?5?$CK?$CJ?50?$CJ@ 0000000000046748     UefiHiiLib:HiiLib.obj
 0002:00003768       ??_C@_0BN@EHPNHAIF@ConfigString?5?$CB?$DN?5?$CI?$CIvoid?5?$CK?$CJ?50?$CJ@ 0000000000046768     UefiHiiLib:HiiLib.obj
 0002:00003788       ??_C@_0BO@KAEFIFMO@ConfigRequest?5?$CB?$DN?5?$CI?$CIvoid?5?$CK?$CJ?50?$CJ@ 0000000000046788     UefiHiiLib:HiiLib.obj
 0002:000037a8       ??_C@_0BG@MJAHJKJ@Block?5?$CB?$DN?5?$CI?$CIvoid?5?$CK?$CJ?50?$CJ@ 00000000000467a8     UefiHiiLib:HiiLib.obj
 0002:000037c0       ??_C@_1M@DPLGJLCD@?$AAG?$AAU?$AAI?$AAD?$AA?$DN@ 00000000000467c0     UefiHiiLib:HiiLib.obj
 0002:000037d0       ??_C@_1O@FMIENBLJ@?$AA?$CG?$AAN?$AAA?$AAM?$AAE?$AA?$DN@ 00000000000467d0     UefiHiiLib:HiiLib.obj
 0002:000037e0       ??_C@_1O@GGMHNGIF@?$AA?$CG?$AAP?$AAA?$AAT?$AAH?$AA?$DN@ 00000000000467e0     UefiHiiLib:HiiLib.obj
 0002:000037f0       ??_C@_1BC@KLGPJAMP@?$AA?$CG?$AAO?$AAF?$AAF?$AAS?$AAE?$AAT?$AA?$DN@ 00000000000467f0     UefiHiiLib:HiiLib.obj
 0002:00003808       ??_C@_0BM@LENJOOBF@FirstString?5?$CB?$DN?5?$CI?$CIvoid?5?$CK?$CJ?50?$CJ@ 0000000000046808     UefiHiiLib:HiiLib.obj
 0002:00003828       ??_C@_0BN@CGMEJHHH@SecondString?5?$CB?$DN?5?$CI?$CIvoid?5?$CK?$CJ?50?$CJ@ 0000000000046828     UefiHiiLib:HiiLib.obj
 0002:00003848       ??_C@_0CC@BCKDEPBB@StartSearchString?5?$CB?$DN?5?$CI?$CIvoid?5?$CK?$CJ?5@ 0000000000046848     UefiHiiLib:HiiLib.obj
 0002:00003870       ??_C@_0CB@NPMPBLHL@StopSearchString?5?$CB?$DN?5?$CI?$CIvoid?5?$CK?$CJ?50@ 0000000000046870     UefiHiiLib:HiiLib.obj
 0002:00003898       ??_C@_0BK@LFDBOAFJ@ConfigHdr?5?$CB?$DN?5?$CI?$CIvoid?5?$CK?$CJ?50?$CJ@ 0000000000046898     UefiHiiLib:HiiLib.obj
 0002:000038b8       ??_C@_1M@IDEFLMF@?$AA?$CF?$AAs?$AA?$CG?$AA?$CF?$AAs@ 00000000000468b8     UefiHiiLib:HiiLib.obj
 0002:000038c8       ??_C@_1DC@EPJEBJEB@?$AA?$CF?$AAs?$AA?$CG?$AAO?$AAF?$AAF?$AAS?$AAE?$AAT?$AA?$DN?$AA0?$AA?$CG?$AAW?$AAI?$AAD@ 00000000000468c8     UefiHiiLib:HiiLib.obj
 0002:00003900       ??_C@_19LJDFFCJJ@?$AA?$CF?$AAs?$AA?$CF?$AAs@ 0000000000046900     UefiHiiLib:HiiLib.obj
 0002:00003910       ??_C@_0BN@OKKMNGPH@OpCodeHandle?5?$CB?$DN?5?$CI?$CIvoid?5?$CK?$CJ?50?$CJ@ 0000000000046910     UefiHiiLib:HiiLib.obj
 0002:00003930       ??_C@_0BP@IOABAFLF@OpCodeTemplate?5?$CB?$DN?5?$CI?$CIvoid?5?$CK?$CJ?50?$CJ@ 0000000000046930     UefiHiiLib:HiiLib.obj
 0002:00003950       ??_C@_0CF@DPHCOLMP@?$CIOpCodeSize?5?$CL?5ExtensionSize?$CJ?5?$DM?$DN@ 0000000000046950     UefiHiiLib:HiiLib.obj
 0002:00003978       ??_C@_0BK@JGHNIOOD@RawBuffer?5?$CB?$DN?5?$CI?$CIvoid?5?$CK?$CJ?50?$CJ@ 0000000000046978     UefiHiiLib:HiiLib.obj
 0002:00003998       ??_C@_0CA@JCKPEJCB@RawOpCodeHandle?5?$CB?$DN?5?$CI?$CIvoid?5?$CK?$CJ?50?$CJ@ 0000000000046998     UefiHiiLib:HiiLib.obj
 0002:000039b8       ??_C@_0M@HDMCLEDO@Type?5?$DM?50x08@ 00000000000469b8     UefiHiiLib:HiiLib.obj
 0002:000039c8       ??_C@_0BO@EOOMICLP@OpCodeSize?5?$DO?$DN?5sizeof?5?$CIOpCode?$CJ@ 00000000000469c8     UefiHiiLib:HiiLib.obj
 0002:000039e8       ??_C@_0CP@JCOCHGHI@?$CIQuestionFlags?5?$CG?5?$CI?$HO?$CI0x01?5?$HM?50x04@ 00000000000469e8     UefiHiiLib:HiiLib.obj
 0002:00003a18       ??_C@_0L@CGNMMHHN@Scope?5?$DM?$DN?51@ 0000000000046a18     UefiHiiLib:HiiLib.obj
 0002:00003a28       ??_C@_0BJ@KNDMPOGB@?$CIFlags?5?$CG?5?$CI?$HO?$CI0x01?$CJ?$CJ?$CJ?5?$DN?$DN?50@ 0000000000046a28     UefiHiiLib:HiiLib.obj
 0002:00003a48       ??_C@_0DG@CGCLKNEF@?$CIQuestionFlags?5?$CG?5?$CI?$HO?$CI0x01?5?$HM?50x04@ 0000000000046a48     UefiHiiLib:HiiLib.obj
 0002:00003a80       ??_C@_0DN@DNMIONI@?$CIQuestionFlags?5?$CG?5?$CI?$HO?$CI0x01?5?$HM?50x04@ 0000000000046a80     UefiHiiLib:HiiLib.obj
 0002:00003ac0       mConfigHdrTemplate         0000000000046ac0     UefiHiiLib:HiiLib.obj
 0002:00003b30       mHiiDefaultTypeToWidth     0000000000046b30     UefiHiiLib:HiiLib.obj
 0002:00003b38       mEndOfPakageList           0000000000046b38     UefiHiiLib:HiiLib.obj
 0002:00003b40       ??_C@_0ED@DACKPILM@D?3?2develop?2EDK2?2edk2?2MdeModuleP@ 0000000000046b40     UefiHiiLib:HiiLanguage.obj
 0002:00003b90       ??_C@_0FO@DIOOKFHA@?$CI?$CI?$CIRETURN_STATUS?$CJ?$CIStatus?$CJ?$CJ?5?$DO?$DN?50@ 0000000000046b90     UefiBootManagerLib:BmConnect.obj
 0002:00003bf0       ??_C@_0EJ@JKFDMAIH@D?3?2develop?2EDK2?2edk2?2MdeModuleP@ 0000000000046bf0     UefiBootManagerLib:BmConnect.obj
 0002:00003c3c       ??_C@_03JKDJLNO@BDS@       0000000000046c3c     UefiBootManagerLib:BmBoot.obj
 0002:00003c40       ??_C@_1O@CJIOJFKI@?$AA?$CF?$AAs?$AA?$CF?$AA0?$AA4?$AAx@ 0000000000046c40     UefiBootManagerLib:BmBoot.obj
 0002:00003c50       ??_C@_0DG@JBPPOHBO@OptionToFind?9?$DOOptionNumber?5?$DN?$DN?5B@ 0000000000046c50     UefiBootManagerLib:BmBoot.obj
 0002:00003c90       ??_C@_0EG@JGMJLKEP@D?3?2develop?2EDK2?2edk2?2MdeModuleP@ 0000000000046c90     UefiBootManagerLib:BmBoot.obj
 0002:00003cd8       ??_C@_0BM@DJHLFDEF@BootOptions?5?$CB?$DN?5?$CI?$CIvoid?5?$CK?$CJ?50?$CJ@ 0000000000046cd8     UefiBootManagerLib:BmBoot.obj
 0002:00003cf8       ??_C@_0CB@FPENLMEA@UsbIoHandleCount?5?$CB?$DN?5?$CI?$CIvoid?5?$CK?$CJ?50@ 0000000000046cf8     UefiBootManagerLib:BmBoot.obj
 0002:00003d20       ??_C@_19GDALFLBC@?$AAH?$AAD?$AAD?$AAP@ 0000000000046d20     UefiBootManagerLib:BmBoot.obj
 0002:00003d30       ??_C@_0CB@HNPPGGEL@IsDevicePathEnd?5?$CITempDevicePath@ 0000000000046d30     UefiBootManagerLib:BmBoot.obj
 0002:00003d58       ??_C@_1CM@POLGBFKG@?$AA?2?$AAE?$AAF?$AAI?$AA?2?$AAB?$AAO?$AAO?$AAT?$AA?2?$AAB?$AAO?$AAO?$AAT?$AAX@ 0000000000046d58     UefiBootManagerLib:BmBoot.obj
 0002:00003d88       ??_C@_0CC@IJGCPIJN@RamDiskDevicePath?5?$CB?$DN?5?$CI?$CIvoid?5?$CK?$CJ?5@ 0000000000046d88     UefiBootManagerLib:BmBoot.obj
 0002:00003db0       ??_C@_0GA@KMAJBBHE@?$CIDevicePathType?5?$CIRamDiskDeviceP@ 0000000000046db0     UefiBootManagerLib:BmBoot.obj
 0002:00003e10       ??_C@_0BB@DLJFOJCC@BmExpandLoadFile@ 0000000000046e10     UefiBootManagerLib:BmBoot.obj
 0002:00003e30       ??_C@_0FG@OIHFMLDO@?$CFa?3?$CFa?3?5failed?5to?5allocate?5reser@ 0000000000046e30     UefiBootManagerLib:BmBoot.obj
 0002:00003e88       ??_C@_0BJ@LNALCLOM@FilePath?5?$CB?$DN?5?$CI?$CIvoid?5?$CK?$CJ?50?$CJ@ 0000000000046e88     UefiBootManagerLib:BmBoot.obj
 0002:00003eb0       ??_C@_0EN@JHMJNHPF@?$CIErrorCode?5?$DN?$DN?5?$CI0x1000?5?$HM?50x00000@ 0000000000046eb0     UefiBootManagerLib:BmBoot.obj
 0002:00003f00       ??_C@_0DM@POBOKFGH@?$FLBds?$FN?5Failed?5to?5create?5Boot?$CD?$CD?$CD?$CD@ 0000000000046f00     UefiBootManagerLib:BmBoot.obj
 0002:00003f40       ??_C@_1BI@LBNGELID@?$AAB?$AAo?$AAo?$AAt?$AAC?$AAu?$AAr?$AAr?$AAe?$AAn?$AAt@ 0000000000046f40     UefiBootManagerLib:BmBoot.obj
 0002:00003f58       ??_C@_0CC@HMPNCCAJ@?$FLBds?$FN?5Booting?5Boot?5Manager?5Menu@ 0000000000046f58     UefiBootManagerLib:BmBoot.obj
 0002:00003f80       ??_C@_0L@OBOBMPPK@BdsAttempt@ 0000000000046f80     UefiBootManagerLib:BmBoot.obj
 0002:00003f90       ??_C@_0CH@MAENAIDI@?$FLBds?$FNBooting?5from?5unknown?5devic@ 0000000000046f90     UefiBootManagerLib:BmBoot.obj
 0002:00003fb8       ??_C@_0BB@BJMHKPKN@?$FLBds?$FNBooting?5?$CFs?6@ 0000000000046fb8     UefiBootManagerLib:BmBoot.obj
 0002:00003fd0       ??_C@_0BK@CCNIJCHI@Image?5Return?5Status?5?$DN?5?$CFr?6@ 0000000000046fd0     UefiBootManagerLib:BmBoot.obj
 0002:00003ff0       ??_C@_0FK@LFOCKHA@Status?5?$DN?$DN?5?$CIRETURN_STATUS?$CJ?$CI0?$CJ?5?$HM?$HM@ 0000000000046ff0     UefiBootManagerLib:BmBoot.obj
 0002:00004050       ??_C@_0CA@CKEJEPEJ@BootOptionCount?5?$CB?$DN?5?$CI?$CIvoid?5?$CK?$CJ?50?$CJ@ 0000000000047050     UefiBootManagerLib:BmBoot.obj
 0002:00004070       ??_C@_1M@NFPEGKHA@?$AAC?$AAo?$AAn?$AAI?$AAn@ 0000000000047070     UefiBootManagerLib:BmConsole.obj
 0002:00004080       ??_C@_1O@MJHLOIFA@?$AAC?$AAo?$AAn?$AAO?$AAu?$AAt@ 0000000000047080     UefiBootManagerLib:BmConsole.obj
 0002:00004090       ??_C@_1O@JOJMCOJC@?$AAE?$AAr?$AAr?$AAO?$AAu?$AAt@ 0000000000047090     UefiBootManagerLib:BmConsole.obj
 0002:000040a0       ??_C@_1BC@OBFMLJLI@?$AAC?$AAo?$AAn?$AAI?$AAn?$AAD?$AAe?$AAv@ 00000000000470a0     UefiBootManagerLib:BmConsole.obj
 0002:000040b8       ??_C@_1BE@INNAKDAF@?$AAC?$AAo?$AAn?$AAO?$AAu?$AAt?$AAD?$AAe?$AAv@ 00000000000470b8     UefiBootManagerLib:BmConsole.obj
 0002:000040d0       ??_C@_1BE@JFPOEAHF@?$AAE?$AAr?$AAr?$AAO?$AAu?$AAt?$AAD?$AAe?$AAv@ 00000000000470d0     UefiBootManagerLib:BmConsole.obj
 0002:000040f0       ??_C@_0EJ@FHDELJME@D?3?2develop?2EDK2?2edk2?2MdeModuleP@ 00000000000470f0     UefiBootManagerLib:BmConsole.obj
 0002:00004140       ??_C@_0BI@LEGCJJJC@VarName?5?$CB?$DN?5?$CI?$CIvoid?5?$CK?$CJ?50?$CJ@ 0000000000047140     UefiBootManagerLib:BmConsole.obj
 0002:00004158       ??_C@_0BO@LGKGLLEA@ConsoleHandle?5?$CB?$DN?5?$CI?$CIvoid?5?$CK?$CJ?50?$CJ@ 0000000000047158     UefiBootManagerLib:BmConsole.obj
 0002:00004178       ??_C@_0BM@CGHKLPCB@ConsoleGuid?5?$CB?$DN?5?$CI?$CIvoid?5?$CK?$CJ?50?$CJ@ 0000000000047178     UefiBootManagerLib:BmConsole.obj
 0002:00004198       ??_C@_0CC@IEKIILIB@ProtocolInterface?5?$CB?$DN?5?$CI?$CIvoid?5?$CK?$CJ?5@ 0000000000047198     UefiBootManagerLib:BmConsole.obj
 0002:000041c0       ??_C@_0DC@IFPPFOCH@?$FLBds?$FN?5No?5valid?5console?5instance@ 00000000000471c0     UefiBootManagerLib:BmConsole.obj
 0002:000041f8       ??_C@_0M@BAEEMNFD@ConOutReady@ 00000000000471f8     UefiBootManagerLib:BmConsole.obj
 0002:00004208       ??_C@_0L@KAOJLKKM@ConInReady@ 0000000000047208     UefiBootManagerLib:BmConsole.obj
 0002:00004218       ??_C@_0M@KHIJIABJ@ErrOutReady@ 0000000000047218     UefiBootManagerLib:BmConsole.obj
 0002:00004228       ??_C@_1O@GAOCKAOK@?$AAD?$AAr?$AAi?$AAv?$AAe?$AAr@ 0000000000047228     UefiBootManagerLib:BmLoadOption.obj
 0002:00004238       ??_C@_1BA@IBFPPJON@?$AAS?$AAy?$AAs?$AAP?$AAr?$AAe?$AAp@ 0000000000047238     UefiBootManagerLib:BmLoadOption.obj
 0002:00004248       ??_C@_19JCAOHIEH@?$AAB?$AAo?$AAo?$AAt@ 0000000000047248     UefiBootManagerLib:BmLoadOption.obj
 0002:00004258       ??_C@_1CC@LGMJPJO@?$AAP?$AAl?$AAa?$AAt?$AAf?$AAo?$AAr?$AAm?$AAR?$AAe?$AAc?$AAo?$AAv?$AAe?$AAr@ 0000000000047258     UefiBootManagerLib:BmLoadOption.obj
 0002:00004280       ??_C@_1BI@PDMCFEDG@?$AAD?$AAr?$AAi?$AAv?$AAe?$AAr?$AAO?$AAr?$AAd?$AAe?$AAr@ 0000000000047280     UefiBootManagerLib:BmLoadOption.obj
 0002:00004298       ??_C@_1BK@CHMLNGLH@?$AAS?$AAy?$AAs?$AAP?$AAr?$AAe?$AAp?$AAO?$AAr?$AAd?$AAe?$AAr@ 0000000000047298     UefiBootManagerLib:BmLoadOption.obj
 0002:000042b8       ??_C@_1BE@CHCFCNKI@?$AAB?$AAo?$AAo?$AAt?$AAO?$AAr?$AAd?$AAe?$AAr@ 00000000000472b8     UefiBootManagerLib:BmLoadOption.obj
 0002:000042d0       ??_C@_0EM@OLPEFBDL@D?3?2develop?2EDK2?2edk2?2MdeModuleP@ 00000000000472d0     UefiBootManagerLib:BmLoadOption.obj
 0002:00004320       ??_C@_0CB@PFDEGLPD@FreeOptionNumber?5?$CB?$DN?5?$CI?$CIvoid?5?$CK?$CJ?50@ 0000000000047320     UefiBootManagerLib:BmLoadOption.obj
 0002:00004350       ??_C@_0HK@DHJNPELJ@LoadOptionType?5?$DN?$DN?5LoadOptionTyp@ 0000000000047350     UefiBootManagerLib:BmLoadOption.obj
 0002:000043d0       ??_C@_0GP@HFLIMAAP@?$CIOptionOrder?5?$CB?$DN?5?$CI?$CIvoid?5?$CK?$CJ?50?$CJ?5?$CG?$CG@ 00000000000473d0     UefiBootManagerLib:BmLoadOption.obj
 0002:00004440       ??_C@_1BC@HGEHGBBD@?$AAB?$AAo?$AAo?$AAt?$AAN?$AAe?$AAx?$AAt@ 0000000000047440     UefiBootManagerLib:BmLoadOption.obj
 0002:00004458       ??_C@_0BI@HMGPIBBB@OptionNumber?5?$DM?$DN?50x10000@ 0000000000047458     UefiBootManagerLib:BmLoadOption.obj
 0002:00004470       ??_C@_0BJ@DLOFCCCI@Variable?5?$CB?$DN?5?$CI?$CIvoid?5?$CK?$CJ?50?$CJ@ 0000000000047470     UefiBootManagerLib:BmLoadOption.obj
 0002:00004490       ??_C@_0BP@NMMDNJFN@NewOptionOrder?5?$CB?$DN?5?$CI?$CIvoid?5?$CK?$CJ?50?$CJ@ 0000000000047490     UefiBootManagerLib:BmLoadOption.obj
 0002:000044b0       ??_C@_0BM@ILMIEJOJ@OptionOrder?5?$CB?$DN?5?$CI?$CIvoid?5?$CK?$CJ?50?$CJ@ 00000000000474b0     UefiBootManagerLib:BmLoadOption.obj
 0002:000044d0       ??_C@_0CM@MAOCOHA@String?5?$CB?$DN?5?$CI?$CIvoid?5?$CK?$CJ?50?$CJ?5?$CG?$CG?5MaxSt@ 00000000000474d0     UefiBootManagerLib:BmLoadOption.obj
 0002:00004500       ??_C@_0BP@CLCCNNAA@Param?9?$DOOptions?5?$CB?$DN?5?$CI?$CIvoid?5?$CK?$CJ?50?$CJ@ 0000000000047500     UefiBootManagerLib:BmLoadOption.obj
 0002:00004520       ??_C@_0BI@BEIPAHPN@Options?5?$CB?$DN?5?$CI?$CIvoid?5?$CK?$CJ?50?$CJ@ 0000000000047520     UefiBootManagerLib:BmLoadOption.obj
 0002:00004540       ??_C@_0EN@EEPBAEH@?$FLBds?$FN?5?$CFs?5doesn?8t?5exist?5?9?5Update@ 0000000000047540     UefiBootManagerLib:BmLoadOption.obj
 0002:00004590       ??_C@_0DC@GPHPCJCG@Options?$FLOptionIndex?$FN?4OptionNumb@ 0000000000047590     UefiBootManagerLib:BmLoadOption.obj
 0002:000045c8       ??_C@_0O@JAAHIOB@?$FLBds?$FN?5Expand?5@ 00000000000475c8     UefiBootManagerLib:BmLoadOption.obj
 0002:000045d8       ??_C@_04BBDFLMDN@?5?9?$DO?5@ 00000000000475d8     UefiBootManagerLib:BmLoadOption.obj
 0002:000045e0       ??_C@_01EEMJAFIK@?6@       00000000000475e0     UefiBootManagerLib:BmLoadOption.obj
 0002:000045e8       ??_C@_1BE@JFKNLMIM@?$AAP?$AAa?$AAn?$AAa?$AAs?$AAo?$AAn?$AAi?$AAc@ 00000000000475e8     UefiBootManagerLib:BmBootDescription.obj
 0002:00004600       ??_C@_1DA@GBHKIENK@?$AAT?$AAo?$AAs?$AAh?$AAi?$AAb?$AAa?$AA?1?$AAK?$AAi?$AAn?$AAg?$AAs?$AAt?$AAo@ 0000000000047600     UefiBootManagerLib:BmBootDescription.obj
 0002:00004630       ??_C@_1BA@BLAAAKFC@?$AAS?$AAa?$AAn?$AAD?$AAi?$AAs?$AAk@ 0000000000047630     UefiBootManagerLib:BmBootDescription.obj
 0002:00004640       ??_C@_1BM@BLECKJGP@?$AAS?$AAi?$AAl?$AAi?$AAc?$AAo?$AAn?$AA?5?$AAP?$AAo?$AAw?$AAe?$AAr@ 0000000000047640     UefiBootManagerLib:BmBootDescription.obj
 0002:00004660       ??_C@_1BC@HHDDBGLG@?$AAI?$AAn?$AAf?$AAi?$AAn?$AAe?$AAo?$AAn@ 0000000000047660     UefiBootManagerLib:BmBootDescription.obj
 0002:00004678       ??_C@_1CE@JLGFOHDE@?$AAT?$AAr?$AAa?$AAn?$AAs?$AAc?$AAe?$AAn?$AAd?$AA?1?$AAS?$AAa?$AAm?$AAs?$AAu@ 0000000000047678     UefiBootManagerLib:BmBootDescription.obj
 0002:000046a0       ??_C@_1BE@JPPBLK@?$AAT?$AAr?$AAa?$AAn?$AAs?$AAc?$AAe?$AAn?$AAd@ 00000000000476a0     UefiBootManagerLib:BmBootDescription.obj
 0002:000046b8       ??_C@_1BM@NPKNMKOC@?$AAC?$AAo?$AAr?$AAs?$AAa?$AAi?$AAr?$AA?1?$AAA?$AAD?$AAa?$AAt?$AAa@ 00000000000476b8     UefiBootManagerLib:BmBootDescription.obj
 0002:000046d8       ??_C@_1BC@DHDHHDIF@?$AAK?$AAi?$AAn?$AAg?$AAs?$AAt?$AAo?$AAn@ 00000000000476d8     UefiBootManagerLib:BmBootDescription.obj
 0002:000046f0       ??_C@_1BM@KHOCMOPJ@?$AAD?$AAe?$AAl?$AAk?$AAi?$AAn?$AA?1?$AAP?$AAh?$AAi?$AAs?$AAo?$AAn@ 00000000000476f0     UefiBootManagerLib:BmBootDescription.obj
 0002:00004710       ??_C@_1M@PLKGDCBI@?$AAL?$AAe?$AAx?$AAa?$AAr@ 0000000000047710     UefiBootManagerLib:BmBootDescription.obj
 0002:00004720       ??_C@_1CG@EHFLOJBN@?$AAS?$AAT?$AAM?$AAi?$AAc?$AAr?$AAo?$AAe?$AAl?$AAe?$AAc?$AAt?$AAr?$AAo?$AAn@ 0000000000047720     UefiBootManagerLib:BmBootDescription.obj
 0002:00004748       ??_C@_1BA@MNGEMMGL@?$AAP?$AAa?$AAt?$AAr?$AAi?$AAo?$AAt@ 0000000000047748     UefiBootManagerLib:BmBootDescription.obj
 0002:00004758       ??_C@_1BE@JGDJANIG@?$AAG?$AAo?$AAb?$AAe?$AA?1?$AAS?$AAo?$AAn?$AAy@ 0000000000047758     UefiBootManagerLib:BmBootDescription.obj
 0002:00004770       ??_C@_1CE@NFJEFFPG@?$AAA?$AAn?$AAg?$AAe?$AAl?$AAb?$AAi?$AAr?$AAd?$AA?1?$AAH?$AAo?$AAo?$AAd?$AAm@ 0000000000047770     UefiBootManagerLib:BmBootDescription.obj
 0002:00004798       ??_C@_1CC@CGOJCHJE@?$AAK?$AAi?$AAn?$AAg?$AAs?$AAt?$AAo?$AAn?$AA?1?$AAS?$AAa?$AAn?$AAD?$AAi?$AAs@ 0000000000047798     UefiBootManagerLib:BmBootDescription.obj
 0002:000047c0       ??_C@_1BA@ENIDJJLB@?$AAT?$AAo?$AAs?$AAh?$AAi?$AAb?$AAa@ 00000000000477c0     UefiBootManagerLib:BmBootDescription.obj
 0002:000047d0       ??_C@_1O@JLACEDCK@?$AAM?$AAi?$AAc?$AAr?$AAo?$AAn@ 00000000000477d0     UefiBootManagerLib:BmBootDescription.obj
 0002:000047e0       ??_C@_1BA@DIDLMLHK@?$AAS?$AAa?$AAm?$AAs?$AAu?$AAn?$AAg@ 00000000000477e0     UefiBootManagerLib:BmBootDescription.obj
 0002:000047f0       ??_C@_1BA@GIIJDKCL@?$AAK?$AAi?$AAn?$AAg?$AAM?$AAa?$AAx@ 00000000000477f0     UefiBootManagerLib:BmBootDescription.obj
 0002:00004800       ??_C@_17CDPIKHKG@?$AAA?$AAT?$AAP@ 0000000000047800     UefiBootManagerLib:BmBootDescription.obj
 0002:00004808       ??_C@_1BA@DNEDMPJP@?$AAF?$AAo?$AAr?$AAe?$AAs?$AAe?$AAe@ 0000000000047808     UefiBootManagerLib:BmBootDescription.obj
 0002:00004818       ??_C@_19PFFCFAAF@?$AAY?$AAM?$AAT?$AAC@ 0000000000047818     UefiBootManagerLib:BmBootDescription.obj
 0002:00004830       ??_C@_0FB@GAGKLNKM@D?3?2develop?2EDK2?2edk2?2MdeModuleP@ 0000000000047830     UefiBootManagerLib:BmBootDescription.obj
 0002:00004888       ??_C@_1DI@DILALKCO@?$AA?$CF?$AAs?$AA?5?$AA?$CF?$AA?4?$AA?$CK?$AAa?$AA?5?$AA?$CF?$AA0?$AA2?$AAx?$AA?$CF?$AA0?$AA2@ 0000000000047888     UefiBootManagerLib:BmBootDescription.obj
 0002:000048c0       ??_C@_0DD@MBGDIJCD@Length?5?$DN?$DN?5ModelNameLength?5?$CL?5Ser@ 00000000000478c0     UefiBootManagerLib:BmBootDescription.obj
 0002:000048f4       ??_C@_13HOIJIPNN@?$AA?5@   00000000000478f4     UefiBootManagerLib:BmBootDescription.obj
 0002:000048f8       ??_C@_17IDOMPBMF@?$AAP?$AAX?$AAE@ 00000000000478f8     UefiBootManagerLib:BmBootDescription.obj
 0002:00004900       ??_C@_19BMGGGIKC@?$AAH?$AAT?$AAT?$AAP@ 0000000000047900     UefiBootManagerLib:BmBootDescription.obj
 0002:00004910       ??_C@_1EK@KDADHDDD@?$AA?$CF?$AAs?$AAv?$AA?$CF?$AAd?$AA?5?$AA?$CI?$AAM?$AAA?$AAC?$AA?3?$AA?$CF?$AA0?$AA2?$AAx@ 0000000000047910     UefiBootManagerLib:BmBootDescription.obj
 0002:00004960       ??_C@_1FI@BDHDKNGL@?$AA?$CF?$AAs?$AAv?$AA?$CF?$AAd?$AA?5?$AA?$CI?$AAM?$AAA?$AAC?$AA?3?$AA?$CF?$AA0?$AA2?$AAx@ 0000000000047960     UefiBootManagerLib:BmBootDescription.obj
 0002:000049b8       ??_C@_1BE@CAANMHKL@?$AAD?$AAV?$AAD?$AA?1?$AAC?$AAD?$AAR?$AAO?$AAM@ 00000000000479b8     UefiBootManagerLib:BmBootDescription.obj
 0002:000049d0       ??_C@_1BG@FNOOENMH@?$AAH?$AAa?$AAr?$AAd?$AA?5?$AAD?$AAr?$AAi?$AAv?$AAe@ 00000000000479d0     UefiBootManagerLib:BmBootDescription.obj
 0002:000049e8       ??_C@_1BG@PDJIKBEG@?$AAU?$AAS?$AAB?$AA?5?$AAD?$AAe?$AAv?$AAi?$AAc?$AAe@ 00000000000479e8     UefiBootManagerLib:BmBootDescription.obj
 0002:00004a00       ??_C@_1BI@NPAIJFIJ@?$AAS?$AAC?$AAS?$AAI?$AA?5?$AAD?$AAe?$AAv?$AAi?$AAc?$AAe@ 0000000000047a00     UefiBootManagerLib:BmBootDescription.obj
 0002:00004a18       ??_C@_1BO@NNOGFLGA@?$AAR?$AAe?$AAm?$AAo?$AAv?$AAa?$AAb?$AAl?$AAe?$AA?5?$AAD?$AAi?$AAs?$AAk@ 0000000000047a18     UefiBootManagerLib:BmBootDescription.obj
 0002:00004a38       ??_C@_1BI@IIOANEKN@?$AAM?$AAi?$AAs?$AAc?$AA?5?$AAD?$AAe?$AAv?$AAi?$AAc?$AAe@ 0000000000047a38     UefiBootManagerLib:BmBootDescription.obj
 0002:00004a50       ??_C@_1CM@CCDJEPCI@?$AAN?$AAo?$AAn?$AA?9?$AAB?$AAl?$AAo?$AAc?$AAk?$AA?5?$AAB?$AAo?$AAo?$AAt?$AA?5@ 0000000000047a50     UefiBootManagerLib:BmBootDescription.obj
 0002:00004a80       ??_C@_0BF@NDBIKIKC@CR?5has?5Bad?5Signature@ 0000000000047a80     UefiBootManagerLib:BmBootDescription.obj
 0002:00004a98       ??_C@_0BF@OIGBEABJ@Temp?5?$CB?$DN?5?$CI?$CIvoid?5?$CK?$CJ?50?$CJ@ 0000000000047a98     UefiBootManagerLib:BmBootDescription.obj
 0002:00004ab0       ??_C@_0CD@NNLEHLIP@DefaultDescription?5?$CB?$DN?5?$CI?$CIvoid?5?$CK?$CJ@ 0000000000047ab0     UefiBootManagerLib:BmBootDescription.obj
 0002:00004ad8       ??_C@_0BI@HAGDMNKK@Visited?5?$CB?$DN?5?$CI?$CIvoid?5?$CK?$CJ?50?$CJ@ 0000000000047ad8     UefiBootManagerLib:BmBootDescription.obj
 0002:00004af0       ??_C@_1M@DJFDNGE@?$AA?$CF?$AAs?$AA?5?$AA?$CF?$AAd@ 0000000000047af0     UefiBootManagerLib:BmBootDescription.obj
 0002:00004afc       mBmUsbLangId               0000000000047afc     UefiBootManagerLib:BmBootDescription.obj
 0002:00004b00       ??_C@_0EI@DCKGOAFI@D?3?2develop?2EDK2?2edk2?2MdeModuleP@ 0000000000047b00     UefiBootManagerLib:BmHotkey.obj
 0002:00004b48       ??_C@_0CC@JHGOKCAM@?$FLBds?$FNBmHotkeyCallback?3?5?$CF04x?3?$CF04@ 0000000000047b48     UefiBootManagerLib:BmHotkey.obj
 0002:00004b70       ??_C@_0EO@PGCGMAA@Hotkey?9?$DOWaitingKey?5?$DM?5?$CIsizeof?5?$CIH@ 0000000000047b70     UefiBootManagerLib:BmHotkey.obj
 0002:00004bc0       ??_C@_0CB@PFLHPPPA@?$FLBds?$FNHotkey?5for?5?$CFs?5pressed?5?9?5?$CFr@ 0000000000047bc0     UefiBootManagerLib:BmHotkey.obj
 0002:00004be8       ??_C@_0BM@PIEMCHHP@?$FLBds?$FNContinue?5key?5pressed?$CB?6@ 0000000000047be8     UefiBootManagerLib:BmHotkey.obj
 0002:00004c08       ??_C@_0CI@IEECCPEN@?$FLBds?$FNUnregisterKeyNotify?3?5?$CF04x?1@ 0000000000047c08     UefiBootManagerLib:BmHotkey.obj
 0002:00004c30       ??_C@_0BL@ELKNAPIO@?$FLBds?$FNStop?5Hotkey?5Service?$CB?6@ 0000000000047c30     UefiBootManagerLib:BmHotkey.obj
 0002:00004c50       ??_C@_1CM@OLBNONPD@?$AAM?$AAe?$AAm?$AAo?$AAr?$AAy?$AAT?$AAy?$AAp?$AAe?$AAI?$AAn?$AAf?$AAo?$AAr@ 0000000000047c50     UefiBootManagerLib:BmMisc.obj
 0002:00004c80       ??_C@_0CG@JANCEMEA@Memory?5?5Previous?5?5Current?5?5?5?5Ne@ 0000000000047c80     UefiBootManagerLib:BmMisc.obj
 0002:00004ca8       ??_C@_0CG@GIAKKOHH@?5Type?5?5?5?5Pages?5?5?5?5?5Pages?5?5?5?5?5Pa@ 0000000000047ca8     UefiBootManagerLib:BmMisc.obj
 0002:00004cd0       ??_C@_0CG@DHPBOGIK@?$DN?$DN?$DN?$DN?$DN?$DN?5?5?$DN?$DN?$DN?$DN?$DN?$DN?$DN?$DN?5?5?$DN?$DN?$DN?$DN?$DN?$DN?$DN?$DN?5?5?$DN?$DN?$DN@ 0000000000047cd0     UefiBootManagerLib:BmMisc.obj
 0002:00004cf8       ??_C@_0BM@FKMFCHDC@?5?5?$CF02x?5?5?5?5?$CF08x?5?5?$CF08x?5?5?$CF08x?6@ 0000000000047cf8     UefiBootManagerLib:BmMisc.obj
 0002:00004d18       ??_C@_0CK@JOALLLAO@Memory?5Type?5Information?5setting@ 0000000000047d18     UefiBootManagerLib:BmMisc.obj
 0002:00004d48       ??_C@_0BC@INIOFBPC@?4?4?4Warm?5Reset?$CB?$CB?$CB?6@ 0000000000047d48     UefiBootManagerLib:BmMisc.obj
 0002:00004d60       ??_C@_0ED@IFKDJDAE@Memory?5Type?5Information?5setting@ 0000000000047d60     UefiBootManagerLib:BmMisc.obj
 0002:00004da4       ??_C@_02DKCKIIND@?$CFs@    0000000000047da4     UefiBootManagerLib:BmMisc.obj
 0002:00004da8       ??_C@_1BA@OEPBAFIJ@?$AAH?$AAe?$AAa?$AAl?$AAt?$AAh?$AAy@ 0000000000047da8     UefiBootManagerLib:BmDriverHealth.obj
 0002:00004db8       ??_C@_1CA@MECBMJF@?$AAR?$AAe?$AAp?$AAa?$AAi?$AAr?$AA?5?$AAR?$AAe?$AAq?$AAu?$AAi?$AAr?$AAe?$AAd@ 0000000000047db8     UefiBootManagerLib:BmDriverHealth.obj
 0002:00004dd8       ??_C@_1CO@FBBOCFDH@?$AAC?$AAo?$AAn?$AAf?$AAi?$AAg?$AAu?$AAr?$AAa?$AAt?$AAi?$AAo?$AAn?$AA?5?$AAR@ 0000000000047dd8     UefiBootManagerLib:BmDriverHealth.obj
 0002:00004e08       ??_C@_1O@GCADHOOL@?$AAF?$AAa?$AAi?$AAl?$AAe?$AAd@ 0000000000047e08     UefiBootManagerLib:BmDriverHealth.obj
 0002:00004e18       ??_C@_1CG@MFKNOOC@?$AAR?$AAe?$AAc?$AAo?$AAn?$AAn?$AAe?$AAc?$AAt?$AA?5?$AAR?$AAe?$AAq?$AAu?$AAi@ 0000000000047e18     UefiBootManagerLib:BmDriverHealth.obj
 0002:00004e40       ??_C@_1CA@LMENMPKC@?$AAR?$AAe?$AAb?$AAo?$AAo?$AAt?$AA?5?$AAR?$AAe?$AAq?$AAu?$AAi?$AAr?$AAe?$AAd@ 0000000000047e40     UefiBootManagerLib:BmDriverHealth.obj
 0002:00004e60       ??_C@_19BALNHBBC@?$AAL?$AAa?$AAn?$AAg@ 0000000000047e60     UefiBootManagerLib:BmDriverHealth.obj
 0002:00004e6c       ??_C@_03LKLGDMJI@eng@      0000000000047e6c     UefiBootManagerLib:BmDriverHealth.obj
 0002:00004e70       ??_C@_05JJLPJMLG@en?9US@   0000000000047e70     UefiBootManagerLib:BmDriverHealth.obj
 0002:00004e78       ??_C@_0M@DCCMOFF@Driver?3?5?$CFs?6@ 0000000000047e78     UefiBootManagerLib:BmDriverHealth.obj
 0002:00004e88       ??_C@_1BI@GMPJFPCB@?$AAD?$AAr?$AAi?$AAv?$AAe?$AAr?$AA?3?$AA?5?$AA?$CF?$AAs?$AA?6@ 0000000000047e88     UefiBootManagerLib:BmDriverHealth.obj
 0002:00004ea0       ??_C@_0BA@PJPGFCCB@Controller?3?5?$CFs?6@ 0000000000047ea0     UefiBootManagerLib:BmDriverHealth.obj
 0002:00004eb0       ??_C@_1CA@PLAOFDKP@?$AAC?$AAo?$AAn?$AAt?$AAr?$AAo?$AAl?$AAl?$AAe?$AAr?$AA?3?$AA?5?$AA?$CF?$AAs?$AA?6@ 0000000000047eb0     UefiBootManagerLib:BmDriverHealth.obj
 0002:00004ed0       ??_C@_1M@IANLBCIB@?$AA?5?$AA?5?$AA?$CF?$AAs?$AA?6@ 0000000000047ed0     UefiBootManagerLib:BmDriverHealth.obj
 0002:00004edc       ??_C@_05LDOEBFOB@?5?5?$CFs?6@ 0000000000047edc     UefiBootManagerLib:BmDriverHealth.obj
 0002:00004ee8       ??_C@_0BK@NGFIGLGA@?$FLBDS?$FNRepairNotify?3?5?$CFd?1?$CFd?6@ 0000000000047ee8     UefiBootManagerLib:BmDriverHealth.obj
 0002:00004f08       ??_C@_1DE@KPAEMAID@?$AA?$FL?$AAB?$AAD?$AAS?$AA?$FN?$AAR?$AAe?$AAp?$AAa?$AAi?$AAr?$AAN?$AAo?$AAt?$AAi@ 0000000000047f08     UefiBootManagerLib:BmDriverHealth.obj
 0002:00004f40       ??_C@_0CD@BOOHEENM@DriverHealthHandle?5?$CB?$DN?5?$CI?$CIvoid?5?$CK?$CJ@ 0000000000047f40     UefiBootManagerLib:BmDriverHealth.obj
 0002:00004f70       ??_C@_0EO@LPAFLNEE@D?3?2develop?2EDK2?2edk2?2MdeModuleP@ 0000000000047f70     UefiBootManagerLib:BmDriverHealth.obj
 0002:00004fc0       ??_C@_0CC@KGLGCPCA@?$CKDriverHealthInfo?5?$CB?$DN?5?$CI?$CIvoid?5?$CK?$CJ?5@ 0000000000047fc0     UefiBootManagerLib:BmDriverHealth.obj
 0002:00004fe8       ??_C@_0CE@MFGOGKIA@DriverHealthHandles?5?$CB?$DN?5?$CI?$CIvoid?5?$CK@ 0000000000047fe8     UefiBootManagerLib:BmDriverHealth.obj
 0002:0000500c       ??_C@_11LOCGONAA@@         000000000004800c     UefiBootManagerLib:BmDriverHealth.obj
 0002:00005010       ??_C@_19NMAFMAH@?$AA?5?$AA?5?$AA?5?$AA?5@ 0000000000048010     UefiBootManagerLib:BmDriverHealth.obj
 0002:00005020       ??_C@_1O@JBBHAGJJ@?$AA?$CF?$AAs?$AA?$CF?$AAs?$AA?$CF?$AAs@ 0000000000048020     UefiBootManagerLib:BmDriverHealth.obj
 0002:00005030       ??_C@_0P@JFBCBHIC@?$CF02d?3?5?$CFs?5?9?5?$CFs?6@ 0000000000048030     UefiBootManagerLib:BmDriverHealth.obj
 0002:00005040       ??_C@_0BH@PIKEIHIM@BmRepairAllControllers@ 0000000000048040     UefiBootManagerLib:BmDriverHealth.obj
 0002:00005058       ??_C@_0CJ@OPCGBII@?$FL?$CFa?3?$CFd?$FN?5Repair?5failed?5after?5?$CFd?5@ 0000000000048058     UefiBootManagerLib:BmDriverHealth.obj
 0002:00005088       ??_C@_0DO@HEBFPBBH@?$FLBDS?$FN?5One?5of?5the?5Driver?5Health?5@ 0000000000048088     UefiBootManagerLib:BmDriverHealth.obj
 0002:000050c8       ??_C@_0CE@MDBJFLCA@MenuNumber?5?$DM?5MenuOption?9?$DOMenuNu@ 00000000000480c8     FileExplorerLib:FileExplorer.obj
 0002:000050f0       ??_C@_0EJ@CIMJBJP@D?3?2develop?2EDK2?2edk2?2MdeModuleP@ 00000000000480f0     FileExplorerLib:FileExplorer.obj
 0002:00005140       ??_C@_0BH@GHAKFHML@ToText?5?$CB?$DN?5?$CI?$CIvoid?5?$CK?$CJ?50?$CJ@ 0000000000048140     FileExplorerLib:FileExplorer.obj
 0002:00005158       ??_C@_0BF@CPBCKIGP@Dest?5?$CB?$DN?5?$CI?$CIvoid?5?$CK?$CJ?50?$CJ@ 0000000000048158     FileExplorerLib:FileExplorer.obj
 0002:00005170       ??_C@_0BH@FMMHHFDB@TmpStr?5?$CB?$DN?5?$CI?$CIvoid?5?$CK?$CJ?50?$CJ@ 0000000000048170     FileExplorerLib:FileExplorer.obj
 0002:00005188       ??_C@_0BE@LNIAOOBG@Str?5?$CB?$DN?5?$CI?$CIvoid?5?$CK?$CJ?50?$CJ@ 0000000000048188     FileExplorerLib:FileExplorer.obj
 0002:0000519c       ??_C@_13FPGAJAPJ@?$AA?2@   000000000004819c     FileExplorerLib:FileExplorer.obj
 0002:000051a0       ??_C@_1CI@JGIGCDAN@?$AAN?$AAO?$AA?5?$AAF?$AAI?$AAL?$AAE?$AA?5?$AAS?$AAY?$AAS?$AAT?$AAE?$AAM?$AA?5@ 00000000000481a0     FileExplorerLib:FileExplorer.obj
 0002:000051c8       ??_C@_1CA@KOPNEOKK@?$AAN?$AAO?$AA?5?$AAV?$AAO?$AAL?$AAU?$AAM?$AAE?$AA?5?$AAL?$AAA?$AAB?$AAE?$AAL@ 00000000000481c8     FileExplorerLib:FileExplorer.obj
 0002:000051e8       ??_C@_0CJ@CDKCBEKC@MenuEntry?9?$DODisplayString?5?$CB?$DN?5?$CI?$CIv@ 00000000000481e8     FileExplorerLib:FileExplorer.obj
 0002:00005218       ??_C@_1BC@GMOFGFBO@?$AA?$CF?$AAs?$AA?0?$AA?5?$AA?$FL?$AA?$CF?$AAs?$AA?$FN@ 0000000000048218     FileExplorerLib:FileExplorer.obj
 0002:00005230       ??_C@_19ECGOGJPA@?$AA?$DM?$AA?$CF?$AAs?$AA?$DO@ 0000000000048230     FileExplorerLib:FileExplorer.obj
 0002:00005240       ??_C@_0CO@BKJCELCP@gFileExplorerPrivate?4FileType?5?$CB@ 0000000000048240     FileExplorerLib:FileExplorer.obj
 0002:00005270       ??_C@_0CF@KMPENEEM@gHiiVendorDevicePath?5?$CB?$DN?5?$CI?$CIvoid?5@ 0000000000048270     FileExplorerLib:FileExplorer.obj
 0002:00005298       ??_C@_0DB@BODFOPAI@gFileExplorerPrivate?4FeHiiHandl@ 0000000000048298     FileExplorerLib:FileExplorer.obj
 0002:000052d0       ??_C@_0EN@MJDOBIPE@D?3?2develop?2EDK2?2edk2?2MdeModuleP@ 00000000000482d0     DeviceManagerUiLib:DeviceManager.obj
 0002:00005320       ??_C@_0BP@KHCJJICF@MacAddressNode?5?$CB?$DN?5?$CI?$CIvoid?5?$CK?$CJ?50?$CJ@ 0000000000048320     DeviceManagerUiLib:DeviceManager.obj
 0002:00005340       ??_C@_19IEFMLJON@?$AAM?$AAA?$AAC?$AA?3@ 0000000000048340     DeviceManagerUiLib:DeviceManager.obj
 0002:00005350       ??_C@_1M@MOFLFCEC@?$AA?$CF?$AAs?$AA?5?$AA?$CF?$AAs@ 0000000000048350     DeviceManagerUiLib:DeviceManager.obj
 0002:00005360       ??_C@_0DA@BBLDGEIM@gDeviceManagerPrivate?4HiiHandle@ 0000000000048360     DeviceManagerUiLib:DeviceManager.obj
 0002:00005390       ??_C@_1BG@DBHBDKIO@?$AAL?$AAe?$AAg?$AAa?$AAc?$AAy?$AA?5?$AAB?$AAE?$AAV@ 0000000000048390     BootManagerUiLib:BootManager.obj
 0002:000053a8       ??_C@_1BM@IAJGCJBG@?$AAL?$AAe?$AAg?$AAa?$AAc?$AAy?$AA?5?$AAF?$AAl?$AAo?$AAp?$AAp?$AAy@ 00000000000483a8     BootManagerUiLib:BootManager.obj
 0002:000053c8       ??_C@_1CE@EJMDGBEH@?$AAL?$AAe?$AAg?$AAa?$AAc?$AAy?$AA?5?$AAH?$AAa?$AAr?$AAd?$AA?5?$AAD?$AAr?$AAi@ 00000000000483c8     BootManagerUiLib:BootManager.obj
 0002:000053f0       ??_C@_1BM@EEIPAJPF@?$AAL?$AAe?$AAg?$AAa?$AAc?$AAy?$AA?5?$AAC?$AAD?$AA?5?$AAR?$AAO?$AAM@ 00000000000483f0     BootManagerUiLib:BootManager.obj
 0002:00005410       ??_C@_1BM@CCEDBLBN@?$AAL?$AAe?$AAg?$AAa?$AAc?$AAy?$AA?5?$AAP?$AAC?$AAM?$AAC?$AAI?$AAA@ 0000000000048410     BootManagerUiLib:BootManager.obj
 0002:00005430       ??_C@_1BG@ENPLCDPC@?$AAL?$AAe?$AAg?$AAa?$AAc?$AAy?$AA?5?$AAU?$AAS?$AAB@ 0000000000048430     BootManagerUiLib:BootManager.obj
 0002:00005448       ??_C@_1DA@LLMHHEOA@?$AAL?$AAe?$AAg?$AAa?$AAc?$AAy?$AA?5?$AAE?$AAm?$AAb?$AAe?$AAd?$AAd?$AAe?$AAd@ 0000000000048448     BootManagerUiLib:BootManager.obj
 0002:00005478       ??_C@_1CM@CNECEIDD@?$AAL?$AAe?$AAg?$AAa?$AAc?$AAy?$AA?5?$AAU?$AAn?$AAk?$AAn?$AAo?$AAw?$AAn?$AA?5@ 0000000000048478     BootManagerUiLib:BootManager.obj
 0002:000054b0       ??_C@_0EJ@ELHILHFD@D?3?2develop?2EDK2?2edk2?2MdeModuleP@ 00000000000484b0     BootManagerUiLib:BootManager.obj
 0002:00005500       ??_C@_1BC@HAMKBGJJ@?$AAB?$AAo?$AAo?$AAt?$AA?$CF?$AA0?$AA4?$AAx@ 0000000000048500     BootManagerUiLib:BootManager.obj
 0002:00005518       ??_C@_0DM@KMLPJPAC@?$FLBootManagerDxe?$FN?5?$DN?$DN?$DN?$DN?5Find?5Lega@ 0000000000048518     BootManagerUiLib:BootManager.obj
 0002:00005560       ??_C@_0HO@LAFBCGAG@?$CI?$CI?$CIBBS_BBS_DEVICE_PATH?5?$CK?$CJBootOp@ 0000000000048560     BootManagerUiLib:BootManager.obj
 0002:000055e0       ??_C@_0CO@EBBHKDJM@BootOption?$FLIndex?$FN?4Description?5?$CB@ 00000000000485e0     BootManagerUiLib:BootManager.obj
 0002:00005610       ??_C@_1BO@PNIJGPEG@?$AAD?$AAe?$AAv?$AAi?$AAc?$AAe?$AA?5?$AAP?$AAa?$AAt?$AAh?$AA?5?$AA?3?$AA?5@ 0000000000048610     BootManagerUiLib:BootManager.obj
 0002:00005630       ??_C@_0BL@DFKODJNK@HelpString?5?$CB?$DN?5?$CI?$CIvoid?5?$CK?$CJ?50?$CJ@ 0000000000048630     BootManagerUiLib:BootManager.obj
 0002:00005650       ??_C@_0CO@JHOJDCNH@gBootManagerPrivate?4HiiHandle?5?$CB@ 0000000000048650     BootManagerUiLib:BootManager.obj
 0002:00005680       ??_C@_0FI@OCMCOEIE@D?3?2develop?2EDK2?2edk2?2MdeModuleP@ 0000000000048680     BootMaintenanceManagerUiLib:BootMaintenance.obj
 0002:000056d8       ??_C@_1BK@KPMCGGIO@?$AA?$CG?$AAO?$AAF?$AAF?$AAS?$AAE?$AAT?$AA?$DN?$AA?$CF?$AA0?$AA4?$AAx@ 00000000000486d8     BootMaintenanceManagerUiLib:BootMaintenance.obj
 0002:000056f8       ??_C@_0BN@LKNBJPEL@NewMenuEntry?5?$CB?$DN?5?$CI?$CIvoid?5?$CK?$CJ?50?$CJ@ 00000000000486f8     BootMaintenanceManagerUiLib:BootMaintenance.obj
 0002:00005720       ??_C@_0FF@OCGNDIFH@BmmData?9?$DOCOMBaudRate?$FLIndex?$FN?5?$DM?5?$CI@ 0000000000048720     BootMaintenanceManagerUiLib:BootMaintenance.obj
 0002:00005780       ??_C@_0FF@FOFLGLHI@BmmData?9?$DOCOMDataRate?$FLIndex?$FN?5?$DM?5?$CI@ 0000000000048780     BootMaintenanceManagerUiLib:BootMaintenance.obj
 0002:000057e0       ??_C@_0FF@LOCDEPJ@BmmData?9?$DOCOMStopBits?$FLIndex?$FN?5?$DM?5?$CI@ 00000000000487e0     BootMaintenanceManagerUiLib:BootMaintenance.obj
 0002:00005840       ??_C@_0EP@DFIGDHMP@BmmData?9?$DOCOMParity?$FLIndex?$FN?5?$DM?5?$CI?$CIs@ 0000000000048840     BootMaintenanceManagerUiLib:BootMaintenance.obj
 0002:00005890       ??_C@_0M@FEHBHOOC@Index?5?$DM?5100@ 0000000000048890     BootMaintenanceManagerUiLib:BootMaintenance.obj
 0002:000058a0       ??_C@_0CI@LNNDKNDP@Index?5?$CL?5ConsoleInpMenu?4MenuNumb@ 00000000000488a0     BootMaintenanceManagerUiLib:BootMaintenance.obj
 0002:000058c8       ??_C@_0CI@CDCMIKKB@Index?5?$CL?5ConsoleOutMenu?4MenuNumb@ 00000000000488c8     BootMaintenanceManagerUiLib:BootMaintenance.obj
 0002:000058f0       ??_C@_0CI@EDJDHKEG@Index?5?$CL?5ConsoleErrMenu?4MenuNumb@ 00000000000488f0     BootMaintenanceManagerUiLib:BootMaintenance.obj
 0002:00005918       ??_C@_1O@LFMAFHMH@?$AAO?$AAF?$AAF?$AAS?$AAE?$AAT@ 0000000000048918     BootMaintenanceManagerUiLib:BootMaintenance.obj
 0002:00005928       ??_C@_1BA@BKONPLFM@?$AAT?$AAi?$AAm?$AAe?$AAo?$AAu?$AAt@ 0000000000048928     BootMaintenanceManagerUiLib:BootMaintenance.obj
 0002:00005938       ??_C@_19ENGJFOPL@?$AA?4?$AAe?$AAf?$AAi@ 0000000000048938     BootMaintenanceManagerUiLib:BootMaintenance.obj
 0002:00005950       ??_C@_0HG@OENJEKEB@BootOptionMenu?4MenuNumber?5?$DM?$DN?5?$CIs@ 0000000000048950     BootMaintenanceManagerUiLib:BootMaintenance.obj
 0002:000059d0       ??_C@_0HM@DOJIJBLN@DriverOptionMenu?4MenuNumber?5?$DM?$DN?5@ 00000000000489d0     BootMaintenanceManagerUiLib:BootMaintenance.obj
 0002:00005a50       ??_C@_0BN@NKFFBBKI@CallbackData?5?$CB?$DN?5?$CI?$CIvoid?5?$CK?$CJ?50?$CJ@ 0000000000048a50     BootMaintenanceManagerUiLib:BootMaintenance.obj
 0002:00005a70       ??_C@_0CP@EGBHBAE@mBmmCallbackInfo?9?$DOBmmHiiHandle?5@ 0000000000048a70     BootMaintenanceManagerUiLib:BootMaintenance.obj
 0002:00005aa0       ??_C@_0BE@BCCJKDNM@Ptr?5?$CB?$DN?5?$CI?$CIvoid?5?$CK?$CJ?50?$CJ@ 0000000000048aa0     BootMaintenanceManagerUiLib:BootMaintenance.obj
 0002:00005ab8       ??_C@_0CD@EGLDNELE@mStartOpCodeHandle?5?$CB?$DN?5?$CI?$CIvoid?5?$CK?$CJ@ 0000000000048ab8     BootMaintenanceManagerUiLib:UpdatePage.obj
 0002:00005ae0       ??_C@_0FD@HLNMGIMO@D?3?2develop?2EDK2?2edk2?2MdeModuleP@ 0000000000048ae0     BootMaintenanceManagerUiLib:UpdatePage.obj
 0002:00005b38       ??_C@_0CB@HCEMOFB@mEndOpCodeHandle?5?$CB?$DN?5?$CI?$CIvoid?5?$CK?$CJ?50@ 0000000000048b38     BootMaintenanceManagerUiLib:UpdatePage.obj
 0002:00005b60       ??_C@_0IK@BBJPIDBO@BootOptionMenu?4MenuNumber?5?$DM?$DN?5?$CIs@ 0000000000048b60     BootMaintenanceManagerUiLib:UpdatePage.obj
 0002:00005bf0       ??_C@_0JA@BIOKCMOO@DriverOptionMenu?4MenuNumber?5?$DM?$DN?5@ 0000000000048bf0     BootMaintenanceManagerUiLib:UpdatePage.obj
 0002:00005c80       ??_C@_0BN@BJDEDCNB@ConsoleCheck?5?$CB?$DN?5?$CI?$CIvoid?5?$CK?$CJ?50?$CJ@ 0000000000048c80     BootMaintenanceManagerUiLib:UpdatePage.obj
 0002:00005ca0       ??_C@_0BK@EKIGBGH@ModeToken?5?$CB?$DN?5?$CI?$CIvoid?5?$CK?$CJ?50?$CJ@ 0000000000048ca0     BootMaintenanceManagerUiLib:UpdatePage.obj
 0002:00005cc0       ??_C@_17CEOIGCFC@?$AA?5?$AAx?$AA?5@ 0000000000048cc0     BootMaintenanceManagerUiLib:UpdatePage.obj
 0002:00005cd0       ??_C@_0FD@IGGNEFEL@D?3?2develop?2EDK2?2edk2?2MdeModuleP@ 0000000000048cd0     BootMaintenanceManagerUiLib:BootOption.obj
 0002:00005d28       ??_C@_0BN@HMAFKBFF@?$CI?$CIvoid?5?$CK?$CJ?50?$CJ?5?$CB?$DN?5NewMenuEntry@ 0000000000048d28     BootMaintenanceManagerUiLib:BootOption.obj
 0002:00005d48       ??_C@_0CM@FNOIGNAK@NewLoadContext?9?$DODescription?5?$CB?$DN?5@ 0000000000048d48     BootMaintenanceManagerUiLib:BootOption.obj
 0002:00005d78       ??_C@_0CN@PDJEMOOA@NewLoadContext?9?$DOFilePathList?5?$CB?$DN@ 0000000000048d78     BootMaintenanceManagerUiLib:BootOption.obj
 0002:00005da8       ??_C@_0CN@NNIEOKOB@NewLoadContext?9?$DOOptionalData?5?$CB?$DN@ 0000000000048da8     BootMaintenanceManagerUiLib:BootOption.obj
 0002:00005dd8       ??_C@_1BA@JFMJKBME@?$AA?$CF?$AAs?$AAO?$AAr?$AAd?$AAe?$AAr@ 0000000000048dd8     BootMaintenanceManagerUiLib:BootOption.obj
 0002:00005de8       ??_C@_0N@OGKCONEE@Option?5?$DN?5?$CFs?6@ 0000000000048de8     BootMaintenanceManagerUiLib:BootOption.obj
 0002:00005df8       ??_C@_1BG@IKNMHBCC@?$AAD?$AAr?$AAi?$AAv?$AAe?$AAr?$AA?$CF?$AA0?$AA4?$AAx@ 0000000000048df8     BootMaintenanceManagerUiLib:BootOption.obj
 0002:00005e10       ??_C@_0GC@EOFDPLMN@NewTerminalContext?9?$DOTerminalTyp@ 0000000000048e10     BootMaintenanceManagerUiLib:Variable.obj
 0002:00005e80       ??_C@_0FB@PFKCNAOI@D?3?2develop?2EDK2?2edk2?2MdeModuleP@ 0000000000048e80     BootMaintenanceManagerUiLib:Variable.obj
 0002:00005ed8       ??_C@_0CD@EFLNJIJO@TerminalDevicePath?5?$CB?$DN?5?$CI?$CIvoid?5?$CK?$CJ@ 0000000000048ed8     BootMaintenanceManagerUiLib:Variable.obj
 0002:00005f00       ??_C@_0IO@COBKBBMM@BootOptionMenu?4MenuNumber?5?$DM?$DN?5?$CIs@ 0000000000048f00     BootMaintenanceManagerUiLib:Variable.obj
 0002:00005f90       ??_C@_0JE@DLLMFIEP@DriverOptionMenu?4MenuNumber?5?$DM?$DN?5@ 0000000000048f90     BootMaintenanceManagerUiLib:Variable.obj
 0002:00006030       ??_C@_0FG@BPOOMKNK@D?3?2develop?2EDK2?2edk2?2MdeModuleP@ 0000000000049030     BootMaintenanceManagerUiLib:ConsoleOption.obj
 0002:00006088       ??_C@_0CO@MDCBKLCA@NewConsoleContext?9?$DODevicePath?5?$CB@ 0000000000049088     BootMaintenanceManagerUiLib:ConsoleOption.obj
 0002:000060c0       ??_C@_0HC@PDJBNEOL@D?3?2develop?2EDK2?2edk2?2MdeModuleP@ 00000000000490c0     BootMaintenanceManagerUiLib:BootMaintenanceManagerCustomizedUiSupport.obj
 0002:00006140       ??_C@_0ED@CPPAGEKM@D?3?2develop?2EDK2?2edk2?2MdePkg?2Lib@ 0000000000049140     BaseMemoryLib:ZeroMemWrapper.obj
 0002:00006190       ??_C@_0EE@OCDBMDJF@D?3?2develop?2EDK2?2edk2?2MdePkg?2Lib@ 0000000000049190     BaseMemoryLib:SetMem16Wrapper.obj
 0002:000061d8       ??_C@_0CO@LECKNDNC@?$CI?$CI?$CIUINTN?$CJBuffer?$CJ?5?$CG?5?$CIsizeof?5?$CIVal@ 00000000000491d8     BaseMemoryLib:SetMem16Wrapper.obj
 0002:00006208       ??_C@_0CF@LEICOABD@?$CILength?5?$CG?5?$CIsizeof?5?$CIValue?$CJ?5?9?51?$CJ?$CJ@ 0000000000049208     BaseMemoryLib:SetMem16Wrapper.obj
 0002:00006230       ??_C@_0CC@JOEHDGKB@DestinationBuffer?5?$CB?$DN?5?$CI?$CIvoid?5?$CK?$CJ?5@ 0000000000049230     BaseMemoryLib:CompareMemWrapper.obj
 0002:00006260       ??_C@_0EG@DEJIAPDF@D?3?2develop?2EDK2?2edk2?2MdePkg?2Lib@ 0000000000049260     BaseMemoryLib:CompareMemWrapper.obj
 0002:000062a8       ??_C@_0BN@MDMCNBCC@SourceBuffer?5?$CB?$DN?5?$CI?$CIvoid?5?$CK?$CJ?50?$CJ@ 00000000000492a8     BaseMemoryLib:CompareMemWrapper.obj
 0002:000062c8       ??_C@_0CI@MNELLLEK@?$CB?$CIBuffer?5?$DN?$DN?5?$CI?$CIvoid?5?$CK?$CJ?50?$CJ?5?$CG?$CG?5Len@ 00000000000492c8     BaseMemoryLib:IsZeroBufferWrapper.obj
 0002:000062f0       ??_C@_0EI@JMPNGELJ@D?3?2develop?2EDK2?2edk2?2MdePkg?2Lib@ 00000000000492f0     BaseMemoryLib:IsZeroBufferWrapper.obj
 0002:00006338       ??_C@_0BF@NJNGJMPC@List?5?$CB?$DN?5?$CI?$CIvoid?5?$CK?$CJ?50?$CJ@ 0000000000049338     BaseLib:LinkedList.obj
 0002:00006350       ??_C@_0DJ@PDIPIDH@D?3?2develop?2EDK2?2edk2?2MdePkg?2Lib@ 0000000000049350     BaseLib:LinkedList.obj
 0002:00006390       ??_C@_0CC@KDLPLAED@List?9?$DOForwardLink?5?$CB?$DN?5?$CI?$CIvoid?5?$CK?$CJ?5@ 0000000000049390     BaseLib:LinkedList.obj
 0002:000063b8       ??_C@_0BP@IJJCCMAK@List?9?$DOBackLink?5?$CB?$DN?5?$CI?$CIvoid?5?$CK?$CJ?50?$CJ@ 00000000000493b8     BaseLib:LinkedList.obj
 0002:000063d8       ??_C@_0CI@BMHOPIIO@InternalBaseLibIsListValid?5?$CIFir@ 00000000000493d8     BaseLib:LinkedList.obj
 0002:00006400       ??_C@_0BM@BAIHHOEP@SecondEntry?5?$CB?$DN?5?$CI?$CIvoid?5?$CK?$CJ?50?$CJ@ 0000000000049400     BaseLib:LinkedList.obj
 0002:00006420       ??_C@_0BJ@NJABNCDK@ListHead?5?$CB?$DN?5?$CI?$CIvoid?5?$CK?$CJ?50?$CJ@ 0000000000049420     BaseLib:LinkedList.obj
 0002:00006440       ??_C@_0DI@HOMAKAJD@?$CI?$CIBOOLEAN?$CJ?$CI0?$DN?$DN1?$CJ?$CJ?5?$DN?$DN?5IsNodeInLi@ 0000000000049440     BaseLib:LinkedList.obj
 0002:00006478       ??_C@_0CG@LGIALJFK@InternalBaseLibIsListValid?5?$CILis@ 0000000000049478     BaseLib:LinkedList.obj
 0002:000064a0       ??_C@_0CC@JLDICICM@InternalBaseLibIsListValid?5?$CILis@ 00000000000494a0     BaseLib:LinkedList.obj
 0002:000064c8       ??_C@_0DD@OAAIDOJD@?$CI?$CIBOOLEAN?$CJ?$CI1?$DN?$DN1?$CJ?$CJ?5?$DN?$DN?5IsNodeInLi@ 00000000000494c8     BaseLib:LinkedList.obj
 0002:00006500       ??_C@_0BF@NMBJJECB@?$CBIsListEmpty?5?$CIEntry?$CJ@ 0000000000049500     BaseLib:LinkedList.obj
 0002:00006518       ??_C@_0CA@PNIIEPC@LegacyBootEvent?5?$CB?$DN?5?$CI?$CIvoid?5?$CK?$CJ?50?$CJ@ 0000000000049518     UefiLib:UefiNotTiano.obj
 0002:00006538       ??_C@_0DL@JLMIJHMI@D?3?2develop?2EDK2?2edk2?2MdePkg?2Lib@ 0000000000049538     UefiLib:UefiNotTiano.obj
 0002:00006578       ??_C@_0CG@NLLFCMHO@EFI1?41?5can?8t?5support?5LegacyBoot@ 0000000000049578     UefiLib:UefiNotTiano.obj
 0002:000065a0       ??_C@_0CB@LNNMJOKK@ReadyToBootEvent?5?$CB?$DN?5?$CI?$CIvoid?5?$CK?$CJ?50@ 00000000000495a0     UefiLib:UefiNotTiano.obj
 0002:000065c8       ??_C@_0CH@LOBIJKLE@EFI1?41?5can?8t?5support?5ReadyToBoo@ 00000000000495c8     UefiLib:UefiNotTiano.obj
 0002:000065f0       ??_C@_0CB@OKGFGBHJ@FvDevicePathNode?5?$CB?$DN?5?$CI?$CIvoid?5?$CK?$CJ?50@ 00000000000495f0     UefiLib:UefiNotTiano.obj
 0002:00006618       ??_C@_0DL@JLLIPBII@D?3?2develop?2EDK2?2edk2?2MdePkg?2Lib@ 0000000000049618     UefiLib:UefiLibPrint.obj
 0002:00006658       ??_C@_0CC@KPMNJIIF@?$CI?$CIUINTN?$CJFormat?5?$CG?50x00000001?$CJ?5?$DN?$DN@ 0000000000049658     UefiLib:UefiLibPrint.obj
 0002:00006680       ??_C@_0BI@DIKLKBJC@Console?5?$CB?$DN?5?$CI?$CIvoid?5?$CK?$CJ?50?$CJ@ 0000000000049680     UefiLib:UefiLibPrint.obj
 0002:00006698       ??_C@_0BO@DIMHDDCF@TotalSize?5?$DM?$DN?5?$CI?$CIUINT16?$CJ0xFFFF?$CJ@ 0000000000049698     VariablePolicyHelperLib:VariablePolicyHelperLib.obj
 0002:000066c0       ??_C@_0FM@OAGHJJOC@D?3?2develop?2EDK2?2edk2?2MdeModuleP@ 00000000000496c0     VariablePolicyHelperLib:VariablePolicyHelperLib.obj
 0002:00006770       __volatile_metadata        0000000000049770     <linker-defined>
 0003:00000000       gEfiStatusCodeSpecificDataGuid 000000000004a000     UiApp:AutoGen.obj
 0003:00000010       gEfiDriverHealthProtocolGuid 000000000004a010     UiApp:AutoGen.obj
 0003:00000020       gEfiMemoryTypeInformationGuid 000000000004a020     UiApp:AutoGen.obj
 0003:00000030       gEfiGlobalVariableGuid     000000000004a030     UiApp:AutoGen.obj
 0003:00000040       gEfiVirtualCdGuid          000000000004a040     UiApp:AutoGen.obj
 0003:00000050       gEfiStatusCodeRuntimeProtocolGuid 000000000004a050     UiApp:AutoGen.obj
 0003:00000060       gEfiDiskInfoProtocolGuid   000000000004a060     UiApp:AutoGen.obj
 0003:00000070       gEfiDiskInfoUfsInterfaceGuid 000000000004a070     UiApp:AutoGen.obj
 0003:00000080       gEfiIfrTianoGuid           000000000004a080     UiApp:AutoGen.obj
 0003:00000090       gEfiRamDiskProtocolGuid    000000000004a090     UiApp:AutoGen.obj
 0003:000000a0       gEfiEventReadyToBootGuid   000000000004a0a0     UiApp:AutoGen.obj
 0003:000000b0       gEfiDiskInfoScsiInterfaceGuid 000000000004a0b0     UiApp:AutoGen.obj
 0003:000000c0       gEfiEventLegacyBootGuid    000000000004a0c0     UiApp:AutoGen.obj
 0003:000000d0       _gPcd_BinaryPatch_PcdSetupConOutColumn 000000000004a0d0     UiApp:AutoGen.obj
 0003:000000d8       gEfiComponentName2ProtocolGuid 000000000004a0d8     UiApp:AutoGen.obj
 0003:000000e8       gEfiPersistentVirtualDiskGuid 000000000004a0e8     UiApp:AutoGen.obj
 0003:000000f8       gEfiDiskInfoIdeInterfaceGuid 000000000004a0f8     UiApp:AutoGen.obj
 0003:00000108       gPcdProtocolGuid           000000000004a108     UiApp:AutoGen.obj
 0003:00000118       gEfiSimpleTextOutProtocolGuid 000000000004a118     UiApp:AutoGen.obj
 0003:00000128       gEfiVTUTF8Guid             000000000004a128     UiApp:AutoGen.obj
 0003:00000138       gEfiLoadFileProtocolGuid   000000000004a138     UiApp:AutoGen.obj
 0003:00000148       gEfiDiskInfoSdMmcInterfaceGuid 000000000004a148     UiApp:AutoGen.obj
 0003:00000158       gEfiHiiPlatformSetupFormsetGuid 000000000004a158     UiApp:AutoGen.obj
 0003:00000168       gEfiSerialIoProtocolGuid   000000000004a168     UiApp:AutoGen.obj
 0003:00000178       gEdkiiPlatformBootManagerProtocolGuid 000000000004a178     UiApp:AutoGen.obj
 0003:00000188       gEfiFileInfoGuid           000000000004a188     UiApp:AutoGen.obj
 0003:00000198       gEfiUartDevicePathGuid     000000000004a198     UiApp:AutoGen.obj
 0003:000001a8       gEfiNvmExpressPassThruProtocolGuid 000000000004a1a8     UiApp:AutoGen.obj
 0003:000001b8       gEfiVT100Guid              000000000004a1b8     UiApp:AutoGen.obj
 0003:000001c8       gEfiDevicePathProtocolGuid 000000000004a1c8     UiApp:AutoGen.obj
 0003:000001d8       gEfiPciIoProtocolGuid      000000000004a1d8     UiApp:AutoGen.obj
 0003:000001e8       gEfiLoadedImageProtocolGuid 000000000004a1e8     UiApp:AutoGen.obj
 0003:000001f8       gEfiFirmwareVolume2ProtocolGuid 000000000004a1f8     UiApp:AutoGen.obj
 0003:00000208       gEfiSmbiosProtocolGuid     000000000004a208     UiApp:AutoGen.obj
 0003:00000218       gEfiEventAfterReadyToBootGuid 000000000004a218     UiApp:AutoGen.obj
 0003:00000228       gEfiCallerBaseName         000000000004a228     UiApp:AutoGen.obj
 0003:00000230       UiAppStrings               000000000004a230     UiApp:AutoGen.obj
 0003:00000718       gEfiDevicePathToTextProtocolGuid 000000000004a718     UiApp:AutoGen.obj
 0003:00000728       gEfiHiiConfigRoutingProtocolGuid 000000000004a728     UiApp:AutoGen.obj
 0003:00000738       gEfiDiskInfoAhciInterfaceGuid 000000000004a738     UiApp:AutoGen.obj
 0003:00000748       gEfiSimpleTextInputExProtocolGuid 000000000004a748     UiApp:AutoGen.obj
 0003:00000758       gEfiSimpleTextInProtocolGuid 000000000004a758     UiApp:AutoGen.obj
 0003:00000768       gEfiStatusCodeDataTypeDebugGuid 000000000004a768     UiApp:AutoGen.obj
 0003:00000778       gEfiUsbIoProtocolGuid      000000000004a778     UiApp:AutoGen.obj
 0003:00000788       gEfiHiiImageProtocolGuid   000000000004a788     UiApp:AutoGen.obj
 0003:00000798       gEfiGraphicsOutputProtocolGuid 000000000004a798     UiApp:AutoGen.obj
 0003:000007a8       _gPcd_BinaryPatch_PcdSetupVideoVerticalResolution 000000000004a7a8     UiApp:AutoGen.obj
 0003:000007b0       gEfiHiiDatabaseProtocolGuid 000000000004a7b0     UiApp:AutoGen.obj
 0003:000007c0       gEfiSimpleFileSystemProtocolGuid 000000000004a7c0     UiApp:AutoGen.obj
 0003:000007d0       gEfiHiiStringProtocolGuid  000000000004a7d0     UiApp:AutoGen.obj
 0003:000007e0       gEfiIfrFrontPageGuid       000000000004a7e0     UiApp:AutoGen.obj
 0003:000007f0       gEfiVT100PlusGuid          000000000004a7f0     UiApp:AutoGen.obj
 0003:00000800       gEfiHiiConfigAccessProtocolGuid 000000000004a800     UiApp:AutoGen.obj
 0003:00000810       gEfiHobListGuid            000000000004a810     UiApp:AutoGen.obj
 0003:00000820       gEfiFileSystemVolumeLabelInfoIdGuid 000000000004a820     UiApp:AutoGen.obj
 0003:00000830       gEfiDebugPortProtocolGuid  000000000004a830     UiApp:AutoGen.obj
 0003:00000840       _gPcd_BinaryPatch_PcdSetupVideoHorizontalResolution 000000000004a840     UiApp:AutoGen.obj
 0003:00000848       gEdkiiStatusCodeDataTypeVariableGuid 000000000004a848     UiApp:AutoGen.obj
 0003:00000858       gEfiBootLogoProtocolGuid   000000000004a858     UiApp:AutoGen.obj
 0003:00000868       gEfiFormBrowser2ProtocolGuid 000000000004a868     UiApp:AutoGen.obj
 0003:00000878       gEfiVirtualDiskGuid        000000000004a878     UiApp:AutoGen.obj
 0003:00000888       _gPcd_BinaryPatch_PcdVideoVerticalResolution 000000000004a888     UiApp:AutoGen.obj
 0003:00000890       gEfiComponentNameProtocolGuid 000000000004a890     UiApp:AutoGen.obj
 0003:000008a0       gEfiBlockIoProtocolGuid    000000000004a8a0     UiApp:AutoGen.obj
 0003:000008b0       gEfiDxeServicesTableGuid   000000000004a8b0     UiApp:AutoGen.obj
 0003:000008c0       gEfiIfrBootMaintenanceGuid 000000000004a8c0     UiApp:AutoGen.obj
 0003:000008d0       gEfiSasDevicePathGuid      000000000004a8d0     UiApp:AutoGen.obj
 0003:000008e0       gEdkiiFormBrowserEx2ProtocolGuid 000000000004a8e0     UiApp:AutoGen.obj
 0003:000008f0       _gPcd_BinaryPatch_PcdVideoHorizontalResolution 000000000004a8f0     UiApp:AutoGen.obj
 0003:000008f8       gEfiPersistentVirtualCdGuid 000000000004a8f8     UiApp:AutoGen.obj
 0003:00000908       gEfiCallerIdGuid           000000000004a908     UiApp:AutoGen.obj
 0003:00000918       gEfiPcAnsiGuid             000000000004a918     UiApp:AutoGen.obj
 0003:00000928       gEdkiiVariablePolicyProtocolGuid 000000000004a928     UiApp:AutoGen.obj
 0003:00000938       gEfiHiiFontProtocolGuid    000000000004a938     UiApp:AutoGen.obj
 0003:00000948       gEfiLoadFile2ProtocolGuid  000000000004a948     UiApp:AutoGen.obj
 0003:00000958       _gPcd_BinaryPatch_PcdSetupConOutRow 000000000004a958     UiApp:AutoGen.obj
 0003:00000960       gFrontPagePrivate          000000000004a960     UiApp:FrontPage.obj
 0003:00000998       mFrontPageHiiVendorDevicePath 000000000004a998     UiApp:FrontPage.obj
 0003:000009b0       mFrontPageGuid             000000000004a9b0     UiApp:FrontPage.obj
 0003:000009c0       FrontPageVfrBin            000000000004a9c0     UiApp:FrontPageVfr.obj
 0003:00000b10       mFontBin                   000000000004ab10     UiApp:String.obj
 0003:000018b0       mUiStringPackGuid          000000000004b8b0     UiApp:String.obj
 0003:000018c0       mFontPackageGuid           000000000004b8c0     UiApp:String.obj
 0003:000018d0       mBmHardDriveBootVariableGuid 000000000004b8d0     UefiBootManagerLib:BmBoot.obj
 0003:000018e0       mBmAutoCreateBootOptionGuid 000000000004b8e0     UefiBootManagerLib:BmBoot.obj
 0003:000018f0       mConVarName                000000000004b8f0     UefiBootManagerLib:BmConsole.obj
 0003:00001920       mBmLoadOptionName          000000000004b920     UefiBootManagerLib:BmLoadOption.obj
 0003:00001940       mBmLoadOptionOrderName     000000000004b940     UefiBootManagerLib:BmLoadOption.obj
 0003:00001960       mBootDescEmmcBoot2         000000000004b960     UefiBootManagerLib:BmBootDescription.obj
 0003:00001978       mPlatformBootDescriptionHandlers 000000000004b978     UefiBootManagerLib:BmBootDescription.obj
 0003:00001988       mBootDescEmmcGp2           000000000004b988     UefiBootManagerLib:BmBootDescription.obj
 0003:000019a0       mBmBootDescriptionHandlers 000000000004b9a0     UefiBootManagerLib:BmBootDescription.obj
 0003:000019d0       mSdManufacturers           000000000004b9d0     UefiBootManagerLib:BmBootDescription.obj
 0003:00001b20       mBootDescEmmcGp1           000000000004bb20     UefiBootManagerLib:BmBootDescription.obj
 0003:00001b38       mBmUefiPrefix              000000000004bb38     UefiBootManagerLib:BmBootDescription.obj
 0003:00001b48       mBootDescEmmcUserData      000000000004bb48     UefiBootManagerLib:BmBootDescription.obj
 0003:00001b68       mBootDescGenericManufacturer 000000000004bb68     UefiBootManagerLib:BmBootDescription.obj
 0003:00001b78       mBootDescEmmcBoot1         000000000004bb78     UefiBootManagerLib:BmBootDescription.obj
 0003:00001b90       mMmcManufacturers          000000000004bb90     UefiBootManagerLib:BmBootDescription.obj
 0003:00001c80       mBootDescEmmcGp4           000000000004bc80     UefiBootManagerLib:BmBootDescription.obj
 0003:00001c98       mBootDescEmmc              000000000004bc98     UefiBootManagerLib:BmBootDescription.obj
 0003:00001cb0       mBootDescSd                000000000004bcb0     UefiBootManagerLib:BmBootDescription.obj
 0003:00001cc8       mBootDescEmmcGp3           000000000004bcc8     UefiBootManagerLib:BmBootDescription.obj
 0003:00001ce0       mBmHotkeyList              000000000004bce0     UefiBootManagerLib:BmHotkey.obj
 0003:00001cf0       mBmHotkeyBootOption        000000000004bcf0     UefiBootManagerLib:BmHotkey.obj
 0003:00001d48       mBmHotkeyLock              000000000004bd48     UefiBootManagerLib:BmHotkey.obj
 0003:00001d60       mBmHealthStatusText        000000000004bd60     UefiBootManagerLib:BmDriverHealth.obj
 0003:00001d90       FeHiiVendorDevicePath      000000000004bd90     FileExplorerLib:FileExplorer.obj
 0003:00001da8       FileExplorerGuid           000000000004bda8     FileExplorerLib:FileExplorer.obj
 0003:00001db8       mNewFolderQuestionId       000000000004bdb8     FileExplorerLib:FileExplorer.obj
 0003:00001dc0       gFileExplorerPrivate       000000000004bdc0     FileExplorerLib:FileExplorer.obj
 0003:00001e18       mNewFileQuestionId         000000000004be18     FileExplorerLib:FileExplorer.obj
 0003:00001e20       mFsOptionMenu              000000000004be20     FileExplorerLib:FileExplorer.obj
 0003:00001e50       FileExplorerVfrBin         000000000004be50     FileExplorerLib:FileExplorerVfr.obj
 0003:00001f50       FileExplorerLibStrings     000000000004bf50     FileExplorerLib:AutoGen.obj
 0003:00002770       mDeviceManagerHiiVendorDevicePath 000000000004c770     DeviceManagerUiLib:DeviceManager.obj
 0003:00002788       mDeviceManagerGuid         000000000004c788     DeviceManagerUiLib:DeviceManager.obj
 0003:00002798       gDeviceManagerPrivate      000000000004c798     DeviceManagerUiLib:DeviceManager.obj
 0003:000027d0       DeviceManagerVfrBin        000000000004c7d0     DeviceManagerUiLib:DeviceManagerVfr.obj
 0003:00002920       DeviceManagerUiLibStrings  000000000004c920     DeviceManagerUiLib:AutoGen.obj
 0003:00002dd8       mBootManagerGuid           000000000004cdd8     BootManagerUiLib:BootManager.obj
 0003:00002de8       gBootManagerPrivate        000000000004cde8     BootManagerUiLib:BootManager.obj
 0003:00002e18       mBootManagerHiiVendorDevicePath 000000000004ce18     BootManagerUiLib:BootManager.obj
 0003:00002e30       mDeviceTypeStr             000000000004ce30     BootManagerUiLib:BootManager.obj
 0003:00002e70       BootManagerUiLibStrings    000000000004ce70     BootManagerUiLib:AutoGen.obj
 0003:000032b0       BootManagerVfrBin          000000000004d2b0     BootManagerUiLib:BootManagerVfr.obj
 0003:00003368       mBootMaintGuid             000000000004d368     BootMaintenanceManagerUiLib:BootMaintenance.obj
 0003:00003380       gBootMaintenancePrivate    000000000004d380     BootMaintenanceManagerUiLib:BootMaintenance.obj
 0003:00004fe0       mBmmCallbackInfo           000000000004efe0     BootMaintenanceManagerUiLib:BootMaintenance.obj
 0003:00004fe8       mBootMaintStorageName      000000000004efe8     BootMaintenanceManagerUiLib:BootMaintenance.obj
 0003:00004ff8       mBmmHiiVendorDevicePath    000000000004eff8     BootMaintenanceManagerUiLib:BootMaintenance.obj
 0003:00005010       DriverMenu                 000000000004f010     BootMaintenanceManagerUiLib:Data.obj
 0003:00005030       ConsoleInpMenu             000000000004f030     BootMaintenanceManagerUiLib:Data.obj
 0003:00005050       BaudRateList               000000000004f050     BootMaintenanceManagerUiLib:Data.obj
 0003:00005180       ConsoleOutMenu             000000000004f180     BootMaintenanceManagerUiLib:Data.obj
 0003:000051a0       DriverOptionMenu           000000000004f1a0     BootMaintenanceManagerUiLib:Data.obj
 0003:000051c0       StopBitsList               000000000004f1c0     BootMaintenanceManagerUiLib:Data.obj
 0003:000051f0       ParityList                 000000000004f1f0     BootMaintenanceManagerUiLib:Data.obj
 0003:00005240       ConsoleErrMenu             000000000004f240     BootMaintenanceManagerUiLib:Data.obj
 0003:00005260       DataBitsList               000000000004f260     BootMaintenanceManagerUiLib:Data.obj
 0003:000052a0       BootOptionMenu             000000000004f2a0     BootMaintenanceManagerUiLib:Data.obj
 0003:000052c0       TerminalMenu               000000000004f2c0     BootMaintenanceManagerUiLib:Data.obj
 0003:000052e0       mFlowControlValue          000000000004f2e0     BootMaintenanceManagerUiLib:Data.obj
 0003:000052e8       TerminalType               000000000004f2e8     BootMaintenanceManagerUiLib:Data.obj
 0003:000052fc       mFlowControlType           000000000004f2fc     BootMaintenanceManagerUiLib:Data.obj
 0003:00005300       TerminalTypeGuid           000000000004f300     BootMaintenanceManagerUiLib:Data.obj
 0003:00005390       BootMaintenanceManagerBin  000000000004f390     BootMaintenanceManagerUiLib:BootMaintenanceManager.obj
 0003:00005930       BootMaintenanceManagerUiLibStrings 000000000004f930     BootMaintenanceManagerUiLib:AutoGen.obj
 0003:00007500       mSetupTextModeRow          0000000000051500     UiApp:FrontPage.obj
 0003:00007504       mBootVerticalResolution    0000000000051504     UiApp:FrontPage.obj
 0003:00007508       mBootTextModeColumn        0000000000051508     UiApp:FrontPage.obj
 0003:0000750c       mSetupTextModeColumn       000000000005150c     UiApp:FrontPage.obj
 0003:00007510       mBootTextModeRow           0000000000051510     UiApp:FrontPage.obj
 0003:00007514       mModeInitialized           0000000000051514     UiApp:FrontPage.obj
 0003:00007515       mResetRequired             0000000000051515     UiApp:FrontPage.obj
 0003:00007518       mSetupHorizontalResolution 0000000000051518     UiApp:FrontPage.obj
 0003:0000751c       mBootHorizontalResolution  000000000005151c     UiApp:FrontPage.obj
 0003:00007520       mSetupVerticalResolution   0000000000051520     UiApp:FrontPage.obj
 0003:00007528       mPcd                       0000000000051528     DxePcdLib:DxePcdLib.obj
 0003:00007530       mReportStatusCodeLibStatusCodeProtocol 0000000000051530     DxeReportStatusCodeLib:ReportStatusCodeLib.obj
 0003:00007540       gST                        0000000000051540     UefiBootServicesTableLib:UefiBootServicesTableLib.obj
 0003:00007548       gImageHandle               0000000000051548     UefiBootServicesTableLib:UefiBootServicesTableLib.obj
 0003:00007550       gBS                        0000000000051550     UefiBootServicesTableLib:UefiBootServicesTableLib.obj
 0003:00007558       gRT                        0000000000051558     UefiRuntimeServicesTableLib:UefiRuntimeServicesTableLib.obj
 0003:00007560       mHobList                   0000000000051560     DxeHobLib:HobLib.obj
 0003:00007568       gHiiDatabase               0000000000051568     UefiHiiServicesLib:UefiHiiServicesLib.obj
 0003:00007570       gHiiString                 0000000000051570     UefiHiiServicesLib:UefiHiiServicesLib.obj
 0003:00007578       gHiiFont                   0000000000051578     UefiHiiServicesLib:UefiHiiServicesLib.obj
 0003:00007580       gHiiConfigRouting          0000000000051580     UefiHiiServicesLib:UefiHiiServicesLib.obj
 0003:00007588       gHiiImage                  0000000000051588     UefiHiiServicesLib:UefiHiiServicesLib.obj
 0003:00007590       gDS                        0000000000051590     DxeServicesTableLib:DxeServicesTableLib.obj
 0003:00007598       mUefiFormBrowser2          0000000000051598     UefiHiiLib:HiiLib.obj
 0003:000075a0       mBmLegacyBoot              00000000000515a0     UefiBootManagerLib:BmBoot.obj
 0003:000075a8       mRamDisk                   00000000000515a8     UefiBootManagerLib:BmBoot.obj
 0003:000075b0       mBmRefreshLegacyBootOption 00000000000515b0     UefiBootManagerLib:BmBoot.obj
 0003:000075b8       mBmHotkeyTriggered         00000000000515b8     UefiBootManagerLib:BmHotkey.obj
 0003:000075c0       mLibEndOpCodeHandle        00000000000515c0     FileExplorerLib:FileExplorer.obj
 0003:000075c8       mLibStartLabel             00000000000515c8     FileExplorerLib:FileExplorer.obj
 0003:000075d0       mLibStartOpCodeHandle      00000000000515d0     FileExplorerLib:FileExplorer.obj
 0003:000075d8       mLibEndLabel               00000000000515d8     FileExplorerLib:FileExplorer.obj
 0003:000075e0       mBmSetupTextModeRow        00000000000515e0     BootManagerUiLib:BootManager.obj
 0003:000075e4       mBmBootTextModeRow         00000000000515e4     BootManagerUiLib:BootManager.obj
 0003:000075e8       mBmModeInitialized         00000000000515e8     BootManagerUiLib:BootManager.obj
 0003:000075ec       mBmBootHorizontalResolution 00000000000515ec     BootManagerUiLib:BootManager.obj
 0003:000075f0       mBmSetupVerticalResolution 00000000000515f0     BootManagerUiLib:BootManager.obj
 0003:000075f4       mBmSetupHorizontalResolution 00000000000515f4     BootManagerUiLib:BootManager.obj
 0003:000075f8       mBmBootVerticalResolution  00000000000515f8     BootManagerUiLib:BootManager.obj
 0003:000075fc       mBmBootTextModeColumn      00000000000515fc     BootManagerUiLib:BootManager.obj
 0003:00007600       mBmSetupTextModeColumn     0000000000051600     BootManagerUiLib:BootManager.obj
 0003:00007604       mBmmSetupVerticalResolution 0000000000051604     BootMaintenanceManagerUiLib:BootMaintenance.obj
 0003:00007608       mFirstEnterBMMForm         0000000000051608     BootMaintenanceManagerUiLib:BootMaintenance.obj
 0003:0000760c       mBmmBootHorizontalResolution 000000000005160c     BootMaintenanceManagerUiLib:BootMaintenance.obj
 0003:00007610       mBmmModeInitialized        0000000000051610     BootMaintenanceManagerUiLib:BootMaintenance.obj
 0003:00007614       mBmmSetupTextModeRow       0000000000051614     BootMaintenanceManagerUiLib:BootMaintenance.obj
 0003:00007618       mBmmBootTextModeRow        0000000000051618     BootMaintenanceManagerUiLib:BootMaintenance.obj
 0003:0000761c       mBmmSetupHorizontalResolution 000000000005161c     BootMaintenanceManagerUiLib:BootMaintenance.obj
 0003:00007620       mAllMenuInit               0000000000051620     BootMaintenanceManagerUiLib:BootMaintenance.obj
 0003:00007624       mBmmBootVerticalResolution 0000000000051624     BootMaintenanceManagerUiLib:BootMaintenance.obj
 0003:00007628       mBmmSetupTextModeColumn    0000000000051628     BootMaintenanceManagerUiLib:BootMaintenance.obj
 0003:0000762c       mBmmBootTextModeColumn     000000000005162c     BootMaintenanceManagerUiLib:BootMaintenance.obj
 0003:00007630       mStartOpCodeHandle         0000000000051630     BootMaintenanceManagerUiLib:Data.obj
 0003:00007638       mEndOpCodeHandle           0000000000051638     BootMaintenanceManagerUiLib:Data.obj
 0003:00007640       mStartLabel                0000000000051640     BootMaintenanceManagerUiLib:Data.obj
 0003:00007648       mEndLabel                  0000000000051648     BootMaintenanceManagerUiLib:Data.obj
 0003:00007658       __security_cookie          0000000000051658     StackCheckLibNull:StackCheckLibNullMsvc.obj
 0003:00007660       mKeyInput                  0000000000051660     <common>
 0003:00007668       mSelectedMacAddrString     0000000000051668     <common>
 0003:00007680       mMacDeviceList             0000000000051680     <common>
 0003:00007698       mQuestionIdUpdate          0000000000051698     <common>
 0003:000076a0       mNewFolderName             00000000000516a0     <common>
 0003:000076c8       gHiiVendorDevicePath       00000000000516c8     <common>
 0003:000076e0       mNewFileName               00000000000516e0     <common>
 0003:00007708       gLanguageToken             0000000000051708     <common>
 0003:00007710       gLanguageString            0000000000051710     <common>
 0003:00007718       gCurrentLanguageIndex      0000000000051718     <common>
 0003:00007720       gHiiDriverList             0000000000051720     <common>
 0003:00007728       gStringPackHandle          0000000000051728     <common>
 0003:00007730       gFormBrowser2              0000000000051730     <common>

 entry point at        0001:00000014

 Static symbols

 0001:00030f98       PopulateCommonData         0000000000041f98 f   VariablePolicyHelperLib:VariablePolicyHelperLib.obj
 0003:00007538       mDeadLoopComparator        0000000000051538     BaseLib:CpuDeadLoop.obj
 0003:00007650       gHiiDriverList             0000000000051650     BootMaintenanceManagerUiLib:BootMaintenanceManagerCustomizedUiSupport.obj
 0005:00000000       $unwind$ProcessLibraryConstructorList 0000000000054000     UiApp:AutoGen.obj
 0005:00000000       $unwind$ProcessLibraryDestructorList 0000000000054000     UiApp:AutoGen.obj
 0005:00000000       $unwind$GetNextLanguage    0000000000054000     UiApp:FrontPageCustomizedUiSupport.obj
 0005:00000000       $unwind$UiCreateContinueMenu 0000000000054000     UiApp:FrontPageCustomizedUiSupport.obj
 0005:00000000       $unwind$UiCreateEmptyLine  0000000000054000     UiApp:FrontPageCustomizedUiSupport.obj
 0005:00000000       $unwind$UiCreateResetMenu  0000000000054000     UiApp:FrontPageCustomizedUiSupport.obj
 0005:00000000       $unwind$EfiLibDeleteVariable 0000000000054000     BootMaintenanceManagerUiLib:BmLib.obj
 0005:00000000       $unwind$BootMaintenanceManagerUiLibDestructor 0000000000054000     BootMaintenanceManagerUiLib:BootMaintenance.obj
 0005:00000000       $unwind$DiscardChangeHandler 0000000000054000     BootMaintenanceManagerUiLib:BootMaintenance.obj
 0005:00000000       $unwind$BmmCreateBootFromFileMenu 0000000000054000     BootMaintenanceManagerUiLib:BootMaintenanceManagerCustomizedUiSupport.obj
 0005:00000000       $unwind$BmmCreateBootOptionMenu 0000000000054000     BootMaintenanceManagerUiLib:BootMaintenanceManagerCustomizedUiSupport.obj
 0005:00000000       $unwind$BmmCreateComOptionMenu 0000000000054000     BootMaintenanceManagerUiLib:BootMaintenanceManagerCustomizedUiSupport.obj
 0005:00000000       $unwind$BmmCreateDriverOptionMenu 0000000000054000     BootMaintenanceManagerUiLib:BootMaintenanceManagerCustomizedUiSupport.obj
 0005:00000000       $unwind$BmmCreateEmptyLine 0000000000054000     BootMaintenanceManagerUiLib:BootMaintenanceManagerCustomizedUiSupport.obj
 0005:00000000       $unwind$CleanUpPage        0000000000054000     BootMaintenanceManagerUiLib:UpdatePage.obj
 0005:00000000       $unwind$UpdatePageBody     0000000000054000     BootMaintenanceManagerUiLib:UpdatePage.obj
 0005:00000000       $unwind$BmCachePartitionDevicePath 0000000000054000     UefiBootManagerLib:BmBoot.obj
 0005:00000000       $unwind$BmEndOfBdsPerfCode 0000000000054000     UefiBootManagerLib:BmBoot.obj
 0005:00000000       $unwind$BmMatchHttpBootDevicePath 0000000000054000     UefiBootManagerLib:BmBoot.obj
 0005:00000000       $unwind$BmMatchPartitionDevicePathNode 0000000000054000     UefiBootManagerLib:BmBoot.obj
 0005:00000000       $unwind$EfiBootManagerFreeDriverHealthInfo 0000000000054000     UefiBootManagerLib:BmDriverHealth.obj
 0005:00000000       $unwind$BmGetDevicePathSizeEx 0000000000054000     UefiBootManagerLib:BmLoadOption.obj
 0005:00000000       $unwind$BmStrSizeEx        0000000000054000     UefiBootManagerLib:BmLoadOption.obj
 0005:00000000       $unwind$EfiBootManagerAddLoadOptionVariable 0000000000054000     UefiBootManagerLib:BmLoadOption.obj
 0005:00000000       $unwind$EfiBootManagerFreeLoadOptions 0000000000054000     UefiBootManagerLib:BmLoadOption.obj
 0005:00000000       $unwind$InternalHiiAppendOpCodes 0000000000054000     UefiHiiLib:HiiLib.obj
 0005:00000000       $unwind$InternalHiiGrowOpCodeHandle 0000000000054000     UefiHiiLib:HiiLib.obj
 0005:00000000       $unwind$UefiHiiServicesLibConstructor 0000000000054000     UefiHiiServicesLib:UefiHiiServicesLib.obj
 0005:00000000       $unwind$IsNull             0000000000054000     BaseLib:LinkedList.obj
 0005:00000000       $unwind$StrnLenS           0000000000054000     BaseLib:SafeString.obj
 0005:00000000       $unwind$StrStr             0000000000054000     BaseLib:String.obj
 0005:00000000       $unwind$SPrintLength       0000000000054000     BasePrintLib:PrintLib.obj
 0005:00000000       $unwind$GetNextGuidHob     0000000000054000     DxeHobLib:HobLib.obj
 0005:00000000       $unwind$GetNextHob         0000000000054000     DxeHobLib:HobLib.obj
 0005:00000000       $unwind$DxeServicesTableLibConstructor 0000000000054000     DxeServicesTableLib:DxeServicesTableLib.obj
 0005:00000000       $unwind$_ModuleEntryPoint  0000000000054000     UefiApplicationEntryPoint:ApplicationEntryPoint.obj
 0005:00000000       $unwind$CatIPv4Address     0000000000054000     UefiDevicePathLib:DevicePathToText.obj
 0005:00000000       $unwind$EfiGetSystemConfigurationTable 0000000000054000     UefiLib:UefiLib.obj
 0005:00000000       $unwind$FreeAlignedPages   0000000000054000     UefiMemoryAllocationLib:MemoryAllocationLib.obj
 0005:00000008       $unwind$ProcessModuleEntryPointList 0000000000054008     UiApp:AutoGen.obj
 0005:00000008       $unwind$UiCustomizeFrontPage 0000000000054008     UiApp:FrontPageCustomizedUi.obj
 0005:00000008       $unwind$UiCustomizeBMMPage 0000000000054008     BootMaintenanceManagerUiLib:BootMaintenanceManagerCustomizedUi.obj
 0005:00000008       $unwind$BmSwapBytes        0000000000054008     UefiBootManagerLib:BmBootDescription.obj
 0005:00000008       $unwind$BmRepairNotify     0000000000054008     UefiBootManagerLib:BmDriverHealth.obj
 0005:00000008       $unwind$EfiBootManagerVariableToLoadOption 0000000000054008     UefiBootManagerLib:BmLoadOption.obj
 0005:00000008       $unwind$LShiftU64          0000000000054008     BaseLib:LShiftU64.obj
 0005:00000008       $unwind$GetNextNode        0000000000054008     BaseLib:LinkedList.obj
 0005:00000008       $unwind$InsertTailList     0000000000054008     BaseLib:LinkedList.obj
 0005:00000008       $unwind$RShiftU64          0000000000054008     BaseLib:RShiftU64.obj
 0005:00000008       $unwind$StrnSizeS          0000000000054008     BaseLib:SafeString.obj
 0005:00000008       $unwind$AsciiStrCmp        0000000000054008     BaseLib:String.obj
 0005:00000008       $unwind$StrCmp             0000000000054008     BaseLib:String.obj
 0005:00000008       $unwind$WriteUnaligned16   0000000000054008     BaseLib:Unaligned.obj
 0005:00000008       $unwind$WriteUnaligned64   0000000000054008     BaseLib:Unaligned.obj
 0005:00000008       $unwind$IsZeroBuffer       0000000000054008     BaseMemoryLib:IsZeroBufferWrapper.obj
 0005:00000008       $unwind$InternalMemZeroMem 0000000000054008     BaseMemoryLib:MemLibGeneric.obj
 0005:00000008       $unwind$CopyGuid           0000000000054008     BaseMemoryLib:MemLibGuid.obj
 0005:00000008       $unwind$ZeroMem            0000000000054008     BaseMemoryLib:ZeroMemWrapper.obj
 0005:00000008       $unwind$HobLibConstructor  0000000000054008     DxeHobLib:HobLib.obj
 0005:00000008       $unwind$UefiBootServicesTableLibConstructor 0000000000054008     UefiBootServicesTableLib:UefiBootServicesTableLib.obj
 0005:00000008       $unwind$CatNetworkProtocol 0000000000054008     UefiDevicePathLib:DevicePathToText.obj
 0005:00000008       $unwind$SetDevicePathNodeLength 0000000000054008     UefiDevicePathLib:DevicePathUtilities.obj
 0005:00000008       $unwind$AppendDevicePath   0000000000054008     UefiDevicePathLib:UefiDevicePathLib.obj
 0005:00000008       $unwind$AppendDevicePathInstance 0000000000054008     UefiDevicePathLib:UefiDevicePathLib.obj
 0005:00000008       $unwind$AppendDevicePathNode 0000000000054008     UefiDevicePathLib:UefiDevicePathLib.obj
 0005:00000008       $unwind$GetNextDevicePathInstance 0000000000054008     UefiDevicePathLib:UefiDevicePathLib.obj
 0005:00000008       $unwind$AllocateAlignedReservedPages 0000000000054008     UefiMemoryAllocationLib:MemoryAllocationLib.obj
 0005:00000008       $unwind$AllocateCopyPool   0000000000054008     UefiMemoryAllocationLib:MemoryAllocationLib.obj
 0005:00000008       $unwind$UefiRuntimeServicesTableLibConstructor 0000000000054008     UefiRuntimeServicesTableLib:UefiRuntimeServicesTableLib.obj
 0005:00000010       $unwind$FrontPageCallback  0000000000054010     UiApp:FrontPage.obj
 0005:00000010       $unwind$UiSupportLibCallbackHandler 0000000000054010     UiApp:FrontPageCustomizedUiSupport.obj
 0005:00000010       $unwind$DeviceManagerCallback 0000000000054010     DeviceManagerUiLib:DeviceManager.obj
 0005:00000018       $unwind$SetupResetReminder 0000000000054018     UiApp:FrontPage.obj
 0005:00000018       $unwind$UpdateFrontPageForm 0000000000054018     UiApp:FrontPage.obj
 0005:00000018       $unwind$BmmInitialBootModeInfo 0000000000054018     BootMaintenanceManagerUiLib:BootMaintenance.obj
 0005:00000018       $unwind$CustomizeMenus     0000000000054018     BootMaintenanceManagerUiLib:BootMaintenance.obj
 0005:00000018       $unwind$Var_DelBootOption  0000000000054018     BootMaintenanceManagerUiLib:Variable.obj
 0005:00000018       $unwind$Var_DelDriverOption 0000000000054018     BootMaintenanceManagerUiLib:Variable.obj
 0005:00000018       $unwind$BmInitialBootModeInfo 0000000000054018     BootManagerUiLib:BootManager.obj
 0005:00000018       $unwind$BmConnectAllDriversToAllControllers 0000000000054018     UefiBootManagerLib:BmConnect.obj
 0005:00000018       $unwind$EfiBootManagerConnectAllDefaultConsoles 0000000000054018     UefiBootManagerLib:BmConsole.obj
 0005:00000018       $unwind$EfiSignalEventReadyToBoot 0000000000054018     UefiLib:UefiNotTiano.obj
 0005:00000020       $unwind$FreeFrontPage      0000000000054020     UiApp:FrontPage.obj
 0005:00000020       $unwind$InitializeFrontPage 0000000000054020     UiApp:FrontPage.obj
 0005:00000028       $unwind$CallFrontPage      0000000000054028     UiApp:FrontPage.obj
 0005:00000028       $unwind$EfiBootManagerRefreshAllBootOption 0000000000054028     UefiBootManagerLib:BmBoot.obj
 0005:00000030       $unwind$ConvertProcessorToString 0000000000054030     UiApp:FrontPage.obj
 0005:00000030       $unwind$BmExpandUsbDevicePath 0000000000054030     UefiBootManagerLib:BmBoot.obj
 0005:00000030       $unwind$StrCatS            0000000000054030     BaseLib:SafeString.obj
 0005:00000038       $unwind$ConvertMemorySizeToString 0000000000054038     UiApp:FrontPage.obj
 0005:00000040       $unwind$GetOptionalStringByIndex 0000000000054040     UiApp:FrontPage.obj
 0005:00000040       $unwind$UefiDevicePathLibCreateDeviceNode 0000000000054040     UefiDevicePathLib:DevicePathUtilities.obj
 0005:00000040       $unwind$InternalAllocateCopyPool 0000000000054040     UefiMemoryAllocationLib:MemoryAllocationLib.obj
 0005:00000048       $unwind$UpdateFrontPageBannerStrings 0000000000054048     UiApp:FrontPage.obj
 0005:00000050       $unwind$UiSetConsoleMode   0000000000054050     UiApp:FrontPage.obj
 0005:00000050       $unwind$BmmSetConsoleMode  0000000000054050     BootMaintenanceManagerUiLib:BootMaintenance.obj
 0005:00000050       $unwind$BmSetConsoleMode   0000000000054050     BootManagerUiLib:BootManager.obj
 0005:00000058       $unwind$InitializeUserInterface 0000000000054058     UiApp:FrontPage.obj
 0005:00000058       $unwind$BOpt_GetMenuEntry  0000000000054058     BootMaintenanceManagerUiLib:BootOption.obj
 0005:00000058       $unwind$SortedUartHandle   0000000000054058     BootMaintenanceManagerUiLib:ConsoleOption.obj
 0005:00000058       $unwind$LibGetFileHandleFromMenu 0000000000054058     FileExplorerLib:FileExplorer.obj
 0005:00000058       $unwind$LibGetMenuEntry    0000000000054058     FileExplorerLib:FileExplorer.obj
 0005:00000058       $unwind$BmGetRamDiskMemoryInfo 0000000000054058     UefiBootManagerLib:BmBoot.obj
 0005:00000058       $unwind$EfiBootManagerConnectDevicePath 0000000000054058     UefiBootManagerLib:BmConnect.obj
 0005:00000058       $unwind$BmDelPartMatchInstance 0000000000054058     UefiBootManagerLib:BmMisc.obj
 0005:00000058       $unwind$CompareGuid        0000000000054058     BaseMemoryLib:MemLibGuid.obj
 0005:00000058       $unwind$UefiDevicePathLibAppendDevicePath 0000000000054058     UefiDevicePathLib:DevicePathUtilities.obj
 0005:00000058       $unwind$UefiDevicePathLibAppendDevicePathNode 0000000000054058     UefiDevicePathLib:DevicePathUtilities.obj
 0005:00000060       $unwind$UiEntry            0000000000054060     UiApp:FrontPage.obj
 0005:00000060       $unwind$EfiBootManagerConnectConsoleVariable 0000000000054060     UefiBootManagerLib:BmConsole.obj
 0005:00000068       $unwind$ExportFonts        0000000000054068     UiApp:String.obj
 0005:00000068       $unwind$InitializeStringSupport 0000000000054068     UiApp:String.obj
 0005:00000068       $unwind$UninitializeStringSupport 0000000000054068     UiApp:String.obj
 0005:00000068       $unwind$FreeAllMenu        0000000000054068     BootMaintenanceManagerUiLib:BootMaintenance.obj
 0005:00000068       $unwind$BOpt_GetBootOptionNumber 0000000000054068     BootMaintenanceManagerUiLib:BootOption.obj
 0005:00000068       $unwind$BOpt_GetDriverOptionNumber 0000000000054068     BootMaintenanceManagerUiLib:BootOption.obj
 0005:00000068       $unwind$FreeAllConsoles    0000000000054068     BootMaintenanceManagerUiLib:ConsoleOption.obj
 0005:00000068       $unwind$GetAllConsoles     0000000000054068     BootMaintenanceManagerUiLib:ConsoleOption.obj
 0005:00000068       $unwind$CreateUpdateData   0000000000054068     BootMaintenanceManagerUiLib:UpdatePage.obj
 0005:00000068       $unwind$RefreshUpdateData  0000000000054068     BootMaintenanceManagerUiLib:UpdatePage.obj
 0005:00000068       $unwind$Var_UpdateConsoleInpOption 0000000000054068     BootMaintenanceManagerUiLib:Variable.obj
 0005:00000068       $unwind$Var_UpdateConsoleOutOption 0000000000054068     BootMaintenanceManagerUiLib:Variable.obj
 0005:00000068       $unwind$Var_UpdateErrorOutOption 0000000000054068     BootMaintenanceManagerUiLib:Variable.obj
 0005:00000068       $unwind$LibRefreshUpdateData 0000000000054068     FileExplorerLib:FileExplorer.obj
 0005:00000068       $unwind$EfiBootManagerConnectAll 0000000000054068     UefiBootManagerLib:BmConnect.obj
 0005:00000070       $unwind$GetStringById      0000000000054070     UiApp:String.obj
 0005:00000070       $unwind$InitAllMenu        0000000000054070     BootMaintenanceManagerUiLib:BootMaintenance.obj
 0005:00000070       $unwind$CreateBootOptionFromFile 0000000000054070     BootMaintenanceManagerUiLib:BootOption.obj
 0005:00000070       $unwind$CreateDriverOptionFromFile 0000000000054070     BootMaintenanceManagerUiLib:BootOption.obj
 0005:00000070       $unwind$BmIsAutoCreateBootOption 0000000000054070     UefiBootManagerLib:BmBoot.obj
 0005:00000070       $unwind$EfiBootManagerFreeLoadOption 0000000000054070     UefiBootManagerLib:BmLoadOption.obj
 0005:00000070       $unwind$GetFirstNode       0000000000054070     BaseLib:LinkedList.obj
 0005:00000070       $unwind$InitializeListHead 0000000000054070     BaseLib:LinkedList.obj
 0005:00000070       $unwind$RemoveEntryList    0000000000054070     BaseLib:LinkedList.obj
 0005:00000070       $unwind$AsciiStrSize       0000000000054070     BaseLib:String.obj
 0005:00000070       $unwind$StrSize            0000000000054070     BaseLib:String.obj
 0005:00000070       $unwind$ReadUnaligned16    0000000000054070     BaseLib:Unaligned.obj
 0005:00000070       $unwind$ReadUnaligned32    0000000000054070     BaseLib:Unaligned.obj
 0005:00000070       $unwind$ReadUnaligned64    0000000000054070     BaseLib:Unaligned.obj
 0005:00000070       $unwind$LogPerformanceMeasurementEnabled 0000000000054070     BasePerformanceLibNull:PerformanceLib.obj
 0005:00000070       $unwind$LibPcdGet16        0000000000054070     DxePcdLib:DxePcdLib.obj
 0005:00000070       $unwind$LibPcdGetBool      0000000000054070     DxePcdLib:DxePcdLib.obj
 0005:00000070       $unwind$DevicePathNodeLength 0000000000054070     UefiDevicePathLib:DevicePathUtilities.obj
 0005:00000070       $unwind$DevicePathSubType  0000000000054070     UefiDevicePathLib:DevicePathUtilities.obj
 0005:00000070       $unwind$DevicePathType     0000000000054070     UefiDevicePathLib:DevicePathUtilities.obj
 0005:00000070       $unwind$NextDevicePathNode 0000000000054070     UefiDevicePathLib:DevicePathUtilities.obj
 0005:00000070       $unwind$SetDevicePathEndNode 0000000000054070     UefiDevicePathLib:DevicePathUtilities.obj
 0005:00000070       $unwind$DuplicateDevicePath 0000000000054070     UefiDevicePathLib:UefiDevicePathLib.obj
 0005:00000070       $unwind$GetDevicePathSize  0000000000054070     UefiDevicePathLib:UefiDevicePathLib.obj
 0005:00000070       $unwind$EfiAcquireLock     0000000000054070     UefiLib:UefiLib.obj
 0005:00000070       $unwind$EfiCreateEventReadyToBoot 0000000000054070     UefiLib:UefiNotTiano.obj
 0005:00000070       $unwind$EfiGetNameGuidFromFwVolDevicePathNode 0000000000054070     UefiLib:UefiNotTiano.obj
 0005:00000070       $unwind$AllocatePool       0000000000054070     UefiMemoryAllocationLib:MemoryAllocationLib.obj
 0005:00000070       $unwind$AllocateZeroPool   0000000000054070     UefiMemoryAllocationLib:MemoryAllocationLib.obj
 0005:00000078       $unwind$UiFrontPageCallbackHandler 0000000000054078     UiApp:FrontPageCustomizedUi.obj
 0005:00000080       $unwind$UiCustomizeFrontPageBanner 0000000000054080     UiApp:FrontPageCustomizedUi.obj
 0005:00000080       $unwind$BmIsLoadOptionPeHeaderValid 0000000000054080     UefiBootManagerLib:BmLoadOption.obj
 0005:00000080       $unwind$DivU64x32Remainder 0000000000054080     BaseLib:DivU64x32Remainder.obj
 0005:00000080       $unwind$ConvertDevicePathToText 0000000000054080     UefiDevicePathLib:UefiDevicePathLib.obj
 0005:00000080       $unwind$CreateDeviceNode   0000000000054080     UefiDevicePathLib:UefiDevicePathLib.obj
 0005:00000088       $unwind$LanguageChangeHandler 0000000000054088     UiApp:FrontPageCustomizedUiSupport.obj
 0005:00000088       $unwind$ExtractFileNameFromDevicePath 0000000000054088     BootMaintenanceManagerUiLib:BootMaintenance.obj
 0005:00000088       $unwind$BOpt_DestroyMenuEntry 0000000000054088     BootMaintenanceManagerUiLib:BootOption.obj
 0005:00000088       $unwind$GetBootOrder       0000000000054088     BootMaintenanceManagerUiLib:BootOption.obj
 0005:00000088       $unwind$GetDriverOrder     0000000000054088     BootMaintenanceManagerUiLib:BootOption.obj
 0005:00000088       $unwind$GetConsoleErrCheck 0000000000054088     BootMaintenanceManagerUiLib:ConsoleOption.obj
 0005:00000088       $unwind$GetConsoleInCheck  0000000000054088     BootMaintenanceManagerUiLib:ConsoleOption.obj
 0005:00000088       $unwind$GetConsoleOutCheck 0000000000054088     BootMaintenanceManagerUiLib:ConsoleOption.obj
 0005:00000088       $unwind$AddIdToMacDeviceList 0000000000054088     DeviceManagerUiLib:DeviceManager.obj
 0005:00000088       $unwind$LibUpdateFileExplorer 0000000000054088     FileExplorerLib:FileExplorer.obj
 0005:00000088       $unwind$BmGetLoadFileDescription 0000000000054088     UefiBootManagerLib:BmBootDescription.obj
 0005:00000088       $unwind$BmDisplayMessages  0000000000054088     UefiBootManagerLib:BmDriverHealth.obj
 0005:00000090       $unwind$UiCreateLanguageMenu 0000000000054090     UiApp:FrontPageCustomizedUiSupport.obj
 0005:00000098       $unwind$ExtractDevicePathFromHiiHandle 0000000000054098     UiApp:FrontPageCustomizedUiSupport.obj
 0005:00000098       $unwind$EfiDevicePathInstanceCount 0000000000054098     BootMaintenanceManagerUiLib:BmLib.obj
 0005:00000098       $unwind$HiiToLower         0000000000054098     BootMaintenanceManagerUiLib:BootMaintenance.obj
 0005:00000098       $unwind$ExtractDevicePathFromHandle 0000000000054098     BootMaintenanceManagerUiLib:BootMaintenanceManagerCustomizedUiSupport.obj
 0005:00000098       $unwind$IsIsaSerialNode    0000000000054098     BootMaintenanceManagerUiLib:ConsoleOption.obj
 0005:00000098       $unwind$UpdatePageEnd      0000000000054098     BootMaintenanceManagerUiLib:UpdatePage.obj
 0005:00000098       $unwind$UpdatePageStart    0000000000054098     BootMaintenanceManagerUiLib:UpdatePage.obj
 0005:00000098       $unwind$DmExtractDevicePathFromHiiHandle 0000000000054098     DeviceManagerUiLib:DeviceManager.obj
 0005:00000098       $unwind$LibDestroyMenuEntry 0000000000054098     FileExplorerLib:FileExplorer.obj
 0005:00000098       $unwind$LibGetTypeFromName 0000000000054098     FileExplorerLib:FileExplorer.obj
 0005:00000098       $unwind$LibStrDuplicate    0000000000054098     FileExplorerLib:FileExplorer.obj
 0005:00000098       $unwind$BmPrintDp          0000000000054098     UefiBootManagerLib:BmMisc.obj
 0005:00000098       $unwind$HiiCreateEndOpCode 0000000000054098     UefiHiiLib:HiiLib.obj
 0005:00000098       $unwind$HiiFreeOpCodeHandle 0000000000054098     UefiHiiLib:HiiLib.obj
 0005:00000098       $unwind$HiiRemovePackages  0000000000054098     UefiHiiLib:HiiLib.obj
 0005:00000098       $unwind$InternalHiiLowerConfigString 0000000000054098     UefiHiiLib:HiiLib.obj
 0005:00000098       $unwind$IsListEmpty        0000000000054098     BaseLib:LinkedList.obj
 0005:00000098       $unwind$AsciiStrLen        0000000000054098     BaseLib:String.obj
 0005:00000098       $unwind$StrLen             0000000000054098     BaseLib:String.obj
 0005:00000098       $unwind$GetFirstGuidHob    0000000000054098     DxeHobLib:HobLib.obj
 0005:00000098       $unwind$IsDevicePathEnd    0000000000054098     UefiDevicePathLib:DevicePathUtilities.obj
 0005:00000098       $unwind$IsDevicePathEndType 0000000000054098     UefiDevicePathLib:DevicePathUtilities.obj
 0005:00000098       $unwind$UefiDevicePathLibDuplicateDevicePath 0000000000054098     UefiDevicePathLib:DevicePathUtilities.obj
 0005:00000098       $unwind$UefiDevicePathLibGetDevicePathSize 0000000000054098     UefiDevicePathLib:DevicePathUtilities.obj
 0005:00000098       $unwind$DevicePathFromHandle 0000000000054098     UefiDevicePathLib:DevicePathUtilitiesDxeSmm.obj
 0005:00000098       $unwind$EfiReleaseLock     0000000000054098     UefiLib:UefiLib.obj
 0005:00000098       $unwind$FreePool           0000000000054098     UefiMemoryAllocationLib:MemoryAllocationLib.obj
 0005:000000a0       $unwind$RequiredDriver     00000000000540a0     UiApp:FrontPageCustomizedUiSupport.obj
 0005:000000a0       $unwind$IsRequiredDriver   00000000000540a0     BootMaintenanceManagerUiLib:BootMaintenanceManagerCustomizedUiSupport.obj
 0005:000000a0       $unwind$ChooseFile         00000000000540a0     FileExplorerLib:FileExplorer.obj
 0005:000000a0       $unwind$BmGetSingleControllerHealthStatus 00000000000540a0     UefiBootManagerLib:BmDriverHealth.obj
 0005:000000a0       $unwind$HiiAddPackages     00000000000540a0     UefiHiiLib:HiiLib.obj
 0005:000000a0       $unwind$HiiGetBrowserData  00000000000540a0     UefiHiiLib:HiiLib.obj
 0005:000000a0       $unwind$HiiSetBrowserData  00000000000540a0     UefiHiiLib:HiiLib.obj
 0005:000000a0       $unwind$HiiSetString       00000000000540a0     UefiHiiLib:HiiString.obj
 0005:000000a0       $unwind$CreateBasicVariablePolicy 00000000000540a0     VariablePolicyHelperLib:VariablePolicyHelperLib.obj
 0005:000000a0       $unwind$StrnCatS           00000000000540a0     BaseLib:SafeString.obj
 0005:000000a0       $unwind$DevPathToTextSasEx 00000000000540a0     UefiDevicePathLib:DevicePathToText.obj
 0005:000000a0       $unwind$DevPathToTextUsbClass 00000000000540a0     UefiDevicePathLib:DevicePathToText.obj
 0005:000000a0       $unwind$GetBestLanguage    00000000000540a0     UefiLib:UefiLib.obj
 0005:000000a8       $unwind$UiListThirdPartyDrivers 00000000000540a8     UiApp:FrontPageCustomizedUiSupport.obj
 0005:000000b0       $unwind$InternalGetReportStatusCode 00000000000540b0     DxeReportStatusCodeLib:ReportStatusCodeLib.obj
 0005:000000b0       $unwind$LibCreateMenuEntry 00000000000540b0     FileExplorerLib:FileExplorer.obj
 0005:000000b0       $unwind$HiiAllocateOpCodeHandle 00000000000540b0     UefiHiiLib:HiiLib.obj
 0005:000000b0       $unwind$CpuDeadLoop        00000000000540b0     BaseLib:CpuDeadLoop.obj
 0005:000000b0       $unwind$GetBootModeHob     00000000000540b0     DxeHobLib:HobLib.obj
 0005:000000b0       $unwind$GetHobList         00000000000540b0     DxeHobLib:HobLib.obj
 0005:000000b0       $unwind$GetPcdProtocol     00000000000540b0     DxePcdLib:DxePcdLib.obj
 0005:000000b0       $unwind$EfiGetCurrentTpl   00000000000540b0     UefiLib:UefiLib.obj
 0005:000000b8       $unwind$WriteUnaligned32   00000000000540b8     BaseLib:Unaligned.obj
 0005:000000b8       $unwind$LibPcdSet32S       00000000000540b8     DxePcdLib:DxePcdLib.obj
 0005:000000c0       $unwind$DebugPrint         00000000000540c0     PeiDxeDebugLibReportStatusCode:DebugLib.obj
 0005:000000c0       $unwind$InternalHiiCreateOpCode 00000000000540c0     UefiHiiLib:HiiLib.obj
 0005:000000c0       $unwind$InternalHiiCreateOpCodeExtended 00000000000540c0     UefiHiiLib:HiiLib.obj
 0005:000000c0       $unwind$InternalSafeStringNoAsciiStrOverlap 00000000000540c0     BaseLib:SafeString.obj
 0005:000000c0       $unwind$InternalSafeStringNoStrOverlap 00000000000540c0     BaseLib:SafeString.obj
 0005:000000c0       $unwind$UnicodeSPrint      00000000000540c0     BasePrintLib:PrintLib.obj
 0005:000000c0       $unwind$UnicodeVSPrint     00000000000540c0     BasePrintLib:PrintLib.obj
 0005:000000c0       $unwind$UnicodeValueToStringS 00000000000540c0     BasePrintLib:PrintLib.obj
 0005:000000c0       $unwind$DevPathRelativeOffsetRange 00000000000540c0     UefiDevicePathLib:DevicePathToText.obj
 0005:000000c0       $unwind$DevPathToText1394  00000000000540c0     UefiDevicePathLib:DevicePathToText.obj
 0005:000000c0       $unwind$DevPathToTextAcpi  00000000000540c0     UefiDevicePathLib:DevicePathToText.obj
 0005:000000c0       $unwind$DevPathToTextBmc   00000000000540c0     UefiDevicePathLib:DevicePathToText.obj
 0005:000000c0       $unwind$DevPathToTextController 00000000000540c0     UefiDevicePathLib:DevicePathToText.obj
 0005:000000c0       $unwind$DevPathToTextDns   00000000000540c0     UefiDevicePathLib:DevicePathToText.obj
 0005:000000c0       $unwind$DevPathToTextEmmc  00000000000540c0     UefiDevicePathLib:DevicePathToText.obj
 0005:000000c0       $unwind$DevPathToTextFibre 00000000000540c0     UefiDevicePathLib:DevicePathToText.obj
 0005:000000c0       $unwind$DevPathToTextFibreEx 00000000000540c0     UefiDevicePathLib:DevicePathToText.obj
 0005:000000c0       $unwind$DevPathToTextFilePath 00000000000540c0     UefiDevicePathLib:DevicePathToText.obj
 0005:000000c0       $unwind$DevPathToTextFv    00000000000540c0     UefiDevicePathLib:DevicePathToText.obj
 0005:000000c0       $unwind$DevPathToTextFvFile 00000000000540c0     UefiDevicePathLib:DevicePathToText.obj
 0005:000000c0       $unwind$DevPathToTextI2O   00000000000540c0     UefiDevicePathLib:DevicePathToText.obj
 0005:000000c0       $unwind$DevPathToTextIPv4  00000000000540c0     UefiDevicePathLib:DevicePathToText.obj
 0005:000000c0       $unwind$DevPathToTextIPv6  00000000000540c0     UefiDevicePathLib:DevicePathToText.obj
 0005:000000c0       $unwind$DevPathToTextLogicalUnit 00000000000540c0     UefiDevicePathLib:DevicePathToText.obj
 0005:000000c0       $unwind$DevPathToTextMediaProtocol 00000000000540c0     UefiDevicePathLib:DevicePathToText.obj
 0005:000000c0       $unwind$DevPathToTextPccard 00000000000540c0     UefiDevicePathLib:DevicePathToText.obj
 0005:000000c0       $unwind$DevPathToTextPci   00000000000540c0     UefiDevicePathLib:DevicePathToText.obj
 0005:000000c0       $unwind$DevPathToTextScsi  00000000000540c0     UefiDevicePathLib:DevicePathToText.obj
 0005:000000c0       $unwind$DevPathToTextSd    00000000000540c0     UefiDevicePathLib:DevicePathToText.obj
 0005:000000c0       $unwind$DevPathToTextUfs   00000000000540c0     UefiDevicePathLib:DevicePathToText.obj
 0005:000000c0       $unwind$DevPathToTextUsb   00000000000540c0     UefiDevicePathLib:DevicePathToText.obj
 0005:000000c0       $unwind$DevPathToTextVlan  00000000000540c0     UefiDevicePathLib:DevicePathToText.obj
 0005:000000c0       $unwind$UefiDevicePathLibCatPrint 00000000000540c0     UefiDevicePathLib:DevicePathToText.obj
 0005:000000c0       $unwind$Print              00000000000540c0     UefiLib:UefiLibPrint.obj
 0005:000000c8       $unwind$BasePrintLibFillBuffer 00000000000540c8     BasePrintLib:PrintLibInternal.obj
 0005:000000d0       $unwind$EfiBootManagerFindLoadOption 00000000000540d0     UefiBootManagerLib:BmLoadOption.obj
 0005:000000d0       $unwind$HiiCreateRawOpCodes 00000000000540d0     UefiHiiLib:HiiLib.obj
 0005:000000d0       $unwind$HiiIsConfigHdrMatch 00000000000540d0     UefiHiiLib:HiiLib.obj
 0005:000000d0       $unwind$BasePrintLibValueToString 00000000000540d0     BasePrintLib:PrintLibInternal.obj
 0005:000000d8       $unwind$BasePrintLibConvertValueToStringS 00000000000540d8     BasePrintLib:PrintLibInternal.obj
 0005:000000e8       $unwind$BasePrintLibSPrintMarker 00000000000540e8     BasePrintLib:PrintLibInternal.obj
 0005:00000100       $unwind$InternalHiiCompareSubString 0000000000054100     UefiHiiLib:HiiLib.obj
 0005:00000100       $unwind$BasePrintLibSPrint 0000000000054100     BasePrintLib:PrintLibInternal.obj
 0005:00000100       $unwind$DevPathToTextAcpiAdr 0000000000054100     UefiDevicePathLib:DevicePathToText.obj
 0005:00000100       $unwind$DevPathToTextBBS   0000000000054100     UefiDevicePathLib:DevicePathToText.obj
 0005:00000100       $unwind$DevPathToTextCDROM 0000000000054100     UefiDevicePathLib:DevicePathToText.obj
 0005:00000100       $unwind$DevPathToTextHardDrive 0000000000054100     UefiDevicePathLib:DevicePathToText.obj
 0005:00000100       $unwind$DevPathToTextMacAddr 0000000000054100     UefiDevicePathLib:DevicePathToText.obj
 0005:00000100       $unwind$DevPathToTextMemMap 0000000000054100     UefiDevicePathLib:DevicePathToText.obj
 0005:00000100       $unwind$DevPathToTextNodeGeneric 0000000000054100     UefiDevicePathLib:DevicePathToText.obj
 0005:00000100       $unwind$DevPathToTextSata  0000000000054100     UefiDevicePathLib:DevicePathToText.obj
 0005:00000100       $unwind$DevPathToTextUart  0000000000054100     UefiDevicePathLib:DevicePathToText.obj
 0005:00000100       $unwind$DevPathToTextUri   0000000000054100     UefiDevicePathLib:DevicePathToText.obj
 0005:00000100       $unwind$GetVariable2       0000000000054100     UefiLib:UefiLib.obj
 0005:00000100       $unwind$EfiCreateEventLegacyBootEx 0000000000054100     UefiLib:UefiNotTiano.obj
 0005:00000100       $unwind$EfiCreateEventReadyToBootEx 0000000000054100     UefiLib:UefiNotTiano.obj
 0005:00000108       $unwind$DebugPrintMarker   0000000000054108     PeiDxeDebugLibReportStatusCode:DebugLib.obj
 0005:00000118       $unwind$DebugVPrint        0000000000054118     PeiDxeDebugLibReportStatusCode:DebugLib.obj
 0005:00000118       $unwind$HiiGetString       0000000000054118     UefiHiiLib:HiiString.obj
 0005:00000118       $unwind$AsciiStrnCmp       0000000000054118     BaseLib:String.obj
 0005:00000118       $unwind$StrnCmp            0000000000054118     BaseLib:String.obj
 0005:00000118       $unwind$CompareMem         0000000000054118     BaseMemoryLib:CompareMemWrapper.obj
 0005:00000118       $unwind$CopyMem            0000000000054118     BaseMemoryLib:CopyMemWrapper.obj
 0005:00000118       $unwind$SetMem             0000000000054118     BaseMemoryLib:SetMemWrapper.obj
 0005:00000118       $unwind$GetEfiGlobalVariable2 0000000000054118     UefiLib:UefiLib.obj
 0005:00000118       $unwind$ReallocatePool     0000000000054118     UefiMemoryAllocationLib:MemoryAllocationLib.obj
 0005:00000120       $unwind$DebugAssert        0000000000054120     PeiDxeDebugLibReportStatusCode:DebugLib.obj
 0005:00000130       $unwind$ReportDebugCodeEnabled 0000000000054130     DxeReportStatusCodeLib:ReportStatusCodeLib.obj
 0005:00000130       $unwind$ReportErrorCodeEnabled 0000000000054130     DxeReportStatusCodeLib:ReportStatusCodeLib.obj
 0005:00000130       $unwind$ReportProgressCodeEnabled 0000000000054130     DxeReportStatusCodeLib:ReportStatusCodeLib.obj
 0005:00000130       $unwind$DebugAssertEnabled 0000000000054130     PeiDxeDebugLibReportStatusCode:DebugLib.obj
 0005:00000130       $unwind$DebugCodeEnabled   0000000000054130     PeiDxeDebugLibReportStatusCode:DebugLib.obj
 0005:00000130       $unwind$DebugPrintEnabled  0000000000054130     PeiDxeDebugLibReportStatusCode:DebugLib.obj
 0005:00000130       $unwind$PerformanceMeasurementEnabled 0000000000054130     BasePerformanceLibNull:PerformanceLib.obj
 0005:00000138       $unwind$CleanUselessBeforeSubmit 0000000000054138     BootMaintenanceManagerUiLib:BootMaintenance.obj
 0005:00000138       $unwind$LibToLowerString   0000000000054138     FileExplorerLib:FileExplorer.obj
 0005:00000138       $unwind$DebugPrintLevelEnabled 0000000000054138     PeiDxeDebugLibReportStatusCode:DebugLib.obj
 0005:00000138       $unwind$BmEliminateExtraSpaces 0000000000054138     UefiBootManagerLib:BmBootDescription.obj
 0005:00000138       $unwind$BmGetEmmcTypeDescription 0000000000054138     UefiBootManagerLib:BmBootDescription.obj
 0005:00000140       $unwind$InitializeBmmConfig 0000000000054140     BootMaintenanceManagerUiLib:BootMaintenance.obj
 0005:00000140       $unwind$UiDevicePathToStr  0000000000054140     BootMaintenanceManagerUiLib:BootMaintenance.obj
 0005:00000140       $unwind$UpdateTerminalContent 0000000000054140     BootMaintenanceManagerUiLib:BootMaintenance.obj
 0005:00000140       $unwind$BOpt_CreateMenuEntry 0000000000054140     BootMaintenanceManagerUiLib:BootOption.obj
 0005:00000140       $unwind$BOpt_FreeMenu      0000000000054140     BootMaintenanceManagerUiLib:BootOption.obj
 0005:00000140       $unwind$GetTerminalAttribute 0000000000054140     BootMaintenanceManagerUiLib:ConsoleOption.obj
 0005:00000140       $unwind$UpdateConCOMPage   0000000000054140     BootMaintenanceManagerUiLib:UpdatePage.obj
 0005:00000140       $unwind$UpdateDrvAddHandlePage 0000000000054140     BootMaintenanceManagerUiLib:UpdatePage.obj
 0005:00000140       $unwind$BmDevicePathToStr  0000000000054140     BootManagerUiLib:BootManager.obj
 0005:00000140       $unwind$LibDevicePathToStr 0000000000054140     FileExplorerLib:FileExplorer.obj
 0005:00000140       $unwind$LibFreeMenu        0000000000054140     FileExplorerLib:FileExplorer.obj
 0005:00000140       $unwind$LibGetDevicePath   0000000000054140     FileExplorerLib:FileExplorer.obj
 0005:00000140       $unwind$LibIsSupportedFileType 0000000000054140     FileExplorerLib:FileExplorer.obj
 0005:00000140       $unwind$LibOpenRoot        0000000000054140     FileExplorerLib:FileExplorer.obj
 0005:00000140       $unwind$BmDestroyRamDisk   0000000000054140     UefiBootManagerLib:BmBoot.obj
 0005:00000140       $unwind$BmGetRamDiskDevicePath 0000000000054140     UefiBootManagerLib:BmBoot.obj
 0005:00000140       $unwind$BmIsBootManagerMenuFilePath 0000000000054140     UefiBootManagerLib:BmBoot.obj
 0005:00000140       $unwind$BmIsFvFilePath     0000000000054140     UefiBootManagerLib:BmBoot.obj
 0005:00000140       $unwind$BmDevicePathType   0000000000054140     UefiBootManagerLib:BmBootDescription.obj
 0005:00000140       $unwind$BmGetActiveConsoleIn 0000000000054140     UefiBootManagerLib:BmHotkey.obj
 0005:00000140       $unwind$HiiGetSupportedLanguages 0000000000054140     UefiHiiLib:HiiLanguage.obj
 0005:00000140       $unwind$InternalBaseLibIsListValid 0000000000054140     BaseLib:LinkedList.obj
 0005:00000140       $unwind$IsZeroGuid         0000000000054140     BaseMemoryLib:MemLibGuid.obj
 0005:00000148       $unwind$LibFindFiles       0000000000054148     FileExplorerLib:FileExplorer.obj
 0005:00000148       $unwind$BmFindUsbDevice    0000000000054148     UefiBootManagerLib:BmBoot.obj
 0005:00000148       $unwind$BmAddOptionNumberToOrderVariable 0000000000054148     UefiBootManagerLib:BmLoadOption.obj
 0005:00000148       $unwind$InternalMemCopyMem 0000000000054148     BaseMemoryLib:CopyMem.obj
 0005:00000150       $unwind$IsTerminalDevicePath 0000000000054150     BootMaintenanceManagerUiLib:ConsoleOption.obj
 0005:00000150       $unwind$EfiBootManagerIsValidLoadOptionVariableName 0000000000054150     UefiBootManagerLib:BmLoadOption.obj
 0005:00000150       $unwind$InternalHiiBlockToConfig 0000000000054150     UefiHiiLib:HiiLib.obj
 0005:00000150       $unwind$InternalHiiBrowserCallback 0000000000054150     UefiHiiLib:HiiLib.obj
 0005:00000150       $unwind$AsciiStrToUnicodeStrS 0000000000054150     BaseLib:SafeString.obj
 0005:00000150       $unwind$StrCpyS            0000000000054150     BaseLib:SafeString.obj
 0005:00000150       $unwind$InternalMemSetMem  0000000000054150     BaseMemoryLib:SetMem.obj
 0005:00000158       $unwind$UefiDevicePathLibConvertDevicePathToText 0000000000054158     UefiDevicePathLib:DevicePathToText.obj
 0005:00000158       $unwind$InternalAllocateAlignedPages 0000000000054158     UefiMemoryAllocationLib:MemoryAllocationLib.obj
 0005:00000160       $unwind$MultU64x32         0000000000054160     BaseLib:MultU64x32.obj
 0005:00000160       $unwind$InternalAllocatePool 0000000000054160     UefiMemoryAllocationLib:MemoryAllocationLib.obj
 0005:00000160       $unwind$InternalAllocateZeroPool 0000000000054160     UefiMemoryAllocationLib:MemoryAllocationLib.obj
 0005:00000168       $unwind$InternalReallocatePool 0000000000054168     UefiMemoryAllocationLib:MemoryAllocationLib.obj
 0005:00000170       $unwind$InternalReportStatusCode 0000000000054170     DxeReportStatusCodeLib:ReportStatusCodeLib.obj
 0005:00000178       $unwind$ReportStatusCode   0000000000054178     DxeReportStatusCodeLib:ReportStatusCodeLib.obj
 0005:00000178       $unwind$BmGetSdMmcManufacturerName 0000000000054178     UefiBootManagerLib:BmBootDescription.obj
 0005:00000180       $unwind$ReportStatusCodeEx 0000000000054180     DxeReportStatusCodeLib:ReportStatusCodeLib.obj
 0005:00000190       $unwind$RegisterBasicVariablePolicy 0000000000054190     VariablePolicyHelperLib:VariablePolicyHelperLib.obj
 0005:00000190       $unwind$AsciiStrnCpyS      0000000000054190     BaseLib:SafeString.obj
 0005:00000190       $unwind$StrnCpyS           0000000000054190     BaseLib:SafeString.obj
 0005:00000190       $unwind$DevPathToTextAtapi 0000000000054190     UefiDevicePathLib:DevicePathToText.obj
 0005:00000190       $unwind$DevPathToTextBluetooth 0000000000054190     UefiDevicePathLib:DevicePathToText.obj
 0005:00000190       $unwind$DevPathToTextInfiniBand 0000000000054190     UefiDevicePathLib:DevicePathToText.obj
 0005:00000190       $unwind$DevPathToTextUsbWWID 0000000000054190     UefiDevicePathLib:DevicePathToText.obj
 0005:00000190       $unwind$DevPathToTextiSCSI 0000000000054190     UefiDevicePathLib:DevicePathToText.obj
 0005:00000198       $unwind$AsciiStrnLenS      0000000000054198     BaseLib:SafeString.obj
 0005:00000198       $unwind$InternalMemIsZeroBuffer 0000000000054198     BaseMemoryLib:MemLibGeneric.obj
 0005:000001a0       $unwind$InternalMathDivRemU64x32 00000000000541a0     BaseLib:Math64.obj
 0005:000001a8       $unwind$BootMaintenanceManagerUiLibConstructor 00000000000541a8     BootMaintenanceManagerUiLib:BootMaintenance.obj
 0005:000001a8       $unwind$UpdateConsoleContent 00000000000541a8     BootMaintenanceManagerUiLib:BootMaintenance.obj
 0005:000001a8       $unwind$UpdateProgress     00000000000541a8     BootMaintenanceManagerUiLib:BootMaintenance.obj
 0005:000001a8       $unwind$ReSendForm         00000000000541a8     BootMaintenanceManagerUiLib:BootOption.obj
 0005:000001a8       $unwind$MatchDevicePaths   00000000000541a8     BootMaintenanceManagerUiLib:ConsoleOption.obj
 0005:000001a8       $unwind$RetrieveUartUid    00000000000541a8     BootMaintenanceManagerUiLib:ConsoleOption.obj
 0005:000001a8       $unwind$BootManagerUiLibConstructor 00000000000541a8     BootManagerUiLib:BootManager.obj
 0005:000001a8       $unwind$BootManagerUiLibDestructor 00000000000541a8     BootManagerUiLib:BootManager.obj
 0005:000001a8       $unwind$DeviceManagerUiLibConstructor 00000000000541a8     DeviceManagerUiLib:DeviceManager.obj
 0005:000001a8       $unwind$DeviceManagerUiLibDestructor 00000000000541a8     DeviceManagerUiLib:DeviceManager.obj
 0005:000001a8       $unwind$FileExplorerLibConstructor 00000000000541a8     FileExplorerLib:FileExplorer.obj
 0005:000001a8       $unwind$FileExplorerLibDestructor 00000000000541a8     FileExplorerLib:FileExplorer.obj
 0005:000001a8       $unwind$LibFileInfo        00000000000541a8     FileExplorerLib:FileExplorer.obj
 0005:000001a8       $unwind$BmGetNextLoadOptionDevicePath 00000000000541a8     UefiBootManagerLib:BmBoot.obj
 0005:000001a8       $unwind$BmStopHotkeyService 00000000000541a8     UefiBootManagerLib:BmHotkey.obj
 0005:000001a8       $unwind$BmValidateOption   00000000000541a8     UefiBootManagerLib:BmLoadOption.obj
 0005:000001a8       $unwind$BmMatchDevicePaths 00000000000541a8     UefiBootManagerLib:BmMisc.obj
 0005:000001a8       $unwind$InternalHiiExtractGuidFromHiiHandle 00000000000541a8     UefiHiiLib:HiiLib.obj
 0005:000001a8       $unwind$IsNodeInList       00000000000541a8     BaseLib:LinkedList.obj
 0005:000001a8       $unwind$FileDevicePath     00000000000541a8     UefiDevicePathLib:DevicePathUtilities.obj
 0005:000001a8       $unwind$IsDevicePathValid  00000000000541a8     UefiDevicePathLib:DevicePathUtilities.obj
 0005:000001a8       $unwind$UefiDevicePathLibAppendDevicePathInstance 00000000000541a8     UefiDevicePathLib:DevicePathUtilities.obj
 0005:000001a8       $unwind$UefiDevicePathLibGetNextDevicePathInstance 00000000000541a8     UefiDevicePathLib:DevicePathUtilities.obj
 0005:000001b0       $unwind$BootMaintExtractConfig 00000000000541b0     BootMaintenanceManagerUiLib:BootMaintenance.obj
 0005:000001b0       $unwind$LibGetFileHandleFromDevicePath 00000000000541b0     FileExplorerLib:FileExplorer.obj
 0005:000001b0       $unwind$BmGetSdMmcDescription 00000000000541b0     UefiBootManagerLib:BmBootDescription.obj
 0005:000001b0       $unwind$HiiGetStringEx     00000000000541b0     UefiHiiLib:HiiString.obj
 0005:000001b0       $unwind$DevPathToTextVendor 00000000000541b0     UefiDevicePathLib:DevicePathToText.obj
 0005:000001b8       $unwind$DevPathToTextAcpiEx 00000000000541b8     UefiDevicePathLib:DevicePathToText.obj
 0005:000001c8       $unwind$DevPathToTextNVMe  00000000000541c8     UefiDevicePathLib:DevicePathToText.obj
 0005:000001d4       $unwind$CatIPv6Address     00000000000541d4     UefiDevicePathLib:DevicePathToText.obj
 0005:000001ec       $unwind$HiiCreateGuidOpCode 00000000000541ec     UefiHiiLib:HiiLib.obj
 0005:000001ec       $unwind$DevPathToTextWiFi  00000000000541ec     UefiDevicePathLib:DevicePathToText.obj
 0005:000001fc       $unwind$DevPathToTextBluetoothLE 00000000000541fc     UefiDevicePathLib:DevicePathToText.obj
 0005:00000204       $unwind$DevPathToTextRamDisk 0000000000054204     UefiDevicePathLib:DevicePathToText.obj
 0005:0000020c       $unwind$EfiBootManagerInitializeLoadOption 000000000005420c     UefiBootManagerLib:BmLoadOption.obj
 0005:0000020c       $unwind$PopulateCommonData 000000000005420c     VariablePolicyHelperLib:VariablePolicyHelperLib.obj
 0005:0000020c       $unwind$DevPathToTextEndInstance 000000000005420c     UefiDevicePathLib:DevicePathToText.obj
 0005:00000214       $unwind$UefiLibGetStringWidth 0000000000054214     UefiLib:Console.obj
 0005:0000021c       $unwind$CreatePopUp        000000000005421c     UefiLib:Console.obj
 0005:0000022c       $unwind$HiiGetHiiHandles   000000000005422c     UefiHiiLib:HiiLib.obj
 0005:0000023c       $unwind$IsNeedAddNetworkMenu 000000000005423c     DeviceManagerUiLib:DeviceManager.obj
 0005:0000023c       $unwind$BmGetControllerName 000000000005423c     UefiBootManagerLib:BmDriverHealth.obj
 0005:0000023c       $unwind$HiiConstructConfigHdr 000000000005423c     UefiHiiLib:HiiLib.obj
 0005:0000023c       $unwind$HiiGetFormSetFromHiiHandle 000000000005423c     UefiHiiLib:HiiLib.obj
 0005:00000244       $unwind$HiiCreateOneOfOptionOpCode 0000000000054244     UefiHiiLib:HiiLib.obj
 0005:00000254       $unwind$HiiCreateActionOpCode 0000000000054254     UefiHiiLib:HiiLib.obj
 0005:00000254       $unwind$HiiCreateGotoOpCode 0000000000054254     UefiHiiLib:HiiLib.obj
 0005:00000264       $unwind$BootManagerCallback 0000000000054264     BootManagerUiLib:BootManager.obj
 0005:00000264       $unwind$LibCallback        0000000000054264     FileExplorerLib:FileExplorer.obj
 0005:00000264       $unwind$HiiCreateSubTitleOpCode 0000000000054264     UefiHiiLib:HiiLib.obj
 0005:0000026c       $unwind$HiiCreateGotoExOpCode 000000000005426c     UefiHiiLib:HiiLib.obj
 0005:0000027c       $unwind$HiiCreateCheckBoxOpCode 000000000005427c     UefiHiiLib:HiiLib.obj
 0005:0000027c       $unwind$HiiCreateOrderedListOpCode 000000000005427c     UefiHiiLib:HiiLib.obj
 0005:0000027c       $unwind$HiiCreateStringOpCode 000000000005427c     UefiHiiLib:HiiLib.obj
 0005:0000028c       $unwind$HiiCreateNumericOpCode 000000000005428c     UefiHiiLib:HiiLib.obj
 0005:0000028c       $unwind$HiiCreateOneOfOpCode 000000000005428c     UefiHiiLib:HiiLib.obj
 0005:0000029c       $unwind$HiiCreateTextOpCode 000000000005429c     UefiHiiLib:HiiLib.obj
 0005:000002a4       $unwind$BmUpdateSystemTableConsole 00000000000542a4     UefiBootManagerLib:BmConsole.obj
 0005:000002a4       $unwind$BmSetVariableAndReportStatusCodeOnError 00000000000542a4     UefiBootManagerLib:BmMisc.obj
 0005:000002a4       $unwind$InternalHiiUpdateFormPackageData 00000000000542a4     UefiHiiLib:HiiLib.obj
 0005:000002ac       $unwind$HiiUpdateForm      00000000000542ac     UefiHiiLib:HiiLib.obj
 0005:000002b4       $unwind$UpdateComAttributeFromVariable 00000000000542b4     BootMaintenanceManagerUiLib:ConsoleOption.obj
 0005:000002b4       $unwind$UpdateBootDelPage  00000000000542b4     BootMaintenanceManagerUiLib:UpdatePage.obj
 0005:000002b4       $unwind$UpdateDriverAddHandleDescPage 00000000000542b4     BootMaintenanceManagerUiLib:UpdatePage.obj
 0005:000002b4       $unwind$UpdateDrvDelPage   00000000000542b4     BootMaintenanceManagerUiLib:UpdatePage.obj
 0005:000002b4       $unwind$UpdateTerminalPage 00000000000542b4     BootMaintenanceManagerUiLib:UpdatePage.obj
 0005:000002b4       $unwind$Var_UpdateBootOrder 00000000000542b4     BootMaintenanceManagerUiLib:Variable.obj
 0005:000002b4       $unwind$BmConnectUsbShortFormDevicePath 00000000000542b4     UefiBootManagerLib:BmConnect.obj
 0005:000002b4       $unwind$BmUnregisterHotkeyNotify 00000000000542b4     UefiBootManagerLib:BmHotkey.obj
 0005:000002bc       $unwind$BmFindBootOptionInVariable 00000000000542bc     UefiBootManagerLib:BmBoot.obj
 0005:000002cc       $unwind$BmAdjustFvFilePath 00000000000542cc     UefiBootManagerLib:BmBoot.obj
 0005:000002cc       $unwind$BmExpandLoadFiles  00000000000542cc     UefiBootManagerLib:BmBoot.obj
 0005:000002cc       $unwind$BmGetDriverName    00000000000542cc     UefiBootManagerLib:BmDriverHealth.obj
 0005:000002cc       $unwind$EfiBootManagerGetDriverHealthInfo 00000000000542cc     UefiBootManagerLib:BmDriverHealth.obj
 0005:000002d4       $unwind$BmMatchUsbClass    00000000000542d4     UefiBootManagerLib:BmBoot.obj
 0005:000002e4       $unwind$BmMatchUsbWwid     00000000000542e4     UefiBootManagerLib:BmBoot.obj
 0005:000002f4       $unwind$BmmCreateBootNextMenu 00000000000542f4     BootMaintenanceManagerUiLib:BootMaintenanceManagerCustomizedUiSupport.obj
 0005:000002f4       $unwind$GetMacAddressString 00000000000542f4     DeviceManagerUiLib:DeviceManager.obj
 0005:000002f4       $unwind$BmExpandFileDevicePath 00000000000542f4     UefiBootManagerLib:BmBoot.obj
 0005:000002f4       $unwind$BmExpandUriDevicePath 00000000000542f4     UefiBootManagerLib:BmBoot.obj
 0005:000002f4       $unwind$BmMakeBootOptionDescriptionUnique 00000000000542f4     UefiBootManagerLib:BmBootDescription.obj
 0005:000002fc       $unwind$BmEnumerateBootOptions 00000000000542fc     UefiBootManagerLib:BmBoot.obj
 0005:000002fc       $unwind$BmExpandPartitionDevicePath 00000000000542fc     UefiBootManagerLib:BmBoot.obj
 0005:00000304       $unwind$BmExpandLoadFile   0000000000054304     UefiBootManagerLib:BmBoot.obj
 0005:00000304       $unwind$BmExpandMediaDevicePath 0000000000054304     UefiBootManagerLib:BmBoot.obj
 0005:0000030c       $unwind$BmmCreateTimeOutMenu 000000000005430c     BootMaintenanceManagerUiLib:BootMaintenanceManagerCustomizedUiSupport.obj
 0005:0000030c       $unwind$LibAppendFileName  000000000005430c     FileExplorerLib:FileExplorer.obj
 0005:0000030c       $unwind$BmExpandNetworkFileSystem 000000000005430c     UefiBootManagerLib:BmBoot.obj
 0005:00000314       $unwind$BmReportLoadFailure 0000000000054314     UefiBootManagerLib:BmBoot.obj
 0005:00000324       $unwind$EfiBootManagerBoot 0000000000054324     UefiBootManagerLib:BmBoot.obj
 0005:0000032c       $unwind$EfiBootManagerUpdateConsoleVariable 000000000005432c     UefiBootManagerLib:BmConsole.obj
 0005:00000334       $unwind$BmForEachVariable  0000000000054334     UefiBootManagerLib:BmLoadOption.obj
 0005:00000344       $unwind$BmGetFreeOptionNumber 0000000000054344     UefiBootManagerLib:BmLoadOption.obj
 0005:0000034c       $unwind$EfiBootManagerLoadOptionToVariable 000000000005434c     UefiBootManagerLib:BmLoadOption.obj
 0005:0000035c       $unwind$EfiBootManagerDeleteLoadOptionVariable 000000000005435c     UefiBootManagerLib:BmLoadOption.obj
 0005:0000036c       $unwind$UpdateConsolePage  000000000005436c     BootMaintenanceManagerUiLib:UpdatePage.obj
 0005:0000036c       $unwind$EfiBootManagerVariableToLoadOptionEx 000000000005436c     UefiBootManagerLib:BmLoadOption.obj
 0005:00000374       $unwind$BmCollectLoadOptions 0000000000054374     UefiBootManagerLib:BmLoadOption.obj
 0005:00000384       $unwind$EfiBootManagerGetLoadOptions 0000000000054384     UefiBootManagerLib:BmLoadOption.obj
 0005:00000394       $unwind$BmGetNextLoadOptionBuffer 0000000000054394     UefiBootManagerLib:BmLoadOption.obj
 0005:0000039c       $unwind$BmGetDescriptionFromDiskInfo 000000000005439c     UefiBootManagerLib:BmBootDescription.obj
 0005:000003ac       $unwind$BOpt_GetOptionNumber 00000000000543ac     BootMaintenanceManagerUiLib:BootOption.obj
 0005:000003ac       $unwind$BmGetUsbDescription 00000000000543ac     UefiBootManagerLib:BmBootDescription.obj
 0005:000003bc       $unwind$BmGetNetworkDescription 00000000000543bc     UefiBootManagerLib:BmBootDescription.obj
 0005:000003c4       $unwind$BmGetNvmeDescription 00000000000543c4     UefiBootManagerLib:BmBootDescription.obj
 0005:000003d4       $unwind$GetConsoleOutMode  00000000000543d4     BootMaintenanceManagerUiLib:ConsoleOption.obj
 0005:000003d4       $unwind$Var_UpdateBootNext 00000000000543d4     BootMaintenanceManagerUiLib:Variable.obj
 0005:000003d4       $unwind$Var_UpdateDriverOrder 00000000000543d4     BootMaintenanceManagerUiLib:Variable.obj
 0005:000003d4       $unwind$BmGetBootDescription 00000000000543d4     UefiBootManagerLib:BmBootDescription.obj
 0005:000003d4       $unwind$BmGetMiscDescription 00000000000543d4     UefiBootManagerLib:BmBootDescription.obj
 0005:000003dc       $unwind$BmHotkeyCallback   00000000000543dc     UefiBootManagerLib:BmHotkey.obj
 0005:000003ec       $unwind$BmSetMemoryTypeInformationVariable 00000000000543ec     UefiBootManagerLib:BmMisc.obj
 0005:000003f4       $unwind$BmRepairAllControllers 00000000000543f4     UefiBootManagerLib:BmDriverHealth.obj
 0005:00000404       $unwind$BOpt_FindDrivers   0000000000054404     BootMaintenanceManagerUiLib:BootOption.obj
 0005:00000404       $unwind$LibFindFileSystem  0000000000054404     FileExplorerLib:FileExplorer.obj
 0005:0000040c       $unwind$ChangeTerminalDevicePath 000000000005440c     BootMaintenanceManagerUiLib:ConsoleOption.obj
 0005:0000040c       $unwind$LibCreateNewFile   000000000005440c     FileExplorerLib:FileExplorer.obj
 0005:00000414       $unwind$BmmSetupResetReminder 0000000000054414     BootMaintenanceManagerUiLib:BootOption.obj
 0005:00000414       $unwind$BmSetupResetReminder 0000000000054414     BootManagerUiLib:BootManager.obj
 0005:00000414       $unwind$LibUpdateFileExplorePage 0000000000054414     FileExplorerLib:FileExplorer.obj
 0005:0000041c       $unwind$UpdateOptionPage   000000000005441c     BootMaintenanceManagerUiLib:UpdatePage.obj
 0005:0000041c       $unwind$IsMacAddressDevicePath 000000000005441c     DeviceManagerUiLib:DeviceManager.obj
 0005:0000041c       $unwind$InternalPrint      000000000005441c     UefiLib:UefiLibPrint.obj
 0005:00000424       $unwind$CreateDeviceManagerForm 0000000000054424     DeviceManagerUiLib:DeviceManager.obj
 0005:00000434       $unwind$GroupMultipleLegacyBootOption4SameType 0000000000054434     BootManagerUiLib:BootManager.obj
 0005:00000444       $unwind$UpdateBootManager  0000000000054444     BootManagerUiLib:BootManager.obj
 0005:0000044c       $unwind$BootMaintRouteConfig 000000000005444c     BootMaintenanceManagerUiLib:BootMaintenance.obj
 0005:0000044c       $unwind$UpdateOrderPage    000000000005444c     BootMaintenanceManagerUiLib:UpdatePage.obj
 0005:00000454       $unwind$BootMaintCallback  0000000000054454     BootMaintenanceManagerUiLib:BootMaintenance.obj
 0005:0000045c       $unwind$UpdateConModePage  000000000005445c     BootMaintenanceManagerUiLib:UpdatePage.obj
 0005:0000046c       $unwind$BOpt_GetBootOptions 000000000005446c     BootMaintenanceManagerUiLib:BootOption.obj
 0005:0000047c       $unwind$BOpt_GetDriverOptions 000000000005447c     BootMaintenanceManagerUiLib:BootOption.obj
 0005:0000048c       $unwind$BootFromFile       000000000005448c     BootMaintenanceManagerUiLib:BootOption.obj
 0005:0000049c       $unwind$Var_UpdateConsoleOption 000000000005449c     BootMaintenanceManagerUiLib:Variable.obj
 0005:000004ac       $unwind$Var_UpdateDriverOption 00000000000544ac     BootMaintenanceManagerUiLib:Variable.obj
 0005:000004bc       $unwind$Var_UpdateBootOption 00000000000544bc     BootMaintenanceManagerUiLib:Variable.obj
 0005:000004cc       $unwind$Var_UpdateConMode  00000000000544cc     BootMaintenanceManagerUiLib:Variable.obj
 0005:000004dc       $unwind$LocateSerialIo     00000000000544dc     BootMaintenanceManagerUiLib:ConsoleOption.obj
 0005:000004ec       $unwind$GetConsoleMenu     00000000000544ec     BootMaintenanceManagerUiLib:ConsoleOption.obj
 0005:000004f4       $unwind$BmmListThirdPartyDrivers 00000000000544f4     BootMaintenanceManagerUiLib:BootMaintenanceManagerCustomizedUiSupport.obj
 0005:000004fc       $unwind$SetMem16           00000000000544fc     BaseMemoryLib:SetMem16Wrapper.obj
 0005:00000504       $unwind$GetFileBufferByFilePath 0000000000054504     DxeServicesLib:DxeServicesLib.obj
