 Cpu

 Timestamp is 68f5fe9f (Mon Oct 20 17:19:27 2025)

 Preferred load address is 0000000000010000

 Start         Length     Name                   Class
 0001:00000000 00000014H .text                   CODE
 0001:00000014 00006027H .text$mn                CODE
 0002:00000000 00000ff4H .rdata                  DATA
 0002:00000ff4 00000018H .rdata$voltmd           DATA
 0002:0000100c 00000140H .rdata$zzzdbg           DATA
 0003:00000000 00000280H .data                   DATA
 0003:00000280 00000110H .bss                    DATA
 0004:00000000 00000408H .pdata                  DATA
 0005:00000000 00000118H .xdata                  DATA

  Address         Publics by Value              Rva+Base               Lib:Object

 0000:00000000       __guard_longjmp_table      0000000000000000     <absolute>
 0000:00000000       __x64_code_ranges_to_entry_points_count 0000000000000000     <absolute>
 0000:00000000       __guard_fids_count         0000000000000000     <absolute>
 0000:00000000       __arm64x_extra_rfe_table   0000000000000000     <absolute>
 0000:00000000       __arm64x_redirection_metadata 0000000000000000     <absolute>
 0000:00000000       __guard_iat_table          0000000000000000     <absolute>
 0000:00000000       __hybrid_code_map          0000000000000000     <absolute>
 0000:00000000       __arm64x_extra_rfe_table_size 0000000000000000     <absolute>
 0000:00000000       __guard_iat_count          0000000000000000     <absolute>
 0000:00000000       __guard_longjmp_count      0000000000000000     <absolute>
 0000:00000000       __x64_code_ranges_to_entry_points 0000000000000000     <absolute>
 0000:00000000       __dynamic_value_reloc_table 0000000000000000     <absolute>
 0000:00000000       __hybrid_auxiliary_iat     0000000000000000     <absolute>
 0000:00000000       __hybrid_auxiliary_iat_copy 0000000000000000     <absolute>
 0000:00000000       __guard_flags              0000000000000000     <absolute>
 0000:00000000       __guard_eh_cont_count      0000000000000000     <absolute>
 0000:00000000       __AbsoluteZero             0000000000000000     <absolute>
 0000:00000000       __guard_check_icall_a64n_fptr 0000000000000000     <absolute>
 0000:00000000       __guard_fids_table         0000000000000000     <absolute>
 0000:00000000       __hybrid_code_map_count    0000000000000000     <absolute>
 0000:00000000       __arm64x_redirection_metadata_count 0000000000000000     <absolute>
 0000:00000000       __enclave_config           0000000000000000     <absolute>
 0000:00000000       __guard_eh_cont_table      0000000000000000     <absolute>
 0000:00000000       __arm64x_native_entrypoint 0000000000000000     <absolute>
 0001:00000000       __report_rangecheckfailure 0000000000011000     StackCheckLibNull:StackCheckFunctionsMsvc.obj
 0001:00000001       __GSHandlerCheck           0000000000011001     StackCheckLibNull:StackCheckFunctionsMsvc.obj
 0001:00000002       __security_check_cookie    0000000000011002     StackCheckLibNull:StackCheckFunctionsMsvc.obj
 0001:00000010       CpuPause                   0000000000011010     BaseLib:CpuPause.obj
 0001:00000014       _DriverUnloadHandler       0000000000011014 f   UefiDriverEntryPoint:DriverEntryPoint.obj
 0001:00000058       _ModuleEntryPoint          0000000000011058 f   UefiDriverEntryPoint:DriverEntryPoint.obj
 0001:00000198       ProcessLibraryConstructorList 0000000000011198 f   Cpu:AutoGen.obj
 0001:00000500       ProcessLibraryDestructorList 0000000000011500 f   Cpu:AutoGen.obj
 0001:00000500       EfiEventEmptyFunction      0000000000011500 f   UefiLib:UefiLib.obj
 0001:0000050c       ProcessModuleEntryPointList 000000000001150c f   Cpu:AutoGen.obj
 0001:00000530       ProcessModuleUnloadList    0000000000011530 f   Cpu:AutoGen.obj
 0001:00000538       LogSmbiosData              0000000000011538 f   Cpu:Cpu.obj
 0001:000007c4       CpuUpdateSmbios            00000000000117c4 f   Cpu:Cpu.obj
 0001:00000810       EmuFlushCpuDataCache       0000000000011810 f   Cpu:Cpu.obj
 0001:0000083c       EmuEnableInterrupt         000000000001183c f   Cpu:Cpu.obj
 0001:000008dc       EmuDisableInterrupt        00000000000118dc f   Cpu:Cpu.obj
 0001:0000097c       EmuGetInterruptState       000000000001197c f   Cpu:Cpu.obj
 0001:00000a34       EmuInit                    0000000000011a34 f   Cpu:Cpu.obj
 0001:00000a48       EmuRegisterInterruptHandler 0000000000011a48 f   Cpu:Cpu.obj
 0001:00000a84       EmuGetTimerValue           0000000000011a84 f   Cpu:Cpu.obj
 0001:00000af4       EmuSetMemoryAttributes     0000000000011af4 f   Cpu:Cpu.obj
 0001:00000b28       IdleLoopEventCallback      0000000000011b28 f   Cpu:Cpu.obj
 0001:00000b48       InitializeCpu              0000000000011b48 f   Cpu:Cpu.obj
 0001:00000d14       IsBSP                      0000000000011d14 f   Cpu:MpService.obj
 0001:00000d78       SetApProcedure             0000000000011d78 f   Cpu:MpService.obj
 0001:00000dd4       GetNextBlockedNumber       0000000000011dd4 f   Cpu:MpService.obj
 0001:00000e8c       CalculateAndStallInterval  0000000000011e8c f   Cpu:MpService.obj
 0001:00000ee0       CpuMpServicesGetNumberOfProcessors 0000000000011ee0 f   Cpu:MpService.obj
 0001:00000f4c       CpuMpServicesGetProcessorInfo 0000000000011f4c f   Cpu:MpService.obj
 0001:00000fd4       CpuMpServicesStartupAllAps 0000000000011fd4 f   Cpu:MpService.obj
 0001:0000167c       CpuMpServicesStartupThisAP 000000000001267c f   Cpu:MpService.obj
 0001:0000191c       CpuMpServicesSwitchBSP     000000000001291c f   Cpu:MpService.obj
 0001:00001ab4       CpuMpServicesEnableDisableAP 0000000000012ab4 f   Cpu:MpService.obj
 0001:00001cac       CpuMpServicesWhoAmI        0000000000012cac f   Cpu:MpService.obj
 0001:00001d34       CpuCheckAllAPsStatus       0000000000012d34 f   Cpu:MpService.obj
 0001:00002108       CpuCheckThisAPStatus       0000000000013108 f   Cpu:MpService.obj
 0001:000022d8       FillInProcessorInformation 00000000000132d8 f   Cpu:MpService.obj
 0001:00002420       CpuDriverApIdolLoop        0000000000013420 f   Cpu:MpService.obj
 0001:00002570       InitializeMpSystemData     0000000000013570 f   Cpu:MpService.obj
 0001:0000277c       CpuReadToBootFunction      000000000001377c f   Cpu:MpService.obj
 0001:00002790       CpuMpServicesInit          0000000000013790 f   Cpu:MpService.obj
 0001:00002940       CpuMemoryServiceRead       0000000000013940 f   Cpu:CpuIo.obj
 0001:00002940       CpuMemoryServiceWrite      0000000000013940 f   Cpu:CpuIo.obj
 0001:000029b4       CpuIoServiceWrite          00000000000139b4 f   Cpu:CpuIo.obj
 0001:000029b4       CpuIoServiceRead           00000000000139b4 f   Cpu:CpuIo.obj
 0001:00002a44       CpuIoCheckAddressRange     0000000000013a44 f   Cpu:CpuIo.obj
 0001:00002b10       InternalIsDecimalDigitCharacter 0000000000013b10 f   BaseLib:String.obj
 0001:00002b40       StrDecimalToUintn          0000000000013b40 f   BaseLib:String.obj
 0001:00002b84       AsciiStrLen                0000000000013b84 f   BaseLib:String.obj
 0001:00002c3c       AsciiStrSize               0000000000013c3c f   BaseLib:String.obj
 0001:00002c58       DivU64x64Remainder         0000000000013c58 f   BaseLib:DivU64x64Remainder.obj
 0001:00002cb8       LShiftU64                  0000000000013cb8 f   BaseLib:LShiftU64.obj
 0001:00002d0c       InternalSafeStringIsOverlap 0000000000013d0c f   BaseLib:SafeString.obj
 0001:00002d70       InternalSafeStringNoAsciiStrOverlap 0000000000013d70 f   BaseLib:SafeString.obj
 0001:00002dc4       StrnLenS                   0000000000013dc4 f   BaseLib:SafeString.obj
 0001:00002e68       StrDecimalToUintnS         0000000000013e68 f   BaseLib:SafeString.obj
 0001:000031b4       AsciiStrnLenS              00000000000141b4 f   BaseLib:SafeString.obj
 0001:00003220       AsciiStrnCpyS              0000000000014220 f   BaseLib:SafeString.obj
 0001:00003710       InternalMathLShiftU64      0000000000014710 f   BaseLib:Math64.obj
 0001:0000372c       InternalMathDivRemU64x64   000000000001472c f   BaseLib:Math64.obj
 0001:00003768       DebugPrint                 0000000000014768 f   PeiDxeDebugLibReportStatusCode:DebugLib.obj
 0001:000037ac       DebugPrintMarker           00000000000147ac f   PeiDxeDebugLibReportStatusCode:DebugLib.obj
 0001:00003f54       DebugVPrint                0000000000014f54 f   PeiDxeDebugLibReportStatusCode:DebugLib.obj
 0001:00003f84       DebugAssert                0000000000014f84 f   PeiDxeDebugLibReportStatusCode:DebugLib.obj
 0001:00004320       DebugAssertEnabled         0000000000015320 f   PeiDxeDebugLibReportStatusCode:DebugLib.obj
 0001:00004344       DebugPrintEnabled          0000000000015344 f   PeiDxeDebugLibReportStatusCode:DebugLib.obj
 0001:00004368       DebugPrintLevelEnabled     0000000000015368 f   PeiDxeDebugLibReportStatusCode:DebugLib.obj
 0001:0000439c       CopyMem                    000000000001539c f   BaseMemoryLib:CopyMemWrapper.obj
 0001:00004474       ZeroMem                    0000000000015474 f   BaseMemoryLib:ZeroMemWrapper.obj
 0001:0000451c       SetMemN                    000000000001551c f   BaseMemoryLib:SetMemNWrapper.obj
 0001:00004568       CopyGuid                   0000000000015568 f   BaseMemoryLib:MemLibGuid.obj
 0001:000045bc       CompareGuid                00000000000155bc f   BaseMemoryLib:MemLibGuid.obj
 0001:00004644       InternalMemCopyMem         0000000000015644 f   BaseMemoryLib:CopyMem.obj
 0001:00004c20       InternalMemSetMem32        0000000000015c20 f   BaseMemoryLib:MemLibGeneric.obj
 0001:00004c60       InternalMemSetMem64        0000000000015c60 f   BaseMemoryLib:MemLibGeneric.obj
 0001:00004ca4       InternalMemZeroMem         0000000000015ca4 f   BaseMemoryLib:MemLibGeneric.obj
 0001:00004ccc       SetMem64                   0000000000015ccc f   BaseMemoryLib:SetMem64Wrapper.obj
 0001:00004dfc       SetMem32                   0000000000015dfc f   BaseMemoryLib:SetMem32Wrapper.obj
 0001:00004f2c       InternalMemSetMem          0000000000015f2c f   BaseMemoryLib:SetMem.obj
 0001:000050c0       InternalAllocatePool       00000000000160c0 f   UefiMemoryAllocationLib:MemoryAllocationLib.obj
 0001:00005110       AllocatePool               0000000000016110 f   UefiMemoryAllocationLib:MemoryAllocationLib.obj
 0001:00005130       InternalAllocateZeroPool   0000000000016130 f   UefiMemoryAllocationLib:MemoryAllocationLib.obj
 0001:00005178       AllocateZeroPool           0000000000016178 f   UefiMemoryAllocationLib:MemoryAllocationLib.obj
 0001:00005198       FreePool                   0000000000016198 f   UefiMemoryAllocationLib:MemoryAllocationLib.obj
 0001:00005234       UefiBootServicesTableLibConstructor 0000000000016234 f   UefiBootServicesTableLib:UefiBootServicesTableLib.obj
 0001:00005310       UefiRuntimeServicesTableLibConstructor 0000000000016310 f   UefiRuntimeServicesTableLib:UefiRuntimeServicesTableLib.obj
 0001:0000536c       UefiLibConstructor         000000000001636c f   UefiLib:UefiLib.obj
 0001:0000537c       EfiGetSystemConfigurationTable 000000000001637c f   UefiLib:UefiLib.obj
 0001:00005488       EfiCreateEventReadyToBootEx 0000000000016488 f   UefiLib:UefiNotTiano.obj
 0001:000055c4       UefiHiiServicesLibConstructor 00000000000165c4 f   UefiHiiServicesLib:UefiHiiServicesLib.obj
 0001:000057e8       GetHobList                 00000000000167e8 f   DxeHobLib:HobLib.obj
 0001:000058cc       HobLibConstructor          00000000000168cc f   DxeHobLib:HobLib.obj
 0001:000058e8       GetNextHob                 00000000000168e8 f   DxeHobLib:HobLib.obj
 0001:0000597c       GetNextGuidHob             000000000001697c f   DxeHobLib:HobLib.obj
 0001:000059f4       GetFirstGuidHob            00000000000169f4 f   DxeHobLib:HobLib.obj
 0001:00005a1c       DxeEmuLibConstructor       0000000000016a1c f   DxeEmuLib:DxeEmuLib.obj
 0001:00005ab8       GetIoThunkInstance         0000000000016ab8 f   DxeEmuLib:DxeEmuLib.obj
 0001:00005b50       GetDebugPrintErrorLevel    0000000000016b50 f   BaseDebugPrintErrorLevelLib:BaseDebugPrintErrorLevelLib.obj
 0001:00005b58       InternalGetReportStatusCode 0000000000016b58 f   DxeReportStatusCodeLib:ReportStatusCodeLib.obj
 0001:00005bc8       InternalReportStatusCode   0000000000016bc8 f   DxeReportStatusCodeLib:ReportStatusCodeLib.obj
 0001:00005c80       ReportStatusCodeEx         0000000000016c80 f   DxeReportStatusCodeLib:ReportStatusCodeLib.obj
 0001:00005efc       ReportProgressCodeEnabled  0000000000016efc f   DxeReportStatusCodeLib:ReportStatusCodeLib.obj
 0001:00005f20       ReportErrorCodeEnabled     0000000000016f20 f   DxeReportStatusCodeLib:ReportStatusCodeLib.obj
 0001:00005f44       ReportDebugCodeEnabled     0000000000016f44 f   DxeReportStatusCodeLib:ReportStatusCodeLib.obj
 0001:00005f68       CpuBreakpoint              0000000000016f68 f   BaseLib:CpuBreakpoint.obj
 0001:00005f6c       CpuDeadLoop                0000000000016f6c f   BaseLib:CpuDeadLoop.obj
 0001:00005f9c       ReadUnaligned64            0000000000016f9c f   BaseLib:Unaligned.obj
 0001:00005fe4       WriteUnaligned64           0000000000016fe4 f   BaseLib:Unaligned.obj
 0002:00000000       ??_C@_0CB@DMEJJJHA@?6ASSERT_EFI_ERROR?5?$CIStatus?5?$DN?5?$CFr?$CJ@ 0000000000018000     UefiDriverEntryPoint:DriverEntryPoint.obj
 0002:00000028       ??_C@_0DG@FLPEIDFK@?$CB?$CI?$CI?$CIRETURN_STATUS?$CJ?$CIStatus?$CJ?$CJ?5?$DO?$DN?5@ 0000000000018028     UefiDriverEntryPoint:DriverEntryPoint.obj
 0002:00000060       ??_C@_0FE@KBEJNINE@D?3?2develop?2Self_develop?2edk2?2Md@ 0000000000018060     UefiDriverEntryPoint:DriverEntryPoint.obj
 0002:000000b4       _gDriverUnloadImageCount   00000000000180b4     Cpu:AutoGen.obj
 0002:000000b8       _gUefiDriverRevision       00000000000180b8     Cpu:AutoGen.obj
 0002:000000bc       ??_C@_03FBKDDCND@Cpu@      00000000000180bc     Cpu:AutoGen.obj
 0002:000000c0       ??_C@_0GO@MHLGCOEI@D?3?2develop?2Self_develop?2edk2?2Bu@ 00000000000180c0     Cpu:AutoGen.obj
 0002:00000130       _gPcd_FixedAtBuild_PcdMaximumAsciiStringLength 0000000000018130     Cpu:AutoGen.obj
 0002:00000130       _gPcd_FixedAtBuild_PcdMaximumUnicodeStringLength 0000000000018130     Cpu:AutoGen.obj
 0002:00000134       _gPcd_FixedAtBuild_PcdReportStatusCodePropertyMask 0000000000018134     Cpu:AutoGen.obj
 0002:00000138       _gPcd_FixedAtBuild_PcdDebugPrintErrorLevel 0000000000018138     Cpu:AutoGen.obj
 0002:0000013c       _gPcd_FixedAtBuild_PcdFixedDebugPrintErrorLevel 000000000001813c     Cpu:AutoGen.obj
 0002:00000140       _gPcd_FixedAtBuild_PcdEmuMpServicesPollingInterval 0000000000018140     Cpu:AutoGen.obj
 0002:00000148       _gPcd_FixedAtBuild_PcdDebugPropertyMask 0000000000018148     Cpu:AutoGen.obj
 0002:0000014c       ??_C@_06LOPGKGIC@Socket@   000000000001814c     Cpu:Cpu.obj
 0002:00000158       ??_C@_0BP@FPPMAKBF@http?3?1?1www?4tianocore?4org?1edk2?1@ 0000000000018158     Cpu:Cpu.obj
 0002:00000178       ??_C@_0BD@OPOJCKCI@Emulated?5Processor@ 0000000000018178     Cpu:Cpu.obj
 0002:0000018c       ??_C@_03HLLJOCDO@1?40@     000000000001818c     Cpu:Cpu.obj
 0002:00000190       ??_C@_0DN@GHPCFBNP@D?3?2develop?2Self_develop?2edk2?2Em@ 0000000000018190     Cpu:Cpu.obj
 0002:000001d0       ??_C@_0BF@NDBIKIKC@CR?5has?5Bad?5Signature@ 00000000000181d0     Cpu:Cpu.obj
 0002:000001e8       ??_C@_0CH@FDEIPJLN@ProcessorData?9?$DOState?5?$DN?$DN?5CPU_STA@ 00000000000181e8     Cpu:MpService.obj
 0002:00000210       ??_C@_0ED@MOGCKFEP@D?3?2develop?2Self_develop?2edk2?2Em@ 0000000000018210     Cpu:MpService.obj
 0002:00000258       ??_C@_0CG@OPOELCMP@Index?5?$CB?$DN?5gMPSystem?4NumberOfProc@ 0000000000018258     Cpu:MpService.obj
 0002:00000280       ??_C@_0CI@PAJGHKIN@gMPSystem?4ProcessorData?5?$CB?$DN?5?$CI?$CIvo@ 0000000000018280     Cpu:MpService.obj
 0002:000002a8       ??_C@_0BH@MAAHKCPC@String?5?$CB?$DN?5?$CI?$CIvoid?5?$CK?$CJ?50?$CJ@ 00000000000182a8     BaseLib:String.obj
 0002:000002c0       ??_C@_0DN@POJBHOAP@D?3?2develop?2Self_develop?2edk2?2Md@ 00000000000182c0     BaseLib:String.obj
 0002:00000300       ??_C@_0CC@GFNLNIOC@?$CI?$CIUINTN?$CJString?5?$CG?50x00000001?$CJ?5?$DN?$DN@ 0000000000018300     BaseLib:String.obj
 0002:00000328       ??_C@_0DI@MDIKFADO@Length?5?$DM?5_gPcd_FixedAtBuild_Pcd@ 0000000000018328     BaseLib:String.obj
 0002:00000360       ??_C@_0N@KGHEHMDL@Divisor?5?$CB?$DN?50@ 0000000000018360     BaseLib:DivU64x64Remainder.obj
 0002:00000370       ??_C@_0EJ@CMINIPKB@D?3?2develop?2Self_develop?2edk2?2Md@ 0000000000018370     BaseLib:DivU64x64Remainder.obj
 0002:000003c0       ??_C@_0L@MEMPDLHB@Count?5?$DM?564@ 00000000000183c0     BaseLib:LShiftU64.obj
 0002:000003d0       ??_C@_0EA@MLMAFFLG@D?3?2develop?2Self_develop?2edk2?2Md@ 00000000000183d0     BaseLib:LShiftU64.obj
 0002:00000410       ??_C@_0EB@DAKPBIJH@D?3?2develop?2Self_develop?2edk2?2Md@ 0000000000018410     BaseLib:SafeString.obj
 0002:00000458       ??_C@_0BO@ECNIOIHG@?$CIDestination?5?$CB?$DN?5?$CI?$CIvoid?5?$CK?$CJ?50?$CJ?$CJ@ 0000000000018458     BaseLib:SafeString.obj
 0002:00000480       ??_C@_0EA@PDPDJJNN@?$CFa?$CI?$CFd?$CJ?5?$CFa?3?5SAFE_STRING_CONSTRAI@ 0000000000018480     BaseLib:SafeString.obj
 0002:000004c0       ??_C@_0BJ@EAEEJIP@?$CISource?5?$CB?$DN?5?$CI?$CIvoid?5?$CK?$CJ?50?$CJ?$CJ@ 00000000000184c0     BaseLib:SafeString.obj
 0002:000004e0       ??_C@_0P@PMIMLIHM@?$CIDestMax?5?$CB?$DN?50?$CJ@ 00000000000184e0     BaseLib:SafeString.obj
 0002:000004f0       ??_C@_0BG@EEGIIOKH@?$CIDestMax?5?$DO?5SourceLen?$CJ@ 00000000000184f0     BaseLib:SafeString.obj
 0002:00000508       ??_C@_0BJ@MBBOBCLN@?$CIString?5?$CB?$DN?5?$CI?$CIvoid?5?$CK?$CJ?50?$CJ?$CJ@ 0000000000018508     BaseLib:SafeString.obj
 0002:00000528       ??_C@_0BD@NNBAKNOF@StrDecimalToUintnS@ 0000000000018528     BaseLib:SafeString.obj
 0002:00000540       ??_C@_0BH@JPMEDPAI@?$CIData?5?$CB?$DN?5?$CI?$CIvoid?5?$CK?$CJ?50?$CJ?$CJ@ 0000000000018540     BaseLib:SafeString.obj
 0002:00000560       ??_C@_0IC@CFBPEAPC@?$CIStrnLenS?5?$CIString?0?5?$CI_gPcd_Fixed@ 0000000000018560     BaseLib:SafeString.obj
 0002:000005e8       ??_C@_0DO@LJFOOPII@?$CIDestMax?5?$DM?$DN?5?$CI_gPcd_FixedAtBuild@ 00000000000185e8     BaseLib:SafeString.obj
 0002:00000630       ??_C@_0FL@CDANCHFO@InternalSafeStringNoAsciiStrOve@ 0000000000018630     BaseLib:SafeString.obj
 0002:00000690       ??_C@_0O@DIHNCLLG@AsciiStrnCpyS@ 0000000000018690     BaseLib:SafeString.obj
 0002:000006a0       ??_C@_0DN@DLAADCJE@?$CILength?5?$DM?$DN?5?$CI_gPcd_FixedAtBuild_@ 00000000000186a0     BaseLib:SafeString.obj
 0002:000006e0       ??_C@_0BH@LKMBFCBF@Format?5?$CB?$DN?5?$CI?$CIvoid?5?$CK?$CJ?50?$CJ@ 00000000000186e0     PeiDxeDebugLibReportStatusCode:DebugLib.obj
 0002:00000700       ??_C@_0FM@HDIIFGPN@D?3?2develop?2Self_develop?2edk2?2Md@ 0000000000018700     PeiDxeDebugLibReportStatusCode:DebugLib.obj
 0002:00000760       ??_C@_0CP@EFCGCEBK@?$CICHAR8?5?$CK?$CJBaseListMarkerPointer?5@ 0000000000018760     PeiDxeDebugLibReportStatusCode:DebugLib.obj
 0002:00000790       ??_C@_01OHGJGJJP@?$FL@     0000000000018790     PeiDxeDebugLibReportStatusCode:DebugLib.obj
 0002:00000794       ??_C@_02PBFOLPKM@?$FN?5@   0000000000018794     PeiDxeDebugLibReportStatusCode:DebugLib.obj
 0002:00000798       ??_C@_0BH@IACGKAP@Buffer?5?$CB?$DN?5?$CI?$CIvoid?5?$CK?$CJ?50?$CJ@ 0000000000018798     PeiDxeDebugLibReportStatusCode:DebugLib.obj
 0002:000007b0       ??_C@_0ED@MKGCMJG@?$CILength?5?9?51?$CJ?5?$DM?$DN?5?$CI0xFFFFFFFFFFFF@ 00000000000187b0     BaseMemoryLib:CopyMemWrapper.obj
 0002:00000800       ??_C@_0EL@NNLJGCCH@D?3?2develop?2Self_develop?2edk2?2Md@ 0000000000018800     BaseMemoryLib:CopyMemWrapper.obj
 0002:00000850       ??_C@_0DO@MAOBOFEG@?$CILength?5?9?51?$CJ?5?$DM?$DN?5?$CI0xFFFFFFFFFFFF@ 0000000000018850     BaseMemoryLib:CopyMemWrapper.obj
 0002:00000890       ??_C@_0EL@GJBLADOA@D?3?2develop?2Self_develop?2edk2?2Md@ 0000000000018890     BaseMemoryLib:ZeroMemWrapper.obj
 0002:000008e0       ??_C@_0DG@EEENIGGL@Length?5?$DM?$DN?5?$CI0xFFFFFFFFFFFFFFFFUL@ 00000000000188e0     BaseMemoryLib:ZeroMemWrapper.obj
 0002:00000918       ??_C@_0DI@DAGDPLPG@?$CILength?5?9?51?$CJ?5?$DM?$DN?5?$CI0xFFFFFFFFFFFF@ 0000000000018918     BaseMemoryLib:SetMemWrapper.obj
 0002:00000950       ??_C@_0EM@LBOJHFAH@D?3?2develop?2Self_develop?2edk2?2Md@ 0000000000018950     BaseMemoryLib:SetMem64Wrapper.obj
 0002:000009a0       ??_C@_0CO@LECKNDNC@?$CI?$CI?$CIUINTN?$CJBuffer?$CJ?5?$CG?5?$CIsizeof?5?$CIVal@ 00000000000189a0     BaseMemoryLib:SetMem64Wrapper.obj
 0002:000009d0       ??_C@_0CF@LEICOABD@?$CILength?5?$CG?5?$CIsizeof?5?$CIValue?$CJ?5?9?51?$CJ?$CJ@ 00000000000189d0     BaseMemoryLib:SetMem64Wrapper.obj
 0002:00000a00       ??_C@_0EM@MBPPMIFE@D?3?2develop?2Self_develop?2edk2?2Md@ 0000000000018a00     BaseMemoryLib:SetMem32Wrapper.obj
 0002:00000a50       ??_C@_0FK@KCDEFJBC@D?3?2develop?2Self_develop?2edk2?2Md@ 0000000000018a50     UefiMemoryAllocationLib:MemoryAllocationLib.obj
 0002:00000ab0       ??_C@_0BN@COECPDCC@gImageHandle?5?$CB?$DN?5?$CI?$CIvoid?5?$CK?$CJ?50?$CJ@ 0000000000018ab0     UefiBootServicesTableLib:UefiBootServicesTableLib.obj
 0002:00000ad0       ??_C@_0GA@INMEIGJE@D?3?2develop?2Self_develop?2edk2?2Md@ 0000000000018ad0     UefiBootServicesTableLib:UefiBootServicesTableLib.obj
 0002:00000b30       ??_C@_0BE@DGNHAHIL@gST?5?$CB?$DN?5?$CI?$CIvoid?5?$CK?$CJ?50?$CJ@ 0000000000018b30     UefiBootServicesTableLib:UefiBootServicesTableLib.obj
 0002:00000b48       ??_C@_0BE@BDFJLGLN@gBS?5?$CB?$DN?5?$CI?$CIvoid?5?$CK?$CJ?50?$CJ@ 0000000000018b48     UefiBootServicesTableLib:UefiBootServicesTableLib.obj
 0002:00000b60       ??_C@_0BE@OBDFIHND@gRT?5?$CB?$DN?5?$CI?$CIvoid?5?$CK?$CJ?50?$CJ@ 0000000000018b60     UefiRuntimeServicesTableLib:UefiRuntimeServicesTableLib.obj
 0002:00000b80       ??_C@_0GG@OBDIBKMM@D?3?2develop?2Self_develop?2edk2?2Md@ 0000000000018b80     UefiRuntimeServicesTableLib:UefiRuntimeServicesTableLib.obj
 0002:00000be8       ??_C@_0BK@PPOBBAMB@TableGuid?5?$CB?$DN?5?$CI?$CIvoid?5?$CK?$CJ?50?$CJ@ 0000000000018be8     UefiLib:UefiLib.obj
 0002:00000c08       ??_C@_0DO@KJBPHFLK@D?3?2develop?2Self_develop?2edk2?2Md@ 0000000000018c08     UefiLib:UefiLib.obj
 0002:00000c48       ??_C@_0BG@JDKEGFNB@Table?5?$CB?$DN?5?$CI?$CIvoid?5?$CK?$CJ?50?$CJ@ 0000000000018c48     UefiLib:UefiLib.obj
 0002:00000c60       ??_C@_0ED@IHINCCJF@D?3?2develop?2Self_develop?2edk2?2Md@ 0000000000018c60     UefiLib:UefiNotTiano.obj
 0002:00000ca8       ??_C@_0BC@FEDIJHFF@?$CI?$CIBOOLEAN?$CJ?$CI0?$DN?$DN1?$CJ?$CJ@ 0000000000018ca8     UefiLib:UefiNotTiano.obj
 0002:00000cc0       ??_C@_0CB@LNNMJOKK@ReadyToBootEvent?5?$CB?$DN?5?$CI?$CIvoid?5?$CK?$CJ?50@ 0000000000018cc0     UefiLib:UefiNotTiano.obj
 0002:00000ce8       ??_C@_0CH@LOBIJKLE@EFI1?41?5can?8t?5support?5ReadyToBoo@ 0000000000018ce8     UefiLib:UefiNotTiano.obj
 0002:00000d10       ??_C@_0FK@MLELAAND@D?3?2develop?2Self_develop?2edk2?2Md@ 0000000000018d10     UefiHiiServicesLib:UefiHiiServicesLib.obj
 0002:00000d70       ??_C@_0DP@IKGCDEIJ@D?3?2develop?2Self_develop?2edk2?2Md@ 0000000000018d70     DxeHobLib:HobLib.obj
 0002:00000db0       ??_C@_0BJ@OBFMLLDO@mHobList?5?$CB?$DN?5?$CI?$CIvoid?5?$CK?$CJ?50?$CJ@ 0000000000018db0     DxeHobLib:HobLib.obj
 0002:00000dd0       ??_C@_0BJ@NOLLDKJB@HobStart?5?$CB?$DN?5?$CI?$CIvoid?5?$CK?$CJ?50?$CJ@ 0000000000018dd0     DxeHobLib:HobLib.obj
 0002:00000df0       ??_C@_0BI@EDOKPJOP@GuidHob?5?$CB?$DN?5?$CI?$CIvoid?5?$CK?$CJ?50?$CJ@ 0000000000018df0     DxeEmuLib:DxeEmuLib.obj
 0002:00000e10       ??_C@_0EH@KBCCEBL@D?3?2develop?2Self_develop?2edk2?2Em@ 0000000000018e10     DxeEmuLib:DxeEmuLib.obj
 0002:00000e58       ??_C@_0BK@ELNDAPDH@gEmuThunk?5?$CB?$DN?5?$CI?$CIvoid?5?$CK?$CJ?50?$CJ@ 0000000000018e58     DxeEmuLib:DxeEmuLib.obj
 0002:00000e80       ??_C@_0FP@CCJIJCDG@D?3?2develop?2Self_develop?2edk2?2Md@ 0000000000018e80     DxeReportStatusCodeLib:ReportStatusCodeLib.obj
 0002:00000ee0       ??_C@_0DN@HHIHPHHB@?$CB?$CI?$CIExtendedData?5?$DN?$DN?5?$CI?$CIvoid?5?$CK?$CJ?50?$CJ@ 0000000000018ee0     DxeReportStatusCodeLib:ReportStatusCodeLib.obj
 0002:00000f20       ??_C@_0DN@BBBIFINB@?$CB?$CI?$CIExtendedData?5?$CB?$DN?5?$CI?$CIvoid?5?$CK?$CJ?50?$CJ@ 0000000000018f20     DxeReportStatusCodeLib:ReportStatusCodeLib.obj
 0002:00000f60       ??_C@_0EA@FKBIDDGN@D?3?2develop?2Self_develop?2edk2?2Md@ 0000000000018f60     BaseLib:Unaligned.obj
 0002:00000ff4       __volatile_metadata        0000000000018ff4     <linker-defined>
 0003:00000000       gEfiLoadedImageProtocolGuid 000000000001a000     Cpu:AutoGen.obj
 0003:00000010       gEfiStatusCodeSpecificDataGuid 000000000001a010     Cpu:AutoGen.obj
 0003:00000020       gEfiMpServiceProtocolGuid  000000000001a020     Cpu:AutoGen.obj
 0003:00000030       gIdleLoopEventGuid         000000000001a030     Cpu:AutoGen.obj
 0003:00000040       gEfiStatusCodeRuntimeProtocolGuid 000000000001a040     Cpu:AutoGen.obj
 0003:00000050       gEfiEventReadyToBootGuid   000000000001a050     Cpu:AutoGen.obj
 0003:00000060       gEfiSmbiosProtocolGuid     000000000001a060     Cpu:AutoGen.obj
 0003:00000070       gEfiCallerBaseName         000000000001a070     Cpu:AutoGen.obj
 0003:00000078       gEfiHiiConfigRoutingProtocolGuid 000000000001a078     Cpu:AutoGen.obj
 0003:00000088       gEfiStatusCodeDataTypeDebugGuid 000000000001a088     Cpu:AutoGen.obj
 0003:00000098       gEfiCpuArchProtocolGuid    000000000001a098     Cpu:AutoGen.obj
 0003:000000a8       gEfiHiiImageProtocolGuid   000000000001a0a8     Cpu:AutoGen.obj
 0003:000000b8       gEfiHiiDatabaseProtocolGuid 000000000001a0b8     Cpu:AutoGen.obj
 0003:000000c8       gEfiHiiStringProtocolGuid  000000000001a0c8     Cpu:AutoGen.obj
 0003:000000d8       gEfiHobListGuid            000000000001a0d8     Cpu:AutoGen.obj
 0003:000000e8       gEfiCpuIo2ProtocolGuid     000000000001a0e8     Cpu:AutoGen.obj
 0003:000000f8       gEmuThreadThunkProtocolGuid 000000000001a0f8     Cpu:AutoGen.obj
 0003:00000108       gEfiCallerIdGuid           000000000001a108     Cpu:AutoGen.obj
 0003:00000118       gEfiHiiFontProtocolGuid    000000000001a118     Cpu:AutoGen.obj
 0003:00000128       gEmuThunkProtocolGuid      000000000001a128     Cpu:AutoGen.obj
 0003:00000138       mCpuSmbiosType4            000000000001a138     Cpu:Cpu.obj
 0003:00000170       mCpuSmbiosType4Strings     000000000001a170     Cpu:Cpu.obj
 0003:000001b0       mCpuTemplate               000000000001a1b0     Cpu:Cpu.obj
 0003:00000230       mMpServicesTemplate        000000000001a230     Cpu:MpService.obj
 0003:00000280       gReadToBoot                000000000001a280     Cpu:MpService.obj
 0003:00000288       gThread                    000000000001a288     Cpu:MpService.obj
 0003:00000290       gST                        000000000001a290     UefiBootServicesTableLib:UefiBootServicesTableLib.obj
 0003:00000298       gBS                        000000000001a298     UefiBootServicesTableLib:UefiBootServicesTableLib.obj
 0003:000002a0       gImageHandle               000000000001a2a0     UefiBootServicesTableLib:UefiBootServicesTableLib.obj
 0003:000002a8       gRT                        000000000001a2a8     UefiRuntimeServicesTableLib:UefiRuntimeServicesTableLib.obj
 0003:000002b0       gHiiString                 000000000001a2b0     UefiHiiServicesLib:UefiHiiServicesLib.obj
 0003:000002b8       gHiiFont                   000000000001a2b8     UefiHiiServicesLib:UefiHiiServicesLib.obj
 0003:000002c0       gHiiConfigRouting          000000000001a2c0     UefiHiiServicesLib:UefiHiiServicesLib.obj
 0003:000002c8       gHiiImage                  000000000001a2c8     UefiHiiServicesLib:UefiHiiServicesLib.obj
 0003:000002d0       gHiiDatabase               000000000001a2d0     UefiHiiServicesLib:UefiHiiServicesLib.obj
 0003:000002d8       mHobList                   000000000001a2d8     DxeHobLib:HobLib.obj
 0003:000002e0       gEmuThunk                  000000000001a2e0     DxeEmuLib:DxeEmuLib.obj
 0003:000002e8       mReportStatusCodeLibStatusCodeProtocol 000000000001a2e8     DxeReportStatusCodeLib:ReportStatusCodeLib.obj
 0003:000002f8       __security_cookie          000000000001a2f8     StackCheckLibNull:StackCheckLibNullMsvc.obj
 0003:00000300       gMPSystem                  000000000001a300     <common>
 0003:00000378       gPollInterval              000000000001a378     <common>
 0003:00000380       gReadToBootEvent           000000000001a380     <common>
 0003:00000388       mTimerPeriod               000000000001a388     <common>

 entry point at        0001:00000058

 Static symbols

 0003:000002f0       mDeadLoopComparator        000000000001a2f0     BaseLib:CpuDeadLoop.obj
 0005:00000000       $unwind$CalculateAndStallInterval 000000000001c000     Cpu:MpService.obj
 0005:00000000       $unwind$AsciiStrLen        000000000001c000     BaseLib:String.obj
 0005:00000000       $unwind$StrDecimalToUintn  000000000001c000     BaseLib:String.obj
 0005:00000000       $unwind$GetFirstGuidHob    000000000001c000     DxeHobLib:HobLib.obj
 0005:00000000       $unwind$_DriverUnloadHandler 000000000001c000     UefiDriverEntryPoint:DriverEntryPoint.obj
 0005:00000000       $unwind$FreePool           000000000001c000     UefiMemoryAllocationLib:MemoryAllocationLib.obj
 0005:00000008       $unwind$ProcessLibraryConstructorList 000000000001c008     Cpu:AutoGen.obj
 0005:00000008       $unwind$CpuMpServicesWhoAmI 000000000001c008     Cpu:MpService.obj
 0005:00000008       $unwind$DxeEmuLibConstructor 000000000001c008     DxeEmuLib:DxeEmuLib.obj
 0005:00000008       $unwind$GetIoThunkInstance 000000000001c008     DxeEmuLib:DxeEmuLib.obj
 0005:00000008       $unwind$UefiHiiServicesLibConstructor 000000000001c008     UefiHiiServicesLib:UefiHiiServicesLib.obj
 0005:00000008       $unwind$StrnLenS           000000000001c008     BaseLib:SafeString.obj
 0005:00000008       $unwind$GetNextGuidHob     000000000001c008     DxeHobLib:HobLib.obj
 0005:00000008       $unwind$GetNextHob         000000000001c008     DxeHobLib:HobLib.obj
 0005:00000008       $unwind$_ModuleEntryPoint  000000000001c008     UefiDriverEntryPoint:DriverEntryPoint.obj
 0005:00000008       $unwind$EfiGetSystemConfigurationTable 000000000001c008     UefiLib:UefiLib.obj
 0005:00000010       $unwind$ProcessModuleEntryPointList 000000000001c010     Cpu:AutoGen.obj
 0005:00000010       $unwind$IdleLoopEventCallback 000000000001c010     Cpu:Cpu.obj
 0005:00000010       $unwind$LShiftU64          000000000001c010     BaseLib:LShiftU64.obj
 0005:00000010       $unwind$WriteUnaligned64   000000000001c010     BaseLib:Unaligned.obj
 0005:00000010       $unwind$InternalMemZeroMem 000000000001c010     BaseMemoryLib:MemLibGeneric.obj
 0005:00000010       $unwind$CopyGuid           000000000001c010     BaseMemoryLib:MemLibGuid.obj
 0005:00000010       $unwind$ZeroMem            000000000001c010     BaseMemoryLib:ZeroMemWrapper.obj
 0005:00000010       $unwind$HobLibConstructor  000000000001c010     DxeHobLib:HobLib.obj
 0005:00000010       $unwind$UefiBootServicesTableLibConstructor 000000000001c010     UefiBootServicesTableLib:UefiBootServicesTableLib.obj
 0005:00000010       $unwind$UefiRuntimeServicesTableLibConstructor 000000000001c010     UefiRuntimeServicesTableLib:UefiRuntimeServicesTableLib.obj
 0005:00000018       $unwind$LogSmbiosData      000000000001c018     Cpu:Cpu.obj
 0005:00000020       $unwind$CpuUpdateSmbios    000000000001c020     Cpu:Cpu.obj
 0005:00000020       $unwind$AsciiStrSize       000000000001c020     BaseLib:String.obj
 0005:00000020       $unwind$ReadUnaligned64    000000000001c020     BaseLib:Unaligned.obj
 0005:00000020       $unwind$AllocatePool       000000000001c020     UefiMemoryAllocationLib:MemoryAllocationLib.obj
 0005:00000020       $unwind$AllocateZeroPool   000000000001c020     UefiMemoryAllocationLib:MemoryAllocationLib.obj
 0005:00000028       $unwind$EmuDisableInterrupt 000000000001c028     Cpu:Cpu.obj
 0005:00000028       $unwind$EmuEnableInterrupt 000000000001c028     Cpu:Cpu.obj
 0005:00000028       $unwind$CpuDriverApIdolLoop 000000000001c028     Cpu:MpService.obj
 0005:00000028       $unwind$CpuMpServicesInit  000000000001c028     Cpu:MpService.obj
 0005:00000028       $unwind$GetNextBlockedNumber 000000000001c028     Cpu:MpService.obj
 0005:00000028       $unwind$InitializeMpSystemData 000000000001c028     Cpu:MpService.obj
 0005:00000030       $unwind$EmuGetInterruptState 000000000001c030     Cpu:Cpu.obj
 0005:00000030       $unwind$CpuCheckThisAPStatus 000000000001c030     Cpu:MpService.obj
 0005:00000038       $unwind$EmuGetTimerValue   000000000001c038     Cpu:Cpu.obj
 0005:00000040       $unwind$InitializeCpu      000000000001c040     Cpu:Cpu.obj
 0005:00000040       $unwind$CompareGuid        000000000001c040     BaseMemoryLib:MemLibGuid.obj
 0005:00000048       $unwind$IsBSP              000000000001c048     Cpu:MpService.obj
 0005:00000050       $unwind$CpuMpServicesGetNumberOfProcessors 000000000001c050     Cpu:MpService.obj
 0005:00000050       $unwind$CpuMpServicesGetProcessorInfo 000000000001c050     Cpu:MpService.obj
 0005:00000050       $unwind$SetApProcedure     000000000001c050     Cpu:MpService.obj
 0005:00000050       $unwind$DebugVPrint        000000000001c050     PeiDxeDebugLibReportStatusCode:DebugLib.obj
 0005:00000050       $unwind$DivU64x64Remainder 000000000001c050     BaseLib:DivU64x64Remainder.obj
 0005:00000050       $unwind$CopyMem            000000000001c050     BaseMemoryLib:CopyMemWrapper.obj
 0005:00000050       $unwind$SetMem32           000000000001c050     BaseMemoryLib:SetMem32Wrapper.obj
 0005:00000050       $unwind$SetMem64           000000000001c050     BaseMemoryLib:SetMem64Wrapper.obj
 0005:00000050       $unwind$SetMemN            000000000001c050     BaseMemoryLib:SetMemNWrapper.obj
 0005:00000058       $unwind$CpuMpServicesStartupAllAps 000000000001c058     Cpu:MpService.obj
 0005:00000060       $unwind$CpuMpServicesStartupThisAP 000000000001c060     Cpu:MpService.obj
 0005:00000060       $unwind$DebugPrint         000000000001c060     PeiDxeDebugLibReportStatusCode:DebugLib.obj
 0005:00000060       $unwind$InternalSafeStringNoAsciiStrOverlap 000000000001c060     BaseLib:SafeString.obj
 0005:00000068       $unwind$CpuMpServicesSwitchBSP 000000000001c068     Cpu:MpService.obj
 0005:00000070       $unwind$CpuMpServicesEnableDisableAP 000000000001c070     Cpu:MpService.obj
 0005:00000078       $unwind$CpuCheckAllAPsStatus 000000000001c078     Cpu:MpService.obj
 0005:00000080       $unwind$FillInProcessorInformation 000000000001c080     Cpu:MpService.obj
 0005:00000080       $unwind$InternalAllocatePool 000000000001c080     UefiMemoryAllocationLib:MemoryAllocationLib.obj
 0005:00000080       $unwind$InternalAllocateZeroPool 000000000001c080     UefiMemoryAllocationLib:MemoryAllocationLib.obj
 0005:00000088       $unwind$CpuIoServiceRead   000000000001c088     Cpu:CpuIo.obj
 0005:00000088       $unwind$CpuIoServiceWrite  000000000001c088     Cpu:CpuIo.obj
 0005:00000088       $unwind$CpuMemoryServiceRead 000000000001c088     Cpu:CpuIo.obj
 0005:00000088       $unwind$CpuMemoryServiceWrite 000000000001c088     Cpu:CpuIo.obj
 0005:00000090       $unwind$CpuIoCheckAddressRange 000000000001c090     Cpu:CpuIo.obj
 0005:00000098       $unwind$DebugPrintLevelEnabled 000000000001c098     PeiDxeDebugLibReportStatusCode:DebugLib.obj
 0005:00000098       $unwind$InternalIsDecimalDigitCharacter 000000000001c098     BaseLib:String.obj
 0005:000000a0       $unwind$StrDecimalToUintnS 000000000001c0a0     BaseLib:SafeString.obj
 0005:000000a8       $unwind$AsciiStrnLenS      000000000001c0a8     BaseLib:SafeString.obj
 0005:000000b0       $unwind$AsciiStrnCpyS      000000000001c0b0     BaseLib:SafeString.obj
 0005:000000b8       $unwind$DebugPrintMarker   000000000001c0b8     PeiDxeDebugLibReportStatusCode:DebugLib.obj
 0005:000000c8       $unwind$DebugAssert        000000000001c0c8     PeiDxeDebugLibReportStatusCode:DebugLib.obj
 0005:000000d8       $unwind$ReportDebugCodeEnabled 000000000001c0d8     DxeReportStatusCodeLib:ReportStatusCodeLib.obj
 0005:000000d8       $unwind$ReportErrorCodeEnabled 000000000001c0d8     DxeReportStatusCodeLib:ReportStatusCodeLib.obj
 0005:000000d8       $unwind$ReportProgressCodeEnabled 000000000001c0d8     DxeReportStatusCodeLib:ReportStatusCodeLib.obj
 0005:000000d8       $unwind$DebugAssertEnabled 000000000001c0d8     PeiDxeDebugLibReportStatusCode:DebugLib.obj
 0005:000000d8       $unwind$DebugPrintEnabled  000000000001c0d8     PeiDxeDebugLibReportStatusCode:DebugLib.obj
 0005:000000e0       $unwind$InternalMemCopyMem 000000000001c0e0     BaseMemoryLib:CopyMem.obj
 0005:000000e8       $unwind$InternalMemSetMem  000000000001c0e8     BaseMemoryLib:SetMem.obj
 0005:000000f0       $unwind$EfiCreateEventReadyToBootEx 000000000001c0f0     UefiLib:UefiNotTiano.obj
 0005:000000f8       $unwind$InternalGetReportStatusCode 000000000001c0f8     DxeReportStatusCodeLib:ReportStatusCodeLib.obj
 0005:000000f8       $unwind$CpuDeadLoop        000000000001c0f8     BaseLib:CpuDeadLoop.obj
 0005:000000f8       $unwind$GetHobList         000000000001c0f8     DxeHobLib:HobLib.obj
 0005:00000100       $unwind$InternalReportStatusCode 000000000001c100     DxeReportStatusCodeLib:ReportStatusCodeLib.obj
 0005:00000108       $unwind$ReportStatusCodeEx 000000000001c108     DxeReportStatusCodeLib:ReportStatusCodeLib.obj
