 NullMemoryTestDxe

 Timestamp is 68f5d083 (Mon Oct 20 14:02:43 2025)

 Preferred load address is 0000000000010000

 Start         Length     Name                   Class
 0001:00000000 00000014H .text                   CODE
 0001:00000014 00002ca4H .text$mn                CODE
 0002:00000000 000009acH .rdata                  DATA
 0002:000009ac 00000018H .rdata$voltmd           DATA
 0002:000009c4 00000170H .rdata$zzzdbg           DATA
 0003:00000000 00000098H .data                   DATA
 0003:00000098 00000058H .bss                    DATA
 0004:00000000 000001c8H .pdata                  DATA
 0005:00000000 000000b0H .xdata                  DATA

  Address         Publics by Value              Rva+Base               Lib:Object

 0000:00000000       __arm64x_extra_rfe_table   0000000000000000     <absolute>
 0000:00000000       __x64_code_ranges_to_entry_points 0000000000000000     <absolute>
 0000:00000000       __guard_longjmp_table      0000000000000000     <absolute>
 0000:00000000       __hybrid_code_map          0000000000000000     <absolute>
 0000:00000000       __arm64x_extra_rfe_table_size 0000000000000000     <absolute>
 0000:00000000       __x64_code_ranges_to_entry_points_count 0000000000000000     <absolute>
 0000:00000000       __arm64x_redirection_metadata 0000000000000000     <absolute>
 0000:00000000       __guard_iat_table          0000000000000000     <absolute>
 0000:00000000       __guard_fids_count         0000000000000000     <absolute>
 0000:00000000       __guard_flags              0000000000000000     <absolute>
 0000:00000000       __guard_eh_cont_count      0000000000000000     <absolute>
 0000:00000000       __guard_iat_count          0000000000000000     <absolute>
 0000:00000000       __guard_longjmp_count      0000000000000000     <absolute>
 0000:00000000       __dynamic_value_reloc_table 0000000000000000     <absolute>
 0000:00000000       __hybrid_auxiliary_iat     0000000000000000     <absolute>
 0000:00000000       __hybrid_auxiliary_iat_copy 0000000000000000     <absolute>
 0000:00000000       __AbsoluteZero             0000000000000000     <absolute>
 0000:00000000       __guard_check_icall_a64n_fptr 0000000000000000     <absolute>
 0000:00000000       __guard_fids_table         0000000000000000     <absolute>
 0000:00000000       __arm64x_redirection_metadata_count 0000000000000000     <absolute>
 0000:00000000       __hybrid_code_map_count    0000000000000000     <absolute>
 0000:00000000       __enclave_config           0000000000000000     <absolute>
 0000:00000000       __guard_eh_cont_table      0000000000000000     <absolute>
 0000:00000000       __arm64x_native_entrypoint 0000000000000000     <absolute>
 0001:00000000       __report_rangecheckfailure 0000000000011000     StackCheckLibNull:StackCheckFunctionsMsvc.obj
 0001:00000001       __GSHandlerCheck           0000000000011001     StackCheckLibNull:StackCheckFunctionsMsvc.obj
 0001:00000002       __security_check_cookie    0000000000011002     StackCheckLibNull:StackCheckFunctionsMsvc.obj
 0001:00000010       CpuPause                   0000000000011010     BaseLib:CpuPause.obj
 0001:00000014       _DriverUnloadHandler       0000000000011014 f   UefiDriverEntryPoint:DriverEntryPoint.obj
 0001:00000058       _ModuleEntryPoint          0000000000011058 f   UefiDriverEntryPoint:DriverEntryPoint.obj
 0001:00000198       ProcessLibraryConstructorList 0000000000011198 f   NullMemoryTestDxe:AutoGen.obj
 0001:000003e4       ProcessLibraryDestructorList 00000000000113e4 f   NullMemoryTestDxe:AutoGen.obj
 0001:000003f0       ProcessModuleEntryPointList 00000000000113f0 f   NullMemoryTestDxe:AutoGen.obj
 0001:00000414       ProcessModuleUnloadList    0000000000011414 f   NullMemoryTestDxe:AutoGen.obj
 0001:00000414       GenMemoryTestFinished      0000000000011414 f   NullMemoryTestDxe:NullMemoryTest.obj
 0001:0000041c       GenericMemoryTestEntryPoint 000000000001141c f   NullMemoryTestDxe:NullMemoryTest.obj
 0001:000004d8       ConvertToTestedMemory      00000000000114d8 f   NullMemoryTestDxe:NullMemoryTest.obj
 0001:0000057c       InitializeMemoryTest       000000000001157c f   NullMemoryTestDxe:NullMemoryTest.obj
 0001:00000780       GenPerformMemoryTest       0000000000011780 f   NullMemoryTestDxe:NullMemoryTest.obj
 0001:000007c8       GenCompatibleRangeTest     00000000000117c8 f   NullMemoryTestDxe:NullMemoryTest.obj
 0001:00000950       DebugPrint                 0000000000011950 f   PeiDxeDebugLibReportStatusCode:DebugLib.obj
 0001:00000994       DebugPrintMarker           0000000000011994 f   PeiDxeDebugLibReportStatusCode:DebugLib.obj
 0001:0000113c       DebugVPrint                000000000001213c f   PeiDxeDebugLibReportStatusCode:DebugLib.obj
 0001:0000116c       DebugAssert                000000000001216c f   PeiDxeDebugLibReportStatusCode:DebugLib.obj
 0001:00001508       DebugAssertEnabled         0000000000012508 f   PeiDxeDebugLibReportStatusCode:DebugLib.obj
 0001:0000152c       DebugPrintEnabled          000000000001252c f   PeiDxeDebugLibReportStatusCode:DebugLib.obj
 0001:00001550       DebugPrintLevelEnabled     0000000000012550 f   PeiDxeDebugLibReportStatusCode:DebugLib.obj
 0001:00001584       FreePool                   0000000000012584 f   UefiMemoryAllocationLib:MemoryAllocationLib.obj
 0001:00001620       UefiBootServicesTableLibConstructor 0000000000012620 f   UefiBootServicesTableLib:UefiBootServicesTableLib.obj
 0001:000016fc       UefiRuntimeServicesTableLibConstructor 00000000000126fc f   UefiRuntimeServicesTableLib:UefiRuntimeServicesTableLib.obj
 0001:00001758       UefiLibConstructor         0000000000012758 f   UefiLib:UefiLib.obj
 0001:00001768       EfiGetSystemConfigurationTable 0000000000012768 f   UefiLib:UefiLib.obj
 0001:00001874       DxeServicesTableLibConstructor 0000000000012874 f   DxeServicesTableLib:DxeServicesTableLib.obj
 0001:00001954       GetDebugPrintErrorLevel    0000000000012954 f   BaseDebugPrintErrorLevelLib:BaseDebugPrintErrorLevelLib.obj
 0001:0000195c       AsciiStrLen                000000000001295c f   BaseLib:String.obj
 0001:00001a14       AsciiStrSize               0000000000012a14 f   BaseLib:String.obj
 0001:00001a30       InternalSafeStringIsOverlap 0000000000012a30 f   BaseLib:SafeString.obj
 0001:00001a94       InternalSafeStringNoAsciiStrOverlap 0000000000012a94 f   BaseLib:SafeString.obj
 0001:00001ae8       AsciiStrnLenS              0000000000012ae8 f   BaseLib:SafeString.obj
 0001:00001b54       AsciiStrnCpyS              0000000000012b54 f   BaseLib:SafeString.obj
 0001:00002044       CpuBreakpoint              0000000000013044 f   BaseLib:CpuBreakpoint.obj
 0001:00002048       CpuDeadLoop                0000000000013048 f   BaseLib:CpuDeadLoop.obj
 0001:00002078       ReadUnaligned64            0000000000013078 f   BaseLib:Unaligned.obj
 0001:000020c0       WriteUnaligned64           00000000000130c0 f   BaseLib:Unaligned.obj
 0001:00002118       CopyMem                    0000000000013118 f   BaseMemoryLib:CopyMemWrapper.obj
 0001:000021f0       CopyGuid                   00000000000131f0 f   BaseMemoryLib:MemLibGuid.obj
 0001:00002244       CompareGuid                0000000000013244 f   BaseMemoryLib:MemLibGuid.obj
 0001:000022cc       InternalMemCopyMem         00000000000132cc f   BaseMemoryLib:CopyMem.obj
 0001:000028a8       InternalGetReportStatusCode 00000000000138a8 f   DxeReportStatusCodeLib:ReportStatusCodeLib.obj
 0001:00002918       InternalReportStatusCode   0000000000013918 f   DxeReportStatusCodeLib:ReportStatusCodeLib.obj
 0001:000029d0       ReportStatusCodeEx         00000000000139d0 f   DxeReportStatusCodeLib:ReportStatusCodeLib.obj
 0001:00002c4c       ReportProgressCodeEnabled  0000000000013c4c f   DxeReportStatusCodeLib:ReportStatusCodeLib.obj
 0001:00002c70       ReportErrorCodeEnabled     0000000000013c70 f   DxeReportStatusCodeLib:ReportStatusCodeLib.obj
 0001:00002c94       ReportDebugCodeEnabled     0000000000013c94 f   DxeReportStatusCodeLib:ReportStatusCodeLib.obj
 0002:00000000       ??_C@_0CB@DMEJJJHA@?6ASSERT_EFI_ERROR?5?$CIStatus?5?$DN?5?$CFr?$CJ@ 0000000000014000     UefiDriverEntryPoint:DriverEntryPoint.obj
 0002:00000028       ??_C@_0DG@FLPEIDFK@?$CB?$CI?$CI?$CIRETURN_STATUS?$CJ?$CIStatus?$CJ?$CJ?5?$DO?$DN?5@ 0000000000014028     UefiDriverEntryPoint:DriverEntryPoint.obj
 0002:00000060       ??_C@_0EM@JLGHJKPJ@D?3?2develop?2EDK2?2edk2?2MdePkg?2Lib@ 0000000000014060     UefiDriverEntryPoint:DriverEntryPoint.obj
 0002:000000ac       _gDriverUnloadImageCount   00000000000140ac     NullMemoryTestDxe:AutoGen.obj
 0002:000000b0       _gUefiDriverRevision       00000000000140b0     NullMemoryTestDxe:AutoGen.obj
 0002:000000b8       ??_C@_0BC@NDBMMNEG@NullMemoryTestDxe@ 00000000000140b8     NullMemoryTestDxe:AutoGen.obj
 0002:000000d0       ??_C@_0IO@EGAHNBCI@D?3?2develop?2EDK2?2edk2?2Build?2Emul@ 00000000000140d0     NullMemoryTestDxe:AutoGen.obj
 0002:0000015e       _gPcd_FixedAtBuild_PcdReportStatusCodePropertyMask 000000000001415e     NullMemoryTestDxe:AutoGen.obj
 0002:00000160       _gPcd_FixedAtBuild_PcdDebugPrintErrorLevel 0000000000014160     NullMemoryTestDxe:AutoGen.obj
 0002:00000164       _gPcd_FixedAtBuild_PcdFixedDebugPrintErrorLevel 0000000000014164     NullMemoryTestDxe:AutoGen.obj
 0002:00000168       _gPcd_FixedAtBuild_PcdMaximumAsciiStringLength 0000000000014168     NullMemoryTestDxe:AutoGen.obj
 0002:0000016c       _gPcd_FixedAtBuild_PcdDebugPropertyMask 000000000001416c     NullMemoryTestDxe:AutoGen.obj
 0002:00000170       ??_C@_0FK@JMBLHMMA@D?3?2develop?2EDK2?2edk2?2MdeModuleP@ 0000000000014170     NullMemoryTestDxe:NullMemoryTest.obj
 0002:000001d0       ??_C@_0BH@LKMBFCBF@Format?5?$CB?$DN?5?$CI?$CIvoid?5?$CK?$CJ?50?$CJ@ 00000000000141d0     PeiDxeDebugLibReportStatusCode:DebugLib.obj
 0002:000001f0       ??_C@_0FE@BEFIIBEL@D?3?2develop?2EDK2?2edk2?2MdeModuleP@ 00000000000141f0     PeiDxeDebugLibReportStatusCode:DebugLib.obj
 0002:00000248       ??_C@_0CP@EFCGCEBK@?$CICHAR8?5?$CK?$CJBaseListMarkerPointer?5@ 0000000000014248     PeiDxeDebugLibReportStatusCode:DebugLib.obj
 0002:00000278       ??_C@_01OHGJGJJP@?$FL@     0000000000014278     PeiDxeDebugLibReportStatusCode:DebugLib.obj
 0002:0000027c       ??_C@_02PBFOLPKM@?$FN?5@   000000000001427c     PeiDxeDebugLibReportStatusCode:DebugLib.obj
 0002:00000280       ??_C@_0BH@IACGKAP@Buffer?5?$CB?$DN?5?$CI?$CIvoid?5?$CK?$CJ?50?$CJ@ 0000000000014280     PeiDxeDebugLibReportStatusCode:DebugLib.obj
 0002:000002a0       ??_C@_0FC@FCCEPMJI@D?3?2develop?2EDK2?2edk2?2MdePkg?2Lib@ 00000000000142a0     UefiMemoryAllocationLib:MemoryAllocationLib.obj
 0002:000002f8       ??_C@_0BN@COECPDCC@gImageHandle?5?$CB?$DN?5?$CI?$CIvoid?5?$CK?$CJ?50?$CJ@ 00000000000142f8     UefiBootServicesTableLib:UefiBootServicesTableLib.obj
 0002:00000320       ??_C@_0FI@GPPFIFID@D?3?2develop?2EDK2?2edk2?2MdePkg?2Lib@ 0000000000014320     UefiBootServicesTableLib:UefiBootServicesTableLib.obj
 0002:00000378       ??_C@_0BE@DGNHAHIL@gST?5?$CB?$DN?5?$CI?$CIvoid?5?$CK?$CJ?50?$CJ@ 0000000000014378     UefiBootServicesTableLib:UefiBootServicesTableLib.obj
 0002:00000390       ??_C@_0BE@BDFJLGLN@gBS?5?$CB?$DN?5?$CI?$CIvoid?5?$CK?$CJ?50?$CJ@ 0000000000014390     UefiBootServicesTableLib:UefiBootServicesTableLib.obj
 0002:000003a8       ??_C@_0BE@OBDFIHND@gRT?5?$CB?$DN?5?$CI?$CIvoid?5?$CK?$CJ?50?$CJ@ 00000000000143a8     UefiRuntimeServicesTableLib:UefiRuntimeServicesTableLib.obj
 0002:000003c0       ??_C@_0FO@FKLKMJDF@D?3?2develop?2EDK2?2edk2?2MdePkg?2Lib@ 00000000000143c0     UefiRuntimeServicesTableLib:UefiRuntimeServicesTableLib.obj
 0002:00000420       ??_C@_0BK@PPOBBAMB@TableGuid?5?$CB?$DN?5?$CI?$CIvoid?5?$CK?$CJ?50?$CJ@ 0000000000014420     UefiLib:UefiLib.obj
 0002:00000440       ??_C@_0DG@PLINABMB@D?3?2develop?2EDK2?2edk2?2MdePkg?2Lib@ 0000000000014440     UefiLib:UefiLib.obj
 0002:00000478       ??_C@_0BG@JDKEGFNB@Table?5?$CB?$DN?5?$CI?$CIvoid?5?$CK?$CJ?50?$CJ@ 0000000000014478     UefiLib:UefiLib.obj
 0002:00000490       ??_C@_0EO@KJOBJECO@D?3?2develop?2EDK2?2edk2?2MdePkg?2Lib@ 0000000000014490     DxeServicesTableLib:DxeServicesTableLib.obj
 0002:000004e0       ??_C@_0BE@IOIFLNKO@gDS?5?$CB?$DN?5?$CI?$CIvoid?5?$CK?$CJ?50?$CJ@ 00000000000144e0     DxeServicesTableLib:DxeServicesTableLib.obj
 0002:000004f8       ??_C@_0BH@MAAHKCPC@String?5?$CB?$DN?5?$CI?$CIvoid?5?$CK?$CJ?50?$CJ@ 00000000000144f8     BaseLib:String.obj
 0002:00000510       ??_C@_0DF@EAHDDLM@D?3?2develop?2EDK2?2edk2?2MdePkg?2Lib@ 0000000000014510     BaseLib:String.obj
 0002:00000548       ??_C@_0DI@MDIKFADO@Length?5?$DM?5_gPcd_FixedAtBuild_Pcd@ 0000000000014548     BaseLib:String.obj
 0002:00000580       ??_C@_0DJ@DNFJNBOO@D?3?2develop?2EDK2?2edk2?2MdePkg?2Lib@ 0000000000014580     BaseLib:SafeString.obj
 0002:000005c0       ??_C@_0BO@ECNIOIHG@?$CIDestination?5?$CB?$DN?5?$CI?$CIvoid?5?$CK?$CJ?50?$CJ?$CJ@ 00000000000145c0     BaseLib:SafeString.obj
 0002:000005e0       ??_C@_0EA@PDPDJJNN@?$CFa?$CI?$CFd?$CJ?5?$CFa?3?5SAFE_STRING_CONSTRAI@ 00000000000145e0     BaseLib:SafeString.obj
 0002:00000620       ??_C@_0BJ@EAEEJIP@?$CISource?5?$CB?$DN?5?$CI?$CIvoid?5?$CK?$CJ?50?$CJ?$CJ@ 0000000000014620     BaseLib:SafeString.obj
 0002:00000640       ??_C@_0P@PMIMLIHM@?$CIDestMax?5?$CB?$DN?50?$CJ@ 0000000000014640     BaseLib:SafeString.obj
 0002:00000650       ??_C@_0BG@EEGIIOKH@?$CIDestMax?5?$DO?5SourceLen?$CJ@ 0000000000014650     BaseLib:SafeString.obj
 0002:00000668       ??_C@_0DO@LJFOOPII@?$CIDestMax?5?$DM?$DN?5?$CI_gPcd_FixedAtBuild@ 0000000000014668     BaseLib:SafeString.obj
 0002:000006b0       ??_C@_0FL@CDANCHFO@InternalSafeStringNoAsciiStrOve@ 00000000000146b0     BaseLib:SafeString.obj
 0002:00000710       ??_C@_0O@DIHNCLLG@AsciiStrnCpyS@ 0000000000014710     BaseLib:SafeString.obj
 0002:00000720       ??_C@_0DN@DLAADCJE@?$CILength?5?$DM?$DN?5?$CI_gPcd_FixedAtBuild_@ 0000000000014720     BaseLib:SafeString.obj
 0002:00000760       ??_C@_0DI@MBLLHEOH@D?3?2develop?2EDK2?2edk2?2MdePkg?2Lib@ 0000000000014760     BaseLib:Unaligned.obj
 0002:000007a0       ??_C@_0ED@MKGCMJG@?$CILength?5?9?51?$CJ?5?$DM?$DN?5?$CI0xFFFFFFFFFFFF@ 00000000000147a0     BaseMemoryLib:CopyMemWrapper.obj
 0002:000007f0       ??_C@_0ED@JLFCAFGL@D?3?2develop?2EDK2?2edk2?2MdePkg?2Lib@ 00000000000147f0     BaseMemoryLib:CopyMemWrapper.obj
 0002:00000838       ??_C@_0DO@MAOBOFEG@?$CILength?5?9?51?$CJ?5?$DM?$DN?5?$CI0xFFFFFFFFFFFF@ 0000000000014838     BaseMemoryLib:CopyMemWrapper.obj
 0002:00000880       ??_C@_0FH@KLOBJBPP@D?3?2develop?2EDK2?2edk2?2MdeModuleP@ 0000000000014880     DxeReportStatusCodeLib:ReportStatusCodeLib.obj
 0002:000008d8       ??_C@_0DN@HHIHPHHB@?$CB?$CI?$CIExtendedData?5?$DN?$DN?5?$CI?$CIvoid?5?$CK?$CJ?50?$CJ@ 00000000000148d8     DxeReportStatusCodeLib:ReportStatusCodeLib.obj
 0002:00000918       ??_C@_0DN@BBBIFINB@?$CB?$CI?$CIExtendedData?5?$CB?$DN?5?$CI?$CIvoid?5?$CK?$CJ?50?$CJ@ 0000000000014918     DxeReportStatusCodeLib:ReportStatusCodeLib.obj
 0002:000009ac       __volatile_metadata        00000000000149ac     <linker-defined>
 0003:00000000       gEfiLoadedImageProtocolGuid 0000000000015000     NullMemoryTestDxe:AutoGen.obj
 0003:00000010       gEfiStatusCodeSpecificDataGuid 0000000000015010     NullMemoryTestDxe:AutoGen.obj
 0003:00000020       gEfiStatusCodeRuntimeProtocolGuid 0000000000015020     NullMemoryTestDxe:AutoGen.obj
 0003:00000030       gEfiCallerBaseName         0000000000015030     NullMemoryTestDxe:AutoGen.obj
 0003:00000038       gEfiStatusCodeDataTypeDebugGuid 0000000000015038     NullMemoryTestDxe:AutoGen.obj
 0003:00000048       gEfiGenericMemTestProtocolGuid 0000000000015048     NullMemoryTestDxe:AutoGen.obj
 0003:00000058       gEfiDxeServicesTableGuid   0000000000015058     NullMemoryTestDxe:AutoGen.obj
 0003:00000068       gEfiCallerIdGuid           0000000000015068     NullMemoryTestDxe:AutoGen.obj
 0003:00000078       mGenericMemoryTest         0000000000015078     NullMemoryTestDxe:NullMemoryTest.obj
 0003:00000098       mTotalSystemMemory         0000000000015098     NullMemoryTestDxe:NullMemoryTest.obj
 0003:000000a0       mTestedSystemMemory        00000000000150a0     NullMemoryTestDxe:NullMemoryTest.obj
 0003:000000a8       gST                        00000000000150a8     UefiBootServicesTableLib:UefiBootServicesTableLib.obj
 0003:000000b0       gBS                        00000000000150b0     UefiBootServicesTableLib:UefiBootServicesTableLib.obj
 0003:000000b8       gImageHandle               00000000000150b8     UefiBootServicesTableLib:UefiBootServicesTableLib.obj
 0003:000000c0       gRT                        00000000000150c0     UefiRuntimeServicesTableLib:UefiRuntimeServicesTableLib.obj
 0003:000000c8       gDS                        00000000000150c8     DxeServicesTableLib:DxeServicesTableLib.obj
 0003:000000d8       mReportStatusCodeLibStatusCodeProtocol 00000000000150d8     DxeReportStatusCodeLib:ReportStatusCodeLib.obj
 0003:000000e0       __security_cookie          00000000000150e0     StackCheckLibNull:StackCheckLibNullMsvc.obj
 0003:000000e8       mGenericMemoryTestHandle   00000000000150e8     <common>

 entry point at        0001:00000058

 Static symbols

 0003:000000d0       mDeadLoopComparator        00000000000150d0     BaseLib:CpuDeadLoop.obj
 0005:00000000       $unwind$AsciiStrLen        0000000000017000     BaseLib:String.obj
 0005:00000000       $unwind$_DriverUnloadHandler 0000000000017000     UefiDriverEntryPoint:DriverEntryPoint.obj
 0005:00000000       $unwind$FreePool           0000000000017000     UefiMemoryAllocationLib:MemoryAllocationLib.obj
 0005:00000008       $unwind$ProcessLibraryConstructorList 0000000000017008     NullMemoryTestDxe:AutoGen.obj
 0005:00000008       $unwind$GenericMemoryTestEntryPoint 0000000000017008     NullMemoryTestDxe:NullMemoryTest.obj
 0005:00000008       $unwind$DxeServicesTableLibConstructor 0000000000017008     DxeServicesTableLib:DxeServicesTableLib.obj
 0005:00000008       $unwind$_ModuleEntryPoint  0000000000017008     UefiDriverEntryPoint:DriverEntryPoint.obj
 0005:00000008       $unwind$EfiGetSystemConfigurationTable 0000000000017008     UefiLib:UefiLib.obj
 0005:00000010       $unwind$ProcessModuleEntryPointList 0000000000017010     NullMemoryTestDxe:AutoGen.obj
 0005:00000010       $unwind$WriteUnaligned64   0000000000017010     BaseLib:Unaligned.obj
 0005:00000010       $unwind$CopyGuid           0000000000017010     BaseMemoryLib:MemLibGuid.obj
 0005:00000010       $unwind$UefiBootServicesTableLibConstructor 0000000000017010     UefiBootServicesTableLib:UefiBootServicesTableLib.obj
 0005:00000010       $unwind$UefiRuntimeServicesTableLibConstructor 0000000000017010     UefiRuntimeServicesTableLib:UefiRuntimeServicesTableLib.obj
 0005:00000018       $unwind$ConvertToTestedMemory 0000000000017018     NullMemoryTestDxe:NullMemoryTest.obj
 0005:00000020       $unwind$InitializeMemoryTest 0000000000017020     NullMemoryTestDxe:NullMemoryTest.obj
 0005:00000028       $unwind$GenCompatibleRangeTest 0000000000017028     NullMemoryTestDxe:NullMemoryTest.obj
 0005:00000028       $unwind$InternalMemCopyMem 0000000000017028     BaseMemoryLib:CopyMem.obj
 0005:00000030       $unwind$DebugPrint         0000000000017030     PeiDxeDebugLibReportStatusCode:DebugLib.obj
 0005:00000030       $unwind$InternalSafeStringNoAsciiStrOverlap 0000000000017030     BaseLib:SafeString.obj
 0005:00000038       $unwind$DebugPrintMarker   0000000000017038     PeiDxeDebugLibReportStatusCode:DebugLib.obj
 0005:00000048       $unwind$DebugVPrint        0000000000017048     PeiDxeDebugLibReportStatusCode:DebugLib.obj
 0005:00000048       $unwind$CopyMem            0000000000017048     BaseMemoryLib:CopyMemWrapper.obj
 0005:00000050       $unwind$DebugAssert        0000000000017050     PeiDxeDebugLibReportStatusCode:DebugLib.obj
 0005:00000060       $unwind$ReportDebugCodeEnabled 0000000000017060     DxeReportStatusCodeLib:ReportStatusCodeLib.obj
 0005:00000060       $unwind$ReportErrorCodeEnabled 0000000000017060     DxeReportStatusCodeLib:ReportStatusCodeLib.obj
 0005:00000060       $unwind$ReportProgressCodeEnabled 0000000000017060     DxeReportStatusCodeLib:ReportStatusCodeLib.obj
 0005:00000060       $unwind$DebugAssertEnabled 0000000000017060     PeiDxeDebugLibReportStatusCode:DebugLib.obj
 0005:00000060       $unwind$DebugPrintEnabled  0000000000017060     PeiDxeDebugLibReportStatusCode:DebugLib.obj
 0005:00000068       $unwind$DebugPrintLevelEnabled 0000000000017068     PeiDxeDebugLibReportStatusCode:DebugLib.obj
 0005:00000070       $unwind$AsciiStrSize       0000000000017070     BaseLib:String.obj
 0005:00000070       $unwind$ReadUnaligned64    0000000000017070     BaseLib:Unaligned.obj
 0005:00000078       $unwind$AsciiStrnLenS      0000000000017078     BaseLib:SafeString.obj
 0005:00000080       $unwind$AsciiStrnCpyS      0000000000017080     BaseLib:SafeString.obj
 0005:00000088       $unwind$InternalGetReportStatusCode 0000000000017088     DxeReportStatusCodeLib:ReportStatusCodeLib.obj
 0005:00000088       $unwind$CpuDeadLoop        0000000000017088     BaseLib:CpuDeadLoop.obj
 0005:00000090       $unwind$CompareGuid        0000000000017090     BaseMemoryLib:MemLibGuid.obj
 0005:00000098       $unwind$InternalReportStatusCode 0000000000017098     DxeReportStatusCodeLib:ReportStatusCodeLib.obj
 0005:000000a0       $unwind$ReportStatusCodeEx 00000000000170a0     DxeReportStatusCodeLib:ReportStatusCodeLib.obj
