 DxeCore.dll

 Timestamp is 68f5d088 (Mon Oct 20 14:02:48 2025)

 Preferred load address is 0000000000010000

 Start         Length     Name                   Class
 0001:00000000 00000ae4H .text                   CODE
 0001:00000ae4 0003b8d9H .text$mn                CODE
 0002:00000000 00006574H .rdata                  DATA
 0002:00006574 00000018H .rdata$voltmd           DATA
 0002:0000658c 00000140H .rdata$zzzdbg           DATA
 0003:00000000 000018a0H .data                   DATA
 0003:000018a0 000014a8H .bss                    DATA
 0004:00000000 000018d8H .pdata                  DATA
 0005:00000000 0000045cH .xdata                  DATA

  Address         Publics by Value              Rva+Base               Lib:Object

 0000:00000000       __dynamic_value_reloc_table 0000000000000000     <absolute>
 0000:00000000       __hybrid_code_map          0000000000000000     <absolute>
 0000:00000000       __guard_iat_count          0000000000000000     <absolute>
 0000:00000000       __hybrid_auxiliary_iat     0000000000000000     <absolute>
 0000:00000000       __arm64x_extra_rfe_table_size 0000000000000000     <absolute>
 0000:00000000       __hybrid_auxiliary_iat_copy 0000000000000000     <absolute>
 0000:00000000       __arm64x_extra_rfe_table   0000000000000000     <absolute>
 0000:00000000       __x64_code_ranges_to_entry_points_count 0000000000000000     <absolute>
 0000:00000000       __guard_fids_count         0000000000000000     <absolute>
 0000:00000000       __AbsoluteZero             0000000000000000     <absolute>
 0000:00000000       __guard_check_icall_a64n_fptr 0000000000000000     <absolute>
 0000:00000000       __x64_code_ranges_to_entry_points 0000000000000000     <absolute>
 0000:00000000       __guard_iat_table          0000000000000000     <absolute>
 0000:00000000       __guard_longjmp_count      0000000000000000     <absolute>
 0000:00000000       __guard_fids_table         0000000000000000     <absolute>
 0000:00000000       __guard_longjmp_table      0000000000000000     <absolute>
 0000:00000000       __guard_flags              0000000000000000     <absolute>
 0000:00000000       __guard_eh_cont_count      0000000000000000     <absolute>
 0000:00000000       __arm64x_redirection_metadata 0000000000000000     <absolute>
 0000:00000000       __arm64x_redirection_metadata_count 0000000000000000     <absolute>
 0000:00000000       __enclave_config           0000000000000000     <absolute>
 0000:00000000       __guard_eh_cont_table      0000000000000000     <absolute>
 0000:00000000       __arm64x_native_entrypoint 0000000000000000     <absolute>
 0000:00000000       __hybrid_code_map_count    0000000000000000     <absolute>
 0001:00000000       AsmVmgExitSvsm             0000000000011000     BaseLib:VmgExitSvsm.obj
 0001:00000060       AsmVmgExit                 0000000000011060     BaseLib:VmgExit.obj
 0001:00000070       AsmXSetBv                  0000000000011070     BaseLib:XSetBv.obj
 0001:00000080       AsmXGetBv                  0000000000011080     BaseLib:XGetBv.obj
 0001:00000090       AsmRmpAdjust               0000000000011090     BaseLib:RmpAdjust.obj
 0001:000000a0       InternalX86RdRand16        00000000000110a0     BaseLib:RdRand.obj
 0001:000000b2       InternalX86RdRand32        00000000000110b2     BaseLib:RdRand.obj
 0001:000000c3       InternalX86RdRand64        00000000000110c3     BaseLib:RdRand.obj
 0001:000000e0       AsmPvalidate               00000000000110e0     BaseLib:Pvalidate.obj
 0001:00000100       InternalX86DisablePaging64 0000000000011100     BaseLib:DisablePaging64.obj
 0001:00000170       EnableDisableInterrupts    0000000000011170     BaseLib:EnableDisableInterrupts.obj
 0001:00000180       TdVmCall                   0000000000011180     BaseLib:TdVmcall.obj
 0001:00000200       TdCall                     0000000000011200     BaseLib:TdCall.obj
 0001:00000260       AsmReadEflags              0000000000011260     BaseLib:ReadEflags.obj
 0001:00000270       AsmReadCr0                 0000000000011270     BaseLib:ReadCr0.obj
 0001:00000280       AsmReadCr2                 0000000000011280     BaseLib:ReadCr2.obj
 0001:00000290       AsmReadCr3                 0000000000011290     BaseLib:ReadCr3.obj
 0001:000002a0       AsmReadCr4                 00000000000112a0     BaseLib:ReadCr4.obj
 0001:000002b0       AsmWriteCr0                00000000000112b0     BaseLib:WriteCr0.obj
 0001:000002c0       AsmWriteCr2                00000000000112c0     BaseLib:WriteCr2.obj
 0001:000002d0       AsmWriteCr3                00000000000112d0     BaseLib:WriteCr3.obj
 0001:000002e0       AsmWriteCr4                00000000000112e0     BaseLib:WriteCr4.obj
 0001:000002f0       AsmReadDr0                 00000000000112f0     BaseLib:ReadDr0.obj
 0001:00000300       AsmReadDr1                 0000000000011300     BaseLib:ReadDr1.obj
 0001:00000310       AsmReadDr2                 0000000000011310     BaseLib:ReadDr2.obj
 0001:00000320       AsmReadDr3                 0000000000011320     BaseLib:ReadDr3.obj
 0001:00000330       AsmReadDr4                 0000000000011330     BaseLib:ReadDr4.obj
 0001:00000340       AsmReadDr5                 0000000000011340     BaseLib:ReadDr5.obj
 0001:00000350       AsmReadDr6                 0000000000011350     BaseLib:ReadDr6.obj
 0001:00000360       AsmReadDr7                 0000000000011360     BaseLib:ReadDr7.obj
 0001:00000370       AsmWriteDr0                0000000000011370     BaseLib:WriteDr0.obj
 0001:00000380       AsmWriteDr1                0000000000011380     BaseLib:WriteDr1.obj
 0001:00000390       AsmWriteDr2                0000000000011390     BaseLib:WriteDr2.obj
 0001:000003a0       AsmWriteDr3                00000000000113a0     BaseLib:WriteDr3.obj
 0001:000003b0       AsmWriteDr4                00000000000113b0     BaseLib:WriteDr4.obj
 0001:000003c0       AsmWriteDr5                00000000000113c0     BaseLib:WriteDr5.obj
 0001:000003d0       AsmWriteDr6                00000000000113d0     BaseLib:WriteDr6.obj
 0001:000003e0       AsmWriteDr7                00000000000113e0     BaseLib:WriteDr7.obj
 0001:000003f0       AsmReadCs                  00000000000113f0     BaseLib:ReadCs.obj
 0001:00000400       AsmReadDs                  0000000000011400     BaseLib:ReadDs.obj
 0001:00000410       AsmReadEs                  0000000000011410     BaseLib:ReadEs.obj
 0001:00000420       AsmReadFs                  0000000000011420     BaseLib:ReadFs.obj
 0001:00000430       AsmReadGs                  0000000000011430     BaseLib:ReadGs.obj
 0001:00000440       AsmReadSs                  0000000000011440     BaseLib:ReadSs.obj
 0001:00000450       AsmReadTr                  0000000000011450     BaseLib:ReadTr.obj
 0001:00000460       InternalX86ReadGdtr        0000000000011460     BaseLib:ReadGdtr.obj
 0001:00000470       InternalX86WriteGdtr       0000000000011470     BaseLib:WriteGdtr.obj
 0001:00000480       InternalX86ReadIdtr        0000000000011480     BaseLib:ReadIdtr.obj
 0001:00000490       InternalX86WriteIdtr       0000000000011490     BaseLib:WriteIdtr.obj
 0001:000004a0       AsmReadLdtr                00000000000114a0     BaseLib:ReadLdtr.obj
 0001:000004b0       AsmWriteLdtr               00000000000114b0     BaseLib:WriteLdtr.obj
 0001:000004c0       InternalX86FxSave          00000000000114c0     BaseLib:FxSave.obj
 0001:000004d0       InternalX86FxRestore       00000000000114d0     BaseLib:FxRestore.obj
 0001:000004e0       AsmReadMm0                 00000000000114e0     BaseLib:ReadMm0.obj
 0001:000004f0       AsmReadMm1                 00000000000114f0     BaseLib:ReadMm1.obj
 0001:00000500       AsmReadMm2                 0000000000011500     BaseLib:ReadMm2.obj
 0001:00000510       AsmReadMm3                 0000000000011510     BaseLib:ReadMm3.obj
 0001:00000520       AsmReadMm4                 0000000000011520     BaseLib:ReadMm4.obj
 0001:00000530       AsmReadMm5                 0000000000011530     BaseLib:ReadMm5.obj
 0001:00000540       AsmReadMm6                 0000000000011540     BaseLib:ReadMm6.obj
 0001:00000550       AsmReadMm7                 0000000000011550     BaseLib:ReadMm7.obj
 0001:00000560       AsmWriteMm0                0000000000011560     BaseLib:WriteMm0.obj
 0001:00000570       AsmWriteMm1                0000000000011570     BaseLib:WriteMm1.obj
 0001:00000580       AsmWriteMm2                0000000000011580     BaseLib:WriteMm2.obj
 0001:00000590       AsmWriteMm3                0000000000011590     BaseLib:WriteMm3.obj
 0001:000005a0       AsmWriteMm4                00000000000115a0     BaseLib:WriteMm4.obj
 0001:000005b0       AsmWriteMm5                00000000000115b0     BaseLib:WriteMm5.obj
 0001:000005c0       AsmWriteMm6                00000000000115c0     BaseLib:WriteMm6.obj
 0001:000005d0       AsmWriteMm7                00000000000115d0     BaseLib:WriteMm7.obj
 0001:000005e0       AsmReadTsc                 00000000000115e0     BaseLib:ReadTsc.obj
 0001:000005f0       AsmReadPmc                 00000000000115f0     BaseLib:ReadPmc.obj
 0001:00000600       AsmMonitor                 0000000000011600     BaseLib:Monitor.obj
 0001:00000610       AsmMwait                   0000000000011610     BaseLib:Mwait.obj
 0001:00000620       AsmWbinvd                  0000000000011620     BaseLib:Wbinvd.obj
 0001:00000630       AsmInvd                    0000000000011630     BaseLib:Invd.obj
 0001:00000640       AsmFlushCacheLine          0000000000011640     BaseLib:FlushCacheLine.obj
 0001:00000650       EnableInterrupts           0000000000011650     BaseLib:EnableInterrupts.obj
 0001:00000660       DisableInterrupts          0000000000011660     BaseLib:DisableInterrupts.obj
 0001:00000670       CpuPause                   0000000000011670     BaseLib:CpuPause.obj
 0001:00000680       AsmLfence                  0000000000011680     BaseLib:Lfence.obj
 0001:00000690       AsmWriteTr                 0000000000011690     BaseLib:WriteTr.obj
 0001:000006a0       AsmDisableCache            00000000000116a0     BaseLib:DisableCache.obj
 0001:000006c0       AsmEnableCache             00000000000116c0     BaseLib:EnableCache.obj
 0001:000006e0       InternalSwitchStack        00000000000116e0     BaseLib:SwitchStack.obj
 0001:000006f0       SetJump                    00000000000116f0     BaseLib:SetJump.obj
 0001:000007c0       InternalLongJump           00000000000117c0     BaseLib:LongJump.obj
 0001:00000870       AsmCpuid                   0000000000011870     BaseLib:CpuId.obj
 0001:000008a0       AsmCpuidEx                 00000000000118a0     BaseLib:CpuIdEx.obj
 0001:000008d0       m16Start                   00000000000118d0     BaseLib:Thunk16.obj
 0001:00000a00       InternalAsmThunk16         0000000000011a00     BaseLib:Thunk16.obj
 0001:00000ae0       __report_rangecheckfailure 0000000000011ae0     StackCheckLibNull:StackCheckFunctionsMsvc.obj
 0001:00000ae1       __GSHandlerCheck           0000000000011ae1     StackCheckLibNull:StackCheckFunctionsMsvc.obj
 0001:00000ae2       __security_check_cookie    0000000000011ae2     StackCheckLibNull:StackCheckFunctionsMsvc.obj
 0001:00000ae4       ProcessLibraryConstructorList 0000000000011ae4 f   DxeCore:AutoGen.obj
 0001:00000fe4       ProcessModuleEntryPointList 0000000000011fe4 f   DxeCore:AutoGen.obj
 0001:00000ffc       DxeMain                    0000000000011ffc f   DxeCore:DxeMain.obj
 0001:000022e4       CoreEfiNotAvailableYetArg1 00000000000132e4 f   DxeCore:DxeMain.obj
 0001:000022f4       CoreEfiNotAvailableYetArg2 00000000000132f4 f   DxeCore:DxeMain.obj
 0001:0000230c       CoreEfiNotAvailableYetArg3 000000000001330c f   DxeCore:DxeMain.obj
 0001:00002328       CoreEfiNotAvailableYetArg4 0000000000013328 f   DxeCore:DxeMain.obj
 0001:00002328       CoreEfiNotAvailableYetArg5 0000000000013328 f   DxeCore:DxeMain.obj
 0001:00002348       CalculateEfiHdrCrc         0000000000013348 f   DxeCore:DxeMain.obj
 0001:00002398       CoreExitBootServices       0000000000013398 f   DxeCore:DxeMain.obj
 0001:00002584       DxeMainUefiDecompressGetInfo 0000000000013584 f   DxeCore:DxeMain.obj
 0001:000025e0       DxeMainUefiDecompress      00000000000135e0 f   DxeCore:DxeMain.obj
 0001:0000268c       CoreAllEfiServicesAvailable 000000000001368c f   DxeCore:DxeProtocolNotify.obj
 0001:000026d4       GenericProtocolNotify      00000000000136d4 f   DxeCore:DxeProtocolNotify.obj
 0001:000028c8       CoreNotifyOnProtocolEntryTable 00000000000138c8 f   DxeCore:DxeProtocolNotify.obj
 0001:00002a44       CoreNotifyOnProtocolInstallation 0000000000013a44 f   DxeCore:DxeProtocolNotify.obj
 0001:00002a68       CoreDisplayMissingArchProtocols 0000000000013a68 f   DxeCore:DxeProtocolNotify.obj
 0001:00002b3c       CoreAcquireDispatcherLock  0000000000013b3c f   DxeCore:Dispatcher.obj
 0001:00002b54       CoreReleaseDispatcherLock  0000000000013b54 f   DxeCore:Dispatcher.obj
 0001:00002b6c       CoreGetDepexSectionAndPreProccess 0000000000013b6c f   DxeCore:Dispatcher.obj
 0001:00002c40       CoreSchedule               0000000000013c40 f   DxeCore:Dispatcher.obj
 0001:00002de8       CoreTrust                  0000000000013de8 f   DxeCore:Dispatcher.obj
 0001:00002f24       CoreDispatcher             0000000000013f24 f   DxeCore:Dispatcher.obj
 0001:0000367c       CoreInsertOnScheduledQueueWhileProcessingBeforeAndAfter 000000000001467c f   DxeCore:Dispatcher.obj
 0001:00003ad8       FvHasBeenProcessed         0000000000014ad8 f   DxeCore:Dispatcher.obj
 0001:00003bac       FvIsBeingProcessed         0000000000014bac f   DxeCore:Dispatcher.obj
 0001:00003fd4       CoreFvToDevicePath         0000000000014fd4 f   DxeCore:Dispatcher.obj
 0001:0000405c       CoreAddToDriverList        000000000001505c f   DxeCore:Dispatcher.obj
 0001:0000415c       FvFoundInHobFv2            000000000001515c f   DxeCore:Dispatcher.obj
 0001:000041f0       GetFvUsedSize              00000000000151f0 f   DxeCore:Dispatcher.obj
 0001:00004360       CoreProcessFvImageFile     0000000000015360 f   DxeCore:Dispatcher.obj
 0001:0000475c       CoreFwVolEventProtocolNotify 000000000001575c f   DxeCore:Dispatcher.obj
 0001:00004e38       CoreInitializeDispatcher   0000000000015e38 f   DxeCore:Dispatcher.obj
 0001:00004ee0       CoreDisplayDiscoveredNotDispatched 0000000000015ee0 f   DxeCore:Dispatcher.obj
 0001:00004fec       GrowDepexStack             0000000000015fec f   DxeCore:Dependency.obj
 0001:000050dc       PushBool                   00000000000160dc f   DxeCore:Dependency.obj
 0001:0000513c       PopBool                    000000000001613c f   DxeCore:Dependency.obj
 0001:00005184       CorePreProcessDepex        0000000000016184 f   DxeCore:Dependency.obj
 0001:0000522c       CoreIsSchedulable          000000000001622c f   DxeCore:Dependency.obj
 0001:00005ec0       CoreAcquireEventLock       0000000000016ec0 f   DxeCore:Event.obj
 0001:00005ed8       CoreReleaseEventLock       0000000000016ed8 f   DxeCore:Event.obj
 0001:00005ef0       CoreInitializeEventServices 0000000000016ef0 f   DxeCore:Event.obj
 0001:00005f70       CoreDispatchEventNotifies  0000000000016f70 f   DxeCore:Event.obj
 0001:000061d4       CoreNotifyEvent            00000000000171d4 f   DxeCore:Event.obj
 0001:000062d0       CoreNotifySignalList       00000000000172d0 f   DxeCore:Event.obj
 0001:000063c8       CoreCreateEvent            00000000000173c8 f   DxeCore:Event.obj
 0001:00006410       CoreCreateEventEx          0000000000017410 f   DxeCore:Event.obj
 0001:0000648c       CoreCreateEventInternal    000000000001748c f   DxeCore:Event.obj
 0001:00006810       CoreSignalEvent            0000000000017810 f   DxeCore:Event.obj
 0001:000068cc       CoreCheckEvent             00000000000178cc f   DxeCore:Event.obj
 0001:000069bc       CoreWaitForEvent           00000000000179bc f   DxeCore:Event.obj
 0001:00006a94       CoreCloseEvent             0000000000017a94 f   DxeCore:Event.obj
 0001:00006c1c       CoreInsertEventTimer       0000000000017c1c f   DxeCore:Timer.obj
 0001:00006d88       CoreCurrentSystemTime      0000000000017d88 f   DxeCore:Timer.obj
 0001:00006dbc       CoreCheckTimers            0000000000017dbc f   DxeCore:Timer.obj
 0001:00006f4c       CoreInitializeTimer        0000000000017f4c f   DxeCore:Timer.obj
 0001:00007004       CoreTimerTick              0000000000018004 f   DxeCore:Timer.obj
 0001:00007108       CoreSetTimer               0000000000018108 f   DxeCore:Timer.obj
 0001:00007264       CoreSetInterruptState      0000000000018264 f   DxeCore:Tpl.obj
 0001:000072fc       CoreRaiseTpl               00000000000182fc f   DxeCore:Tpl.obj
 0001:000073f4       CoreRestoreTpl             00000000000183f4 f   DxeCore:Tpl.obj
 0001:00007550       ReadFvbData                0000000000018550 f   DxeCore:FwVol.obj
 0001:00007814       GetFwVolHeader             0000000000018814 f   DxeCore:FwVol.obj
 0001:000079d4       FreeFvDeviceResource       00000000000189d4 f   DxeCore:FwVol.obj
 0001:00007a90       FvCheck                    0000000000018a90 f   DxeCore:FwVol.obj
 0001:000082ac       NotifyFwVolBlock           00000000000192ac f   DxeCore:FwVol.obj
 0001:00008624       FwVolDriverInit            0000000000019624 f   DxeCore:FwVol.obj
 0001:00008668       GetFileState               0000000000019668 f   DxeCore:Ffs.obj
 0001:000086c4       IsBufferErased             00000000000196c4 f   DxeCore:Ffs.obj
 0001:00008740       VerifyFvHeaderChecksum     0000000000019740 f   DxeCore:Ffs.obj
 0001:0000877c       VerifyHeaderChecksum       000000000001977c f   DxeCore:Ffs.obj
 0001:000087f4       IsValidFfsHeader           00000000000197f4 f   DxeCore:Ffs.obj
 0001:00008868       IsValidFfsFile             0000000000019868 f   DxeCore:Ffs.obj
 0001:00008974       FvGetVolumeAttributes      0000000000019974 f   DxeCore:FwVolAttrib.obj
 0001:00008a44       InitializeSeparateExceptionStacks 0000000000019a44 f   CpuExceptionHandlerLibNull:CpuExceptionHandlerLibNull.obj
 0001:00008a44       FwVolBlockSetAttributes    0000000000019a44 f   DxeCore:FwVolBlock.obj
 0001:00008a44       FvSetVolumeAttributes      0000000000019a44 f   DxeCore:FwVolAttrib.obj
 0001:00008a5c       FvGetVolumeInfo            0000000000019a5c f   DxeCore:FwVolAttrib.obj
 0001:00008a5c       PeCoffLoaderRelocateImageEx 0000000000019a5c f   BasePeCoffLib:PeCoffLoaderEx.obj
 0001:00008a5c       FvSetVolumeInfo            0000000000019a5c f   DxeCore:FwVolAttrib.obj
 0001:00008a5c       FwVolBlockWriteBlock       0000000000019a5c f   DxeCore:FwVolBlock.obj
 0001:00008a7c       FfsAttributes2FvFileAttributes 0000000000019a7c f   DxeCore:FwVolRead.obj
 0001:00008b20       FvGetNextFile              0000000000019b20 f   DxeCore:FwVolRead.obj
 0001:00008de8       FvReadFile                 0000000000019de8 f   DxeCore:FwVolRead.obj
 0001:000091c4       FvReadFileSection          000000000001a1c4 f   DxeCore:FwVolRead.obj
 0001:00009484       MemoryProfileLibRecord     000000000001a484 f   DxeCoreMemoryAllocationLib:DxeCoreMemoryProfileLibNull.obj
 0001:00009484       FvWriteFile                000000000001a484 f   DxeCore:FwVolWrite.obj
 0001:000094a4       FwVolBlockGetAttributes    000000000001a4a4 f   DxeCore:FwVolBlock.obj
 0001:00009548       FwVolBlockEraseBlock       000000000001a548 f   DxeCore:FwVolBlock.obj
 0001:00009568       FwVolBlockReadBlock        000000000001a568 f   DxeCore:FwVolBlock.obj
 0001:0000977c       FwVolBlockGetPhysicalAddress 000000000001a77c f   DxeCore:FwVolBlock.obj
 0001:0000983c       FwVolBlockGetBlockSize     000000000001a83c f   DxeCore:FwVolBlock.obj
 0001:0000998c       GetFvbAuthenticationStatus 000000000001a98c f   DxeCore:FwVolBlock.obj
 0001:000099cc       ProduceFVBProtocolOnBuffer 000000000001a9cc f   DxeCore:FwVolBlock.obj
 0001:00009e5c       FwVolBlockDriverInit       000000000001ae5c f   DxeCore:FwVolBlock.obj
 0001:00009f60       CoreProcessFirmwareVolume  000000000001af60 f   DxeCore:FwVolBlock.obj
 0001:0000a4f4       FindGuardedMemoryMap       000000000001b4f4 f   DxeCore:HeapGuard.obj
 0001:0000a908       SetGuardedMemoryBits       000000000001b908 f   DxeCore:HeapGuard.obj
 0001:0000a9d8       ClearGuardedMemoryBits     000000000001b9d8 f   DxeCore:HeapGuard.obj
 0001:0000aaa8       GetGuardedMemoryBits       000000000001baa8 f   DxeCore:HeapGuard.obj
 0001:0000abcc       GetGuardMapBit             000000000001bbcc f   DxeCore:HeapGuard.obj
 0001:0000ac28       IsGuardPage                000000000001bc28 f   DxeCore:HeapGuard.obj
 0001:0000ac84       IsMemoryGuarded            000000000001bc84 f   DxeCore:HeapGuard.obj
 0001:0000acb8       SetGuardPage               000000000001bcb8 f   DxeCore:HeapGuard.obj
 0001:0000ad84       UnsetGuardPage             000000000001bd84 f   DxeCore:HeapGuard.obj
 0001:0000ae7c       IsMemoryTypeToGuard        000000000001be7c f   DxeCore:HeapGuard.obj
 0001:0000af90       IsPoolTypeToGuard          000000000001bf90 f   DxeCore:HeapGuard.obj
 0001:0000afac       IsPageTypeToGuard          000000000001bfac f   DxeCore:HeapGuard.obj
 0001:0000afd0       IsHeapGuardEnabled         000000000001bfd0 f   DxeCore:HeapGuard.obj
 0001:0000aff0       SetGuardForMemory          000000000001bff0 f   DxeCore:HeapGuard.obj
 0001:0000b074       UnsetGuardForMemory        000000000001c074 f   DxeCore:HeapGuard.obj
 0001:0000b16c       AdjustMemoryS              000000000001c16c f   DxeCore:HeapGuard.obj
 0001:0000b288       AdjustMemoryF              000000000001c288 f   DxeCore:HeapGuard.obj
 0001:0000b3d8       AdjustMemoryA              000000000001c3d8 f   DxeCore:HeapGuard.obj
 0001:0000b468       AdjustPoolHeadA            000000000001c468 f   DxeCore:HeapGuard.obj
 0001:0000b4d0       AdjustPoolHeadF            000000000001c4d0 f   DxeCore:HeapGuard.obj
 0001:0000b51c       CoreConvertPagesWithGuard  000000000001c51c f   DxeCore:HeapGuard.obj
 0001:0000b5a0       SetAllGuardPages           000000000001c5a0 f   DxeCore:HeapGuard.obj
 0001:0000b8e8       GetLastGuardedFreePageAddress 000000000001c8e8 f   DxeCore:HeapGuard.obj
 0001:0000ba3c       MarkFreedPages             000000000001ca3c f   DxeCore:HeapGuard.obj
 0001:0000ba60       GuardFreedPages            000000000001ca60 f   DxeCore:HeapGuard.obj
 0001:0000bb30       GuardFreedPagesChecked     000000000001cb30 f   DxeCore:HeapGuard.obj
 0001:0000bb60       GuardAllFreedPages         000000000001cb60 f   DxeCore:HeapGuard.obj
 0001:0000bea8       MergeGuardPages            000000000001cea8 f   DxeCore:HeapGuard.obj
 0001:0000bfe0       PromoteGuardedFreePages    000000000001cfe0 f   DxeCore:HeapGuard.obj
 0001:0000c25c       HeapGuardCpuArchProtocolNotify 000000000001d25c f   DxeCore:HeapGuard.obj
 0001:0000c31c       Uint64ToBinString          000000000001d31c f   DxeCore:HeapGuard.obj
 0001:0000c3a4       DumpGuardedMemoryBitmap    000000000001d3a4 f   DxeCore:HeapGuard.obj
 0001:0000c85c       CoreAcquireMemoryProfileLock 000000000001d85c f   DxeCore:MemoryProfileRecord.obj
 0001:0000c874       CoreReleaseMemoryProfileLock 000000000001d874 f   DxeCore:MemoryProfileRecord.obj
 0001:0000c88c       GetMemoryProfileContext    000000000001d88c f   DxeCore:MemoryProfileRecord.obj
 0001:0000c894       InternalPeCoffGetSubsystem 000000000001d894 f   DxeCore:MemoryProfileRecord.obj
 0001:0000c984       InternalPeCoffGetEntryPoint 000000000001d984 f   DxeCore:MemoryProfileRecord.obj
 0001:0000cab0       BuildDriverInfo            000000000001dab0 f   DxeCore:MemoryProfileRecord.obj
 0001:0000ce94       NeedRecordThisDriver       000000000001de94 f   DxeCore:MemoryProfileRecord.obj
 0001:0000cf98       RegisterDxeCore            000000000001df98 f   DxeCore:MemoryProfileRecord.obj
 0001:0000d148       MemoryProfileInit          000000000001e148 f   DxeCore:MemoryProfileRecord.obj
 0001:0000d22c       MemoryProfileInstallProtocol 000000000001e22c f   DxeCore:MemoryProfileRecord.obj
 0001:0000d2ec       GetFileNameFromFilePath    000000000001e2ec f   DxeCore:MemoryProfileRecord.obj
 0001:0000d358       RegisterMemoryProfileImage 000000000001e358 f   DxeCore:MemoryProfileRecord.obj
 0001:0000d444       GetMemoryProfileDriverInfoByFileNameAndAddress 000000000001e444 f   DxeCore:MemoryProfileRecord.obj
 0001:0000d57c       GetMemoryProfileDriverInfoFromAddress 000000000001e57c f   DxeCore:MemoryProfileRecord.obj
 0001:0000d694       UnregisterMemoryProfileImage 000000000001e694 f   DxeCore:MemoryProfileRecord.obj
 0001:0000d8e4       CoreNeedRecordProfile      000000000001e8e4 f   DxeCore:MemoryProfileRecord.obj
 0001:0000d960       GetProfileMemoryIndex      000000000001e960 f   DxeCore:MemoryProfileRecord.obj
 0001:0000d990       CoreUpdateProfileAllocate  000000000001e990 f   DxeCore:MemoryProfileRecord.obj
 0001:0000ddd4       GetMemoryProfileAllocInfoFromAddress 000000000001edd4 f   DxeCore:MemoryProfileRecord.obj
 0001:0000df80       CoreUpdateProfileFree      000000000001ef80 f   DxeCore:MemoryProfileRecord.obj
 0001:0000e52c       CoreUpdateProfile          000000000001f52c f   DxeCore:MemoryProfileRecord.obj
 0001:0000e724       MemoryProfileGetDataSize   000000000001f724 f   DxeCore:MemoryProfileRecord.obj
 0001:0000e90c       MemoryProfileCopyData      000000000001f90c f   DxeCore:MemoryProfileRecord.obj
 0001:0000ec20       ProfileProtocolGetData     000000000001fc20 f   DxeCore:MemoryProfileRecord.obj
 0001:0000ecc8       ProfileProtocolRegisterImage 000000000001fcc8 f   DxeCore:MemoryProfileRecord.obj
 0001:0000edec       ProfileProtocolUnregisterImage 000000000001fdec f   DxeCore:MemoryProfileRecord.obj
 0001:0000eef4       ProfileProtocolGetRecordingState 000000000001fef4 f   DxeCore:MemoryProfileRecord.obj
 0001:0000ef48       ProfileProtocolSetRecordingState 000000000001ff48 f   DxeCore:MemoryProfileRecord.obj
 0001:0000ef84       ProfileProtocolRecord      000000000001ff84 f   DxeCore:MemoryProfileRecord.obj
 0001:0000efd0       CoreAcquireMemoryLock      000000000001ffd0 f   DxeCore:Page.obj
 0001:0000efe8       CoreReleaseMemoryLock      000000000001ffe8 f   DxeCore:Page.obj
 0001:0000f000       RemoveMemoryMapEntry       0000000000020000 f   DxeCore:Page.obj
 0001:0000f054       CoreAddRange               0000000000020054 f   DxeCore:Page.obj
 0001:0000f424       AllocateMemoryMapEntry     0000000000020424 f   DxeCore:Page.obj
 0001:0000f560       CoreFreeMemoryMapStack     0000000000020560 f   DxeCore:Page.obj
 0001:0000f7e4       PromoteMemoryResource      00000000000207e4 f   DxeCore:Page.obj
 0001:0000fa50       CoreLoadingFixedAddressHook 0000000000020a50 f   DxeCore:Page.obj
 0001:0000fb30       CoreSetMemoryTypeInformationRange 0000000000020b30 f   DxeCore:Page.obj
 0001:0000fe3c       CoreAddMemoryDescriptor    0000000000020e3c f   DxeCore:Page.obj
 0001:00010344       CoreConvertPagesEx         0000000000021344 f   DxeCore:Page.obj
 0001:00010e88       CoreConvertPages           0000000000021e88 f   DxeCore:Page.obj
 0001:00010ec8       CoreUpdateMemoryAttributes 0000000000021ec8 f   DxeCore:Page.obj
 0001:00010f10       CoreFindFreePagesI         0000000000021f10 f   DxeCore:Page.obj
 0001:000111f4       FindFreePages              00000000000221f4 f   DxeCore:Page.obj
 0001:000113bc       CoreInternalAllocatePages  00000000000223bc f   DxeCore:Page.obj
 0001:000118e0       CoreAllocatePages          00000000000228e0 f   DxeCore:Page.obj
 0001:000119d0       CoreInternalFreePages      00000000000229d0 f   DxeCore:Page.obj
 0001:00011cf8       CoreFreePages              0000000000022cf8 f   DxeCore:Page.obj
 0001:00011e7c       MergeMemoryMapDescriptor   0000000000022e7c f   DxeCore:Page.obj
 0001:00011fa4       CoreGetMemoryMap           0000000000022fa4 f   DxeCore:Page.obj
 0001:00012ba8       CoreAllocatePoolPages      0000000000023ba8 f   DxeCore:Page.obj
 0001:00012c70       CoreFreePoolPages          0000000000023c70 f   DxeCore:Page.obj
 0001:00012c98       CoreTerminateMemoryMap     0000000000023c98 f   DxeCore:Page.obj
 0001:00012f3c       CoreInitializePool         0000000000023f3c f   DxeCore:Pool.obj
 0001:00013004       LookupPoolHead             0000000000024004 f   DxeCore:Pool.obj
 0001:000131bc       CoreInternalAllocatePool   00000000000241bc f   DxeCore:Pool.obj
 0001:000132f8       CoreAllocatePool           00000000000242f8 f   DxeCore:Pool.obj
 0001:00013420       CoreAllocatePoolI          0000000000024420 f   DxeCore:Pool.obj
 0001:00013d1c       CoreInternalFreePool       0000000000024d1c f   DxeCore:Pool.obj
 0001:00013d74       CoreFreePool               0000000000024d74 f   DxeCore:Pool.obj
 0001:00013ea8       CoreFreePoolI              0000000000024ea8 f   DxeCore:Pool.obj
 0001:00014794       CoreDumpGcdMemorySpaceMap  0000000000025794 f   DxeCore:Gcd.obj
 0001:00014a74       CoreDumpGcdIoSpaceMap      0000000000025a74 f   DxeCore:Gcd.obj
 0001:00014d20       CoreValidateResourceDescriptorHobAttributes 0000000000025d20 f   DxeCore:Gcd.obj
 0001:00014ea0       CoreAcquireGcdMemoryLock   0000000000025ea0 f   DxeCore:Gcd.obj
 0001:00014eb8       CoreReleaseGcdMemoryLock   0000000000025eb8 f   DxeCore:Gcd.obj
 0001:00014ed0       CoreAcquireGcdIoLock       0000000000025ed0 f   DxeCore:Gcd.obj
 0001:00014ee8       CoreReleaseGcdIoLock       0000000000025ee8 f   DxeCore:Gcd.obj
 0001:00014f00       AlignValue                 0000000000025f00 f   DxeCore:Gcd.obj
 0001:00014f60       PageAlignAddress           0000000000025f60 f   DxeCore:Gcd.obj
 0001:00014f80       PageAlignLength            0000000000025f80 f   DxeCore:Gcd.obj
 0001:00014fa0       CoreAllocateGcdMapEntry    0000000000025fa0 f   DxeCore:Gcd.obj
 0001:00015030       CoreInsertGcdMapEntry      0000000000026030 f   DxeCore:Gcd.obj
 0001:000151c0       CoreMergeGcdMapEntry       00000000000261c0 f   DxeCore:Gcd.obj
 0001:00015418       CoreCleanupGcdMapEntry     0000000000026418 f   DxeCore:Gcd.obj
 0001:000154ac       CoreSearchGcdMapEntry      00000000000264ac f   DxeCore:Gcd.obj
 0001:00015644       CoreCountGcdMapEntry       0000000000026644 f   DxeCore:Gcd.obj
 0001:00015694       ConverToCpuArchAttributes  0000000000026694 f   DxeCore:Gcd.obj
 0001:0001576c       CoreConvertSpace           000000000002676c f   DxeCore:Gcd.obj
 0001:000160dc       CoreAllocateSpaceCheckEntry 00000000000270dc f   DxeCore:Gcd.obj
 0001:00016170       CoreAllocateSpace          0000000000027170 f   DxeCore:Gcd.obj
 0001:00016e70       CoreInternalAddMemorySpace 0000000000027e70 f   DxeCore:Gcd.obj
 0001:00016fc0       CoreAllocateMemorySpace    0000000000027fc0 f   DxeCore:Gcd.obj
 0001:00017268       CoreAddMemorySpace         0000000000028268 f   DxeCore:Gcd.obj
 0001:00017420       CoreFreeMemorySpace        0000000000028420 f   DxeCore:Gcd.obj
 0001:000174a8       CoreRemoveMemorySpace      00000000000284a8 f   DxeCore:Gcd.obj
 0001:00017530       BuildMemoryDescriptor      0000000000028530 f   DxeCore:Gcd.obj
 0001:000175c8       CoreGetMemorySpaceDescriptor 00000000000285c8 f   DxeCore:Gcd.obj
 0001:00017714       CoreSetMemorySpaceAttributes 0000000000028714 f   DxeCore:Gcd.obj
 0001:000177e0       CoreSetMemorySpaceCapabilities 00000000000287e0 f   DxeCore:Gcd.obj
 0001:000178ac       CoreGetMemorySpaceMap      00000000000288ac f   DxeCore:Gcd.obj
 0001:00017a94       CoreAddIoSpace             0000000000028a94 f   DxeCore:Gcd.obj
 0001:00017ba0       CoreAllocateIoSpace        0000000000028ba0 f   DxeCore:Gcd.obj
 0001:00017e48       CoreFreeIoSpace            0000000000028e48 f   DxeCore:Gcd.obj
 0001:00017ed0       CoreRemoveIoSpace          0000000000028ed0 f   DxeCore:Gcd.obj
 0001:00017f58       BuildIoDescriptor          0000000000028f58 f   DxeCore:Gcd.obj
 0001:00017fcc       CoreGetIoSpaceDescriptor   0000000000028fcc f   DxeCore:Gcd.obj
 0001:00018118       CoreGetIoSpaceMap          0000000000029118 f   DxeCore:Gcd.obj
 0001:00018294       CoreConvertResourceDescriptorHobAttributesToCapabilities 0000000000029294 f   DxeCore:Gcd.obj
 0001:00018324       CalculateTotalMemoryBinSizeNeeded 0000000000029324 f   DxeCore:Gcd.obj
 0001:00018394       FindLargestFreeRegion      0000000000029394 f   DxeCore:Gcd.obj
 0001:00018534       CoreInitializeMemoryServices 0000000000029534 f   DxeCore:Gcd.obj
 0001:00018ce8       CoreInitializeGcdServices  0000000000029ce8 f   DxeCore:Gcd.obj
 0001:00019720       CoreAcquireProtocolLock    000000000002a720 f   DxeCore:Handle.obj
 0001:00019738       CoreReleaseProtocolLock    000000000002a738 f   DxeCore:Handle.obj
 0001:00019788       CoreInitializeHandleServices 000000000002a788 f   DxeCore:Handle.obj
 0001:000197c4       CoreValidateHandle         000000000002a7c4 f   DxeCore:Handle.obj
 0001:00019880       CoreFindProtocolEntry      000000000002a880 f   DxeCore:Handle.obj
 0001:00019a64       CoreFindProtocolInterface  000000000002aa64 f   DxeCore:Handle.obj
 0001:00019bec       IsDevicePathInstalled      000000000002abec f   DxeCore:Handle.obj
 0001:00019dac       CoreUnregisterProtocolNotifyEvent 000000000002adac f   DxeCore:Handle.obj
 0001:00019f60       CoreUnregisterProtocolNotify 000000000002af60 f   DxeCore:Handle.obj
 0001:00019f90       CoreInstallProtocolInterface 000000000002af90 f   DxeCore:Handle.obj
 0001:00019fcc       CoreInstallProtocolInterfaceNotify 000000000002afcc f   DxeCore:Handle.obj
 0001:0001a3d4       CoreInstallMultipleProtocolInterfaces 000000000002b3d4 f   DxeCore:Handle.obj
 0001:0001a5bc       CoreDisconnectControllersUsingProtocolInterface 000000000002b5bc f   DxeCore:Handle.obj
 0001:0001a840       CoreUninstallProtocolInterface 000000000002b840 f   DxeCore:Handle.obj
 0001:0001a9f0       CoreUninstallMultipleProtocolInterfaces 000000000002b9f0 f   DxeCore:Handle.obj
 0001:0001ac58       CoreHandleProtocol         000000000002bc58 f   DxeCore:Handle.obj
 0001:0001ac9c       CoreOpenProtocol           000000000002bc9c f   DxeCore:Handle.obj
 0001:0001b358       CoreCloseProtocol          000000000002c358 f   DxeCore:Handle.obj
 0001:0001b550       CoreOpenProtocolInformation 000000000002c550 f   DxeCore:Handle.obj
 0001:0001b820       CoreProtocolsPerHandle     000000000002c820 f   DxeCore:Handle.obj
 0001:0001ba54       CoreGetHandleDatabaseKey   000000000002ca54 f   DxeCore:Handle.obj
 0001:0001ba5c       CoreConnectHandlesByKey    000000000002ca5c f   DxeCore:Handle.obj
 0001:0001bca8       InternalCoreLocateHandle   000000000002cca8 f   DxeCore:Locate.obj
 0001:0001bfb0       CoreLocateHandle           000000000002cfb0 f   DxeCore:Locate.obj
 0001:0001c004       CoreGetNextLocateAllHandles 000000000002d004 f   DxeCore:Locate.obj
 0001:0001c0e8       CoreGetNextLocateByRegisterNotify 000000000002d0e8 f   DxeCore:Locate.obj
 0001:0001c238       CoreGetNextLocateByProtocol 000000000002d238 f   DxeCore:Locate.obj
 0001:0001c36c       CoreLocateDevicePath       000000000002d36c f   DxeCore:Locate.obj
 0001:0001c634       CoreLocateProtocol         000000000002d634 f   DxeCore:Locate.obj
 0001:0001c7a4       CoreLocateHandleBuffer     000000000002d7a4 f   DxeCore:Locate.obj
 0001:0001c94c       CoreNotifyProtocolEntry    000000000002d94c f   DxeCore:Notify.obj
 0001:0001ca84       CoreRemoveInterfaceFromProtocol 000000000002da84 f   DxeCore:Notify.obj
 0001:0001cc28       CoreRegisterProtocolNotify 000000000002dc28 f   DxeCore:Notify.obj
 0001:0001cd44       CoreReinstallProtocolInterface 000000000002dd44 f   DxeCore:Notify.obj
 0001:0001ced0       CoreConnectController      000000000002ded0 f   DxeCore:DriverSupport.obj
 0001:0001d5e8       AddSortedDriverBindingProtocol 000000000002e5e8 f   DxeCore:DriverSupport.obj
 0001:0001d814       CoreConnectSingleController 000000000002e814 f   DxeCore:DriverSupport.obj
 0001:0001e054       CoreDisconnectController   000000000002f054 f   DxeCore:DriverSupport.obj
 0001:0001ec1c       CoreAcquireLockOrFail      000000000002fc1c f   DxeCore:Library.obj
 0001:0001eccc       CoreAcquireLock            000000000002fccc f   DxeCore:Library.obj
 0001:0001ed64       CoreReleaseLock            000000000002fd64 f   DxeCore:Library.obj
 0001:0001ee00       GetImageType               000000000002fe00 f   DxeCore:MemoryProtection.obj
 0001:0001eebc       GetProtectionPolicyFromImageType 000000000002febc f   DxeCore:MemoryProtection.obj
 0001:0001eee0       GetUefiImageProtectionPolicy 000000000002fee0 f   DxeCore:MemoryProtection.obj
 0001:0001ef5c       SetUefiImageMemoryAttributes 000000000002ff5c f   DxeCore:MemoryProtection.obj
 0001:0001f518       SetUefiImageProtectionAttributes 0000000000030518 f   DxeCore:MemoryProtection.obj
 0001:0001f7e8       ProtectUefiImage           00000000000307e8 f   DxeCore:MemoryProtection.obj
 0001:0001fa00       UnprotectUefiImage         0000000000030a00 f   DxeCore:MemoryProtection.obj
 0001:000205a0       MemoryProtectionCpuArchProtocolNotify 00000000000315a0 f   DxeCore:MemoryProtection.obj
 0001:00020764       MemoryProtectionExitBootServicesCallback 0000000000031764 f   DxeCore:MemoryProtection.obj
 0001:000207e8       DisableNullDetectionAtTheEndOfDxe 00000000000317e8 f   DxeCore:MemoryProtection.obj
 0001:00020a54       MemoryAttributeProtocolNotify 0000000000031a54 f   DxeCore:MemoryProtection.obj
 0001:00020aec       CoreInitializeMemoryProtection 0000000000031aec f   DxeCore:MemoryProtection.obj
 0001:00021034       ApplyMemoryProtectionPolicy 0000000000032034 f   DxeCore:MemoryProtection.obj
 0001:00021170       InstallMemoryAttributesTable 0000000000032170 f   DxeCore:MemoryAttributesTable.obj
 0001:00021918       InstallMemoryAttributesTableOnMemoryAllocation 0000000000032918 f   DxeCore:MemoryAttributesTable.obj
 0001:00021944       InstallMemoryAttributesTableOnReadyToBoot 0000000000032944 f   DxeCore:MemoryAttributesTable.obj
 0001:00021964       InstallMemoryAttributesTableOnEndOfDxe 0000000000032964 f   DxeCore:MemoryAttributesTable.obj
 0001:00021a38       CoreInitializeMemoryAttributesTable 0000000000032a38 f   DxeCore:MemoryAttributesTable.obj
 0001:00021bd0       MergeMemoryMap             0000000000032bd0 f   DxeCore:MemoryAttributesTable.obj
 0001:00021e24       CoreGetMemoryMapWithSeparatedImageSection 0000000000032e24 f   DxeCore:MemoryAttributesTable.obj
 0001:00022010       InsertImageRecord          0000000000033010 f   DxeCore:MemoryAttributesTable.obj
 0001:0002232c       RemoveImageRecord          000000000003332c f   DxeCore:MemoryAttributesTable.obj
 0001:00022490       CoreInstallConfigurationTable 0000000000033490 f   DxeCore:InstallConfigurationTable.obj
 0001:00022718       CoreSetWatchdogTimer       0000000000033718 f   DxeCore:SetWatchdogTimer.obj
 0001:00022794       CoreInternalWaitForTick    0000000000033794 f   DxeCore:Stall.obj
 0001:000227f8       CoreStall                  00000000000337f8 f   DxeCore:Stall.obj
 0001:000228d8       CoreInitializeDebugImageInfoTable 00000000000338d8 f   DxeCore:DebugImageInfo.obj
 0001:00022d20       CoreUpdateDebugTableCrc32  0000000000033d20 f   DxeCore:DebugImageInfo.obj
 0001:00022d94       CoreNewDebugImageInfoEntry 0000000000033d94 f   DxeCore:DebugImageInfo.obj
 0001:00022f08       CoreRemoveDebugImageInfoEntry 0000000000033f08 f   DxeCore:DebugImageInfo.obj
 0001:00023008       GetMachineTypeName         0000000000034008 f   DxeCore:Image.obj
 0001:00023198       CoreInitializeImageServices 0000000000034198 f   DxeCore:Image.obj
 0001:00023560       CoreReadImageFile          0000000000034560 f   DxeCore:Image.obj
 0001:00023690       CheckAndMarkFixLoadingMemoryUsageBitMap 0000000000034690 f   DxeCore:Image.obj
 0001:00023940       GetPeCoffImageFixLoadingAssignedAddress 0000000000034940 f   DxeCore:Image.obj
 0001:00023c5c       CoreLoadPeImage            0000000000034c5c f   DxeCore:Image.obj
 0001:0002491c       CoreLoadedImageInfo        000000000003591c f   DxeCore:Image.obj
 0001:00024a20       CoreUnloadAndCloseImage    0000000000035a20 f   DxeCore:Image.obj
 0001:00024e88       CoreLoadImageCommon        0000000000035e88 f   DxeCore:Image.obj
 0001:000257bc       CoreLoadImage              00000000000367bc f   DxeCore:Image.obj
 0001:000258c8       CoreStartImage             00000000000368c8 f   DxeCore:Image.obj
 0001:00025fa4       CoreExit                   0000000000036fa4 f   DxeCore:Image.obj
 0001:0002617c       CoreUnloadImage            000000000003717c f   DxeCore:Image.obj
 0001:00026220       InitializeSectionExtraction 0000000000037220 f   DxeCore:CoreSectionExtraction.obj
 0001:00026324       IsValidSectionStream       0000000000037324 f   DxeCore:CoreSectionExtraction.obj
 0001:000264b4       OpenSectionStreamEx        00000000000374b4 f   DxeCore:CoreSectionExtraction.obj
 0001:00026600       OpenSectionStream          0000000000037600 f   DxeCore:CoreSectionExtraction.obj
 0001:0002665c       ChildIsType                000000000003765c f   DxeCore:CoreSectionExtraction.obj
 0001:00026748       VerifyGuidedSectionGuid    0000000000037748 f   DxeCore:CoreSectionExtraction.obj
 0001:000267dc       NotifyGuidedExtraction     00000000000377dc f   DxeCore:CoreSectionExtraction.obj
 0001:00026a2c       CreateGuidedExtractionRpnEvent 0000000000037a2c f   DxeCore:CoreSectionExtraction.obj
 0001:00026ad8       CreateChildNode            0000000000037ad8 f   DxeCore:CoreSectionExtraction.obj
 0001:0002745c       FindChildNode              000000000003845c f   DxeCore:CoreSectionExtraction.obj
 0001:00027a54       FindStreamNode             0000000000038a54 f   DxeCore:CoreSectionExtraction.obj
 0001:00027c3c       GetSection                 0000000000038c3c f   DxeCore:CoreSectionExtraction.obj
 0001:00028004       FreeChildNode              0000000000039004 f   DxeCore:CoreSectionExtraction.obj
 0001:000280a0       CloseSectionStream         00000000000390a0 f   DxeCore:CoreSectionExtraction.obj
 0001:00028200       CustomGuidedSectionExtract 0000000000039200 f   DxeCore:CoreSectionExtraction.obj
 0001:00028414       ReadUnaligned16            0000000000039414 f   BaseLib:Unaligned.obj
 0001:0002845c       WriteUnaligned16           000000000003945c f   BaseLib:Unaligned.obj
 0001:000284b4       ReadUnaligned32            00000000000394b4 f   BaseLib:Unaligned.obj
 0001:000284fc       ReadUnaligned64            00000000000394fc f   BaseLib:Unaligned.obj
 0001:00028544       WriteUnaligned64           0000000000039544 f   BaseLib:Unaligned.obj
 0001:0002859c       InternalMathLShiftU64      000000000003959c f   BaseLib:Math64.obj
 0001:000285b8       InternalMathRShiftU64      00000000000395b8 f   BaseLib:Math64.obj
 0001:000285d4       InternalMathMultU64x32     00000000000395d4 f   BaseLib:Math64.obj
 0001:000285f0       InternalMathDivRemU64x32   00000000000395f0 f   BaseLib:Math64.obj
 0001:00028648       CpuBreakpoint              0000000000039648 f   BaseLib:CpuBreakpoint.obj
 0001:0002864c       AsciiStrLen                000000000003964c f   BaseLib:String.obj
 0001:00028704       AsciiStrSize               0000000000039704 f   BaseLib:String.obj
 0001:00028720       StrnLenS                   0000000000039720 f   BaseLib:SafeString.obj
 0001:000287c4       AsciiStrnLenS              00000000000397c4 f   BaseLib:SafeString.obj
 0001:00028830       InternalBaseLibIsListValid 0000000000039830 f   BaseLib:LinkedList.obj
 0001:0002894c       IsNodeInList               000000000003994c f   BaseLib:LinkedList.obj
 0001:00028a4c       InitializeListHead         0000000000039a4c f   BaseLib:LinkedList.obj
 0001:00028aac       InsertHeadList             0000000000039aac f   BaseLib:LinkedList.obj
 0001:00028b94       InsertTailList             0000000000039b94 f   BaseLib:LinkedList.obj
 0001:00028c7c       GetFirstNode               0000000000039c7c f   BaseLib:LinkedList.obj
 0001:00028cd0       GetNextNode                0000000000039cd0 f   BaseLib:LinkedList.obj
 0001:00028d80       IsListEmpty                0000000000039d80 f   BaseLib:LinkedList.obj
 0001:00028de8       IsNull                     0000000000039de8 f   BaseLib:LinkedList.obj
 0001:00028eac       IsNodeAtEnd                0000000000039eac f   BaseLib:LinkedList.obj
 0001:00028f88       SwapListEntries            0000000000039f88 f   BaseLib:LinkedList.obj
 0001:000290b0       RemoveEntryList            000000000003a0b0 f   BaseLib:LinkedList.obj
 0001:0002912c       CpuDeadLoop                000000000003a12c f   BaseLib:CpuDeadLoop.obj
 0001:0002915c       DivU64x32Remainder         000000000003a15c f   BaseLib:DivU64x32Remainder.obj
 0001:000291b8       HighBitSet32               000000000003a1b8 f   BaseLib:HighBitSet32.obj
 0001:00029204       HighBitSet64               000000000003a204 f   BaseLib:HighBitSet64.obj
 0001:00029264       LShiftU64                  000000000003a264 f   BaseLib:LShiftU64.obj
 0001:000292b8       MultU64x32                 000000000003a2b8 f   BaseLib:MultU64x32.obj
 0001:000292e4       RShiftU64                  000000000003a2e4 f   BaseLib:RShiftU64.obj
 0001:00029338       InternalAssertJumpBuffer   000000000003a338 f   BaseLib:SetJump.obj
 0001:000293b0       LongJump                   000000000003a3b0 f   BaseLib:LongJump.obj
 0001:00029410       CalculateSum8              000000000003a410 f   BaseLib:CheckSum.obj
 0001:000294e4       CalculateCheckSum8         000000000003a4e4 f   BaseLib:CheckSum.obj
 0001:00029518       CalculateSum16             000000000003a518 f   BaseLib:CheckSum.obj
 0001:00029670       InternalMemCopyMem         000000000003a670 f   BaseMemoryLib:CopyMem.obj
 0001:00029c4c       CopyGuid                   000000000003ac4c f   BaseMemoryLib:MemLibGuid.obj
 0001:00029ca0       CompareGuid                000000000003aca0 f   BaseMemoryLib:MemLibGuid.obj
 0001:00029d28       IsZeroGuid                 000000000003ad28 f   BaseMemoryLib:MemLibGuid.obj
 0001:00029d7c       InternalMemSetMem16        000000000003ad7c f   BaseMemoryLib:MemLibGeneric.obj
 0001:00029dc0       InternalMemSetMem64        000000000003adc0 f   BaseMemoryLib:MemLibGeneric.obj
 0001:00029e04       InternalMemZeroMem         000000000003ae04 f   BaseMemoryLib:MemLibGeneric.obj
 0001:00029e2c       InternalMemCompareMem      000000000003ae2c f   BaseMemoryLib:MemLibGeneric.obj
 0001:00029e94       CopyMem                    000000000003ae94 f   BaseMemoryLib:CopyMemWrapper.obj
 0001:00029f6c       SetMem                     000000000003af6c f   BaseMemoryLib:SetMemWrapper.obj
 0001:00029fec       SetMem16                   000000000003afec f   BaseMemoryLib:SetMem16Wrapper.obj
 0001:0002a120       SetMem64                   000000000003b120 f   BaseMemoryLib:SetMem64Wrapper.obj
 0001:0002a250       CompareMem                 000000000003b250 f   BaseMemoryLib:CompareMemWrapper.obj
 0001:0002a384       ZeroMem                    000000000003b384 f   BaseMemoryLib:ZeroMemWrapper.obj
 0001:0002a42c       InternalMemSetMem          000000000003b42c f   BaseMemoryLib:SetMem.obj
 0001:0002a5c0       GetDebugPrintErrorLevel    000000000003b5c0 f   BaseDebugPrintErrorLevelLib:BaseDebugPrintErrorLevelLib.obj
 0001:0002a5c8       SerialPortInitialize       000000000003b5c8 f   DxeEmuStdErrSerialPortLib:DxeEmuStdErrSerialPortLib.obj
 0001:0002a5cc       SerialPortWrite            000000000003b5cc f   DxeEmuStdErrSerialPortLib:DxeEmuStdErrSerialPortLib.obj
 0001:0002a604       AsciiVSPrint               000000000003b604 f   BasePrintLib:PrintLib.obj
 0001:0002a64c       AsciiBSPrint               000000000003b64c f   BasePrintLib:PrintLib.obj
 0001:0002a698       AsciiSPrint                000000000003b698 f   BasePrintLib:PrintLib.obj
 0001:0002a6ec       BasePrintLibFillBuffer     000000000003b6ec f   BasePrintLib:PrintLibInternal.obj
 0001:0002a778       BasePrintLibValueToString  000000000003b778 f   BasePrintLib:PrintLibInternal.obj
 0001:0002a7e0       BasePrintLibSPrintMarker   000000000003b7e0 f   BasePrintLib:PrintLibInternal.obj
 0001:0002c8fc       BasePrintLibSPrint         000000000003d8fc f   BasePrintLib:PrintLibInternal.obj
 0001:0002c964       BaseDebugLibSerialPortConstructor 000000000003d964 f   BaseDebugLibSerialPort:DebugLib.obj
 0001:0002c974       DebugPrint                 000000000003d974 f   BaseDebugLibSerialPort:DebugLib.obj
 0001:0002c9b8       DebugPrintMarker           000000000003d9b8 f   BaseDebugLibSerialPort:DebugLib.obj
 0001:0002cab0       DebugVPrint                000000000003dab0 f   BaseDebugLibSerialPort:DebugLib.obj
 0001:0002cae0       DebugAssert                000000000003dae0 f   BaseDebugLibSerialPort:DebugLib.obj
 0001:0002cba4       DebugClearMemory           000000000003dba4 f   BaseDebugLibSerialPort:DebugLib.obj
 0001:0002cc00       DebugAssertEnabled         000000000003dc00 f   BaseDebugLibSerialPort:DebugLib.obj
 0001:0002cc24       DebugPrintEnabled          000000000003dc24 f   BaseDebugLibSerialPort:DebugLib.obj
 0001:0002cc48       DebugCodeEnabled           000000000003dc48 f   BaseDebugLibSerialPort:DebugLib.obj
 0001:0002cc6c       DebugClearMemoryEnabled    000000000003dc6c f   BaseDebugLibSerialPort:DebugLib.obj
 0001:0002cc90       DebugPrintLevelEnabled     000000000003dc90 f   BaseDebugLibSerialPort:DebugLib.obj
 0001:0002ccc4       _ModuleEntryPoint          000000000003dcc4 f   DxeCoreEntryPoint:DxeCoreEntryPoint.obj
 0001:0002cd20       GetHobList                 000000000003dd20 f   DxeCoreHobLib:HobLib.obj
 0001:0002cd64       GetNextHob                 000000000003dd64 f   DxeCoreHobLib:HobLib.obj
 0001:0002cdf8       GetFirstHob                000000000003ddf8 f   DxeCoreHobLib:HobLib.obj
 0001:0002ce20       GetNextGuidHob             000000000003de20 f   DxeCoreHobLib:HobLib.obj
 0001:0002ce98       GetFirstGuidHob            000000000003de98 f   DxeCoreHobLib:HobLib.obj
 0001:0002cec0       DxeEmuLibConstructor       000000000003dec0 f   DxeEmuLib:DxeEmuLib.obj
 0001:0002cf5c       InternalAllocateAlignedPages 000000000003df5c f   DxeCoreMemoryAllocationLib:MemoryAllocationLib.obj
 0001:0002d2b0       AllocateAlignedPages       000000000003e2b0 f   DxeCoreMemoryAllocationLib:MemoryAllocationLib.obj
 0001:0002d31c       FreeAlignedPages           000000000003e31c f   DxeCoreMemoryAllocationLib:MemoryAllocationLib.obj
 0001:0002d3f0       InternalAllocatePool       000000000003e3f0 f   DxeCoreMemoryAllocationLib:MemoryAllocationLib.obj
 0001:0002d444       AllocatePool               000000000003e444 f   DxeCoreMemoryAllocationLib:MemoryAllocationLib.obj
 0001:0002d4a4       AllocateRuntimePool        000000000003e4a4 f   DxeCoreMemoryAllocationLib:MemoryAllocationLib.obj
 0001:0002d504       InternalAllocateZeroPool   000000000003e504 f   DxeCoreMemoryAllocationLib:MemoryAllocationLib.obj
 0001:0002d54c       AllocateZeroPool           000000000003e54c f   DxeCoreMemoryAllocationLib:MemoryAllocationLib.obj
 0001:0002d5ac       AllocateRuntimeZeroPool    000000000003e5ac f   DxeCoreMemoryAllocationLib:MemoryAllocationLib.obj
 0001:0002d60c       InternalAllocateCopyPool   000000000003e60c f   DxeCoreMemoryAllocationLib:MemoryAllocationLib.obj
 0001:0002d6d0       AllocateCopyPool           000000000003e6d0 f   DxeCoreMemoryAllocationLib:MemoryAllocationLib.obj
 0001:0002d73c       AllocateRuntimeCopyPool    000000000003e73c f   DxeCoreMemoryAllocationLib:MemoryAllocationLib.obj
 0001:0002d7a8       InternalReallocatePool     000000000003e7a8 f   DxeCoreMemoryAllocationLib:MemoryAllocationLib.obj
 0001:0002d82c       ReallocatePool             000000000003e82c f   DxeCoreMemoryAllocationLib:MemoryAllocationLib.obj
 0001:0002d8a0       FreePool                   000000000003e8a0 f   DxeCoreMemoryAllocationLib:MemoryAllocationLib.obj
 0001:0002d938       UefiRuntimeServicesTableLibConstructor 000000000003e938 f   UefiRuntimeServicesTableLib:UefiRuntimeServicesTableLib.obj
 0001:0002d994       GetDevicePathSize          000000000003e994 f   UefiDevicePathLib:UefiDevicePathLib.obj
 0001:0002d9ac       DuplicateDevicePath        000000000003e9ac f   UefiDevicePathLib:UefiDevicePathLib.obj
 0001:0002d9c4       AppendDevicePath           000000000003e9c4 f   UefiDevicePathLib:UefiDevicePathLib.obj
 0001:0002d9e8       DevicePathFromHandle       000000000003e9e8 f   UefiDevicePathLib:DevicePathUtilitiesDxeSmm.obj
 0001:0002da38       IsDevicePathValid          000000000003ea38 f   UefiDevicePathLib:DevicePathUtilities.obj
 0001:0002dba4       DevicePathType             000000000003eba4 f   UefiDevicePathLib:DevicePathUtilities.obj
 0001:0002dbec       DevicePathSubType          000000000003ebec f   UefiDevicePathLib:DevicePathUtilities.obj
 0001:0002dc34       DevicePathNodeLength       000000000003ec34 f   UefiDevicePathLib:DevicePathUtilities.obj
 0001:0002dc94       NextDevicePathNode         000000000003ec94 f   UefiDevicePathLib:DevicePathUtilities.obj
 0001:0002dcec       IsDevicePathEndType        000000000003ecec f   UefiDevicePathLib:DevicePathUtilities.obj
 0001:0002dd50       IsDevicePathEnd            000000000003ed50 f   UefiDevicePathLib:DevicePathUtilities.obj
 0001:0002ddc8       IsDevicePathEndInstance    000000000003edc8 f   UefiDevicePathLib:DevicePathUtilities.obj
 0001:0002de3c       SetDevicePathNodeLength    000000000003ee3c f   UefiDevicePathLib:DevicePathUtilities.obj
 0001:0002dee0       SetDevicePathEndNode       000000000003eee0 f   UefiDevicePathLib:DevicePathUtilities.obj
 0001:0002df38       UefiDevicePathLibGetDevicePathSize 000000000003ef38 f   UefiDevicePathLib:DevicePathUtilities.obj
 0001:0002dfc0       UefiDevicePathLibDuplicateDevicePath 000000000003efc0 f   UefiDevicePathLib:DevicePathUtilities.obj
 0001:0002dff8       UefiDevicePathLibAppendDevicePath 000000000003eff8 f   UefiDevicePathLib:DevicePathUtilities.obj
 0001:0002e118       UefiBootServicesTableLibConstructor 000000000003f118 f   UefiBootServicesTableLib:UefiBootServicesTableLib.obj
 0001:0002e1f4       SafeUint32Add              000000000003f1f4 f   BaseSafeIntLib:SafeIntLib.obj
 0001:0002e26c       DxeEmuPeCoffLibExtraActionConstructor 000000000003f26c f   DxeEmuPeCoffExtraActionLib:DxeEmuPeCoffExtraActionLib.obj
 0001:0002e308       PeCoffLoaderRelocateImageExtraAction 000000000003f308 f   DxeEmuPeCoffExtraActionLib:DxeEmuPeCoffExtraActionLib.obj
 0001:0002e330       PeCoffLoaderUnloadImageExtraAction 000000000003f330 f   DxeEmuPeCoffExtraActionLib:DxeEmuPeCoffExtraActionLib.obj
 0001:0002e358       UefiLibConstructor         000000000003f358 f   UefiLib:UefiLib.obj
 0001:0002e368       EfiGetSystemConfigurationTable 000000000003f368 f   UefiLib:UefiLib.obj
 0001:0002e474       EfiCreateProtocolNotifyEvent 000000000003f474 f   UefiLib:UefiLib.obj
 0001:0002e680       SzFree                     000000000003f680 f   LzmaDecompressLib:LzmaDecompress.obj
 0001:0002e680       EfiEventEmptyFunction      000000000003f680 f   UefiLib:UefiLib.obj
 0001:0002e68c       EfiGetNameGuidFromFwVolDevicePathNode 000000000003f68c f   UefiLib:UefiNotTiano.obj
 0001:0002e704       EfiInitializeFwVolDevicepathNode 000000000003f704 f   UefiLib:UefiNotTiano.obj
 0001:0002e7b4       PeCoffLoaderGetEntryPoint  000000000003f7b4 f   BasePeCoffGetEntryPointLib:PeCoffGetEntryPoint.obj
 0001:0002e8e0       PeCoffLoaderGetMachineType 000000000003f8e0 f   BasePeCoffGetEntryPointLib:PeCoffGetEntryPoint.obj
 0001:0002e99c       PeCoffLoaderGetPdbPointer  000000000003f99c f   BasePeCoffGetEntryPointLib:PeCoffGetEntryPoint.obj
 0001:0002eccc       PeCoffGetSizeOfHeaders     000000000003fccc f   BasePeCoffGetEntryPointLib:PeCoffGetEntryPoint.obj
 0001:0002eda8       ReallocateExtractHandlerTable 000000000003fda8 f   DxeExtractGuidedSectionLib:DxeExtractGuidedSectionLib.obj
 0001:0002eec4       DxeExtractGuidedSectionLibConstructor 000000000003fec4 f   DxeExtractGuidedSectionLib:DxeExtractGuidedSectionLib.obj
 0001:0002eedc       ExtractGuidedSectionGetGuidList 000000000003fedc f   DxeExtractGuidedSectionLib:DxeExtractGuidedSectionLib.obj
 0001:0002ef34       ExtractGuidedSectionRegisterHandlers 000000000003ff34 f   DxeExtractGuidedSectionLib:DxeExtractGuidedSectionLib.obj
 0001:0002f118       ExtractGuidedSectionGetInfo 0000000000040118 f   DxeExtractGuidedSectionLib:DxeExtractGuidedSectionLib.obj
 0001:0002f2dc       ExtractGuidedSectionDecode 00000000000402dc f   DxeExtractGuidedSectionLib:DxeExtractGuidedSectionLib.obj
 0001:0002f470       InvalidateInstructionCacheRange 0000000000040470 f   BaseCacheMaintenanceLib:X86Cache.obj
 0001:0002f4dc       FillBuf                    00000000000404dc f   BaseUefiDecompressLib:BaseUefiDecompressLib.obj
 0001:0002f624       GetBits                    0000000000040624 f   BaseUefiDecompressLib:BaseUefiDecompressLib.obj
 0001:0002f674       MakeTable                  0000000000040674 f   BaseUefiDecompressLib:BaseUefiDecompressLib.obj
 0001:0002fcec       DecodeP                    0000000000040cec f   BaseUefiDecompressLib:BaseUefiDecompressLib.obj
 0001:0002fdf0       ReadPTLen                  0000000000040df0 f   BaseUefiDecompressLib:BaseUefiDecompressLib.obj
 0001:00030058       ReadCLen                   0000000000041058 f   BaseUefiDecompressLib:BaseUefiDecompressLib.obj
 0001:000302e0       DecodeC                    00000000000412e0 f   BaseUefiDecompressLib:BaseUefiDecompressLib.obj
 0001:00030458       Decode                     0000000000041458 f   BaseUefiDecompressLib:BaseUefiDecompressLib.obj
 0001:000305e0       UefiDecompressGetInfo      00000000000415e0 f   BaseUefiDecompressLib:BaseUefiDecompressLib.obj
 0001:00030700       UefiTianoDecompress        0000000000041700 f   BaseUefiDecompressLib:BaseUefiDecompressLib.obj
 0001:000309b8       UefiDecompress             00000000000419b8 f   BaseUefiDecompressLib:BaseUefiDecompressLib.obj
 0001:000309ec       PerformanceMeasurementEnabled 00000000000419ec f   BasePerformanceLibNull:PerformanceLib.obj
 0001:00030a10       LogPerformanceMeasurement  0000000000041a10 f   BasePerformanceLibNull:PerformanceLib.obj
 0001:00030a28       LogPerformanceMeasurementEnabled 0000000000041a28 f   BasePerformanceLibNull:PerformanceLib.obj
 0001:00030a5c       PeCoffLoaderImageFormatSupported 0000000000041a5c f   BasePeCoffLib:PeCoffLoaderEx.obj
 0001:00030a98       PeCoffLoaderAdjustOffsetForTeImage 0000000000041a98 f   BasePeCoffLib:BasePeCoff.obj
 0001:00030ad0       PeCoffLoaderGetPeHeader    0000000000041ad0 f   BasePeCoffLib:BasePeCoff.obj
 0001:000319ec       PeCoffLoaderGetImageInfo   00000000000429ec f   BasePeCoffLib:BasePeCoff.obj
 0001:000322c0       PeCoffLoaderImageAddress   00000000000432c0 f   BasePeCoffLib:BasePeCoff.obj
 0001:00032308       PeCoffLoaderRelocateImage  0000000000043308 f   BasePeCoffLib:BasePeCoff.obj
 0001:00032b18       PeCoffLoaderLoadImage      0000000000043b18 f   BasePeCoffLib:BasePeCoff.obj
 0001:00033928       PeCoffLoaderImageReadFromMemory 0000000000044928 f   BasePeCoffLib:BasePeCoff.obj
 0001:00033a04       PeCoffLoaderUnloadImage    0000000000044a04 f   BasePeCoffLib:BasePeCoff.obj
 0001:00033a20       InternalGetReportStatusCode 0000000000044a20 f   DxeReportStatusCodeLib:ReportStatusCodeLib.obj
 0001:00033a90       InternalReportStatusCode   0000000000044a90 f   DxeReportStatusCodeLib:ReportStatusCodeLib.obj
 0001:00033b48       ReportStatusCode           0000000000044b48 f   DxeReportStatusCodeLib:ReportStatusCodeLib.obj
 0001:00033b7c       ReportStatusCodeWithExtendedData 0000000000044b7c f   DxeReportStatusCodeLib:ReportStatusCodeLib.obj
 0001:00033c2c       ReportStatusCodeEx         0000000000044c2c f   DxeReportStatusCodeLib:ReportStatusCodeLib.obj
 0001:00033ea8       ReportProgressCodeEnabled  0000000000044ea8 f   DxeReportStatusCodeLib:ReportStatusCodeLib.obj
 0001:00033ecc       ReportErrorCodeEnabled     0000000000044ecc f   DxeReportStatusCodeLib:ReportStatusCodeLib.obj
 0001:00033ef0       ReportDebugCodeEnabled     0000000000044ef0 f   DxeReportStatusCodeLib:ReportStatusCodeLib.obj
 0001:00033f14       GetFileBufferByFilePath    0000000000044f14 f   DxeServicesLib:DxeServicesLib.obj
 0001:000347c0       InitializeDebugAgent       00000000000457c0 f   DebugAgentLibNull:DebugAgentLibNull.obj
 0001:0003480c       SaveAndSetDebugTimerInterrupt 000000000004580c f   DebugAgentLibNull:DebugAgentLibNull.obj
 0001:00034814       InitializeCpuExceptionHandlers 0000000000045814 f   CpuExceptionHandlerLibNull:CpuExceptionHandlerLibNull.obj
 0001:0003522c       SplitTable                 000000000004622c f   ImagePropertiesRecordLib:ImagePropertiesRecordLib.obj
 0001:00035478       SwapImageRecordCodeSection 0000000000046478 f   ImagePropertiesRecordLib:ImagePropertiesRecordLib.obj
 0001:00035508       SortImageRecordCodeSection 0000000000046508 f   ImagePropertiesRecordLib:ImagePropertiesRecordLib.obj
 0001:00035778       IsImageRecordCodeSectionValid 0000000000046778 f   ImagePropertiesRecordLib:ImagePropertiesRecordLib.obj
 0001:00035954       SwapImageRecord            0000000000046954 f   ImagePropertiesRecordLib:ImagePropertiesRecordLib.obj
 0001:00035a2c       SortImageRecord            0000000000046a2c f   ImagePropertiesRecordLib:ImagePropertiesRecordLib.obj
 0001:00035e24       DumpImageRecords           0000000000046e24 f   ImagePropertiesRecordLib:ImagePropertiesRecordLib.obj
 0001:0003610c       FindImageRecord            000000000004710c f   ImagePropertiesRecordLib:ImagePropertiesRecordLib.obj
 0001:00036208       CreateImagePropertiesRecord 0000000000047208 f   ImagePropertiesRecordLib:ImagePropertiesRecordLib.obj
 0001:00036ab8       DeleteImagePropertiesRecord 0000000000047ab8 f   ImagePropertiesRecordLib:ImagePropertiesRecordLib.obj
 0001:00036b04       OrderedCollectionInit      0000000000047b04 f   BaseOrderedCollectionRedBlackTreeLib:BaseOrderedCollectionRedBlackTreeLib.obj
 0001:00036b74       OrderedCollectionFind      0000000000047b74 f   BaseOrderedCollectionRedBlackTreeLib:BaseOrderedCollectionRedBlackTreeLib.obj
 0001:00036bf8       OrderedCollectionMin       0000000000047bf8 f   BaseOrderedCollectionRedBlackTreeLib:BaseOrderedCollectionRedBlackTreeLib.obj
 0001:00036c3c       OrderedCollectionMax       0000000000047c3c f   BaseOrderedCollectionRedBlackTreeLib:BaseOrderedCollectionRedBlackTreeLib.obj
 0001:00036c80       OrderedCollectionNext      0000000000047c80 f   BaseOrderedCollectionRedBlackTreeLib:BaseOrderedCollectionRedBlackTreeLib.obj
 0001:00036d18       OrderedCollectionPrev      0000000000047d18 f   BaseOrderedCollectionRedBlackTreeLib:BaseOrderedCollectionRedBlackTreeLib.obj
 0001:00036db0       RedBlackTreeRotateRight    0000000000047db0 f   BaseOrderedCollectionRedBlackTreeLib:BaseOrderedCollectionRedBlackTreeLib.obj
 0001:00036e78       RedBlackTreeRotateLeft     0000000000047e78 f   BaseOrderedCollectionRedBlackTreeLib:BaseOrderedCollectionRedBlackTreeLib.obj
 0001:00036f40       OrderedCollectionInsert    0000000000047f40 f   BaseOrderedCollectionRedBlackTreeLib:BaseOrderedCollectionRedBlackTreeLib.obj
 0001:00037374       NodeIsNullOrBlack          0000000000048374 f   BaseOrderedCollectionRedBlackTreeLib:BaseOrderedCollectionRedBlackTreeLib.obj
 0001:000373a4       OrderedCollectionDelete    00000000000483a4 f   BaseOrderedCollectionRedBlackTreeLib:BaseOrderedCollectionRedBlackTreeLib.obj
 0001:00037c08       RedBlackTreeRecursiveCheck 0000000000048c08 f   BaseOrderedCollectionRedBlackTreeLib:BaseOrderedCollectionRedBlackTreeLib.obj
 0001:00037d74       RedBlackTreeValidate       0000000000048d74 f   BaseOrderedCollectionRedBlackTreeLib:BaseOrderedCollectionRedBlackTreeLib.obj
 0001:00038014       Crc32GuidedSectionGetInfo  0000000000049014 f   DxeCrc32GuidedSectionExtractLib:DxeCrc32GuidedSectionExtractLib.obj
 0001:00038180       Crc32GuidedSectionHandler  0000000000049180 f   DxeCrc32GuidedSectionExtractLib:DxeCrc32GuidedSectionExtractLib.obj
 0001:00038434       DxeCrc32GuidedSectionExtractLibConstructor 0000000000049434 f   DxeCrc32GuidedSectionExtractLib:DxeCrc32GuidedSectionExtractLib.obj
 0001:00038464       LzmaGuidedSectionGetInfo   0000000000049464 f   LzmaDecompressLib:GuidedSectionExtraction.obj
 0001:000386c8       LzmaGuidedSectionExtraction 00000000000496c8 f   LzmaDecompressLib:GuidedSectionExtraction.obj
 0001:000388c4       LzmaDecompressLibConstructor 00000000000498c4 f   LzmaDecompressLib:GuidedSectionExtraction.obj
 0001:0003b4e8       LzmaDec_InitDicAndState    000000000004c4e8 f   LzmaDecompressLib:LzmaDec.obj
 0001:0003b550       LzmaDec_Init               000000000004c550 f   LzmaDecompressLib:LzmaDec.obj
 0001:0003b580       LzmaDec_DecodeToDic        000000000004c580 f   LzmaDecompressLib:LzmaDec.obj
 0001:0003bd04       LzmaDec_FreeProbs          000000000004cd04 f   LzmaDecompressLib:LzmaDec.obj
 0001:0003bd3c       LzmaProps_Decode           000000000004cd3c f   LzmaDecompressLib:LzmaDec.obj
 0001:0003bf20       LzmaDec_AllocateProbs      000000000004cf20 f   LzmaDecompressLib:LzmaDec.obj
 0001:0003bf98       LzmaDecode                 000000000004cf98 f   LzmaDecompressLib:LzmaDec.obj
 0001:0003c134       SzAlloc                    000000000004d134 f   LzmaDecompressLib:LzmaDecompress.obj
 0001:0003c1e0       GetDecodedSizeOfBuf        000000000004d1e0 f   LzmaDecompressLib:LzmaDecompress.obj
 0001:0003c248       LzmaUefiDecompressGetInfo  000000000004d248 f   LzmaDecompressLib:LzmaDecompress.obj
 0001:0003c2d4       LzmaUefiDecompress         000000000004d2d4 f   LzmaDecompressLib:LzmaDecompress.obj
 0002:00000000       ??_C@_07IDFNAKDE@DxeCore@  000000000004e000     DxeCore:AutoGen.obj
 0002:00000008       ??_C@_0CE@IBFOBMLB@?6ASSERT_RETURN_ERROR?5?$CIStatus?5?$DN?5@ 000000000004e008     DxeCore:AutoGen.obj
 0002:00000030       ??_C@_0DG@FLPEIDFK@?$CB?$CI?$CI?$CIRETURN_STATUS?$CJ?$CIStatus?$CJ?$CJ?5?$DO?$DN?5@ 000000000004e030     DxeCore:AutoGen.obj
 0002:00000070       ??_C@_0GG@PGDJELKI@D?3?2develop?2EDK2?2edk2?2Build?2Emul@ 000000000004e070     DxeCore:AutoGen.obj
 0002:000000d8       ??_C@_0CB@DMEJJJHA@?6ASSERT_EFI_ERROR?5?$CIStatus?5?$DN?5?$CFr?$CJ@ 000000000004e0d8     DxeCore:AutoGen.obj
 0002:00000100       _gPcd_FixedAtBuild_PcdMemoryProfileMemoryType 000000000004e100     DxeCore:AutoGen.obj
 0002:00000100       _gPcd_FixedAtBuild_PcdLoadModuleAtFixAddressEnable 000000000004e100     DxeCore:AutoGen.obj
 0002:00000100       _gPcd_FixedAtBuild_PcdDxeNxMemoryProtectionPolicy 000000000004e100     DxeCore:AutoGen.obj
 0002:00000100       _gPcd_FixedAtBuild_PcdMaxEfiSystemTablePointerAddress 000000000004e100     DxeCore:AutoGen.obj
 0002:00000100       _gPcd_FixedAtBuild_PcdHeapGuardPoolType 000000000004e100     DxeCore:AutoGen.obj
 0002:00000100       _gPcd_FixedAtBuild_PcdHeapGuardPageType 000000000004e100     DxeCore:AutoGen.obj
 0002:00000108       _gPcd_FixedAtBuild_PcdImageLargeAddressLoad 000000000004e108     DxeCore:AutoGen.obj
 0002:00000109       _gPcd_FixedAtBuild_PcdMemoryProfileDriverPath 000000000004e109     DxeCore:AutoGen.obj
 0002:0000010c       _gPcd_FixedAtBuild_PcdMaximumAsciiStringLength 000000000004e10c     DxeCore:AutoGen.obj
 0002:0000010c       _gPcd_FixedAtBuild_PcdMaximumLinkedListLength 000000000004e10c     DxeCore:AutoGen.obj
 0002:0000010c       _gPcd_FixedAtBuild_PcdMaximumUnicodeStringLength 000000000004e10c     DxeCore:AutoGen.obj
 0002:00000110       _gPcd_FixedAtBuild_PcdReportStatusCodePropertyMask 000000000004e110     DxeCore:AutoGen.obj
 0002:00000111       _gPcd_FixedAtBuild_PcdHeapGuardPropertyMask 000000000004e111     DxeCore:AutoGen.obj
 0002:00000111       _gPcd_FixedAtBuild_PcdNullPointerDetectionPropertyMask 000000000004e111     DxeCore:AutoGen.obj
 0002:00000111       _gPcd_FixedAtBuild_PcdValidateOrderedCollection 000000000004e111     DxeCore:AutoGen.obj
 0002:00000111       _gPcd_FixedAtBuild_PcdPerformanceLibraryPropertyMask 000000000004e111     DxeCore:AutoGen.obj
 0002:00000111       _gPcd_FixedAtBuild_PcdCpuStackGuard 000000000004e111     DxeCore:AutoGen.obj
 0002:00000111       _gPcd_FixedAtBuild_PcdMemoryProfilePropertyMask 000000000004e111     DxeCore:AutoGen.obj
 0002:00000111       _gPcd_FixedAtBuild_PcdVerifyNodeInList 000000000004e111     DxeCore:AutoGen.obj
 0002:00000114       _gPcd_FixedAtBuild_PcdImageProtectionPolicy 000000000004e114     DxeCore:AutoGen.obj
 0002:00000114       _gPcd_FixedAtBuild_PcdMaximumDevicePathNodeCount 000000000004e114     DxeCore:AutoGen.obj
 0002:00000118       _gPcd_FixedAtBuild_PcdDebugPrintErrorLevel 000000000004e118     DxeCore:AutoGen.obj
 0002:0000011c       _gPcd_FixedAtBuild_PcdFixedDebugPrintErrorLevel 000000000004e11c     DxeCore:AutoGen.obj
 0002:00000120       _gPcd_FixedAtBuild_PcdFwVolDxeMaxEncapsulationDepth 000000000004e120     DxeCore:AutoGen.obj
 0002:00000124       _gPcd_FixedAtBuild_PcdDebugClearMemoryValue 000000000004e124     DxeCore:AutoGen.obj
 0002:00000125       _gPcd_FixedAtBuild_PcdDebugPropertyMask 000000000004e125     DxeCore:AutoGen.obj
 0002:00000128       _gPcd_FixedAtBuild_PcdControlFlowEnforcementPropertyMask 000000000004e128     DxeCore:AutoGen.obj
 0002:00000130       ??_C@_0DN@GNKHLPO@D?3?2develop?2EDK2?2edk2?2MdeModuleP@ 000000000004e130     DxeCore:DxeMain.obj
 0002:00000170       ??_C@_0BL@KFDMJOEH@gDxeCoreST?5?$CB?$DN?5?$CI?$CIvoid?5?$CK?$CJ?50?$CJ@ 000000000004e170     DxeCore:DxeMain.obj
 0002:00000190       ??_C@_0BL@HCNOBOBP@gDxeCoreRT?5?$CB?$DN?5?$CI?$CIvoid?5?$CK?$CJ?50?$CJ@ 000000000004e190     DxeCore:DxeMain.obj
 0002:000001ac       ??_C@_03ECFMJECG@PEI@      000000000004e1ac     DxeCore:DxeMain.obj
 0002:000001b0       ??_C@_03CFGMCLMB@DXE@      000000000004e1b0     DxeCore:DxeMain.obj
 0002:000001b8       ??_C@_07CPDFFGDM@DxeMain@  000000000004e1b8     DxeCore:DxeMain.obj
 0002:000001c0       ??_C@_0DA@FJJALMKI@?$CFa?3?5MemoryBaseAddress?$DN0x?$CFLx?5Mem@ 000000000004e1c0     DxeCore:DxeMain.obj
 0002:000001f0       ??_C@_0BP@JHIGBJBJ@HOBLIST?5address?5in?5DXE?5?$DN?50x?$CFp?6@ 000000000004e1f0     DxeCore:DxeMain.obj
 0002:00000210       ??_C@_0CK@DGGNNHLJ@Memory?5Allocation?50x?$CF08x?50x?$CF0lx@ 000000000004e210     DxeCore:DxeMain.obj
 0002:00000240       ??_C@_0CD@IPELIEAD@FV?5Hob?5?5?5?5?5?5?5?5?5?5?5?50x?$CF0lx?5?9?50x?$CF0@ 000000000004e240     DxeCore:DxeMain.obj
 0002:00000268       ??_C@_0CD@PNLGIPJF@FV2?5Hob?5?5?5?5?5?5?5?5?5?5?50x?$CF0lx?5?9?50x?$CF0@ 000000000004e268     DxeCore:DxeMain.obj
 0002:00000290       ??_C@_0BL@HNODMJIL@?5?5?5?5?5?5?5?5?5?5?5?5?5?5?5?5?5?5?$CFg?5?9?5?$CFg?6@ 000000000004e290     DxeCore:DxeMain.obj
 0002:000002b0       ??_C@_0DB@OOMKHHHJ@FV3?5Hob?5?5?5?5?5?5?5?5?5?5?50x?$CF0lx?5?9?50x?$CF0@ 000000000004e2b0     DxeCore:DxeMain.obj
 0002:000002e8       ??_C@_0BL@JCKLHDNI@VectorInfo?5?$CB?$DN?5?$CI?$CIvoid?5?$CK?$CJ?50?$CJ@ 000000000004e2e8     DxeCore:DxeMain.obj
 0002:00000308       ??_C@_0BC@FEDIJHFF@?$CI?$CIBOOLEAN?$CJ?$CI0?$DN?$DN1?$CJ?$CJ@ 000000000004e308     DxeCore:DxeMain.obj
 0002:00000320       ??_C@_08EDKKPLCC@Security@ 000000000004e320     DxeCore:DxeProtocolNotify.obj
 0002:0000032c       ??_C@_03PMGKFAJB@CPU@      000000000004e32c     DxeCore:DxeProtocolNotify.obj
 0002:00000330       ??_C@_09NGEINFHN@Metronome@ 000000000004e330     DxeCore:DxeProtocolNotify.obj
 0002:0000033c       ??_C@_05NHFJDMOA@Timer@    000000000004e33c     DxeCore:DxeProtocolNotify.obj
 0002:00000344       ??_C@_03KEGKPJJM@Bds@      000000000004e344     DxeCore:DxeProtocolNotify.obj
 0002:00000348       ??_C@_0P@DENBLOAF@Watchdog?5Timer@ 000000000004e348     DxeCore:DxeProtocolNotify.obj
 0002:00000358       ??_C@_07BDIJHMJM@Runtime@  000000000004e358     DxeCore:DxeProtocolNotify.obj
 0002:00000360       ??_C@_08DMMJCAML@Variable@ 000000000004e360     DxeCore:DxeProtocolNotify.obj
 0002:00000370       ??_C@_0P@MMKCCJJA@Variable?5Write@ 000000000004e370     DxeCore:DxeProtocolNotify.obj
 0002:00000380       ??_C@_07KAPIMIBP@Capsule@  000000000004e380     DxeCore:DxeProtocolNotify.obj
 0002:00000388       ??_C@_0BC@PDACIGNG@Monotonic?5Counter@ 000000000004e388     DxeCore:DxeProtocolNotify.obj
 0002:0000039c       ??_C@_05CCGMLFNG@Reset@    000000000004e39c     DxeCore:DxeProtocolNotify.obj
 0002:000003a8       ??_C@_0BA@NFHCMGKF@Real?5Time?5Clock@ 000000000004e3a8     DxeCore:DxeProtocolNotify.obj
 0002:000003b8       ??_C@_00CNPNBAHC@@         000000000004e3b8     DxeCore:DxeProtocolNotify.obj
 0002:000003c0       ??_C@_0EH@OIOMAMLJ@D?3?2develop?2EDK2?2edk2?2MdeModuleP@ 000000000004e3c0     DxeCore:DxeProtocolNotify.obj
 0002:00000408       ??_C@_0CB@PCGLEABO@?6?$CFa?5Arch?5Protocol?5not?5present?$CB?$CB@ 000000000004e408     DxeCore:DxeProtocolNotify.obj
 0002:00000430       mMissingProtocols          000000000004e430     DxeCore:DxeProtocolNotify.obj
 0002:00000510       ??_C@_0BF@NDBIKIKC@CR?5has?5Bad?5Signature@ 000000000004e510     DxeCore:Dispatcher.obj
 0002:00000530       ??_C@_0ED@KOAIDAFD@D?3?2develop?2EDK2?2edk2?2MdeModuleP@ 000000000004e530     DxeCore:Dispatcher.obj
 0002:00000578       ??_C@_0CA@IFALBDJD@Schedule?5FFS?$CI?$CFg?$CJ?5?9?5EFI_SUCCESS?6@ 000000000004e578     DxeCore:Dispatcher.obj
 0002:00000598       ??_C@_0CC@DLDPKBBM@Schedule?5FFS?$CI?$CFg?$CJ?5?9?5EFI_NOT_FOUN@ 000000000004e598     DxeCore:Dispatcher.obj
 0002:000005c0       ??_C@_0P@KDMAOHAL@CoreDispatcher@ 000000000004e5c0     DxeCore:Dispatcher.obj
 0002:000005d0       ??_C@_0BD@GOHKOBCJ@Loading?5driver?5?$CFg?6@ 000000000004e5d0     DxeCore:Dispatcher.obj
 0002:000005e8       ??_C@_0CJ@GOOBNJLF@DriverEntry?9?$DOImageHandle?5?$CB?$DN?5?$CI?$CIv@ 000000000004e5e8     DxeCore:Dispatcher.obj
 0002:00000618       ??_C@_0CA@ICIDHKK@Evaluate?5DXE?5DEPEX?5for?5FFS?$CI?$CFg?$CJ?6@ 000000000004e618     DxeCore:Dispatcher.obj
 0002:00000640       ??_C@_0ED@KMLPGIKP@?5?5SOR?5?5?5?5?5?5?5?5?5?5?5?5?5?5?5?5?5?5?5?5?5?5?5?5?5?5@ 000000000004e640     DxeCore:Dispatcher.obj
 0002:00000688       ??_C@_0BC@KNMKMBFG@?5?5RESULT?5?$DN?5FALSE?6@ 000000000004e688     DxeCore:Dispatcher.obj
 0002:000006a0       ??_C@_0BE@NGDMDIJA@?5?5BEFORE?5FFS?$CI?$CFg?$CJ?5?$DN?5@ 000000000004e6a0     DxeCore:Dispatcher.obj
 0002:000006b8       ??_C@_0BM@FKEPNHMN@TRUE?6?5?5END?6?5?5RESULT?5?$DN?5TRUE?6@ 000000000004e6b8     DxeCore:Dispatcher.obj
 0002:000006d8       ??_C@_0BO@IOEAMIGE@FALSE?6?5?5END?6?5?5RESULT?5?$DN?5FALSE?6@ 000000000004e6d8     DxeCore:Dispatcher.obj
 0002:000006f8       ??_C@_0BD@NIJHLBPK@?5?5AFTER?5FFS?$CI?$CFg?$CJ?5?$DN?5@ 000000000004e6f8     DxeCore:Dispatcher.obj
 0002:00000710       ??_C@_0BE@CMNLMPMF@Fvb?5?$CB?$DN?5?$CI?$CIvoid?5?$CK?$CJ?50?$CJ@ 000000000004e710     DxeCore:Dispatcher.obj
 0002:00000728       ??_C@_0BM@DMAELHGE@FwVolHeader?5?$CB?$DN?5?$CI?$CIvoid?5?$CK?$CJ?50?$CJ@ 000000000004e728     DxeCore:Dispatcher.obj
 0002:00000748       ??_C@_0DL@FBBCBGFD@FvImage?5on?5FvHandle?5?$CFp?5and?5?$CFp?5h@ 000000000004e748     DxeCore:Dispatcher.obj
 0002:00000788       ??_C@_0BM@PPFNPPMA@KnownHandle?5?$CB?$DN?5?$CI?$CIvoid?5?$CK?$CJ?50?$CJ@ 000000000004e788     DxeCore:Dispatcher.obj
 0002:000007a8       ??_C@_0BM@HECPJCLL@DriverEntry?5?$CB?$DN?5?$CI?$CIvoid?5?$CK?$CJ?50?$CJ@ 000000000004e7a8     DxeCore:Dispatcher.obj
 0002:000007c8       ??_C@_0DJ@LKNCCCCL@FV?5at?50x?$CFx?5has?50x?$CFx?5used?5size?0?5@ 000000000004e7c8     DxeCore:Dispatcher.obj
 0002:00000808       ??_C@_0BH@LLNEDFOL@CoreProcessFvImageFile@ 000000000004e808     DxeCore:Dispatcher.obj
 0002:00000820       ??_C@_0CP@HPHALLJH@?$CFa?$CI?$CJ?5FV?5at?50x?$CFx?0?5FvAlignment?5re@ 000000000004e820     DxeCore:Dispatcher.obj
 0002:00000850       ??_C@_0BL@HMFJNHJC@?5?5RESULT?5?$DN?5TRUE?5?$CIApriori?$CJ?6@ 000000000004e850     DxeCore:Dispatcher.obj
 0002:00000870       ??_C@_0BJ@DOFMFMNH@CoreInitializeDispatcher@ 000000000004e870     DxeCore:Dispatcher.obj
 0002:00000890       ??_C@_0CL@LMDLCLKA@Driver?5?$CFg?5was?5discovered?5but?5no@ 000000000004e890     DxeCore:Dispatcher.obj
 0002:000008c0       ??_C@_0DF@CGKKDMDF@?5?5All?5UEFI?5Services?5Available?5?5@ 000000000004e8c0     DxeCore:Dependency.obj
 0002:000008f8       ??_C@_0BI@OJJILPHO@FALSE?6?5?5RESULT?5?$DN?5FALSE?6@ 000000000004e8f8     DxeCore:Dependency.obj
 0002:00000910       ??_C@_0BG@PMDFLICB@TRUE?6?5?5RESULT?5?$DN?5TRUE?6@ 000000000004e910     DxeCore:Dependency.obj
 0002:00000928       ??_C@_0DH@HJNPFLMD@?5?5RESULT?5?$DN?5FALSE?5?$CIAttempt?5to?5fe@ 000000000004e928     DxeCore:Dependency.obj
 0002:00000960       ??_C@_0DG@BLEOFCEK@?5?5RESULT?5?$DN?5FALSE?5?$CIUnexpected?5BE@ 000000000004e960     DxeCore:Dependency.obj
 0002:000009a0       ??_C@_0ED@LNKNALAD@D?3?2develop?2EDK2?2edk2?2MdeModuleP@ 000000000004e9a0     DxeCore:Dependency.obj
 0002:000009e4       ??_C@_06IDJBPDAP@?5?5SOR?6@ 000000000004e9e4     DxeCore:Dependency.obj
 0002:000009f0       ??_C@_0CK@PBPNBCDP@?5?5RESULT?5?$DN?5FALSE?5?$CIUnexpected?5SO@ 000000000004e9f0     DxeCore:Dependency.obj
 0002:00000a20       ??_C@_0DP@KKBOABM@?5?5SOR?5?5?5?5?5?5?5?5?5?5?5?5?5?5?5?5?5?5?5?5?5?5?5?5?5?5@ 000000000004ea20     DxeCore:Dependency.obj
 0002:00000a60       ??_C@_0BJ@NLJMNGGI@?5?5PUSH?5GUID?$CI?$CFg?$CJ?5?$DN?5FALSE?6@ 000000000004ea60     DxeCore:Dependency.obj
 0002:00000a80       ??_C@_0BI@OMMPINOL@?5?5PUSH?5GUID?$CI?$CFg?$CJ?5?$DN?5TRUE?6@ 000000000004ea80     DxeCore:Dependency.obj
 0002:00000a98       ??_C@_0CF@JIJFBAAC@?5?5RESULT?5?$DN?5FALSE?5?$CIUnexpected?5er@ 000000000004ea98     DxeCore:Dependency.obj
 0002:00000ac0       ??_C@_06DJKGIPEK@?5?5AND?6@ 000000000004eac0     DxeCore:Dependency.obj
 0002:00000ac8       ??_C@_05NOPACOFB@?5?5OR?6@ 000000000004eac8     DxeCore:Dependency.obj
 0002:00000ad0       ??_C@_06BPGMNMIO@?5?5NOT?6@ 000000000004ead0     DxeCore:Dependency.obj
 0002:00000ad8       ??_C@_07JLHPFCH@?5?5TRUE?6@ 000000000004ead8     DxeCore:Dependency.obj
 0002:00000ae0       ??_C@_08EJKLCAIL@?5?5FALSE?6@ 000000000004eae0     DxeCore:Dependency.obj
 0002:00000aec       ??_C@_06MMCGCJIK@?5?5END?6@ 000000000004eaec     DxeCore:Dependency.obj
 0002:00000af4       ??_C@_04HCDDPBNL@TRUE@     000000000004eaf4     DxeCore:Dependency.obj
 0002:00000afc       ??_C@_05MAJJAKPI@FALSE@    000000000004eafc     DxeCore:Dependency.obj
 0002:00000b08       ??_C@_0P@GJLOBHPI@?5?5RESULT?5?$DN?5?$CFa?6@ 000000000004eb08     DxeCore:Dependency.obj
 0002:00000b18       ??_C@_0CD@LDMHFHNL@?5?5RESULT?5?$DN?5FALSE?5?$CIUnknown?5opcod@ 000000000004eb18     DxeCore:Dependency.obj
 0002:00000b40       ??_C@_0CF@FMPFMLED@gEventQueueLock?4OwnerTpl?5?$DN?$DN?5Pri@ 000000000004eb40     DxeCore:Event.obj
 0002:00000b68       ??_C@_0DJ@NAOMPBLD@D?3?2develop?2EDK2?2edk2?2MdeModuleP@ 000000000004eb68     DxeCore:Event.obj
 0002:00000ba8       ??_C@_0CG@BNFJMDOB@Event?9?$DONotifyFunction?5?$CB?$DN?5?$CI?$CIvoid@ 000000000004eba8     DxeCore:Event.obj
 0002:00000bd0       ??_C@_0CB@LNPEFNCG@Run?5Event?5Group?5Notify?3?5?$CFg?5?$CI?$CFp?$CJ@ 000000000004ebd0     DxeCore:Event.obj
 0002:00000bf8       ??_C@_0CB@HIGONELN@?$CGgEventQueueLock?5?$CB?$DN?5?$CI?$CIvoid?5?$CK?$CJ?50@ 000000000004ebf8     DxeCore:Event.obj
 0002:00000c20       ??_C@_0BM@MHJDAOFB@?$CGgEventQueueLock?5not?5locked@ 000000000004ec20     DxeCore:Event.obj
 0002:00000c40       ??_C@_0CG@BEHICOLF@Register?5Event?5Group?5Notify?3?5?$CFg@ 000000000004ec40     DxeCore:Event.obj
 0002:00000c68       ??_C@_0BP@EABLLGEH@?$CGmEfiTimerLock?5?$CB?$DN?5?$CI?$CIvoid?5?$CK?$CJ?50?$CJ@ 000000000004ec68     DxeCore:Timer.obj
 0002:00000c88       ??_C@_0DJ@EPIDMAIB@D?3?2develop?2EDK2?2edk2?2MdeModuleP@ 000000000004ec88     DxeCore:Timer.obj
 0002:00000cc8       ??_C@_0BK@OEHKHKCA@?$CGmEfiTimerLock?5not?5locked@ 000000000004ecc8     DxeCore:Timer.obj
 0002:00000ce8       ??_C@_0DJ@BEDKBBDO@FATAL?5ERROR?5?9?5RaiseTpl?5with?5Old@ 000000000004ece8     DxeCore:Tpl.obj
 0002:00000d28       ??_C@_0DH@KHDFHJLA@D?3?2develop?2EDK2?2edk2?2MdeModuleP@ 000000000004ed28     DxeCore:Tpl.obj
 0002:00000d60       ??_C@_0BB@DKMJFNAG@?$CI?$CINewTpl?$CJ?5?$DM?$DN?531?$CJ@ 000000000004ed60     DxeCore:Tpl.obj
 0002:00000d78       ??_C@_0DL@IMFJACGO@FATAL?5ERROR?5?9?5RestoreTpl?5with?5N@ 000000000004ed78     DxeCore:Tpl.obj
 0002:00000db8       ??_C@_0DN@IHGHEFGN@Found?5a?5FFS3?5formatted?5file?3?5?$CFg@ 000000000004edb8     DxeCore:FwVol.obj
 0002:00000e00       ??_C@_0FK@ECOJJFD@?$CI?$CIUINT32?$CJ?5?$CI?$CI?$CIEFI_FFS_FILE_HEADE@ 000000000004ee00     DxeCore:FwVol.obj
 0002:00000e60       ??_C@_0DJ@OFIANIFB@D?3?2develop?2EDK2?2edk2?2MdeModuleP@ 000000000004ee60     DxeCore:FwVol.obj
 0002:00000ea0       ??_C@_0DP@OOEABMDF@D?3?2develop?2EDK2?2edk2?2MdeModuleP@ 000000000004eea0     DxeCore:FwVolAttrib.obj
 0002:00000ee0       ??_C@_0BC@EMCGNMIK@DataAlignment?5?$DM?58@ 000000000004eee0     DxeCore:FwVolRead.obj
 0002:00000ef8       ??_C@_0DN@IKEMLGJG@D?3?2develop?2EDK2?2edk2?2MdeModuleP@ 000000000004eef8     DxeCore:FwVolRead.obj
 0002:00000f40       ??_C@_0ED@KJBIKINK@D?3?2develop?2EDK2?2edk2?2MdeModuleP@ 000000000004ef40     DxeCore:FwVolBlock.obj
 0002:00000f90       ??_C@_0EI@EOAGIEHL@Unaligned?5FvImage?5found?5at?50x?$CFl@ 000000000004ef90     DxeCore:FwVolBlock.obj
 0002:00000fd8       ??_C@_0CC@PBCMMGPK@?$CKFVProtocolHandle?5?$CB?$DN?5?$CI?$CIvoid?5?$CK?$CJ?5@ 000000000004efd8     DxeCore:FwVolBlock.obj
 0002:00001000       ??_C@_0BG@NIPFGNEI@BitNumber?5?$DM?$DN?5?$CI1?5?$DM?$DM?56?$CJ@ 000000000004f000     DxeCore:HeapGuard.obj
 0002:00001018       ??_C@_0DL@JBCMGAMA@D?3?2develop?2EDK2?2edk2?2MdeModuleP@ 000000000004f018     DxeCore:HeapGuard.obj
 0002:00001058       ??_C@_0P@BELBPKJL@MapMemory?5?$CB?$DN?50@ 000000000004f058     DxeCore:HeapGuard.obj
 0002:00001068       ??_C@_0BH@CPAFCLMN@BitMap?5?$CB?$DN?5?$CI?$CIvoid?5?$CK?$CJ?50?$CJ@ 000000000004f068     DxeCore:HeapGuard.obj
 0002:00001080       ??_C@_0BK@KAHDGLJJ@NumberOfPages?5?$DM?$DN?5?$CI1?5?$DM?$DM?56?$CJ@ 000000000004f080     DxeCore:HeapGuard.obj
 0002:000010a0       ??_C@_0BA@BDENPEJJ@Target?5?$DO?$DN?5Start@ 000000000004f0a0     DxeCore:HeapGuard.obj
 0002:000010b0       ??_C@_0P@MOKENKIA@mMapLevel?5?$DO?$DN?51@ 000000000004f0b0     DxeCore:HeapGuard.obj
 0002:000010c0       ??_C@_0CH@HCIINNDH@Failed?5to?5guard?5freed?5pages?3?5?$CFp@ 000000000004f0c0     DxeCore:HeapGuard.obj
 0002:000010e8       ??_C@_0L@CJILHEAL@Start?5?$CB?$DN?50@ 000000000004f0e8     DxeCore:HeapGuard.obj
 0002:000010f8       ??_C@_0BM@BFFPJJGD@Promoted?5pages?3?5?$CFlX?5?$CI?$CFlx?$CJ?$AN?6@ 000000000004f0f8     DxeCore:HeapGuard.obj
 0002:00001118       ??_C@_0BF@BBBPPCMC@gCpu?5?$CB?$DN?5?$CI?$CIvoid?5?$CK?$CJ?50?$CJ@ 000000000004f118     DxeCore:HeapGuard.obj
 0002:00001130       ??_C@_0EH@JDOKAPMC@Heap?5guard?5and?5freed?5memory?5gua@ 000000000004f130     DxeCore:HeapGuard.obj
 0002:00001180       ??_C@_0EB@EIBLPEBL@?5?5?5?5?5?5?5?5?5?5?5?5?5?5?53?5?5?5?5?5?5?5?5?5?5?5?5?5?5?5@ 000000000004f180     DxeCore:HeapGuard.obj
 0002:000011d0       ??_C@_0EB@FELEBAHK@FEDCBA9876543210FEDCBA987654321@ 000000000004f1d0     DxeCore:HeapGuard.obj
 0002:00001220       ??_C@_0FF@LOBMCLHE@?$DN?$DN?$DN?$DN?$DN?$DN?$DN?$DN?$DN?$DN?$DN?$DN?$DN?$DN?$DN?$DN?$DN?$DN?$DN?$DN?$DN?$DN?$DN?$DN?$DN?$DN?$DN?$DN?$DN?5G@ 000000000004f220     DxeCore:HeapGuard.obj
 0002:00001278       ??_C@_0BH@CEHKHKEI@?5?5?5?5?5?5?5?5?5?5?5?5?5?5?5?5?5?5?$CFa?$AN?6@ 000000000004f278     DxeCore:HeapGuard.obj
 0002:00001290       ??_C@_0FF@KBIOOBAM@?$DN?$DN?$DN?$DN?$DN?$DN?$DN?$DN?$DN?$DN?$DN?$DN?$DN?$DN?$DN?$DN?$DN?$DN?$DN?$DN?$DN?$DN?$DN?$DN?$DN?$DN?$DN?$DN?$DN?$DN?$DN@ 000000000004f290     DxeCore:HeapGuard.obj
 0002:000012e8       ??_C@_0N@HACLFNEI@?$CF016lx?3?5?$CFa?$AN?6@ 000000000004f2e8     DxeCore:HeapGuard.obj
 0002:000012f8       ??_C@_0BI@CMOKHMIN@?4?4?4?5?5?5?5?5?5?5?5?5?5?5?5?5?3?5?4?4?4?$AN?6@ 000000000004f2f8     DxeCore:HeapGuard.obj
 0002:00001310       ??_C@_0BJ@OAAKNPEN@Pe32Data?5?$CB?$DN?5?$CI?$CIvoid?5?$CK?$CJ?50?$CJ@ 000000000004f310     DxeCore:MemoryProfileRecord.obj
 0002:00001330       ??_C@_0EF@LFCICNLL@D?3?2develop?2EDK2?2edk2?2MdeModuleP@ 000000000004f330     DxeCore:MemoryProfileRecord.obj
 0002:00001378       ??_C@_0BL@OOFMKHJH@EntryPoint?5?$CB?$DN?5?$CI?$CIvoid?5?$CK?$CJ?50?$CJ@ 000000000004f378     DxeCore:MemoryProfileRecord.obj
 0002:00001398       ??_C@_0BP@DNCGAAMN@DriverInfoData?5?$CB?$DN?5?$CI?$CIvoid?5?$CK?$CJ?50?$CJ@ 000000000004f398     DxeCore:MemoryProfileRecord.obj
 0002:000013b8       ??_C@_0BM@EJELLCCL@ContextData?5?$CB?$DN?5?$CI?$CIvoid?5?$CK?$CJ?50?$CJ@ 000000000004f3b8     DxeCore:MemoryProfileRecord.obj
 0002:000013d8       ??_C@_0BP@LNDCHNN@DxeCoreHob?4Raw?5?$CB?$DN?5?$CI?$CIvoid?5?$CK?$CJ?50?$CJ@ 000000000004f3d8     DxeCore:MemoryProfileRecord.obj
 0002:000013f8       ??_C@_0CP@PCCMCAFE@MemoryProfileInit?5MemoryProfile@ 000000000004f3f8     DxeCore:MemoryProfileRecord.obj
 0002:00001428       ??_C@_0BO@MGBOANEA@AllocInfoData?5?$CB?$DN?5?$CI?$CIvoid?5?$CK?$CJ?50?$CJ@ 000000000004f428     DxeCore:MemoryProfileRecord.obj
 0002:00001448       ??_C@_0BF@DKMPHDPK@?$CIStart?5?$CG?50xFFF?$CJ?5?$DN?$DN?50@ 000000000004f448     DxeCore:Page.obj
 0002:00001460       ??_C@_0DG@LIBHMIFB@D?3?2develop?2EDK2?2edk2?2MdeModuleP@ 000000000004f460     DxeCore:Page.obj
 0002:00001498       ??_C@_0M@DCLLLGMI@End?5?$DO?5Start@ 000000000004f498     DxeCore:Page.obj
 0002:000014a8       ??_C@_0BN@MBLOJJDI@?$CGgMemoryLock?5?$CB?$DN?5?$CI?$CIvoid?5?$CK?$CJ?50?$CJ@ 000000000004f4a8     DxeCore:Page.obj
 0002:000014c8       ??_C@_0BI@ONJDKCMB@?$CGgMemoryLock?5not?5locked@ 000000000004f4c8     DxeCore:Page.obj
 0002:000014e0       ??_C@_0BJ@PAOKAOFD@AddRange?3?5?$CFlx?9?$CFlx?5to?5?$CFd?6@ 000000000004f4e0     DxeCore:Page.obj
 0002:00001500       ??_C@_0O@LJAPMOCN@mMapDepth?5?$DM?56@ 000000000004f500     DxeCore:Page.obj
 0002:00001510       ??_C@_05HKHPEFOF@Entry@    000000000004f510     DxeCore:Page.obj
 0002:00001518       ??_C@_0BN@HEIGHNIJ@Promote?5the?5memory?5resource?6@ 000000000004f518     DxeCore:Page.obj
 0002:00001538       ??_C@_0CC@IJEELBDC@CoreSetMemoryTypeInformationRan@ 000000000004f538     DxeCore:Page.obj
 0002:00001560       ??_C@_0CA@CPDGFJCI@?$CFa?3?5Ignored?4?5Bins?5already?5set?4?6@ 000000000004f560     DxeCore:Page.obj
 0002:00001580       ??_C@_0O@IJLJOHG@NumberOfPages@ 000000000004f580     DxeCore:Page.obj
 0002:00001590       ??_C@_0FB@EAPGANKD@?$CIChangingType?5?$DN?$DN?5?$CI?$CIBOOLEAN?$CJ?$CI0?$DN?$DN@ 000000000004f590     DxeCore:Page.obj
 0002:000015e8       ??_C@_0CO@EJFJFKFK@ConvertPages?3?5failed?5to?5find?5ra@ 000000000004f5e8     DxeCore:Page.obj
 0002:00001618       ??_C@_0DH@BHHHBMDC@ConvertPages?3?5range?5?$CFlx?5?9?5?$CFlx?5c@ 000000000004f618     DxeCore:Page.obj
 0002:00001650       ??_C@_0BG@LAOOPKAA@Entry?5?$CB?$DN?5?$CI?$CIvoid?5?$CK?$CJ?50?$CJ@ 000000000004f650     DxeCore:Page.obj
 0002:00001668       ??_C@_0CC@IIKOLMNI@ConvertRange?3?5?$CFlx?9?$CFlx?5to?5type?5?$CF@ 000000000004f668     DxeCore:Page.obj
 0002:00001690       ??_C@_0CD@PGFFIJEA@ConvertRange?3?5?$CFlx?9?$CFlx?5to?5attr?5?$CF@ 000000000004f690     DxeCore:Page.obj
 0002:000016b8       ??_C@_0CK@FPPGCKMP@ConvertPages?3?5Incompatible?5memo@ 000000000004f6b8     DxeCore:Page.obj
 0002:000016e8       ??_C@_0CD@FCKMKELM@the?5pages?5to?5free?5have?5been?5fre@ 000000000004f6e8     DxeCore:Page.obj
 0002:00001710       ??_C@_0CL@CLDEPKJP@the?5pages?5to?5allocate?5have?5been@ 000000000004f710     DxeCore:Page.obj
 0002:00001740       ??_C@_0BK@OGIMILJG@Entry?9?$DOStart?5?$DM?5Entry?9?$DOEnd@ 000000000004f740     DxeCore:Page.obj
 0002:00001760       ??_C@_0O@JLLKJFAP@CoreFreePages@ 000000000004f760     DxeCore:Page.obj
 0002:00001770       ??_C@_0JA@OAMHGCLI@?$CFa?3?5Memory?5?$CFllx?5for?5?$CFllx?5Pages?5@ 000000000004f770     DxeCore:Page.obj
 0002:00001800       ??_C@_0BJ@MBGAPCJG@Entry?9?$DOVirtualStart?5?$DN?$DN?50@ 000000000004f800     DxeCore:Page.obj
 0002:00001820       ??_C@_0CM@DHDJDGHH@?$CIMergeGcdMapEntry?4BaseAddress?5?$CG@ 000000000004f820     DxeCore:Page.obj
 0002:00001850       ??_C@_0FA@CAHBMJDL@?$CI?$CIMergeGcdMapEntry?4EndAddress?5?9@ 000000000004f850     DxeCore:Page.obj
 0002:000018a0       ??_C@_0DA@DGIDMPCM@AllocatePoolPages?3?5failed?5to?5al@ 000000000004f8a0     DxeCore:Page.obj
 0002:000018d0       ??_C@_0CE@NFNPJFE@Entry?9?$DOType?5?$CB?$DN?5EfiACPIReclaimMe@ 000000000004f8d0     DxeCore:Page.obj
 0002:000018f8       ??_C@_0CA@DFKEOJOC@Entry?9?$DOType?5?$CB?$DN?5EfiACPIMemoryNVS@ 000000000004f8f8     DxeCore:Page.obj
 0002:00001920       ??_C@_0EI@MMBIIJHJ@ExitBootServices?3?5A?5RUNTIME?5mem@ 000000000004f920     DxeCore:Page.obj
 0002:00001968       ??_C@_0DG@MPGFKNGK@D?3?2develop?2EDK2?2edk2?2MdeModuleP@ 000000000004f968     DxeCore:Pool.obj
 0002:000019a0       ??_C@_0CB@GDPNAJAG@?$CGmPoolMemoryLock?5?$CB?$DN?5?$CI?$CIvoid?5?$CK?$CJ?50@ 000000000004f9a0     DxeCore:Pool.obj
 0002:000019c8       ??_C@_0BM@KKFMLGIB@?$CGmPoolMemoryLock?5not?5locked@ 000000000004f9c8     DxeCore:Pool.obj
 0002:000019f0       ??_C@_0ED@BJPMJCNA@Index?5?$DM?5?$CI?$CIsizeof?5?$CImPoolSizeTabl@ 000000000004f9f0     DxeCore:Pool.obj
 0002:00001a38       ??_C@_0BE@IGCHCEAB@Offset?5?$DN?$DN?5MaxOffset@ 000000000004fa38     DxeCore:Pool.obj
 0002:00001a50       ??_C@_0DA@MFNGHLKJ@AllocatePoolI?3?5Type?5?$CFx?0?5Addr?5?$CFp@ 000000000004fa50     DxeCore:Pool.obj
 0002:00001a80       ??_C@_0CM@HBBDHNH@AllocatePool?3?5failed?5to?5allocat@ 000000000004fa80     DxeCore:Pool.obj
 0002:00001ab0       ??_C@_0BH@IACGKAP@Buffer?5?$CB?$DN?5?$CI?$CIvoid?5?$CK?$CJ?50?$CJ@ 000000000004fab0     DxeCore:Pool.obj
 0002:00001ac8       ??_C@_0BF@FBEMMEEB@Head?5?$CB?$DN?5?$CI?$CIvoid?5?$CK?$CJ?50?$CJ@ 000000000004fac8     DxeCore:Pool.obj
 0002:00001ae0       ??_C@_0JF@FCLDABPD@Head?9?$DOSignature?5?$DN?$DN?5?$CI?$CI?$CI?8p?8?$CJ?5?$HM?5?$CI?8@ 000000000004fae0     DxeCore:Pool.obj
 0002:00001b78       ??_C@_0BF@HNLOIDLA@Tail?5?$CB?$DN?5?$CI?$CIvoid?5?$CK?$CJ?50?$CJ@ 000000000004fb78     DxeCore:Pool.obj
 0002:00001b90       ??_C@_0EJ@NAAKIGKI@Tail?9?$DOSignature?5?$DN?$DN?5?$CI?$CI?$CI?8p?8?$CJ?5?$HM?5?$CI?8@ 000000000004fb90     DxeCore:Pool.obj
 0002:00001be0       ??_C@_0BJ@LNLMFOPC@Head?9?$DOSize?5?$DN?$DN?5Tail?9?$DOSize@ 000000000004fbe0     DxeCore:Pool.obj
 0002:00001c00       ??_C@_0BN@HPFHKNAN@FreePool?3?5?$CFp?5?$CIlen?5?$CFlx?$CJ?5?$CF?0ld?6@ 000000000004fc00     DxeCore:Pool.obj
 0002:00001c20       ??_C@_0BF@IFDLHOEE@Free?5?$CB?$DN?5?$CI?$CIvoid?5?$CK?$CJ?50?$CJ@ 000000000004fc20     DxeCore:Pool.obj
 0002:00001c50       ??_C@_09CLHHHE@NonExist?5@ 000000000004fc50     DxeCore:Gcd.obj
 0002:00001c60       ??_C@_09KKOLAJOM@Reserved?5@ 000000000004fc60     DxeCore:Gcd.obj
 0002:00001c70       ??_C@_09OGAEAMND@SystemMem@ 000000000004fc70     DxeCore:Gcd.obj
 0002:00001c80       ??_C@_09BHOLMENB@MMIO?5?5?5?5?5@ 000000000004fc80     DxeCore:Gcd.obj
 0002:00001c90       ??_C@_09OGNINBDN@PersisMem@ 000000000004fc90     DxeCore:Gcd.obj
 0002:00001ca0       ??_C@_09JJJEBDHA@MoreRelia@ 000000000004fca0     DxeCore:Gcd.obj
 0002:00001cb0       ??_C@_09IOAJAMNF@Unaccepte@ 000000000004fcb0     DxeCore:Gcd.obj
 0002:00001cc0       ??_C@_09EFIBGIME@Unknown?5?5@ 000000000004fcc0     DxeCore:Gcd.obj
 0002:00001cd0       ??_C@_08BABJFEMI@NonExist@ 000000000004fcd0     DxeCore:Gcd.obj
 0002:00001ce0       ??_C@_08NKCLJDKG@Reserved@ 000000000004fce0     DxeCore:Gcd.obj
 0002:00001cf0       ??_C@_08DCEEMMCJ@I?1O?5?5?5?5?5@ 000000000004fcf0     DxeCore:Gcd.obj
 0002:00001d00       ??_C@_08GFFKJBOF@Unknown?5@ 000000000004fd00     DxeCore:Gcd.obj
 0002:00001d10       ??_C@_0BK@CPLEOACC@AnySearchBottomUp?5?5?5?5?5?5?5?5@ 000000000004fd10     DxeCore:Gcd.obj
 0002:00001d30       ??_C@_0BK@NJMEKB@MaxAddressSearchBottomUp?5@ 000000000004fd30     DxeCore:Gcd.obj
 0002:00001d50       ??_C@_0BK@DEGJCJIH@AtAddress?5?5?5?5?5?5?5?5?5?5?5?5?5?5?5?5@ 000000000004fd50     DxeCore:Gcd.obj
 0002:00001d70       ??_C@_0BK@OKALKAAN@AnySearchTopDown?5?5?5?5?5?5?5?5?5@ 000000000004fd70     DxeCore:Gcd.obj
 0002:00001d90       ??_C@_0BK@GHIGEAJF@MaxAddressSearchTopDown?5?5@ 000000000004fd90     DxeCore:Gcd.obj
 0002:00001db0       ??_C@_0BK@PEMENPCN@Unknown?5?5?5?5?5?5?5?5?5?5?5?5?5?5?5?5?5?5@ 000000000004fdb0     DxeCore:Gcd.obj
 0002:00001dd0       ??_C@_0DP@PHLGEMBJ@Status?5?$DN?$DN?5?$CIRETURN_STATUS?$CJ?$CI0?$CJ?5?$CG?$CG@ 000000000004fdd0     DxeCore:Gcd.obj
 0002:00001e10       ??_C@_0DF@EKBPABHJ@D?3?2develop?2EDK2?2edk2?2MdeModuleP@ 000000000004fe10     DxeCore:Gcd.obj
 0002:00001e48       ??_C@_0CC@PDPAILAB@GCD?3Initial?5GCD?5Memory?5Space?5Ma@ 000000000004fe48     DxeCore:Gcd.obj
 0002:00001e70       ??_C@_0FA@NJMGIMOE@GCDMemType?5Range?5?5?5?5?5?5?5?5?5?5?5?5?5?5?5@ 000000000004fe70     DxeCore:Gcd.obj
 0002:00001ec0       ??_C@_0FA@IPOENJGI@?$DN?$DN?$DN?$DN?$DN?$DN?$DN?$DN?$DN?$DN?5?$DN?$DN?$DN?$DN?$DN?$DN?$DN?$DN?$DN?$DN?$DN?$DN?$DN?$DN?$DN?$DN?$DN?$DN?$DN?$DN@ 000000000004fec0     DxeCore:Gcd.obj
 0002:00001f10       ??_C@_0CD@IGLICNPJ@?$CFa?5?5?$CF016lx?9?$CF016lx?5?$CF016lx?5?$CF016lx@ 000000000004ff10     DxeCore:Gcd.obj
 0002:00001f34       ??_C@_01EEMJAFIK@?6@       000000000004ff34     DxeCore:Gcd.obj
 0002:00001f38       ??_C@_0DL@MLDONEBJ@Status?5?$DN?$DN?5?$CIRETURN_STATUS?$CJ?$CI0?$CJ?5?$CG?$CG@ 000000000004ff38     DxeCore:Gcd.obj
 0002:00001f78       ??_C@_0BP@JBOEBKAB@GCD?3Initial?5GCD?5I?1O?5Space?5Map?6@ 000000000004ff78     DxeCore:Gcd.obj
 0002:00001f98       ??_C@_0CO@EOOAKPNG@GCDIoType?5?5Range?5?5?5?5?5?5?5?5?5?5?5?5?5?5?5@ 000000000004ff98     DxeCore:Gcd.obj
 0002:00001fc8       ??_C@_0CO@HLPKCBGC@?$DN?$DN?$DN?$DN?$DN?$DN?$DN?$DN?$DN?$DN?5?$DN?$DN?$DN?$DN?$DN?$DN?$DN?$DN?$DN?$DN?$DN?$DN?$DN?$DN?$DN?$DN?$DN?$DN?$DN?$DN@ 000000000004ffc8     DxeCore:Gcd.obj
 0002:00001ff8       ??_C@_0BG@GLMAILEI@?$CFa?5?5?5?$CF016lx?9?$CF016lx?$CFc?6@ 000000000004fff8     DxeCore:Gcd.obj
 0002:00002010       ??_C@_0EF@EKFPBING@?$CI?$CIAttributes?5?$CG?50x00000080?$CJ?5?$DN?$DN?50@ 0000000000050010     DxeCore:Gcd.obj
 0002:00002060       ??_C@_0EF@BHOJOGHC@?$CI?$CIAttributes?5?$CG?50x00000100?$CJ?5?$DN?$DN?50@ 0000000000050060     DxeCore:Gcd.obj
 0002:000020b0       ??_C@_0EF@FEKALAGL@?$CI?$CIAttributes?5?$CG?50x00000200?$CJ?5?$DN?$DN?50@ 00000000000500b0     DxeCore:Gcd.obj
 0002:00002100       ??_C@_0EF@JFAOEMFI@?$CI?$CIAttributes?5?$CG?50x00040000?$CJ?5?$DN?$DN?50@ 0000000000050100     DxeCore:Gcd.obj
 0002:00002150       ??_C@_0EF@NMKLCIFM@?$CI?$CIAttributes?5?$CG?50x00800000?$CJ?5?$DN?$DN?50@ 0000000000050150     DxeCore:Gcd.obj
 0002:00002198       ??_C@_0M@OJOIOPDA@Length?5?$CB?$DN?50@ 0000000000050198     DxeCore:Gcd.obj
 0002:000021a8       ??_C@_0BM@OMDEEKNK@BottomEntry?9?$DOSignature?5?$DN?$DN?50@ 00000000000501a8     DxeCore:Gcd.obj
 0002:000021c8       ??_C@_0BJ@EIBDJLA@TopEntry?9?$DOSignature?5?$DN?$DN?50@ 00000000000501c8     DxeCore:Gcd.obj
 0002:000021e8       ??_C@_0P@IEHMCOMK@?5?5Status?5?$DN?5?$CFr?6@ 00000000000501e8     DxeCore:Gcd.obj
 0002:000021f8       ??_C@_0DF@KHIFOALB@StartLink?5?$CB?$DN?5?$CI?$CIvoid?5?$CK?$CJ?50?$CJ?5?$CG?$CG?5En@ 00000000000501f8     DxeCore:Gcd.obj
 0002:00002230       ??_C@_0DI@DJEDOKDG@TopEntry?5?$CB?$DN?5?$CI?$CIvoid?5?$CK?$CJ?50?$CJ?5?$CG?$CG?5Bot@ 0000000000050230     DxeCore:Gcd.obj
 0002:00002268       ??_C@_0O@CCLKPNAN@?5?5Status?5?$DN?5?$CFr@ 0000000000050268     DxeCore:Gcd.obj
 0002:00002278       ??_C@_0BJ@DDJOAKJB@?5?5?$CIBaseAddress?5?$DN?5?$CF016lx?$CJ@ 0000000000050278     DxeCore:Gcd.obj
 0002:00002298       ??_C@_0CP@CEAOLIMI@GCD?3AddMemorySpace?$CIBase?$DN?$CF016lx?0@ 0000000000050298     DxeCore:Gcd.obj
 0002:000022c8       ??_C@_0BI@GDHAEIMH@?5?5GcdMemoryType?5?5?5?$DN?5?$CFa?6@ 00000000000502c8     DxeCore:Gcd.obj
 0002:000022e0       ??_C@_0BM@PIDCDDFH@?5?5Capabilities?5?5?5?5?$DN?5?$CF016lx?6@ 00000000000502e0     DxeCore:Gcd.obj
 0002:00002300       ??_C@_0DE@OCFOPPEM@GCD?3AllocateMemorySpace?$CIBase?$DN?$CF0@ 0000000000050300     DxeCore:Gcd.obj
 0002:00002338       ??_C@_0DE@CDAAHKFC@GCD?3AllocateMemorySpace?$CIBase?$DN?$DMN@ 0000000000050338     DxeCore:Gcd.obj
 0002:00002370       ??_C@_0BI@PGPKBGLH@?5?5GcdAllocateType?5?$DN?5?$CFa?6@ 0000000000050370     DxeCore:Gcd.obj
 0002:00002388       ??_C@_0BM@OMGGPGCO@?5?5Alignment?5?5?5?5?5?5?5?$DN?5?$CF016lx?6@ 0000000000050388     DxeCore:Gcd.obj
 0002:000023a8       ??_C@_0BI@GIOHJBHB@?5?5ImageHandle?5?5?5?5?5?$DN?5?$CFp?6@ 00000000000503a8     DxeCore:Gcd.obj
 0002:000023c0       ??_C@_0BI@DEAPEPHO@?5?5DeviceHandle?5?5?5?5?$DN?5?$CFp?6@ 00000000000503c0     DxeCore:Gcd.obj
 0002:000023d8       ??_C@_0DA@HMHHABJF@GCD?3FreeMemorySpace?$CIBase?$DN?$CF016lx@ 00000000000503d8     DxeCore:Gcd.obj
 0002:00002408       ??_C@_0DC@MCJPLFAC@GCD?3RemoveMemorySpace?$CIBase?$DN?$CF016@ 0000000000050408     DxeCore:Gcd.obj
 0002:00002440       ??_C@_0DJ@BKEGNNKB@GCD?3SetMemorySpaceAttributes?$CIBa@ 0000000000050440     DxeCore:Gcd.obj
 0002:00002480       ??_C@_0BI@PMFKMIML@?5?5Attributes?5?5?$DN?5?$CF016lx?6@ 0000000000050480     DxeCore:Gcd.obj
 0002:00002498       ??_C@_0DP@KFHGIBOG@GCD?3CoreSetMemorySpaceCapabilit@ 0000000000050498     DxeCore:Gcd.obj
 0002:000024d8       ??_C@_0BK@LLICKKMF@?5?5Capabilities?5?5?$DN?5?$CF016lx?6@ 00000000000504d8     DxeCore:Gcd.obj
 0002:000024f8       ??_C@_0CL@IHLLEJAB@GCD?3AddIoSpace?$CIBase?$DN?$CF016lx?0Leng@ 00000000000504f8     DxeCore:Gcd.obj
 0002:00002528       ??_C@_0BF@HMLBENFG@?5?5GcdIoType?5?5?5?5?$DN?5?$CFa?6@ 0000000000050528     DxeCore:Gcd.obj
 0002:00002540       ??_C@_0DA@IIHELIHJ@GCD?3AllocateIoSpace?$CIBase?$DN?$CF016lx@ 0000000000050540     DxeCore:Gcd.obj
 0002:00002570       ??_C@_0DA@EJCKDNGH@GCD?3AllocateIoSpace?$CIBase?$DN?$DMNULL?$DO@ 0000000000050570     DxeCore:Gcd.obj
 0002:000025a0       ??_C@_0BI@EKBMIDBF@?5?5GcdIoType?5?5?5?5?5?5?5?$DN?5?$CFa?6@ 00000000000505a0     DxeCore:Gcd.obj
 0002:000025b8       ??_C@_0CM@FKMOMCIM@GCD?3FreeIoSpace?$CIBase?$DN?$CF016lx?0Len@ 00000000000505b8     DxeCore:Gcd.obj
 0002:000025e8       ??_C@_0CO@EMFMKEDD@GCD?3RemoveIoSpace?$CIBase?$DN?$CF016lx?0L@ 00000000000505e8     DxeCore:Gcd.obj
 0002:00002618       ??_C@_0DK@DDONJNGD@?$CI?$CI?$CK?$CIEFI_HOB_GENERIC_HEADER?5?$CK?$CK?$CJ?$CG@ 0000000000050618     DxeCore:Gcd.obj
 0002:00002654       ??_C@_05JDGHEPJG@Found@    0000000000050654     DxeCore:Gcd.obj
 0002:00002660       ??_C@_0BP@GPENAPDN@CoreInitializeMemoryServices?3?6@ 0000000000050660     DxeCore:Gcd.obj
 0002:00002680       ??_C@_0EG@HIPBHLMB@?5?5BaseAddress?5?9?50x?$CFlx?5Length?5?9?5@ 0000000000050680     DxeCore:Gcd.obj
 0002:000026c8       ??_C@_0CC@NHBJGGMC@Length?5?$DO?$DN?5MinimalMemorySizeNeed@ 00000000000506c8     DxeCore:Gcd.obj
 0002:000026f0       ??_C@_0BH@LILALLBE@CpuHob?5?$CB?$DN?5?$CI?$CIvoid?5?$CK?$CJ?50?$CJ@ 00000000000506f0     DxeCore:Gcd.obj
 0002:00002710       ??_C@_0HJ@FLJHFJCH@?$CIDescriptor?4GcdMemoryType?5?$DN?$DN?5Ef@ 0000000000050710     DxeCore:Gcd.obj
 0002:00002790       ??_C@_0BN@BDINJONM@Status?5?$DN?$DN?5?$CIRETURN_STATUS?$CJ?$CI0?$CJ@ 0000000000050790     DxeCore:Gcd.obj
 0002:000027b0       ??_C@_0BL@KMGNLCAF@NewHobList?5?$CB?$DN?5?$CI?$CIvoid?5?$CK?$CJ?50?$CJ@ 00000000000507b0     DxeCore:Gcd.obj
 0002:000027d0       ??_C@_0CH@HLPFDMGH@?$CGgProtocolDatabaseLock?5?$CB?$DN?5?$CI?$CIvoi@ 00000000000507d0     DxeCore:Handle.obj
 0002:000027f8       ??_C@_0DJ@OAMNIDID@D?3?2develop?2EDK2?2edk2?2MdeModuleP@ 00000000000507f8     DxeCore:Handle.obj
 0002:00002838       ??_C@_0CC@CBAFNOJA@?$CGgProtocolDatabaseLock?5not?5lock@ 0000000000050838     DxeCore:Handle.obj
 0002:00002860       ??_C@_0DC@CAHOHHBK@SourceSize?5?$DO?$DN?5?$CIsizeof?5?$CIEFI_DEVI@ 0000000000050860     DxeCore:Handle.obj
 0002:00002898       ??_C@_0CM@ICPGCNBM@Size?5?$DO?$DN?5?$CIsizeof?5?$CIEFI_DEVICE_PAT@ 0000000000050898     DxeCore:Handle.obj
 0002:000028c8       ??_C@_0CB@FGNELNDC@InstallProtocolInterface?3?5?$CFg?5?$CFp@ 00000000000508c8     DxeCore:Handle.obj
 0002:000028f0       ??_C@_0DL@JMLDNLDN@InstallProtocolInterface?3?5input@ 00000000000508f0     DxeCore:Handle.obj
 0002:00002930       ??_C@_0EI@LMEPGOGI@CoreFindProtocolInterface?5?$CIHand@ 0000000000050930     DxeCore:Handle.obj
 0002:00002978       ??_C@_0DA@DJMJHNBL@InstallProtocolInterface?3?5?$CFg?5?$CFp@ 0000000000050978     DxeCore:Handle.obj
 0002:000029a8       ??_C@_0BF@IEAGJIOD@Prot?5?$CB?$DN?5?$CI?$CIvoid?5?$CK?$CJ?50?$CJ@ 00000000000509a8     DxeCore:Handle.obj
 0002:000029c0       ??_C@_0CK@BNHBJELF@Count?5?$DN?$DN?5ProtocolInterface?9?$DOOpe@ 00000000000509c0     DxeCore:Handle.obj
 0002:000029f0       ??_C@_0BI@JKFFMPIL@GetNext?5?$CB?$DN?5?$CI?$CIvoid?5?$CK?$CJ?50?$CJ@ 00000000000509f0     DxeCore:Locate.obj
 0002:00002a08       ??_C@_0DJ@MJCBOMIN@D?3?2develop?2EDK2?2edk2?2MdeModuleP@ 0000000000050a08     DxeCore:Locate.obj
 0002:00002a48       ??_C@_0BK@BPKPPMIP@SearchKey?5?$CB?$DN?5?$CI?$CIvoid?5?$CK?$CJ?50?$CJ@ 0000000000050a48     DxeCore:Locate.obj
 0002:00002a70       ??_C@_0EP@IMFJAECC@ProtNotify?9?$DOSignature?5?$DN?$DN?5?$CI?$CI?$CI?8p?8@ 0000000000050a70     DxeCore:Locate.obj
 0002:00002ac0       ??_C@_09KGHPCAJJ@Size?5?$DO?$DN?50@ 0000000000050ac0     DxeCore:Locate.obj
 0002:00002ad0       ??_C@_0BC@KDNKCHNM@Size?5?$CB?$DN?5BestMatch@ 0000000000050ad0     DxeCore:Locate.obj
 0002:00002ae8       ??_C@_0DJ@KJBCMIOD@D?3?2develop?2EDK2?2edk2?2MdeModuleP@ 0000000000050ae8     DxeCore:Notify.obj
 0002:00002b28       ??_C@_0BP@HJGHBKEE@HandleFilePath?5?$CB?$DN?5?$CI?$CIvoid?5?$CK?$CJ?50?$CJ@ 0000000000050b28     DxeCore:DriverSupport.obj
 0002:00002b50       ??_C@_0EA@MBFEJBDA@D?3?2develop?2EDK2?2edk2?2MdeModuleP@ 0000000000050b50     DxeCore:DriverSupport.obj
 0002:00002b90       ??_C@_0BN@JGHNALBE@TempFilePath?5?$CB?$DN?5?$CI?$CIvoid?5?$CK?$CJ?50?$CJ@ 0000000000050b90     DxeCore:DriverSupport.obj
 0002:00002bb0       ??_C@_0BF@JGGLMCFN@Lock?5?$CB?$DN?5?$CI?$CIvoid?5?$CK?$CJ?50?$CJ@ 0000000000050bb0     DxeCore:Library.obj
 0002:00002bc8       ??_C@_0DN@OJJIADCO@D?3?2develop?2EDK2?2edk2?2MdeModuleP@ 0000000000050bc8     DxeCore:Library.obj
 0002:00002c08       ??_C@_0CD@PGOFFOAH@Lock?9?$DOLock?5?$CB?$DN?5EfiLockUninitiali@ 0000000000050c08     DxeCore:Library.obj
 0002:00002c30       ??_C@_0BO@IJOPPPFL@Lock?9?$DOLock?5?$DN?$DN?5EfiLockReleased@ 0000000000050c30     DxeCore:Library.obj
 0002:00002c50       ??_C@_0BO@FHNOFLFJ@Lock?9?$DOLock?5?$DN?$DN?5EfiLockAcquired@ 0000000000050c50     DxeCore:Library.obj
 0002:00002c70       ??_C@_0BN@HNCDPMFJ@SetUefiImageMemoryAttributes@ 0000000000050c70     DxeCore:MemoryProtection.obj
 0002:00002c90       ??_C@_0GD@IFOHIACK@?$CFa?5?9?5Failed?5to?5get?5memory?5space@ 0000000000050c90     DxeCore:MemoryProtection.obj
 0002:00002d00       ??_C@_0ED@JLGJLDIA@D?3?2develop?2EDK2?2edk2?2MdeModuleP@ 0000000000050d00     DxeCore:MemoryProtection.obj
 0002:00002d48       ??_C@_0DP@JAPMDJLG@SetUefiImageMemoryAttributes?5?9?5@ 0000000000050d48     DxeCore:MemoryProtection.obj
 0002:00002d90       ??_C@_0FD@LLMPBIAJ@?$CFa?5failed?5setting?5capabilities?5@ 0000000000050d90     DxeCore:MemoryProtection.obj
 0002:00002de8       ??_C@_0DM@FNODADKK@?$CFa?5failed?5on?5?$CFllx?5of?5length?5?$CFll@ 0000000000050de8     DxeCore:MemoryProtection.obj
 0002:00002e30       ??_C@_0EP@JMNMLAHO@?$CFa?5failed?5to?5update?5page?5table?5@ 0000000000050e30     DxeCore:MemoryProtection.obj
 0002:00002e80       ??_C@_0DH@OJNENLBH@CurrentBase?5?$DM?$DN?5ImageRecordCodeS@ 0000000000050e80     DxeCore:MemoryProtection.obj
 0002:00002eb8       ??_C@_0BI@DPJDPFEL@CurrentBase?5?$DM?$DN?5ImageEnd@ 0000000000050eb8     DxeCore:MemoryProtection.obj
 0002:00002ed0       ??_C@_0BP@FGDIJMOP@ProtectUefiImageCommon?5?9?50x?$CFx?6@ 0000000000050ed0     DxeCore:MemoryProtection.obj
 0002:00002ef0       ??_C@_0BJ@NHGBELDF@?5?5?9?50x?$CF016lx?5?9?50x?$CF016lx?6@ 0000000000050ef0     DxeCore:MemoryProtection.obj
 0002:00002f10       ??_C@_0BB@BNEBDLMB@ProtectUefiImage@ 0000000000050f10     DxeCore:MemoryProtection.obj
 0002:00002f28       ??_C@_0CN@OCDFEJK@?$CFa?5failed?5to?5create?5image?5prope@ 0000000000050f28     DxeCore:MemoryProtection.obj
 0002:00002f58       ??_C@_0DJ@CIDFFKAG@Status?5?$DN?$DN?5?$CI?$CIRETURN_STATUS?$CJ?$CI0x80@ 0000000000050f58     DxeCore:MemoryProtection.obj
 0002:00002f98       ??_C@_0BK@BEMEMBP@MemoryMap?5?$CB?$DN?5?$CI?$CIvoid?5?$CK?$CJ?50?$CJ@ 0000000000050f98     DxeCore:MemoryProtection.obj
 0002:00002fb8       ??_C@_0CG@CMJGOADI@InitializeDxeNxMemoryProtection@ 0000000000050fb8     DxeCore:MemoryProtection.obj
 0002:00002fe0       ??_C@_0DA@NDFOMMEM@?$CFa?3?5StackBase?5?$DN?50x?$CF016lx?5?5Stack@ 0000000000050fe0     DxeCore:MemoryProtection.obj
 0002:00003010       ??_C@_0BJ@PGGPGHDP@?$CIStackBase?5?$CG?50xFFF?$CJ?5?$DN?$DN?50@ 0000000000051010     DxeCore:MemoryProtection.obj
 0002:00003030       ??_C@_0P@IPBGAGPE@StackBase?5?$CB?$DN?50@ 0000000000051030     DxeCore:MemoryProtection.obj
 0002:00003040       ??_C@_0DK@JJFJHMPM@?$CFa?3?5applying?5strict?5permissions@ 0000000000051040     DxeCore:MemoryProtection.obj
 0002:00003080       ??_C@_0CC@CKLHIGMP@MemoryMapEntry?9?$DONumberOfPages?5?$DO@ 0000000000051080     DxeCore:MemoryProtection.obj
 0002:000030a8       ??_C@_0DM@FKCLPAJE@?$CFa?3?5applying?5strict?5permissions@ 00000000000510a8     DxeCore:MemoryProtection.obj
 0002:000030f0       ??_C@_0EE@MMANGBPP@Untested?5GCD?5memory?5space?5regio@ 00000000000510f0     DxeCore:MemoryProtection.obj
 0002:00003138       ??_C@_0CI@KKNIBCOL@MemoryProtectionCpuArchProtocol@ 0000000000051138     DxeCore:MemoryProtection.obj
 0002:00003160       ??_C@_0CN@KNGKDDPF@DisableNullDetectionAtTheEndOfD@ 0000000000051160     DxeCore:MemoryProtection.obj
 0002:00003190       ??_C@_0CL@IOHIMNLP@DisableNullDetectionAtTheEndOfD@ 0000000000051190     DxeCore:MemoryProtection.obj
 0002:000031c0       ??_C@_0BO@PPLMMKGO@MemoryAttributeProtocolNotify@ 00000000000511c0     DxeCore:MemoryProtection.obj
 0002:000031e0       ??_C@_0EC@NFHJFPLJ@?$CFa?5?9?5Unable?5to?5locate?5the?5memor@ 00000000000511e0     DxeCore:MemoryProtection.obj
 0002:00003230       ??_C@_0FJ@HLFLALKC@?$CIGetPermissionAttributeForMemor@ 0000000000051230     DxeCore:MemoryProtection.obj
 0002:00003290       ??_C@_0FM@LKMMDKI@?$CIGetPermissionAttributeForMemor@ 0000000000051290     DxeCore:MemoryProtection.obj
 0002:000032f0       ??_C@_0FD@DMFHCNBE@?$CIGetPermissionAttributeForMemor@ 00000000000512f0     DxeCore:MemoryProtection.obj
 0002:00003350       ??_C@_0HJ@NFDBKKBO@GetPermissionAttributeForMemory@ 0000000000051350     DxeCore:MemoryProtection.obj
 0002:000033d0       ??_C@_0BP@OCBFHALD@CoreInitializeMemoryProtection@ 00000000000513d0     DxeCore:MemoryProtection.obj
 0002:000033f0       ??_C@_0FA@PCEGHNLO@?$CFa?5?9?5Failed?5to?5create?5event?5for@ 00000000000513f0     DxeCore:MemoryProtection.obj
 0002:00003440       ??_C@_0EM@LMJIELIB@?$CFa?5?9?5Failed?5to?5register?5for?5the@ 0000000000051440     DxeCore:MemoryProtection.obj
 0002:00003490       ??_C@_0CI@JIIAGMAO@Cannot?5install?5Memory?5Attribute@ 0000000000051490     DxeCore:MemoryAttributesTable.obj
 0002:000034b8       ??_C@_0DG@GNEGIFLJ@because?5Runtime?5Driver?5Section?5@ 00000000000514b8     DxeCore:MemoryAttributesTable.obj
 0002:000034f0       ??_C@_0EI@BDFCCKIP@D?3?2develop?2EDK2?2edk2?2MdeModuleP@ 00000000000514f0     DxeCore:MemoryAttributesTable.obj
 0002:00003538       ??_C@_0CG@FPGHNECH@MemoryAttributesTable?5?$CB?$DN?5?$CI?$CIvoid@ 0000000000051538     DxeCore:MemoryAttributesTable.obj
 0002:00003560       ??_C@_0BI@HNOKICAB@MemoryAttributesTable?3?6@ 0000000000051560     DxeCore:MemoryAttributesTable.obj
 0002:00003578       ??_C@_0CB@GMMBKKEK@?5?5Version?5?5?5?5?5?5?5?5?5?5?5?5?5?5?9?50x?$CF08x@ 0000000000051578     DxeCore:MemoryAttributesTable.obj
 0002:000035a0       ??_C@_0CB@KMMAFNLM@?5?5NumberOfEntries?5?5?5?5?5?5?9?50x?$CF08x@ 00000000000515a0     DxeCore:MemoryAttributesTable.obj
 0002:000035c8       ??_C@_0CB@FHOLKKC@?5?5DescriptorSize?5?5?5?5?5?5?5?9?50x?$CF08x@ 00000000000515c8     DxeCore:MemoryAttributesTable.obj
 0002:000035f0       ??_C@_0O@BJLMFKPN@Entry?5?$CI0x?$CFx?$CJ?6@ 00000000000515f0     DxeCore:MemoryAttributesTable.obj
 0002:00003600       ??_C@_0BM@OFOMNHPM@?5?5Type?5?5?5?5?5?5?5?5?5?5?5?5?5?5?9?50x?$CFx?6@ 0000000000051600     DxeCore:MemoryAttributesTable.obj
 0002:00003620       ??_C@_0CA@LKNOBKLP@?5?5PhysicalStart?5?5?5?5?5?9?50x?$CF016lx?6@ 0000000000051620     DxeCore:MemoryAttributesTable.obj
 0002:00003640       ??_C@_0CA@OBLLFPPH@?5?5VirtualStart?5?5?5?5?5?5?9?50x?$CF016lx?6@ 0000000000051640     DxeCore:MemoryAttributesTable.obj
 0002:00003660       ??_C@_0CA@HKCNAHEO@?5?5NumberOfPages?5?5?5?5?5?9?50x?$CF016lx?6@ 0000000000051660     DxeCore:MemoryAttributesTable.obj
 0002:00003680       ??_C@_0CA@EEMGMJFM@?5?5Attribute?5?5?5?5?5?5?5?5?5?9?50x?$CF016lx?6@ 0000000000051680     DxeCore:MemoryAttributesTable.obj
 0002:000036a0       ??_C@_0CH@GOHPIDLA@DXE?5?9?5Total?5Runtime?5Image?5Count@ 00000000000516a0     DxeCore:MemoryAttributesTable.obj
 0002:000036c8       ??_C@_0CD@IJGLDEEJ@DXE?5?9?5Dump?5Runtime?5Image?5Record@ 00000000000516c8     DxeCore:MemoryAttributesTable.obj
 0002:000036f0       ??_C@_0BK@BDNMFFLI@InsertImageRecord?5?9?50x?$CFx?6@ 00000000000516f0     DxeCore:MemoryAttributesTable.obj
 0002:00003710       ??_C@_0DD@CPDCPODE@Do?5not?5insert?5runtime?5image?5rec@ 0000000000051710     DxeCore:MemoryAttributesTable.obj
 0002:00003748       ??_C@_0O@GJKANIFG@?5?5Image?5?9?5?$CFa?6@ 0000000000051748     DxeCore:MemoryAttributesTable.obj
 0002:00003758       ??_C@_0DP@DCIHFLBD@?$CB?$CB?$CB?$CB?$CB?$CB?$CB?$CB?5?5InsertImageRecord?5?9?5C@ 0000000000051758     DxeCore:MemoryAttributesTable.obj
 0002:00003798       ??_C@_0CA@NBAFADJB@?$CB?$CB?$CB?$CB?$CB?$CB?$CB?$CB?5?5Image?5?9?5?$CFa?5?5?$CB?$CB?$CB?$CB?$CB?$CB?$CB?$CB?6@ 0000000000051798     DxeCore:MemoryAttributesTable.obj
 0002:000037b8       ??_C@_0CG@FKONGJEN@IsImageRecordCodeSectionValid?5?9@ 00000000000517b8     DxeCore:MemoryAttributesTable.obj
 0002:000037e0       ??_C@_0BK@HPPNGIAO@RemoveImageRecord?5?9?50x?$CFx?6@ 00000000000517e0     DxeCore:MemoryAttributesTable.obj
 0002:00003800       ??_C@_0CJ@LNPAJGNG@RemoveImageRecord?5?9?50x?$CF016lx?5?9?5@ 0000000000051800     DxeCore:MemoryAttributesTable.obj
 0002:00003830       ??_C@_0DD@GJBAEOGG@Do?5not?5remove?5runtime?5image?5rec@ 0000000000051830     DxeCore:MemoryAttributesTable.obj
 0002:00003868       ??_C@_0CJ@MHHEPHPJ@?$CB?$CB?$CB?$CB?$CB?$CB?$CB?$CB?5ImageRecord?5not?5found?5@ 0000000000051868     DxeCore:MemoryAttributesTable.obj
 0002:000038a0       ??_C@_0LN@OIHGBGLJ@Allocate?5memory?5for?5EFI_SYSTEM_@ 00000000000518a0     DxeCore:DebugImageInfo.obj
 0002:00003960       ??_C@_0EB@JHKGJMLD@D?3?2develop?2EDK2?2edk2?2MdeModuleP@ 0000000000051960     DxeCore:DebugImageInfo.obj
 0002:000039a8       ??_C@_0BM@KCFHPMG@mDebugTable?5?$CB?$DN?5?$CI?$CIvoid?5?$CK?$CJ?50?$CJ@ 00000000000519a8     DxeCore:DebugImageInfo.obj
 0002:000039c8       ??_C@_19EDCBDMLJ@?$AAI?$AAA?$AA3?$AA2@ 00000000000519c8     DxeCore:Image.obj
 0002:000039d8       ??_C@_19DGIHPCNG@?$AAI?$AAA?$AA6?$AA4@ 00000000000519d8     DxeCore:Image.obj
 0002:000039e8       ??_C@_17LBHEEDKD@?$AAX?$AA6?$AA4@ 00000000000519e8     DxeCore:Image.obj
 0002:000039f0       ??_C@_1BA@LNDLOPGI@?$AAA?$AAA?$AAR?$AAC?$AAH?$AA6?$AA4@ 00000000000519f0     DxeCore:Image.obj
 0002:00003a00       ??_C@_1BA@LDBJBEEE@?$AAR?$AAI?$AAS?$AAC?$AAV?$AA6?$AA4@ 0000000000051a00     DxeCore:Image.obj
 0002:00003a10       ??_C@_1BI@MABENGPE@?$AAL?$AAO?$AAO?$AAN?$AAG?$AAA?$AAR?$AAC?$AAH?$AA6?$AA4@ 0000000000051a10     DxeCore:Image.obj
 0002:00003a28       ??_C@_1BE@BGMELJBK@?$AA?$DM?$AAU?$AAn?$AAk?$AAn?$AAo?$AAw?$AAn?$AA?$DO@ 0000000000051a28     DxeCore:Image.obj
 0002:00003a40       ??_C@_0DJ@FFKCFLCN@D?3?2develop?2EDK2?2edk2?2MdeModuleP@ 0000000000051a40     DxeCore:Image.obj
 0002:00003a80       ??_C@_0EK@DBFEBAJP@FHand?9?$DOSignature?5?$DN?$DN?5?$CI?$CI?$CI?8i?8?$CJ?5?$HM?5?$CI@ 0000000000051a80     DxeCore:Image.obj
 0002:00003ad0       ??_C@_0FB@HPKEPDKF@LOADING?5MODULE?5FIXED?5INFO?3?5Load@ 0000000000051ad0     DxeCore:Image.obj
 0002:00003b28       ??_C@_0DC@EJDBEBLN@Image?5type?5?$CFs?5can?8t?5be?5loaded?5o@ 0000000000051b28     DxeCore:Image.obj
 0002:00003b60       ??_C@_0GN@ODNMPKFJ@LOADING?5MODULE?5FIXED?5ERROR?3?5Loa@ 0000000000051b60     DxeCore:Image.obj
 0002:00003bd0       ??_C@_0CM@DHEJGNGM@Loading?5driver?5at?50x?$CF11p?5EntryP@ 0000000000051bd0     DxeCore:Image.obj
 0002:00003bfc       ??_C@_02ECNOPIAA@?$CFa@    0000000000051bfc     DxeCore:Image.obj
 0002:00003c00       ??_C@_0CM@OGKPDMHB@CoreLoadedImageInfo?3?5Not?5an?5Ima@ 0000000000051c00     DxeCore:Image.obj
 0002:00003c30       ??_C@_0BE@LIDLKJIC@gEfiCurrentTpl?5?$DM?516@ 0000000000051c30     DxeCore:Image.obj
 0002:00003c48       ??_C@_0DA@PNFPMGEN@LoadImageEx?3?5Parent?5handle?5not?5@ 0000000000051c48     DxeCore:Image.obj
 0002:00003c78       ??_C@_0BK@CFBPOBLI@gSecurity?5?$CB?$DN?5?$CI?$CIvoid?5?$CK?$CJ?50?$CJ@ 0000000000051c78     DxeCore:Image.obj
 0002:00003c98       ??_C@_0CA@LMDJIDC@Image?5type?5?$CFs?5can?8t?5be?5started?5@ 0000000000051c98     DxeCore:Image.obj
 0002:00003cb8       ??_C@_0BE@PMMMCCHM@on?5?$CFs?5UEFI?5system?4?6@ 0000000000051cb8     DxeCore:Image.obj
 0002:00003cd0       ??_C@_0EG@GLDEAECD@CoreLoadPeImage?3?5Failed?5to?5regi@ 0000000000051cd0     DxeCore:Image.obj
 0002:00003d18       ??_C@_0CH@BJEHJFJH@Error?3?5Image?5at?5?$CF11p?5start?5fail@ 0000000000051d18     DxeCore:Image.obj
 0002:00003d40       ??_C@_0BN@KFGHOKFH@Image?9?$DOTpl?5?$DN?$DN?5gEfiCurrentTpl@ 0000000000051d40     DxeCore:Image.obj
 0002:00003d60       ??_C@_0CJ@DLIJNNII@StartImage?3?5ExitDataSize?5?$CFd?0?5Ex@ 0000000000051d60     DxeCore:Image.obj
 0002:00003d8c       ??_C@_05DNDNCJEB@?5?$CI?$CFs?$CJ@ 0000000000051d8c     DxeCore:Image.obj
 0002:00003d98       ??_C@_0CD@CIGCNLDL@Exit?3?5Image?5is?5not?5exitable?5ima@ 0000000000051d98     DxeCore:Image.obj
 0002:00003dc0       ??_C@_0FF@LPNCGALC@D?3?2develop?2EDK2?2edk2?2MdeModuleP@ 0000000000051dc0     DxeCore:CoreSectionExtraction.obj
 0002:00003e18       ??_C@_0CI@HIJAFAGE@GuidedHeader?9?$DOCommonHeader?4Type@ 0000000000051e18     DxeCore:CoreSectionExtraction.obj
 0002:00003e40       ??_C@_0BI@DNICFLOF@Context?5?$CB?$DN?5?$CI?$CIvoid?5?$CK?$CJ?50?$CJ@ 0000000000051e40     DxeCore:CoreSectionExtraction.obj
 0002:00003e58       ??_C@_0BL@IIFJKKLG@Decompress?5?$CB?$DN?5?$CI?$CIvoid?5?$CK?$CJ?50?$CJ@ 0000000000051e58     DxeCore:CoreSectionExtraction.obj
 0002:00003e78       ??_C@_0BF@FBJGGPOH@?$CKSectionInstance?5?$DO?50@ 0000000000051e78     DxeCore:CoreSectionExtraction.obj
 0002:00003e90       ??_C@_0CB@CNFLOPGM@CurrentChildNode?5?$CB?$DN?5?$CI?$CIvoid?5?$CK?$CJ?50@ 0000000000051e90     DxeCore:CoreSectionExtraction.obj
 0002:00003eb8       ??_C@_0DK@GFHMJMLM@?$CI?$CI?$CIRETURN_STATUS?$CJ?$CIErrorStatus?$CJ?$CJ@ 0000000000051eb8     DxeCore:CoreSectionExtraction.obj
 0002:00003ef8       ??_C@_0L@IPEEMBLD@GetSection@ 0000000000051ef8     DxeCore:CoreSectionExtraction.obj
 0002:00003f08       ??_C@_0CM@HDKOPCPM@?$CFa?3?5recursion?5aborted?5due?5to?5ne@ 0000000000051f08     DxeCore:CoreSectionExtraction.obj
 0002:00003f40       ??_C@_0EO@LAPNMKO@?$CI?$CI?$CIEFI_COMMON_SECTION_HEADER2?5?$CK@ 0000000000051f40     DxeCore:CoreSectionExtraction.obj
 0002:00003f90       ??_C@_0DM@GLCAIADA@It?5is?5a?5FFS3?5formatted?5section?5@ 0000000000051f90     DxeCore:CoreSectionExtraction.obj
 0002:00003fd0       ??_C@_0EO@CPIGPIBK@ChildNode?9?$DOSignature?5?$DN?$DN?5?$CI?$CI?$CI?8S?8?$CJ@ 0000000000051fd0     DxeCore:CoreSectionExtraction.obj
 0002:00004020       ??_C@_0CJ@LEPGFEOI@GetInfo?5from?5guided?5section?5Fai@ 0000000000052020     DxeCore:CoreSectionExtraction.obj
 0002:00004050       ??_C@_0CE@CGCKLIFH@Extract?5guided?5section?5Failed?5?9@ 0000000000052050     DxeCore:CoreSectionExtraction.obj
 0002:00004078       ??_C@_0DI@MBLLHEOH@D?3?2develop?2EDK2?2edk2?2MdePkg?2Lib@ 0000000000052078     BaseLib:Unaligned.obj
 0002:000040b0       ??_C@_0BH@MAAHKCPC@String?5?$CB?$DN?5?$CI?$CIvoid?5?$CK?$CJ?50?$CJ@ 00000000000520b0     BaseLib:String.obj
 0002:000040c8       ??_C@_0DF@EAHDDLM@D?3?2develop?2EDK2?2edk2?2MdePkg?2Lib@ 00000000000520c8     BaseLib:String.obj
 0002:00004100       ??_C@_0CC@GFNLNIOC@?$CI?$CIUINTN?$CJString?5?$CG?50x00000001?$CJ?5?$DN?$DN@ 0000000000052100     BaseLib:String.obj
 0002:00004128       ??_C@_0DI@MDIKFADO@Length?5?$DM?5_gPcd_FixedAtBuild_Pcd@ 0000000000052128     BaseLib:String.obj
 0002:00004160       ??_C@_0BM@NLNKOJGD@Destination?5?$CB?$DN?5?$CI?$CIvoid?5?$CK?$CJ?50?$CJ@ 0000000000052160     BaseLib:String.obj
 0002:00004180       ??_C@_0DJ@DNFJNBOO@D?3?2develop?2EDK2?2edk2?2MdePkg?2Lib@ 0000000000052180     BaseLib:SafeString.obj
 0002:000041c0       ??_C@_0BJ@CNKJJNE@?$CIBuffer?5?$CB?$DN?5?$CI?$CIvoid?5?$CK?$CJ?50?$CJ?$CJ@ 00000000000521c0     BaseLib:SafeString.obj
 0002:000041e0       ??_C@_0BF@NJNGJMPC@List?5?$CB?$DN?5?$CI?$CIvoid?5?$CK?$CJ?50?$CJ@ 00000000000521e0     BaseLib:LinkedList.obj
 0002:000041f8       ??_C@_0DJ@PDIPIDH@D?3?2develop?2EDK2?2edk2?2MdePkg?2Lib@ 00000000000521f8     BaseLib:LinkedList.obj
 0002:00004238       ??_C@_0CC@KDLPLAED@List?9?$DOForwardLink?5?$CB?$DN?5?$CI?$CIvoid?5?$CK?$CJ?5@ 0000000000052238     BaseLib:LinkedList.obj
 0002:00004260       ??_C@_0BP@IJJCCMAK@List?9?$DOBackLink?5?$CB?$DN?5?$CI?$CIvoid?5?$CK?$CJ?50?$CJ@ 0000000000052260     BaseLib:LinkedList.obj
 0002:00004280       ??_C@_0CI@BMHOPIIO@InternalBaseLibIsListValid?5?$CIFir@ 0000000000052280     BaseLib:LinkedList.obj
 0002:000042a8       ??_C@_0BM@BAIHHOEP@SecondEntry?5?$CB?$DN?5?$CI?$CIvoid?5?$CK?$CJ?50?$CJ@ 00000000000522a8     BaseLib:LinkedList.obj
 0002:000042c8       ??_C@_0BJ@NJABNCDK@ListHead?5?$CB?$DN?5?$CI?$CIvoid?5?$CK?$CJ?50?$CJ@ 00000000000522c8     BaseLib:LinkedList.obj
 0002:000042e8       ??_C@_0DI@HOMAKAJD@?$CI?$CIBOOLEAN?$CJ?$CI0?$DN?$DN1?$CJ?$CJ?5?$DN?$DN?5IsNodeInLi@ 00000000000522e8     BaseLib:LinkedList.obj
 0002:00004320       ??_C@_0CG@LGIALJFK@InternalBaseLibIsListValid?5?$CILis@ 0000000000052320     BaseLib:LinkedList.obj
 0002:00004348       ??_C@_0CC@JLDICICM@InternalBaseLibIsListValid?5?$CILis@ 0000000000052348     BaseLib:LinkedList.obj
 0002:00004370       ??_C@_0DD@OAAIDOJD@?$CI?$CIBOOLEAN?$CJ?$CI1?$DN?$DN1?$CJ?$CJ?5?$DN?$DN?5IsNodeInLi@ 0000000000052370     BaseLib:LinkedList.obj
 0002:000043b0       ??_C@_0EA@OIBCJFLG@?$CI?$CIBOOLEAN?$CJ?$CI1?$DN?$DN1?$CJ?$CJ?5?$DN?$DN?5IsNodeInLi@ 00000000000523b0     BaseLib:LinkedList.obj
 0002:000043f0       ??_C@_0BF@NMBJJECB@?$CBIsListEmpty?5?$CIEntry?$CJ@ 00000000000523f0     BaseLib:LinkedList.obj
 0002:00004408       ??_C@_0L@MEMPDLHB@Count?5?$DM?564@ 0000000000052408     BaseLib:ARShiftU64.obj
 0002:00004418       ??_C@_0N@KGHEHMDL@Divisor?5?$CB?$DN?50@ 0000000000052418     BaseLib:DivS64x64Remainder.obj
 0002:00004430       ??_C@_0EB@NJAKFAEH@D?3?2develop?2EDK2?2edk2?2MdePkg?2Lib@ 0000000000052430     BaseLib:DivU64x32Remainder.obj
 0002:00004478       ??_C@_0DI@FAGDBCDM@D?3?2develop?2EDK2?2edk2?2MdePkg?2Lib@ 0000000000052478     BaseLib:LShiftU64.obj
 0002:000044b0       ??_C@_0DI@LFEKCMNO@D?3?2develop?2EDK2?2edk2?2MdePkg?2Lib@ 00000000000524b0     BaseLib:RShiftU64.obj
 0002:000044e8       ??_C@_0BL@CPGKAMND@JumpBuffer?5?$CB?$DN?5?$CI?$CIvoid?5?$CK?$CJ?50?$CJ@ 00000000000524e8     BaseLib:SetJump.obj
 0002:00004508       ??_C@_0DG@HPLDDALP@D?3?2develop?2EDK2?2edk2?2MdePkg?2Lib@ 0000000000052508     BaseLib:SetJump.obj
 0002:00004540       ??_C@_0CD@OEHNCIHG@?$CI?$CIUINTN?$CJJumpBuffer?5?$CG?5?$CI8?5?9?51?$CJ?$CJ?5?$DN@ 0000000000052540     BaseLib:SetJump.obj
 0002:00004568       ??_C@_0L@KDHIOLNB@Value?5?$CB?$DN?50@ 0000000000052568     BaseLib:LongJump.obj
 0002:00004578       ??_C@_0DH@BOIOFKJJ@D?3?2develop?2EDK2?2edk2?2MdePkg?2Lib@ 0000000000052578     BaseLib:LongJump.obj
 0002:000045b0       ??_C@_0DH@CDGJKCAD@D?3?2develop?2EDK2?2edk2?2MdePkg?2Lib@ 00000000000525b0     BaseLib:CheckSum.obj
 0002:000045e8       ??_C@_0DI@FAOGOFLE@Length?5?$DM?$DN?5?$CI0xFFFFFFFFFFFFFFFFUL@ 00000000000525e8     BaseLib:CheckSum.obj
 0002:00004620       ??_C@_0BL@CMBJDOF@?$CI?$CIUINTN?$CJBuffer?5?$CG?50x1?$CJ?5?$DN?$DN?50@ 0000000000052620     BaseLib:CheckSum.obj
 0002:00004640       ??_C@_0BE@FFFDBMIE@?$CILength?5?$CG?50x1?$CJ?5?$DN?$DN?50@ 0000000000052640     BaseLib:CheckSum.obj
 0002:00004658       ??_C@_0DG@EEENIGGL@Length?5?$DM?$DN?5?$CI0xFFFFFFFFFFFFFFFFUL@ 0000000000052658     BaseMemoryLib:MemLibGuid.obj
 0002:00004690       ??_C@_0DI@DAGDPLPG@?$CILength?5?9?51?$CJ?5?$DM?$DN?5?$CI0xFFFFFFFFFFFF@ 0000000000052690     BaseMemoryLib:IsZeroBufferWrapper.obj
 0002:000046d0       ??_C@_0ED@MKGCMJG@?$CILength?5?9?51?$CJ?5?$DM?$DN?5?$CI0xFFFFFFFFFFFF@ 00000000000526d0     BaseMemoryLib:CopyMemWrapper.obj
 0002:00004720       ??_C@_0ED@JLFCAFGL@D?3?2develop?2EDK2?2edk2?2MdePkg?2Lib@ 0000000000052720     BaseMemoryLib:CopyMemWrapper.obj
 0002:00004768       ??_C@_0DO@MAOBOFEG@?$CILength?5?9?51?$CJ?5?$DM?$DN?5?$CI0xFFFFFFFFFFFF@ 0000000000052768     BaseMemoryLib:CopyMemWrapper.obj
 0002:000047b0       ??_C@_0EC@NIFDAJKM@D?3?2develop?2EDK2?2edk2?2MdePkg?2Lib@ 00000000000527b0     BaseMemoryLib:SetMemWrapper.obj
 0002:00004800       ??_C@_0EE@OCDBMDJF@D?3?2develop?2EDK2?2edk2?2MdePkg?2Lib@ 0000000000052800     BaseMemoryLib:SetMem16Wrapper.obj
 0002:00004848       ??_C@_0CO@LECKNDNC@?$CI?$CI?$CIUINTN?$CJBuffer?$CJ?5?$CG?5?$CIsizeof?5?$CIVal@ 0000000000052848     BaseMemoryLib:SetMem16Wrapper.obj
 0002:00004878       ??_C@_0CF@LEICOABD@?$CILength?5?$CG?5?$CIsizeof?5?$CIValue?$CJ?5?9?51?$CJ?$CJ@ 0000000000052878     BaseMemoryLib:SetMem16Wrapper.obj
 0002:000048a0       ??_C@_0EE@MOMFJDNL@D?3?2develop?2EDK2?2edk2?2MdePkg?2Lib@ 00000000000528a0     BaseMemoryLib:SetMem64Wrapper.obj
 0002:000048e8       ??_C@_0CC@JOEHDGKB@DestinationBuffer?5?$CB?$DN?5?$CI?$CIvoid?5?$CK?$CJ?5@ 00000000000528e8     BaseMemoryLib:CompareMemWrapper.obj
 0002:00004910       ??_C@_0EG@DEJIAPDF@D?3?2develop?2EDK2?2edk2?2MdePkg?2Lib@ 0000000000052910     BaseMemoryLib:CompareMemWrapper.obj
 0002:00004958       ??_C@_0BN@MDMCNBCC@SourceBuffer?5?$CB?$DN?5?$CI?$CIvoid?5?$CK?$CJ?50?$CJ@ 0000000000052958     BaseMemoryLib:CompareMemWrapper.obj
 0002:00004980       ??_C@_0ED@CPPAGEKM@D?3?2develop?2EDK2?2edk2?2MdePkg?2Lib@ 0000000000052980     BaseMemoryLib:ZeroMemWrapper.obj
 0002:000049d0       ??_C@_0EE@MECDHINL@D?3?2develop?2EDK2?2edk2?2MdePkg?2Lib@ 00000000000529d0     BasePrintLib:PrintLibInternal.obj
 0002:00004a20       ??_C@_0EB@HDGIDCIO@?$CIBufferSize?5?$DM?$DN?5?$CI_gPcd_FixedAtBu@ 0000000000052a20     BasePrintLib:PrintLibInternal.obj
 0002:00004a68       ??_C@_0BJ@PPAKKDJG@?$CIFormat?5?$CB?$DN?5?$CI?$CIvoid?5?$CK?$CJ?50?$CJ?$CJ@ 0000000000052a68     BasePrintLib:PrintLibInternal.obj
 0002:00004a90       ??_C@_0ED@LPDDCECB@?$CIBufferSize?5?$DM?$DN?5?$CI_gPcd_FixedAtBu@ 0000000000052a90     BasePrintLib:PrintLibInternal.obj
 0002:00004ae0       ??_C@_0IM@BFJJFLGB@?$CIStrnLenS?5?$CI?$CICHAR16?5?$CK?$CJFormat?0?5?$CI_@ 0000000000052ae0     BasePrintLib:PrintLibInternal.obj
 0002:00004b70       ??_C@_0ID@PLGJGION@?$CIAsciiStrnLenS?5?$CIFormat?0?5?$CI_gPcd_@ 0000000000052b70     BasePrintLib:PrintLibInternal.obj
 0002:00004bf8       ??_C@_0O@MLOLIMFM@?$DMnull?5string?$DO@ 0000000000052bf8     BasePrintLib:PrintLibInternal.obj
 0002:00004c08       ??_C@_0M@BJJDNPHK@?$DMnull?5guid?$DO@ 0000000000052c08     BasePrintLib:PrintLibInternal.obj
 0002:00004c18       ??_C@_0DB@PMLHLBMO@?$CF08x?9?$CF04x?9?$CF04x?9?$CF02x?$CF02x?9?$CF02x?$CF02@ 0000000000052c18     BasePrintLib:PrintLibInternal.obj
 0002:00004c50       ??_C@_0M@LHGBCIKM@?$DMnull?5time?$DO@ 0000000000052c50     BasePrintLib:PrintLibInternal.obj
 0002:00004c60       ??_C@_0BK@FCPKCIDD@?$CF02d?1?$CF02d?1?$CF04d?5?5?$CF02d?3?$CF02d@ 0000000000052c60     BasePrintLib:PrintLibInternal.obj
 0002:00004c7c       ??_C@_04JIMNDDED@?$CF08X@  0000000000052c7c     BasePrintLib:PrintLibInternal.obj
 0002:00004c84       ??_C@_02PCIJFNDE@?$AN?6@   0000000000052c84     BasePrintLib:PrintLibInternal.obj
 0002:00004c88       ??_C@_01LIIJDEN@?$AN@      0000000000052c88     BasePrintLib:PrintLibInternal.obj
 0002:00004c90       mWarningString             0000000000052c90     BasePrintLib:PrintLibInternal.obj
 0002:00004d60       mErrorString               0000000000052d60     BasePrintLib:PrintLibInternal.obj
 0002:00005040       mHexStr                    0000000000053040     BasePrintLib:PrintLibInternal.obj
 0002:00005050       ??_C@_0BH@LKMBFCBF@Format?5?$CB?$DN?5?$CI?$CIvoid?5?$CK?$CJ?50?$CJ@ 0000000000053050     BaseDebugLibSerialPort:DebugLib.obj
 0002:00005070       ??_C@_0EG@GJAPECEG@D?3?2develop?2EDK2?2edk2?2MdePkg?2Lib@ 0000000000053070     BaseDebugLibSerialPort:DebugLib.obj
 0002:000050b8       ??_C@_0BI@NOCKJDBJ@ASSERT?5?$FL?$CFa?$FN?5?$CFa?$CI?$CFd?$CJ?3?5?$CFa?6@ 00000000000530b8     BaseDebugLibSerialPort:DebugLib.obj
 0002:000050d0       ??_C@_0EK@DAHNEHBP@D?3?2develop?2EDK2?2edk2?2MdePkg?2Lib@ 00000000000530d0     DxeCoreEntryPoint:DxeCoreEntryPoint.obj
 0002:00005120       ??_C@_0BJ@FNDBAONE@gHobList?5?$CB?$DN?5?$CI?$CIvoid?5?$CK?$CJ?50?$CJ@ 0000000000053120     DxeCoreHobLib:HobLib.obj
 0002:00005140       ??_C@_0DL@IJPKIGFD@D?3?2develop?2EDK2?2edk2?2MdePkg?2Lib@ 0000000000053140     DxeCoreHobLib:HobLib.obj
 0002:00005180       ??_C@_0BJ@NOLLDKJB@HobStart?5?$CB?$DN?5?$CI?$CIvoid?5?$CK?$CJ?50?$CJ@ 0000000000053180     DxeCoreHobLib:HobLib.obj
 0002:000051a0       ??_C@_0BI@EDOKPJOP@GuidHob?5?$CB?$DN?5?$CI?$CIvoid?5?$CK?$CJ?50?$CJ@ 00000000000531a0     DxeEmuLib:DxeEmuLib.obj
 0002:000051b8       ??_C@_0DP@GJOPCIJA@D?3?2develop?2EDK2?2edk2?2EmulatorPk@ 00000000000531b8     DxeEmuLib:DxeEmuLib.obj
 0002:000051f8       ??_C@_0BK@ELNDAPDH@gEmuThunk?5?$CB?$DN?5?$CI?$CIvoid?5?$CK?$CJ?50?$CJ@ 00000000000531f8     DxeEmuLib:DxeEmuLib.obj
 0002:00005218       ??_C@_0L@LBCNCHJA@Pages?5?$CB?$DN?50@ 0000000000053218     DxeCoreMemoryAllocationLib:MemoryAllocationLib.obj
 0002:00005230       ??_C@_0FL@HCFKBIAE@D?3?2develop?2EDK2?2edk2?2MdeModuleP@ 0000000000053230     DxeCoreMemoryAllocationLib:MemoryAllocationLib.obj
 0002:00005290       ??_C@_0CD@GECBLADO@?$CIAlignment?5?$CG?5?$CIAlignment?5?9?51?$CJ?$CJ?5?$DN@ 0000000000053290     DxeCoreMemoryAllocationLib:MemoryAllocationLib.obj
 0002:000052b8       ??_C@_0BC@BDMGDFME@RealPages?5?$DO?5Pages@ 00000000000532b8     DxeCoreMemoryAllocationLib:MemoryAllocationLib.obj
 0002:000052d0       ??_C@_0DO@GEEICOOO@AllocationSize?5?$DM?$DN?5?$CI0xFFFFFFFFFF@ 00000000000532d0     DxeCoreMemoryAllocationLib:MemoryAllocationLib.obj
 0002:00005310       ??_C@_0BE@OBDFIHND@gRT?5?$CB?$DN?5?$CI?$CIvoid?5?$CK?$CJ?50?$CJ@ 0000000000053310     UefiRuntimeServicesTableLib:UefiRuntimeServicesTableLib.obj
 0002:00005330       ??_C@_0FO@FKLKMJDF@D?3?2develop?2EDK2?2edk2?2MdePkg?2Lib@ 0000000000053330     UefiRuntimeServicesTableLib:UefiRuntimeServicesTableLib.obj
 0002:00005390       ??_C@_0BF@CBLMFKOC@Node?5?$CB?$DN?5?$CI?$CIvoid?5?$CK?$CJ?50?$CJ@ 0000000000053390     UefiDevicePathLib:DevicePathUtilities.obj
 0002:000053b0       ??_C@_0EM@ILCAIIGE@D?3?2develop?2EDK2?2edk2?2MdePkg?2Lib@ 00000000000533b0     UefiDevicePathLib:DevicePathUtilities.obj
 0002:00005400       ??_C@_0EH@ENCEEKKL@?$CILength?5?$DO?$DN?5sizeof?5?$CIEFI_DEVICE_P@ 0000000000053400     UefiDevicePathLib:DevicePathUtilities.obj
 0002:00005448       mUefiDevicePathLibEndDevicePath 0000000000053448     UefiDevicePathLib:DevicePathUtilities.obj
 0002:00005450       ??_C@_0BN@COECPDCC@gImageHandle?5?$CB?$DN?5?$CI?$CIvoid?5?$CK?$CJ?50?$CJ@ 0000000000053450     UefiBootServicesTableLib:UefiBootServicesTableLib.obj
 0002:00005470       ??_C@_0FI@GPPFIFID@D?3?2develop?2EDK2?2edk2?2MdePkg?2Lib@ 0000000000053470     UefiBootServicesTableLib:UefiBootServicesTableLib.obj
 0002:000054c8       ??_C@_0BE@DGNHAHIL@gST?5?$CB?$DN?5?$CI?$CIvoid?5?$CK?$CJ?50?$CJ@ 00000000000534c8     UefiBootServicesTableLib:UefiBootServicesTableLib.obj
 0002:000054e0       ??_C@_0BE@BDFJLGLN@gBS?5?$CB?$DN?5?$CI?$CIvoid?5?$CK?$CJ?50?$CJ@ 00000000000534e0     UefiBootServicesTableLib:UefiBootServicesTableLib.obj
 0002:00005500       ??_C@_0GB@EMJDNAEA@D?3?2develop?2EDK2?2edk2?2EmulatorPk@ 0000000000053500     DxeEmuPeCoffExtraActionLib:DxeEmuPeCoffExtraActionLib.obj
 0002:00005568       ??_C@_0BH@DKHHOJK@mThunk?5?$CB?$DN?5?$CI?$CIvoid?5?$CK?$CJ?50?$CJ@ 0000000000053568     DxeEmuPeCoffExtraActionLib:DxeEmuPeCoffExtraActionLib.obj
 0002:00005580       ??_C@_0BK@PPOBBAMB@TableGuid?5?$CB?$DN?5?$CI?$CIvoid?5?$CK?$CJ?50?$CJ@ 0000000000053580     UefiLib:UefiLib.obj
 0002:000055a0       ??_C@_0DG@PLINABMB@D?3?2develop?2EDK2?2edk2?2MdePkg?2Lib@ 00000000000535a0     UefiLib:UefiLib.obj
 0002:000055d8       ??_C@_0BG@JDKEGFNB@Table?5?$CB?$DN?5?$CI?$CIvoid?5?$CK?$CJ?50?$CJ@ 00000000000535d8     UefiLib:UefiLib.obj
 0002:000055f0       ??_C@_0BN@HHGHCLME@ProtocolGuid?5?$CB?$DN?5?$CI?$CIvoid?5?$CK?$CJ?50?$CJ@ 00000000000535f0     UefiLib:UefiLib.obj
 0002:00005610       ??_C@_0BP@DEIEJICI@NotifyFunction?5?$CB?$DN?5?$CI?$CIvoid?5?$CK?$CJ?50?$CJ@ 0000000000053610     UefiLib:UefiLib.obj
 0002:00005630       ??_C@_0BN@OMCJCPAI@Registration?5?$CB?$DN?5?$CI?$CIvoid?5?$CK?$CJ?50?$CJ@ 0000000000053630     UefiLib:UefiLib.obj
 0002:00005650       ??_C@_0DL@JLMIJHMI@D?3?2develop?2EDK2?2edk2?2MdePkg?2Lib@ 0000000000053650     UefiLib:UefiNotTiano.obj
 0002:00005690       ??_C@_0CB@OKGFGBHJ@FvDevicePathNode?5?$CB?$DN?5?$CI?$CIvoid?5?$CK?$CJ?50@ 0000000000053690     UefiLib:UefiNotTiano.obj
 0002:000056b8       ??_C@_0BJ@GMMGGIMG@NameGuid?5?$CB?$DN?5?$CI?$CIvoid?5?$CK?$CJ?50?$CJ@ 00000000000536b8     UefiLib:UefiNotTiano.obj
 0002:000056e0       ??_C@_0FF@DDIBBPJF@D?3?2develop?2EDK2?2edk2?2MdePkg?2Lib@ 00000000000536e0     BasePeCoffGetEntryPointLib:PeCoffGetEntryPoint.obj
 0002:00005738       ??_C@_0CI@PDIBKMLG@ExtractHandlerGuidTable?5?$CB?$DN?5?$CI?$CIvo@ 0000000000053738     DxeExtractGuidedSectionLib:DxeExtractGuidedSectionLib.obj
 0002:00005760       ??_C@_0FM@HIABLIOB@D?3?2develop?2EDK2?2edk2?2MdePkg?2Lib@ 0000000000053760     DxeExtractGuidedSectionLib:DxeExtractGuidedSectionLib.obj
 0002:000057c0       ??_C@_0BM@DCKMIPIJ@SectionGuid?5?$CB?$DN?5?$CI?$CIvoid?5?$CK?$CJ?50?$CJ@ 00000000000537c0     DxeExtractGuidedSectionLib:DxeExtractGuidedSectionLib.obj
 0002:000057e0       ??_C@_0BP@PHLIGLJB@GetInfoHandler?5?$CB?$DN?5?$CI?$CIvoid?5?$CK?$CJ?50?$CJ@ 00000000000537e0     DxeExtractGuidedSectionLib:DxeExtractGuidedSectionLib.obj
 0002:00005800       ??_C@_0BO@HOLNMAPK@DecodeHandler?5?$CB?$DN?5?$CI?$CIvoid?5?$CK?$CJ?50?$CJ@ 0000000000053800     DxeExtractGuidedSectionLib:DxeExtractGuidedSectionLib.obj
 0002:00005820       ??_C@_0BN@GPAPAMAC@InputSection?5?$CB?$DN?5?$CI?$CIvoid?5?$CK?$CJ?50?$CJ@ 0000000000053820     DxeExtractGuidedSectionLib:DxeExtractGuidedSectionLib.obj
 0002:00005840       ??_C@_0CB@BHALCANF@OutputBufferSize?5?$CB?$DN?5?$CI?$CIvoid?5?$CK?$CJ?50@ 0000000000053840     DxeExtractGuidedSectionLib:DxeExtractGuidedSectionLib.obj
 0002:00005868       ??_C@_0CC@LILIPBNH@ScratchBufferSize?5?$CB?$DN?5?$CI?$CIvoid?5?$CK?$CJ?5@ 0000000000053868     DxeExtractGuidedSectionLib:DxeExtractGuidedSectionLib.obj
 0002:00005890       ??_C@_0CB@PMMMMPJH@SectionAttribute?5?$CB?$DN?5?$CI?$CIvoid?5?$CK?$CJ?50@ 0000000000053890     DxeExtractGuidedSectionLib:DxeExtractGuidedSectionLib.obj
 0002:000058b8       ??_C@_0BN@BPGHDJKK@OutputBuffer?5?$CB?$DN?5?$CI?$CIvoid?5?$CK?$CJ?50?$CJ@ 00000000000538b8     DxeExtractGuidedSectionLib:DxeExtractGuidedSectionLib.obj
 0002:000058d8       ??_C@_0CF@CJGHKEF@AuthenticationStatus?5?$CB?$DN?5?$CI?$CIvoid?5@ 00000000000538d8     DxeExtractGuidedSectionLib:DxeExtractGuidedSectionLib.obj
 0002:00005900       ??_C@_0DJ@EPHLDLOO@?$CILength?5?9?51?$CJ?5?$DM?$DN?5?$CI0xFFFFFFFFFFFF@ 0000000000053900     BaseCacheMaintenanceLib:X86Cache.obj
 0002:00005940       ??_C@_0EH@DJMGGLKE@D?3?2develop?2EDK2?2edk2?2MdePkg?2Lib@ 0000000000053940     BaseCacheMaintenanceLib:X86Cache.obj
 0002:00005988       ??_C@_0BA@HIJHCFNE@TableBits?5?$DM?$DN?516@ 0000000000053988     BaseUefiDecompressLib:BaseUefiDecompressLib.obj
 0002:000059a0       ??_C@_0FC@NGJAAJMF@D?3?2develop?2EDK2?2edk2?2MdePkg?2Lib@ 00000000000539a0     BaseUefiDecompressLib:BaseUefiDecompressLib.obj
 0002:000059f8       ??_C@_0BG@KMAGFGFD@nn?5?$DM?$DN?5?$CI?$CI1U?5?$DM?$DM?55?$CJ?5?9?51?$CJ@ 00000000000539f8     BaseUefiDecompressLib:BaseUefiDecompressLib.obj
 0002:00005a10       ??_C@_0BH@GAGHCOEK@Source?5?$CB?$DN?5?$CI?$CIvoid?5?$CK?$CJ?50?$CJ@ 0000000000053a10     BaseUefiDecompressLib:BaseUefiDecompressLib.obj
 0002:00005a28       ??_C@_0CA@FMKFGCDF@DestinationSize?5?$CB?$DN?5?$CI?$CIvoid?5?$CK?$CJ?50?$CJ@ 0000000000053a28     BaseUefiDecompressLib:BaseUefiDecompressLib.obj
 0002:00005a48       ??_C@_0BM@MHGBFJCP@ScratchSize?5?$CB?$DN?5?$CI?$CIvoid?5?$CK?$CJ?50?$CJ@ 0000000000053a48     BaseUefiDecompressLib:BaseUefiDecompressLib.obj
 0002:00005a68       ??_C@_0BI@MGJALJLC@Scratch?5?$CB?$DN?5?$CI?$CIvoid?5?$CK?$CJ?50?$CJ@ 0000000000053a68     BaseUefiDecompressLib:BaseUefiDecompressLib.obj
 0002:00005a80       ??_C@_0BN@MPKADMOP@Version?5?$DN?$DN?51?5?$HM?$HM?5Version?5?$DN?$DN?52@ 0000000000053a80     BaseUefiDecompressLib:BaseUefiDecompressLib.obj
 0002:00005aa0       ??_C@_0BN@MJEPDGEJ@ImageContext?5?$CB?$DN?5?$CI?$CIvoid?5?$CK?$CJ?50?$CJ@ 0000000000053aa0     BasePeCoffLib:BasePeCoff.obj
 0002:00005ac0       ??_C@_0DP@HKGELOA@D?3?2develop?2EDK2?2edk2?2MdePkg?2Lib@ 0000000000053ac0     BasePeCoffLib:BasePeCoff.obj
 0002:00005b00       ??_C@_0BP@EMGADBL@Relocation?5block?5is?5not?5valid?6@ 0000000000053b00     BasePeCoffLib:BasePeCoff.obj
 0002:00005b20       ??_C@_0FB@MOCPCCHF@?$CIUINTN?$CJFixupData?5?$DM?$DN?5?$CIUINTN?$CJImag@ 0000000000053b20     BasePeCoffLib:BasePeCoff.obj
 0002:00005b78       ??_C@_0BJ@KIAHAFBF@ReadSize?5?$CB?$DN?5?$CI?$CIvoid?5?$CK?$CJ?50?$CJ@ 0000000000053b78     BasePeCoffLib:BasePeCoff.obj
 0002:00005b98       ??_C@_0BL@INAOLIJI@FileHandle?5?$CB?$DN?5?$CI?$CIvoid?5?$CK?$CJ?50?$CJ@ 0000000000053b98     BasePeCoffLib:BasePeCoff.obj
 0002:00005bc0       ??_C@_0FH@KLOBJBPP@D?3?2develop?2EDK2?2edk2?2MdeModuleP@ 0000000000053bc0     DxeReportStatusCodeLib:ReportStatusCodeLib.obj
 0002:00005c18       ??_C@_0BN@HMHGLLOO@ExtendedData?5?$CB?$DN?5?$CI?$CIvoid?5?$CK?$CJ?50?$CJ@ 0000000000053c18     DxeReportStatusCodeLib:ReportStatusCodeLib.obj
 0002:00005c38       ??_C@_0BG@BPIKKLEE@ExtendedDataSize?5?$CB?$DN?50@ 0000000000053c38     DxeReportStatusCodeLib:ReportStatusCodeLib.obj
 0002:00005c50       ??_C@_0DN@HHIHPHHB@?$CB?$CI?$CIExtendedData?5?$DN?$DN?5?$CI?$CIvoid?5?$CK?$CJ?50?$CJ@ 0000000000053c50     DxeReportStatusCodeLib:ReportStatusCodeLib.obj
 0002:00005c90       ??_C@_0DN@BBBIFINB@?$CB?$CI?$CIExtendedData?5?$CB?$DN?5?$CI?$CIvoid?5?$CK?$CJ?50?$CJ@ 0000000000053c90     DxeReportStatusCodeLib:ReportStatusCodeLib.obj
 0002:00005cd0       ??_C@_0FO@DNMAOCLM@D?3?2develop?2EDK2?2edk2?2MdeModuleP@ 0000000000053cd0     ImagePropertiesRecordLib:ImagePropertiesRecordLib.obj
 0002:00005d30       ??_C@_0BJ@NAIEONGB@TotalNewRecordCount?5?$CB?$DN?50@ 0000000000053d30     ImagePropertiesRecordLib:ImagePropertiesRecordLib.obj
 0002:00005d50       ??_C@_0BP@HMLPPEAA@ImageCode?5SegmentCount?5?9?50x?$CFx?6@ 0000000000053d50     ImagePropertiesRecordLib:ImagePropertiesRecordLib.obj
 0002:00005d70       ??_C@_0BF@PLNOOPNC@?$CFa?3?50x?$CFllx?5?9?50x?$CFllx?6@ 0000000000053d70     ImagePropertiesRecordLib:ImagePropertiesRecordLib.obj
 0002:00005d88       ??_C@_0CA@LLECGNIH@Unknown?5Image?3?50x?$CFllx?5?9?50x?$CFllx?6@ 0000000000053d88     ImagePropertiesRecordLib:ImagePropertiesRecordLib.obj
 0002:00005da8       ??_C@_0CB@HPHIIHE@?5?5Code?5Section?3?50x?$CFllx?5?9?50x?$CFllx@ 0000000000053da8     ImagePropertiesRecordLib:ImagePropertiesRecordLib.obj
 0002:00005dd0       ??_C@_0DH@KDNEBCNB@Creating?5Image?5Properties?5Recor@ 0000000000053dd0     ImagePropertiesRecordLib:ImagePropertiesRecordLib.obj
 0002:00005e08       ??_C@_0N@HKALJPML@?5Image?5?9?5?$CFa?6@ 0000000000053e08     ImagePropertiesRecordLib:ImagePropertiesRecordLib.obj
 0002:00005e18       ??_C@_0CE@KGIOJPEE@Hdr?4Pe32?9?$DOSignature?5invalid?5?9?50@ 0000000000053e18     ImagePropertiesRecordLib:ImagePropertiesRecordLib.obj
 0002:00005e40       ??_C@_0FM@BLKNLMLA@?$CB?$CB?$CB?$CB?$CB?$CB?$CB?$CB?5?5Image?5Section?5Alignme@ 0000000000053e40     ImagePropertiesRecordLib:ImagePropertiesRecordLib.obj
 0002:00005ea0       ??_C@_0CA@GPIAGBEH@?5?5Section?5?9?5?8?$CFc?$CFc?$CFc?$CFc?$CFc?$CFc?$CFc?$CFc?8?6@ 0000000000053ea0     ImagePropertiesRecordLib:ImagePropertiesRecordLib.obj
 0002:00005ec0       ??_C@_0CB@EKAMCFDI@?5?5VirtualSize?5?5?5?5?5?5?5?5?5?5?9?50x?$CF08x@ 0000000000053ec0     ImagePropertiesRecordLib:ImagePropertiesRecordLib.obj
 0002:00005ee8       ??_C@_0CB@KKEKOMIG@?5?5VirtualAddress?5?5?5?5?5?5?5?9?50x?$CF08x@ 0000000000053ee8     ImagePropertiesRecordLib:ImagePropertiesRecordLib.obj
 0002:00005f10       ??_C@_0CB@MPCKBEL@?5?5SizeOfRawData?5?5?5?5?5?5?5?5?9?50x?$CF08x@ 0000000000053f10     ImagePropertiesRecordLib:ImagePropertiesRecordLib.obj
 0002:00005f38       ??_C@_0CB@IDPJBNGA@?5?5PointerToRawData?5?5?5?5?5?9?50x?$CF08x@ 0000000000053f38     ImagePropertiesRecordLib:ImagePropertiesRecordLib.obj
 0002:00005f60       ??_C@_0CB@BCLIADLG@?5?5PointerToRelocations?5?9?50x?$CF08x@ 0000000000053f60     ImagePropertiesRecordLib:ImagePropertiesRecordLib.obj
 0002:00005f88       ??_C@_0CB@HOPNHHBP@?5?5PointerToLinenumbers?5?9?50x?$CF08x@ 0000000000053f88     ImagePropertiesRecordLib:ImagePropertiesRecordLib.obj
 0002:00005fb0       ??_C@_0CB@GGIKHHDP@?5?5NumberOfRelocations?5?5?9?50x?$CF08x@ 0000000000053fb0     ImagePropertiesRecordLib:ImagePropertiesRecordLib.obj
 0002:00005fd8       ??_C@_0CB@MJOMCJAH@?5?5NumberOfLinenumbers?5?5?9?50x?$CF08x@ 0000000000053fd8     ImagePropertiesRecordLib:ImagePropertiesRecordLib.obj
 0002:00006000       ??_C@_0CB@PPJDJDMP@?5?5Characteristics?5?5?5?5?5?5?9?50x?$CF08x@ 0000000000054000     ImagePropertiesRecordLib:ImagePropertiesRecordLib.obj
 0002:00006030       ??_C@_0HA@OCENBEDK@D?3?2develop?2EDK2?2edk2?2MdePkg?2Lib@ 0000000000054030     BaseOrderedCollectionRedBlackTreeLib:BaseOrderedCollectionRedBlackTreeLib.obj
 0002:000060a0       ??_C@_0BO@JHGBLDAL@GrandParent?5?$DN?$DN?5Parent?9?$DOParent@ 00000000000540a0     BaseOrderedCollectionRedBlackTreeLib:BaseOrderedCollectionRedBlackTreeLib.obj
 0002:000060c0       ??_C@_0BI@LNFKHELA@Sibling?5?$CB?$DN?5?$CI?$CIvoid?5?$CK?$CJ?50?$CJ@ 00000000000540c0     BaseOrderedCollectionRedBlackTreeLib:BaseOrderedCollectionRedBlackTreeLib.obj
 0002:000060d8       ??_C@_0CE@BFPIJPIP@Sibling?9?$DOColor?5?$DN?$DN?5RedBlackTreeB@ 00000000000540d8     BaseOrderedCollectionRedBlackTreeLib:BaseOrderedCollectionRedBlackTreeLib.obj
 0002:00006100       ??_C@_0BM@KOLHPPKJ@RightNephew?5?$CB?$DN?5?$CI?$CIvoid?5?$CK?$CJ?50?$CJ@ 0000000000054100     BaseOrderedCollectionRedBlackTreeLib:BaseOrderedCollectionRedBlackTreeLib.obj
 0002:00006120       ??_C@_0CG@DHIMMODJ@RightNephew?9?$DOColor?5?$DN?$DN?5RedBlackT@ 0000000000054120     BaseOrderedCollectionRedBlackTreeLib:BaseOrderedCollectionRedBlackTreeLib.obj
 0002:00006148       ??_C@_0BL@KAEICEIJ@LeftNephew?5?$CB?$DN?5?$CI?$CIvoid?5?$CK?$CJ?50?$CJ@ 0000000000054148     BaseOrderedCollectionRedBlackTreeLib:BaseOrderedCollectionRedBlackTreeLib.obj
 0002:00006168       ??_C@_0CF@JIPHGPLG@LeftNephew?9?$DOColor?5?$DN?$DN?5RedBlackTr@ 0000000000054168     BaseOrderedCollectionRedBlackTreeLib:BaseOrderedCollectionRedBlackTreeLib.obj
 0002:00006190       ??_C@_0ED@IGBEFDFD@Node?9?$DOColor?5?$DN?$DN?5RedBlackTreeRed?5@ 0000000000054190     BaseOrderedCollectionRedBlackTreeLib:BaseOrderedCollectionRedBlackTreeLib.obj
 0002:000061d8       ??_C@_0BP@FEMNMDIC@NodeIsNullOrBlack?5?$CINode?9?$DOLeft?$CJ@ 00000000000541d8     BaseOrderedCollectionRedBlackTreeLib:BaseOrderedCollectionRedBlackTreeLib.obj
 0002:000061f8       ??_C@_0CA@EEEMOLLI@NodeIsNullOrBlack?5?$CINode?9?$DORight?$CJ@ 00000000000541f8     BaseOrderedCollectionRedBlackTreeLib:BaseOrderedCollectionRedBlackTreeLib.obj
 0002:00006218       ??_C@_0BK@MDECNOFB@LeftHeight?5?$DN?$DN?5RightHeight@ 0000000000054218     BaseOrderedCollectionRedBlackTreeLib:BaseOrderedCollectionRedBlackTreeLib.obj
 0002:00006238       ??_C@_0BF@PAMKDJKB@RedBlackTreeValidate@ 0000000000054238     BaseOrderedCollectionRedBlackTreeLib:BaseOrderedCollectionRedBlackTreeLib.obj
 0002:00006250       ??_C@_0N@EIIKKJGJ@?$CFa?3?5Tree?$DN?$CFp?6@ 0000000000054250     BaseOrderedCollectionRedBlackTreeLib:BaseOrderedCollectionRedBlackTreeLib.obj
 0002:00006260       ??_C@_0BP@DGCGBACN@NodeIsNullOrBlack?5?$CITree?9?$DORoot?$CJ@ 0000000000054260     BaseOrderedCollectionRedBlackTreeLib:BaseOrderedCollectionRedBlackTreeLib.obj
 0002:00006280       ??_C@_0EB@HHGJHFNM@Tree?9?$DOUserStructCompare?5?$CILast?9?$DO@ 0000000000054280     BaseOrderedCollectionRedBlackTreeLib:BaseOrderedCollectionRedBlackTreeLib.obj
 0002:000062d0       ??_C@_0EB@NNGALNFH@Tree?9?$DOUserStructCompare?5?$CILast?9?$DO@ 00000000000542d0     BaseOrderedCollectionRedBlackTreeLib:BaseOrderedCollectionRedBlackTreeLib.obj
 0002:00006318       ??_C@_0BO@CCHCGBOF@ForwardCount?5?$DN?$DN?5BackwardCount@ 0000000000054318     BaseOrderedCollectionRedBlackTreeLib:BaseOrderedCollectionRedBlackTreeLib.obj
 0002:00006338       ??_C@_0CH@KNNAGDPC@?$CFa?3?5Tree?$DN?$CFp?5BlackHeight?$DN?$CFLd?5Cou@ 0000000000054338     BaseOrderedCollectionRedBlackTreeLib:BaseOrderedCollectionRedBlackTreeLib.obj
 0002:00006360       ??_C@_0DP@NEBIOAAE@?$CI?$CIEFI_GUID_DEFINED_SECTION2?5?$CK?$CJI@ 0000000000054360     DxeCrc32GuidedSectionExtractLib:DxeCrc32GuidedSectionExtractLib.obj
 0002:000063a0       ??_C@_0GM@DNDGJCCA@D?3?2develop?2EDK2?2edk2?2MdeModuleP@ 00000000000543a0     DxeCrc32GuidedSectionExtractLib:DxeCrc32GuidedSectionExtractLib.obj
 0002:00006410       ??_C@_0DO@HIFGNGD@?$CI?$CIEFI_GUID_DEFINED_SECTION?5?$CK?$CJIn@ 0000000000054410     DxeCrc32GuidedSectionExtractLib:DxeCrc32GuidedSectionExtractLib.obj
 0002:00006450       ??_C@_0FM@GHCCFPLO@D?3?2develop?2EDK2?2edk2?2MdeModuleP@ 0000000000054450     LzmaDecompressLib:GuidedSectionExtraction.obj
 0002:000064b0       ??_C@_0FD@BBPCIJDN@D?3?2develop?2EDK2?2edk2?2MdeModuleP@ 00000000000544b0     LzmaDecompressLib:LzmaDecompress.obj
 0002:00006508       ??_C@_0BG@GMOOJNAG@SourceSize?5?$DO?$DN?5?$CI5?5?$CL?58?$CJ@ 0000000000054508     LzmaDecompressLib:LzmaDecompress.obj
 0002:00006574       __volatile_metadata        0000000000054574     <linker-defined>
 0003:00000000       m16Size                    0000000000055000     BaseLib:Thunk16.obj
 0003:00000002       mThunk16Attr               0000000000055002     BaseLib:Thunk16.obj
 0003:00000004       m16Gdt                     0000000000055004     BaseLib:Thunk16.obj
 0003:00000006       m16GdtrBase                0000000000055006     BaseLib:Thunk16.obj
 0003:00000008       mTransition                0000000000055008     BaseLib:Thunk16.obj
 0003:00000010       gEfiStatusCodeSpecificDataGuid 0000000000055010     DxeCore:AutoGen.obj
 0003:00000020       gEfiResetArchProtocolGuid  0000000000055020     DxeCore:AutoGen.obj
 0003:00000030       gEfiSecurityPolicyProtocolGuid 0000000000055030     DxeCore:AutoGen.obj
 0003:00000040       gEfiMemoryTypeInformationGuid 0000000000055040     DxeCore:AutoGen.obj
 0003:00000050       gIdleLoopEventGuid         0000000000055050     DxeCore:AutoGen.obj
 0003:00000060       gEfiStatusCodeRuntimeProtocolGuid 0000000000055060     DxeCore:AutoGen.obj
 0003:00000070       gEfiHobMemoryAllocStackGuid 0000000000055070     DxeCore:AutoGen.obj
 0003:00000080       gEfiSecurityArchProtocolGuid 0000000000055080     DxeCore:AutoGen.obj
 0003:00000090       gEdkiiPeCoffImageEmulatorProtocolGuid 0000000000055090     DxeCore:AutoGen.obj
 0003:000000a0       gEfiFirmwareVolumeBlockProtocolGuid 00000000000550a0     DxeCore:AutoGen.obj
 0003:000000b0       gEfiEventMemoryMapChangeGuid 00000000000550b0     DxeCore:AutoGen.obj
 0003:000000c0       gEventExitBootServicesFailedGuid 00000000000550c0     DxeCore:AutoGen.obj
 0003:000000d0       gEfiWatchdogTimerArchProtocolGuid 00000000000550d0     DxeCore:AutoGen.obj
 0003:000000e0       gEfiLoadedImageDevicePathProtocolGuid 00000000000550e0     DxeCore:AutoGen.obj
 0003:000000f0       gEfiEventReadyToBootGuid   00000000000550f0     DxeCore:AutoGen.obj
 0003:00000100       gEfiBdsArchProtocolGuid    0000000000055100     DxeCore:AutoGen.obj
 0003:00000110       gEfiFirmwareFileSystem3Guid 0000000000055110     DxeCore:AutoGen.obj
 0003:00000120       gLoadFixedAddressConfigurationTableGuid 0000000000055120     DxeCore:AutoGen.obj
 0003:00000130       gEfiHiiPackageListProtocolGuid 0000000000055130     DxeCore:AutoGen.obj
 0003:00000140       gEfiVariableWriteArchProtocolGuid 0000000000055140     DxeCore:AutoGen.obj
 0003:00000150       gEfiLoadFileProtocolGuid   0000000000055150     DxeCore:AutoGen.obj
 0003:00000160       gEfiCapsuleArchProtocolGuid 0000000000055160     DxeCore:AutoGen.obj
 0003:00000170       gEfiHobMemoryAllocModuleGuid 0000000000055170     DxeCore:AutoGen.obj
 0003:00000180       gEfiFileInfoGuid           0000000000055180     DxeCore:AutoGen.obj
 0003:00000190       gEfiDevicePathProtocolGuid 0000000000055190     DxeCore:AutoGen.obj
 0003:000001a0       gEfiDriverFamilyOverrideProtocolGuid 00000000000551a0     DxeCore:AutoGen.obj
 0003:000001b0       gEfiLoadedImageProtocolGuid 00000000000551b0     DxeCore:AutoGen.obj
 0003:000001c0       gEfiFirmwareVolume2ProtocolGuid 00000000000551c0     DxeCore:AutoGen.obj
 0003:000001d0       gEfiMemoryAttributesTableGuid 00000000000551d0     DxeCore:AutoGen.obj
 0003:000001e0       gEfiVectorHandoffInfoPpiGuid 00000000000551e0     DxeCore:AutoGen.obj
 0003:000001f0       gEfiCallerBaseName         00000000000551f0     DxeCore:AutoGen.obj
 0003:000001f8       gEfiBusSpecificDriverOverrideProtocolGuid 00000000000551f8     DxeCore:AutoGen.obj
 0003:00000208       gEdkiiMemoryProfileGuid    0000000000055208     DxeCore:AutoGen.obj
 0003:00000218       gAprioriGuid               0000000000055218     DxeCore:AutoGen.obj
 0003:00000228       gEfiCpuArchProtocolGuid    0000000000055228     DxeCore:AutoGen.obj
 0003:00000238       gEfiFirmwareFileSystem2Guid 0000000000055238     DxeCore:AutoGen.obj
 0003:00000248       gEfiDebugImageInfoTableGuid 0000000000055248     DxeCore:AutoGen.obj
 0003:00000258       gLzmaCustomDecompressGuid  0000000000055258     DxeCore:AutoGen.obj
 0003:00000268       gEfiSimpleFileSystemProtocolGuid 0000000000055268     DxeCore:AutoGen.obj
 0003:00000278       gEfiRuntimeArchProtocolGuid 0000000000055278     DxeCore:AutoGen.obj
 0003:00000288       gEfiEventDxeDispatchGuid   0000000000055288     DxeCore:AutoGen.obj
 0003:00000298       gEfiMetronomeArchProtocolGuid 0000000000055298     DxeCore:AutoGen.obj
 0003:000002a8       gEfiTimerArchProtocolGuid  00000000000552a8     DxeCore:AutoGen.obj
 0003:000002b8       gEfiVectorHandoffTableGuid 00000000000552b8     DxeCore:AutoGen.obj
 0003:000002c8       gEfiHobListGuid            00000000000552c8     DxeCore:AutoGen.obj
 0003:000002d8       gEfiDriverBindingProtocolGuid 00000000000552d8     DxeCore:AutoGen.obj
 0003:000002e8       gEfiMemoryAttributeProtocolGuid 00000000000552e8     DxeCore:AutoGen.obj
 0003:000002f8       gEfiRealTimeClockArchProtocolGuid 00000000000552f8     DxeCore:AutoGen.obj
 0003:00000308       gEfiEventExitBootServicesGuid 0000000000055308     DxeCore:AutoGen.obj
 0003:00000318       gEfiSecurity2ArchProtocolGuid 0000000000055318     DxeCore:AutoGen.obj
 0003:00000328       gEfiMonotonicCounterArchProtocolGuid 0000000000055328     DxeCore:AutoGen.obj
 0003:00000338       gEfiEndOfDxeEventGroupGuid 0000000000055338     DxeCore:AutoGen.obj
 0003:00000348       gEfiEventBeforeExitBootServicesGuid 0000000000055348     DxeCore:AutoGen.obj
 0003:00000358       gEfiSmmBase2ProtocolGuid   0000000000055358     DxeCore:AutoGen.obj
 0003:00000368       gEfiEventVirtualAddressChangeGuid 0000000000055368     DxeCore:AutoGen.obj
 0003:00000378       gEfiPlatformDriverOverrideProtocolGuid 0000000000055378     DxeCore:AutoGen.obj
 0003:00000388       gEfiDxeServicesTableGuid   0000000000055388     DxeCore:AutoGen.obj
 0003:00000398       gEfiDecompressProtocolGuid 0000000000055398     DxeCore:AutoGen.obj
 0003:000003a8       gEfiCallerIdGuid           00000000000553a8     DxeCore:AutoGen.obj
 0003:000003b8       gEfiCrc32GuidedSectionExtractionGuid 00000000000553b8     DxeCore:AutoGen.obj
 0003:000003c8       gEfiVariableArchProtocolGuid 00000000000553c8     DxeCore:AutoGen.obj
 0003:000003d8       gEfiLoadFile2ProtocolGuid  00000000000553d8     DxeCore:AutoGen.obj
 0003:000003e8       gEmuThunkProtocolGuid      00000000000553e8     DxeCore:AutoGen.obj
 0003:00000400       mEfiSystemTableTemplate    0000000000055400     DxeCore:DxeMain.obj
 0003:00000478       gRuntime                   0000000000055478     DxeCore:DxeMain.obj
 0003:00000480       mDxeServices               0000000000055480     DxeCore:DxeMain.obj
 0003:00000530       mEfiRuntimeServicesTableTemplate 0000000000055530     DxeCore:DxeMain.obj
 0003:000005b8       gDxeCoreDS                 00000000000555b8     DxeCore:DxeMain.obj
 0003:000005c0       gDxeCoreRT                 00000000000555c0     DxeCore:DxeMain.obj
 0003:000005d0       mBootServices              00000000000555d0     DxeCore:DxeMain.obj
 0003:00000750       gRuntimeTemplate           0000000000055750     DxeCore:DxeMain.obj
 0003:000007a0       gEfiDecompress             00000000000557a0     DxeCore:DxeMain.obj
 0003:000007b0       mArchProtocols             00000000000557b0     DxeCore:DxeProtocolNotify.obj
 0003:000009e0       mOptionalProtocols         00000000000559e0     DxeCore:DxeProtocolNotify.obj
 0003:00000a58       mDispatcherLock            0000000000055a58     DxeCore:Dispatcher.obj
 0003:00000a70       mDxeFileTypes              0000000000055a70     DxeCore:Dispatcher.obj
 0003:00000a78       mScheduledQueue            0000000000055a78     DxeCore:Dispatcher.obj
 0003:00000a88       mFvHandleList              0000000000055a88     DxeCore:Dispatcher.obj
 0003:00000a98       mDiscoveredList            0000000000055a98     DxeCore:Dispatcher.obj
 0003:00000aa8       gEventQueueLock            0000000000055aa8     DxeCore:Event.obj
 0003:00000ac0       gEventSignalQueue          0000000000055ac0     DxeCore:Event.obj
 0003:00000ad0       gEfiCurrentTpl             0000000000055ad0     DxeCore:Event.obj
 0003:00000ad8       mEventTable                0000000000055ad8     DxeCore:Event.obj
 0003:00000af8       mEfiTimerList              0000000000055af8     DxeCore:Timer.obj
 0003:00000b08       mEfiSystemTimeLock         0000000000055b08     DxeCore:Timer.obj
 0003:00000b20       mEfiTimerLock              0000000000055b20     DxeCore:Timer.obj
 0003:00000b40       mFvDevice                  0000000000055b40     DxeCore:FwVol.obj
 0003:00000be0       mFvAttributes2             0000000000055be0     DxeCore:FwVolRead.obj
 0003:00000be8       mFvAttributes              0000000000055be8     DxeCore:FwVolRead.obj
 0003:00000bf0       mFwVolBlock                0000000000055bf0     DxeCore:FwVolBlock.obj
 0003:00000c70       mFvMemmapDevicePathTemplate 0000000000055c70     DxeCore:FwVolBlock.obj
 0003:00000c90       mFvPIWGDevicePathTemplate  0000000000055c90     DxeCore:FwVolBlock.obj
 0003:00000ca8       mLevelMask                 0000000000055ca8     DxeCore:HeapGuard.obj
 0003:00000cd0       mMapLevel                  0000000000055cd0     DxeCore:HeapGuard.obj
 0003:00000cd8       mLevelShift                0000000000055cd8     DxeCore:HeapGuard.obj
 0003:00000d00       mLastPromotedPage          0000000000055d00     DxeCore:HeapGuard.obj
 0003:00000d08       mMemoryProfileLock         0000000000055d08     DxeCore:MemoryProfileRecord.obj
 0003:00000d20       mMemoryProfileContext      0000000000055d20     DxeCore:MemoryProfileRecord.obj
 0003:00000e78       mImageQueue                0000000000055e78     DxeCore:MemoryProfileRecord.obj
 0003:00000e88       mProfileProtocol           0000000000055e88     DxeCore:MemoryProfileRecord.obj
 0003:00000eb8       gMemoryMap                 0000000000055eb8     DxeCore:MemData.obj
 0003:00000ec8       gMemoryLock                0000000000055ec8     DxeCore:MemData.obj
 0003:00000ee0       gMemoryTypeInformation     0000000000055ee0     DxeCore:Page.obj
 0003:00000f68       mFreeMemoryMapEntryList    0000000000055f68     DxeCore:Page.obj
 0003:00000f78       mDefaultMaximumAddress     0000000000055f78     DxeCore:Page.obj
 0003:00000f80       mMemoryTypeStatistics      0000000000055f80     DxeCore:Page.obj
 0003:000012b0       mDefaultBaseAddress        00000000000562b0     DxeCore:Page.obj
 0003:000012d0       mPoolHeadList              00000000000562d0     DxeCore:Pool.obj
 0003:000012e0       mGcdMemorySpaceMap         00000000000562e0     DxeCore:Gcd.obj
 0003:000012f0       mGcdMemorySpaceLock        00000000000562f0     DxeCore:Gcd.obj
 0003:00001310       mGcdMemorySpaceMapEntryTemplate 0000000000056310     DxeCore:Gcd.obj
 0003:00001360       mGcdIoSpaceLock            0000000000056360     DxeCore:Gcd.obj
 0003:00001380       mGcdIoSpaceMapEntryTemplate 0000000000056380     DxeCore:Gcd.obj
 0003:000013d0       mGcdMemoryTypeNames        00000000000563d0     DxeCore:Gcd.obj
 0003:00001410       mAttributeConversionTable  0000000000056410     DxeCore:Gcd.obj
 0003:000015a8       mGcdIoSpaceMap             00000000000565a8     DxeCore:Gcd.obj
 0003:000015b8       mGcdAllocationTypeNames    00000000000565b8     DxeCore:Gcd.obj
 0003:000015e8       mGcdIoTypeNames            00000000000565e8     DxeCore:Gcd.obj
 0003:00001608       mProtocolDatabase          0000000000056608     DxeCore:Handle.obj
 0003:00001618       gProtocolDatabaseLock      0000000000056618     DxeCore:Handle.obj
 0003:00001630       gHandleList                0000000000056630     DxeCore:Handle.obj
 0003:00001640       mMemoryAttributesTableEnable 0000000000056640     DxeCore:MemoryAttributesTable.obj
 0003:00001641       gMemoryAttributesTableForwardCfi 0000000000056641     DxeCore:MemoryAttributesTable.obj
 0003:00001690       mCorePrivateImage          0000000000056690     DxeCore:Image.obj
 0003:00001820       mMachineTypeInfo           0000000000056820     DxeCore:Image.obj
 0003:00001880       mCustomGuidedSectionExtractionProtocol 0000000000056880     DxeCore:CoreSectionExtraction.obj
 0003:00001888       mStreamRoot                0000000000056888     DxeCore:CoreSectionExtraction.obj
 0003:000018a0       __security_cookie          00000000000568a0     StackCheckLibNull:StackCheckLibNullMsvc.obj
 0003:000018a8       _gPcd_BinaryPatch_PcdLoadFixAddressBootTimeCodePageNumber 00000000000568a8     DxeCore:AutoGen.obj
 0003:000018ac       _gPcd_BinaryPatch_PcdLoadFixAddressRuntimeCodePageNumber 00000000000568ac     DxeCore:AutoGen.obj
 0003:000018b0       gDxeCoreST                 00000000000568b0     DxeCore:DxeMain.obj
 0003:000018b8       gBds                       00000000000568b8     DxeCore:DxeMain.obj
 0003:000018c0       mDecompressHandle          00000000000568c0     DxeCore:DxeMain.obj
 0003:000018c8       gDxeCoreImageHandle        00000000000568c8     DxeCore:DxeMain.obj
 0003:000018d8       gMetronome                 00000000000568d8     DxeCore:DxeMain.obj
 0003:000018e0       gSmmBase2                  00000000000568e0     DxeCore:DxeMain.obj
 0003:000018e8       gMemoryMapTerminated       00000000000568e8     DxeCore:DxeMain.obj
 0003:000018f0       gSecurity2                 00000000000568f0     DxeCore:DxeMain.obj
 0003:000018f8       gSecurity                  00000000000568f8     DxeCore:DxeMain.obj
 0003:00001900       gLoadModuleAtFixAddressConfigurationTable 0000000000056900     DxeCore:DxeMain.obj
 0003:00001910       gTimer                     0000000000056910     DxeCore:DxeMain.obj
 0003:00001918       gCpu                       0000000000056918     DxeCore:DxeMain.obj
 0003:00001920       gWatchdogTimer             0000000000056920     DxeCore:DxeMain.obj
 0003:00001928       gDispatcherRunning         0000000000056928     DxeCore:Dispatcher.obj
 0003:00001930       mDepexEvaluationStack      0000000000056930     DxeCore:Dependency.obj
 0003:00001938       mDepexEvaluationStackEnd   0000000000056938     DxeCore:Dependency.obj
 0003:00001940       mDepexEvaluationStackPointer 0000000000056940     DxeCore:Dependency.obj
 0003:00001948       gEventPending              0000000000056948     DxeCore:Event.obj
 0003:00001950       gIdleLoopEvent             0000000000056950     DxeCore:Event.obj
 0003:00001958       mEfiSystemTime             0000000000056958     DxeCore:Timer.obj
 0003:00001960       mEfiCheckTimerEvent        0000000000056960     DxeCore:Timer.obj
 0003:00001968       mGuardedMemoryMap          0000000000056968     DxeCore:HeapGuard.obj
 0003:00001970       mOnGuarding                0000000000056970     DxeCore:HeapGuard.obj
 0003:00001971       mMemoryProfileGettingStatus 0000000000056971     DxeCore:MemoryProfileRecord.obj
 0003:00001978       mMemoryProfileContextPtr   0000000000056978     DxeCore:MemoryProfileRecord.obj
 0003:00001980       mMemoryProfileRecordingEnable 0000000000056980     DxeCore:MemoryProfileRecord.obj
 0003:00001988       mFreeMapStack              0000000000056988     DxeCore:Page.obj
 0003:00001990       mMemoryMapKey              0000000000056990     DxeCore:Page.obj
 0003:00001998       mMemoryTypeInformationInitialized 0000000000056998     DxeCore:Page.obj
 0003:00001999       gLoadFixedAddressCodeMemoryReady 0000000000056999     DxeCore:Page.obj
 0003:000019a0       mMapDepth                  00000000000569a0     DxeCore:Page.obj
 0003:000019a8       gHandleDatabaseKey         00000000000569a8     DxeCore:Handle.obj
 0003:000019b0       gOrderedHandleList         00000000000569b0     DxeCore:Handle.obj
 0003:000019b8       mEfiLocateHandleRequest    00000000000569b8     DxeCore:Locate.obj
 0003:000019c0       mMemoryAttributesTableReadyToBoot 00000000000569c0     DxeCore:MemoryAttributesTable.obj
 0003:000019c8       mMemoryAttributesTable     00000000000569c8     DxeCore:MemoryAttributesTable.obj
 0003:000019d0       mMemoryAttributesTableEndOfDxe 00000000000569d0     DxeCore:MemoryAttributesTable.obj
 0003:000019d8       mSystemTableAllocateSize   00000000000569d8     DxeCore:InstallConfigurationTable.obj
 0003:000019e0       mDebugInfoTableHeader      00000000000569e0     DxeCore:DebugImageInfo.obj
 0003:000019f0       mDebugTable                00000000000569f0     DxeCore:DebugImageInfo.obj
 0003:000019f8       mMaxTableEntries           00000000000569f8     DxeCore:DebugImageInfo.obj
 0003:00001a00       mDxeCoreImageMachineType   0000000000056a00     DxeCore:Image.obj
 0003:00001a08       mDxeCodeMemoryRangeUsageBitMap 0000000000056a08     DxeCore:Image.obj
 0003:00001a10       mCurrentImage              0000000000056a10     DxeCore:Image.obj
 0003:00001a18       mSectionExtractionHandle   0000000000056a18     DxeCore:CoreSectionExtraction.obj
 0003:00001a28       gHobList                   0000000000056a28     DxeCoreEntryPoint:DxeCoreEntryPoint.obj
 0003:00001a30       gEmuThunk                  0000000000056a30     DxeEmuLib:DxeEmuLib.obj
 0003:00001a38       gRT                        0000000000056a38     UefiRuntimeServicesTableLib:UefiRuntimeServicesTableLib.obj
 0003:00001a40       gBS                        0000000000056a40     UefiBootServicesTableLib:UefiBootServicesTableLib.obj
 0003:00001a48       gST                        0000000000056a48     UefiBootServicesTableLib:UefiBootServicesTableLib.obj
 0003:00001a50       gImageHandle               0000000000056a50     UefiBootServicesTableLib:UefiBootServicesTableLib.obj
 0003:00001a58       mThunk                     0000000000056a58     DxeEmuPeCoffExtraActionLib:DxeEmuPeCoffExtraActionLib.obj
 0003:00001a60       mNumberOfExtractHandler    0000000000056a60     DxeExtractGuidedSectionLib:DxeExtractGuidedSectionLib.obj
 0003:00001a64       mMaxNumberOfExtractHandler 0000000000056a64     DxeExtractGuidedSectionLib:DxeExtractGuidedSectionLib.obj
 0003:00001a68       mExtractDecodeHandlerTable 0000000000056a68     DxeExtractGuidedSectionLib:DxeExtractGuidedSectionLib.obj
 0003:00001a70       mExtractHandlerGuidTable   0000000000056a70     DxeExtractGuidedSectionLib:DxeExtractGuidedSectionLib.obj
 0003:00001a78       mExtractGetInfoHandlerTable 0000000000056a78     DxeExtractGuidedSectionLib:DxeExtractGuidedSectionLib.obj
 0003:00001a80       mReportStatusCodeLibStatusCodeProtocol 0000000000056a80     DxeReportStatusCodeLib:ReportStatusCodeLib.obj
 0003:00001ab8       gNullVaList                0000000000056ab8     <common>
 0003:00001ac0       mImageProtectionPolicy     0000000000056ac0     <common>
 0003:00001ac8       gMemoryAttributeProtocol   0000000000056ac8     <common>
 0003:00001ae0       mPoolHead                  0000000000056ae0     <common>
 0003:00002960       mMapStack                  0000000000057960     <common>
 0003:00002ae0       mMemoryProfileDriverPath   0000000000057ae0     <common>
 0003:00002ae8       mMemoryProfileDriverPathSize 0000000000057ae8     <common>
 0003:00002af0       gEfiFwVolBlockEvent        0000000000057af0     <common>
 0003:00002af8       gEfiFwVolBlockNotifyReg    0000000000057af8     <common>
 0003:00002b00       gEventQueue                0000000000057b00     <common>
 0003:00002d00       mFwVolEventRegistration    0000000000057d00     <common>
 0003:00002d08       mFwVolEvent                0000000000057d08     <common>
 0003:00002d20       mFvDevicePath              0000000000057d20     <common>
 0003:00002d38       gDxeCoreFileName           0000000000057d38     <common>
 0003:00002d40       gDxeCoreLoadedImage        0000000000057d40     <common>

 entry point at        0001:0002ccc4

 Static symbols

 0001:000000a9       rn16_ok                    00000000000110a9     BaseLib:RdRand.obj
 0001:000000bb       rn32_ok                    00000000000110bb     BaseLib:RdRand.obj
 0001:000000cd       rn64_ok                    00000000000110cd     BaseLib:RdRand.obj
 0001:000000fa       PvalidateExit              00000000000110fa     BaseLib:Pvalidate.obj
 0001:0000013a       InternalX86DisablePaging64.0 000000000001113a     BaseLib:DisablePaging64.obj
 0001:00000161       mTransitionEnd             0000000000011161     BaseLib:DisablePaging64.obj
 0001:000001d9       TdVmCall.no_return_data    00000000000111d9     BaseLib:TdVmcall.obj
 0001:0000024b       TdCall.exit                000000000001124b     BaseLib:TdCall.obj
 0001:00000733       CetDone                    0000000000011733     BaseLib:SetJump.obj
 0001:000007f0       CetDone                    00000000000117f0     BaseLib:LongJump.obj
 0001:0000087f       AsmCpuid.0                 000000000001187f     BaseLib:CpuId.obj
 0001:00000884       AsmCpuid.1                 0000000000011884     BaseLib:CpuId.obj
 0001:0000088b       AsmCpuid.2                 000000000001188b     BaseLib:CpuId.obj
 0001:00000894       AsmCpuid.3                 0000000000011894     BaseLib:CpuId.obj
 0001:000008b5       AsmCpuidEx.0               00000000000118b5     BaseLib:CpuIdEx.obj
 0001:000008bc       AsmCpuidEx.1               00000000000118bc     BaseLib:CpuIdEx.obj
 0001:000008c3       AsmCpuidEx.2               00000000000118c3     BaseLib:CpuIdEx.obj
 0001:000008cc       AsmCpuidEx.3               00000000000118cc     BaseLib:CpuIdEx.obj
 0001:000008d0       SavedGdt                   00000000000118d0     BaseLib:Thunk16.obj
 0001:000008da       _BackFromUserCode          00000000000118da     BaseLib:Thunk16.obj
 0001:000008e2       _BackFromUserCode.Base     00000000000118e2     BaseLib:Thunk16.obj
 0001:000008f6       _BackFromUserCode.ThunkAttrEnd 00000000000118f6     BaseLib:Thunk16.obj
 0001:00000903       _BackFromUserCode.1        0000000000011903     BaseLib:Thunk16.obj
 0001:0000090e       _BackFromUserCode.2        000000000001190e     BaseLib:Thunk16.obj
 0001:00000944       _BackFromUserCode.SavedCr4End 0000000000011944     BaseLib:Thunk16.obj
 0001:00000960       _BackFromUserCode.SavedCr0End 0000000000011960     BaseLib:Thunk16.obj
 0001:0000096b       _BackFromUserCode.X64JmpEnd 000000000001196b     BaseLib:Thunk16.obj
 0001:00000976       _BackFromUserCode.SavedSpEnd 0000000000011976     BaseLib:Thunk16.obj
 0001:00000978       _EntryPoint                0000000000011978     BaseLib:Thunk16.obj
 0001:0000097e       _16Gdtr                    000000000001197e     BaseLib:Thunk16.obj
 0001:00000980       _16GdtrBase                0000000000011980     BaseLib:Thunk16.obj
 0001:00000988       _16Idtr                    0000000000011988     BaseLib:Thunk16.obj
 0001:0000098e       _ToUserCode                000000000001198e     BaseLib:Thunk16.obj
 0001:000009b6       _ToUserCode.Base           00000000000119b6     BaseLib:Thunk16.obj
 0001:000009c5       _ToUserCode.RealMode       00000000000119c5     BaseLib:Thunk16.obj
 0001:000009e0       _NullSeg                   00000000000119e0     BaseLib:Thunk16.obj
 0001:000009e8       _16Code                    00000000000119e8     BaseLib:Thunk16.obj
 0001:000009f0       _16Data                    00000000000119f0     BaseLib:Thunk16.obj
 0001:000009f8       _32Data                    00000000000119f8     BaseLib:Thunk16.obj
 0001:00000ab4       InternalAsmThunk16.RetFromRealMode 0000000000011ab4     BaseLib:Thunk16.obj
 0001:0000a048       SetBits                    000000000001b048 f   DxeCore:HeapGuard.obj
 0001:0000a1d8       ClearBits                  000000000001b1d8 f   DxeCore:HeapGuard.obj
 0001:0000a368       GetBits                    000000000001b368 f   DxeCore:HeapGuard.obj
 0001:00012eec       GetPoolIndexFromSize       0000000000023eec f   DxeCore:Pool.obj
 0001:00013378       CoreAllocatePoolPagesI     0000000000024378 f   DxeCore:Pool.obj
 0001:00013de4       CoreFreePoolPagesI         0000000000024de4 f   DxeCore:Pool.obj
 0001:00013e44       CoreFreePoolPagesWithGuard 0000000000024e44 f   DxeCore:Pool.obj
 0001:00019750       PointerCompare             000000000002a750 f   DxeCore:Handle.obj
 0001:0001ab54       CoreGetProtocolInterface   000000000002bb54 f   DxeCore:Handle.obj
 0001:0001f714       GetMemoryProtectionSectionAlignment 0000000000030714 f   DxeCore:MemoryProtection.obj
 0001:0001fb08       GetPermissionAttributeForMemoryType 0000000000030b08 f   DxeCore:MemoryProtection.obj
 0001:0001fb84       SortMemoryMap              0000000000030b84 f   DxeCore:MemoryProtection.obj
 0001:0001fb84       SortMemoryMap              0000000000030b84 f   ImagePropertiesRecordLib:ImagePropertiesRecordLib.obj
 0001:0001fcb8       MergeMemoryMapForProtectionPolicy 0000000000030cb8 f   DxeCore:MemoryProtection.obj
 0001:0001fe70       InitializeDxeNxMemoryProtectionPolicy 0000000000030e70 f   DxeCore:MemoryProtection.obj
 0001:00021000       IsInSmm                    0000000000032000 f   DxeCore:MemoryProtection.obj
 0001:00021ba0       CoreAcquiremMemoryAttributesTableLock 0000000000032ba0 f   DxeCore:MemoryAttributesTable.obj
 0001:00021bb8       CoreReleasemMemoryAttributesTableLock 0000000000032bb8 f   DxeCore:MemoryAttributesTable.obj
 0001:00021d6c       EnforceMemoryMapAttribute  0000000000032d6c f   DxeCore:MemoryAttributesTable.obj
 0001:00023068       PeCoffEmuProtocolNotify    0000000000034068 f   DxeCore:Image.obj
 0001:00023b5c       CoreIsImageTypeSupported   0000000000034b5c f   DxeCore:Image.obj
 0001:0003481c       EfiPagesToSize             000000000004581c f   ImagePropertiesRecordLib:ImagePropertiesRecordLib.obj
 0001:0003483c       EfiSizeToPages             000000000004583c f   ImagePropertiesRecordLib:ImagePropertiesRecordLib.obj
 0001:00034884       FreeImageRecordCodeSections 0000000000045884 f   ImagePropertiesRecordLib:ImagePropertiesRecordLib.obj
 0001:00034968       GetImageRecordByAddress    0000000000045968 f   ImagePropertiesRecordLib:ImagePropertiesRecordLib.obj
 0001:00034a6c       SetNewRecord               0000000000045a6c f   ImagePropertiesRecordLib:ImagePropertiesRecordLib.obj
 0001:00034e14       GetMaxSplitRecordCount     0000000000045e14 f   ImagePropertiesRecordLib:ImagePropertiesRecordLib.obj
 0001:00034ee8       SplitRecord                0000000000045ee8 f   ImagePropertiesRecordLib:ImagePropertiesRecordLib.obj
 0001:00035c8c       GetFilename                0000000000046c8c f   ImagePropertiesRecordLib:ImagePropertiesRecordLib.obj
 0001:000388e8       LzmaDec_DecodeReal_3       00000000000498e8 f   LzmaDecompressLib:LzmaDec.obj
 0001:0003a2bc       LzmaDec_WriteRem           000000000004b2bc f   LzmaDecompressLib:LzmaDec.obj
 0001:0003a438       LzmaDec_DecodeReal2        000000000004b438 f   LzmaDecompressLib:LzmaDec.obj
 0001:0003a564       LzmaDec_TryDummy           000000000004b564 f   LzmaDecompressLib:LzmaDec.obj
 0001:0003be58       LzmaDec_AllocateProbs2     000000000004ce58 f   LzmaDecompressLib:LzmaDec.obj
 0002:00001c38       mPoolSizeTable             000000000004fc38     DxeCore:Pool.obj
 0003:000012b8       mPoolMemoryLock            00000000000562b8     DxeCore:Pool.obj
 0003:00001648       mImagePropertiesPrivateData 0000000000056648     DxeCore:MemoryAttributesTable.obj
 0003:00001670       mMemoryAttributesTableLock 0000000000056670     DxeCore:MemoryAttributesTable.obj
 0003:000018d0       mExitBootServicesCalled    00000000000568d0     DxeCore:DxeMain.obj
 0003:00001a20       mDeadLoopComparator        0000000000056a20     BaseLib:CpuDeadLoop.obj
 0003:00001a88       mProtectedImageRecordList  0000000000056a88     DxeCore:MemoryProtection.obj
 0003:00001a98       mAvailableEmulators        0000000000056a98     DxeCore:Image.obj
 0003:00001aa8       mPeCoffEmuProtocolRegistrationEvent 0000000000056aa8     DxeCore:Image.obj
 0003:00001ab0       mPeCoffEmuProtocolNotifyRegistration 0000000000056ab0     DxeCore:Image.obj
 0005:00000000       $unwind$DxeEmuLibConstructor 000000000005a000     DxeEmuLib:DxeEmuLib.obj
 0005:00000000       $unwind$DxeEmuPeCoffLibExtraActionConstructor 000000000005a000     DxeEmuPeCoffExtraActionLib:DxeEmuPeCoffExtraActionLib.obj
 0005:00000000       $unwind$ProcessLibraryConstructorList 000000000005a000     DxeCore:AutoGen.obj
 0005:00000000       $unwind$FvFoundInHobFv2    000000000005a000     DxeCore:Dispatcher.obj
 0005:00000000       $unwind$FwVolDriverInit    000000000005a000     DxeCore:FwVol.obj
 0005:00000000       $unwind$GuardFreedPages    000000000005a000     DxeCore:HeapGuard.obj
 0005:00000000       $unwind$SetGuardForMemory  000000000005a000     DxeCore:HeapGuard.obj
 0005:00000000       $unwind$Uint64ToBinString  000000000005a000     DxeCore:HeapGuard.obj
 0005:00000000       $unwind$UnsetGuardForMemory 000000000005a000     DxeCore:HeapGuard.obj
 0005:00000000       $unwind$InternalPeCoffGetEntryPoint 000000000005a000     DxeCore:MemoryProfileRecord.obj
 0005:00000000       $unwind$ProfileProtocolGetRecordingState 000000000005a000     DxeCore:MemoryProfileRecord.obj
 0005:00000000       $unwind$CoreInternalFreePool 000000000005a000     DxeCore:Pool.obj
 0005:00000000       $unwind$GetUefiImageProtectionPolicy 000000000005a000     DxeCore:MemoryProtection.obj
 0005:00000000       $unwind$MemoryAttributeProtocolNotify 000000000005a000     DxeCore:MemoryProtection.obj
 0005:00000000       $unwind$FreeAlignedPages   000000000005a000     DxeCoreMemoryAllocationLib:MemoryAllocationLib.obj
 0005:00000000       $unwind$SwapImageRecordCodeSection 000000000005a000     ImagePropertiesRecordLib:ImagePropertiesRecordLib.obj
 0005:00000000       $unwind$SzAlloc            000000000005a000     LzmaDecompressLib:LzmaDecompress.obj
 0005:00000000       $unwind$CalculateCheckSum8 000000000005a000     BaseLib:CheckSum.obj
 0005:00000000       $unwind$CalculateSum8      000000000005a000     BaseLib:CheckSum.obj
 0005:00000000       $unwind$IsNodeAtEnd        000000000005a000     BaseLib:LinkedList.obj
 0005:00000000       $unwind$IsNull             000000000005a000     BaseLib:LinkedList.obj
 0005:00000000       $unwind$SwapListEntries    000000000005a000     BaseLib:LinkedList.obj
 0005:00000000       $unwind$StrnLenS           000000000005a000     BaseLib:SafeString.obj
 0005:00000000       $unwind$OrderedCollectionInit 000000000005a000     BaseOrderedCollectionRedBlackTreeLib:BaseOrderedCollectionRedBlackTreeLib.obj
 0005:00000000       $unwind$PeCoffLoaderGetEntryPoint 000000000005a000     BasePeCoffGetEntryPointLib:PeCoffGetEntryPoint.obj
 0005:00000000       $unwind$FillBuf            000000000005a000     BaseUefiDecompressLib:BaseUefiDecompressLib.obj
 0005:00000000       $unwind$GetBits            000000000005a000     BaseUefiDecompressLib:BaseUefiDecompressLib.obj
 0005:00000000       $unwind$GetNextGuidHob     000000000005a000     DxeCoreHobLib:HobLib.obj
 0005:00000000       $unwind$GetNextHob         000000000005a000     DxeCoreHobLib:HobLib.obj
 0005:00000000       $unwind$EfiGetSystemConfigurationTable 000000000005a000     UefiLib:UefiLib.obj
 0005:00000008       $unwind$PeCoffLoaderRelocateImageExtraAction 000000000005a008     DxeEmuPeCoffExtraActionLib:DxeEmuPeCoffExtraActionLib.obj
 0005:00000008       $unwind$PeCoffLoaderUnloadImageExtraAction 000000000005a008     DxeEmuPeCoffExtraActionLib:DxeEmuPeCoffExtraActionLib.obj
 0005:00000008       $unwind$ProcessModuleEntryPointList 000000000005a008     DxeCore:AutoGen.obj
 0005:00000008       $unwind$CoreValidateResourceDescriptorHobAttributes 000000000005a008     DxeCore:Gcd.obj
 0005:00000008       $unwind$PageAlignAddress   000000000005a008     DxeCore:Gcd.obj
 0005:00000008       $unwind$PageAlignLength    000000000005a008     DxeCore:Gcd.obj
 0005:00000008       $unwind$CoreAcquireLock    000000000005a008     DxeCore:Library.obj
 0005:00000008       $unwind$CoreAcquireLockOrFail 000000000005a008     DxeCore:Library.obj
 0005:00000008       $unwind$RemoveMemoryMapEntry 000000000005a008     DxeCore:Page.obj
 0005:00000008       $unwind$CoreInternalWaitForTick 000000000005a008     DxeCore:Stall.obj
 0005:00000008       $unwind$FreeChildNode      000000000005a008     DxeCore:CoreSectionExtraction.obj
 0005:00000008       $unwind$DeleteImagePropertiesRecord 000000000005a008     ImagePropertiesRecordLib:ImagePropertiesRecordLib.obj
 0005:00000008       $unwind$EfiPagesToSize     000000000005a008     ImagePropertiesRecordLib:ImagePropertiesRecordLib.obj
 0005:00000008       $unwind$LzmaDec_Init       000000000005a008     LzmaDecompressLib:LzmaDec.obj
 0005:00000008       $unwind$HighBitSet64       000000000005a008     BaseLib:HighBitSet64.obj
 0005:00000008       $unwind$GetFirstNode       000000000005a008     BaseLib:LinkedList.obj
 0005:00000008       $unwind$InitializeListHead 000000000005a008     BaseLib:LinkedList.obj
 0005:00000008       $unwind$RemoveEntryList    000000000005a008     BaseLib:LinkedList.obj
 0005:00000008       $unwind$InternalAssertJumpBuffer 000000000005a008     BaseLib:SetJump.obj
 0005:00000008       $unwind$AsciiStrSize       000000000005a008     BaseLib:String.obj
 0005:00000008       $unwind$ReadUnaligned16    000000000005a008     BaseLib:Unaligned.obj
 0005:00000008       $unwind$ReadUnaligned32    000000000005a008     BaseLib:Unaligned.obj
 0005:00000008       $unwind$ReadUnaligned64    000000000005a008     BaseLib:Unaligned.obj
 0005:00000008       $unwind$PeCoffLoaderUnloadImage 000000000005a008     BasePeCoffLib:BasePeCoff.obj
 0005:00000008       $unwind$LogPerformanceMeasurementEnabled 000000000005a008     BasePerformanceLibNull:PerformanceLib.obj
 0005:00000008       $unwind$_ModuleEntryPoint  000000000005a008     DxeCoreEntryPoint:DxeCoreEntryPoint.obj
 0005:00000008       $unwind$ExtractGuidedSectionGetGuidList 000000000005a008     DxeExtractGuidedSectionLib:DxeExtractGuidedSectionLib.obj
 0005:00000008       $unwind$DevicePathNodeLength 000000000005a008     UefiDevicePathLib:DevicePathUtilities.obj
 0005:00000008       $unwind$DevicePathSubType  000000000005a008     UefiDevicePathLib:DevicePathUtilities.obj
 0005:00000008       $unwind$DevicePathType     000000000005a008     UefiDevicePathLib:DevicePathUtilities.obj
 0005:00000008       $unwind$NextDevicePathNode 000000000005a008     UefiDevicePathLib:DevicePathUtilities.obj
 0005:00000008       $unwind$SetDevicePathEndNode 000000000005a008     UefiDevicePathLib:DevicePathUtilities.obj
 0005:00000008       $unwind$DuplicateDevicePath 000000000005a008     UefiDevicePathLib:UefiDevicePathLib.obj
 0005:00000008       $unwind$GetDevicePathSize  000000000005a008     UefiDevicePathLib:UefiDevicePathLib.obj
 0005:00000008       $unwind$EfiGetNameGuidFromFwVolDevicePathNode 000000000005a008     UefiLib:UefiNotTiano.obj
 0005:00000010       $unwind$DxeMain            000000000005a010     DxeCore:DxeMain.obj
 0005:00000010       $unwind$PeCoffLoaderLoadImage 000000000005a010     BasePeCoffLib:BasePeCoff.obj
 0005:00000018       $unwind$CorePreProcessDepex 000000000005a018     DxeCore:Dependency.obj
 0005:00000018       $unwind$CalculateEfiHdrCrc 000000000005a018     DxeCore:DxeMain.obj
 0005:00000018       $unwind$CoreCheckEvent     000000000005a018     DxeCore:Event.obj
 0005:00000018       $unwind$CoreCloseEvent     000000000005a018     DxeCore:Event.obj
 0005:00000018       $unwind$CoreNotifyEvent    000000000005a018     DxeCore:Event.obj
 0005:00000018       $unwind$CoreSignalEvent    000000000005a018     DxeCore:Event.obj
 0005:00000018       $unwind$CoreRaiseTpl       000000000005a018     DxeCore:Tpl.obj
 0005:00000018       $unwind$CoreRestoreTpl     000000000005a018     DxeCore:Tpl.obj
 0005:00000018       $unwind$VerifyFvHeaderChecksum 000000000005a018     DxeCore:Ffs.obj
 0005:00000018       $unwind$VerifyHeaderChecksum 000000000005a018     DxeCore:Ffs.obj
 0005:00000018       $unwind$FreeFvDeviceResource 000000000005a018     DxeCore:FwVol.obj
 0005:00000018       $unwind$CoreUnregisterProtocolNotify 000000000005a018     DxeCore:Handle.obj
 0005:00000018       $unwind$CoreValidateHandle 000000000005a018     DxeCore:Handle.obj
 0005:00000018       $unwind$CoreUnloadImage    000000000005a018     DxeCore:Image.obj
 0005:00000018       $unwind$CoreReleaseLock    000000000005a018     DxeCore:Library.obj
 0005:00000018       $unwind$GetGuardMapBit     000000000005a018     DxeCore:HeapGuard.obj
 0005:00000018       $unwind$IsGuardPage        000000000005a018     DxeCore:HeapGuard.obj
 0005:00000018       $unwind$IsMemoryGuarded    000000000005a018     DxeCore:HeapGuard.obj
 0005:00000018       $unwind$SetGuardPage       000000000005a018     DxeCore:HeapGuard.obj
 0005:00000018       $unwind$UnsetGuardPage     000000000005a018     DxeCore:HeapGuard.obj
 0005:00000018       $unwind$GetFileNameFromFilePath 000000000005a018     DxeCore:MemoryProfileRecord.obj
 0005:00000018       $unwind$MemoryProfileInit  000000000005a018     DxeCore:MemoryProfileRecord.obj
 0005:00000018       $unwind$CoreRemoveDebugImageInfoEntry 000000000005a018     DxeCore:DebugImageInfo.obj
 0005:00000018       $unwind$RemoveImageRecord  000000000005a018     DxeCore:MemoryAttributesTable.obj
 0005:00000018       $unwind$FreePool           000000000005a018     DxeCoreMemoryAllocationLib:MemoryAllocationLib.obj
 0005:00000018       $unwind$EfiSizeToPages     000000000005a018     ImagePropertiesRecordLib:ImagePropertiesRecordLib.obj
 0005:00000018       $unwind$GetDecodedSizeOfBuf 000000000005a018     LzmaDecompressLib:LzmaDecompress.obj
 0005:00000018       $unwind$IsListEmpty        000000000005a018     BaseLib:LinkedList.obj
 0005:00000018       $unwind$AsciiStrLen        000000000005a018     BaseLib:String.obj
 0005:00000018       $unwind$RedBlackTreeRecursiveCheck 000000000005a018     BaseOrderedCollectionRedBlackTreeLib:BaseOrderedCollectionRedBlackTreeLib.obj
 0005:00000018       $unwind$PeCoffLoaderGetMachineType 000000000005a018     BasePeCoffGetEntryPointLib:PeCoffGetEntryPoint.obj
 0005:00000018       $unwind$Decode             000000000005a018     BaseUefiDecompressLib:BaseUefiDecompressLib.obj
 0005:00000018       $unwind$DecodeC            000000000005a018     BaseUefiDecompressLib:BaseUefiDecompressLib.obj
 0005:00000018       $unwind$GetFirstGuidHob    000000000005a018     DxeCoreHobLib:HobLib.obj
 0005:00000018       $unwind$GetFirstHob        000000000005a018     DxeCoreHobLib:HobLib.obj
 0005:00000018       $unwind$IsDevicePathEnd    000000000005a018     UefiDevicePathLib:DevicePathUtilities.obj
 0005:00000018       $unwind$IsDevicePathEndInstance 000000000005a018     UefiDevicePathLib:DevicePathUtilities.obj
 0005:00000018       $unwind$IsDevicePathEndType 000000000005a018     UefiDevicePathLib:DevicePathUtilities.obj
 0005:00000018       $unwind$UefiDevicePathLibDuplicateDevicePath 000000000005a018     UefiDevicePathLib:DevicePathUtilities.obj
 0005:00000018       $unwind$UefiDevicePathLibGetDevicePathSize 000000000005a018     UefiDevicePathLib:DevicePathUtilities.obj
 0005:00000018       $unwind$DevicePathFromHandle 000000000005a018     UefiDevicePathLib:DevicePathUtilitiesDxeSmm.obj
 0005:00000020       $unwind$CoreSchedule       000000000005a020     DxeCore:Dispatcher.obj
 0005:00000020       $unwind$CoreTrust          000000000005a020     DxeCore:Dispatcher.obj
 0005:00000020       $unwind$CoreExitBootServices 000000000005a020     DxeCore:DxeMain.obj
 0005:00000020       $unwind$CoreCheckTimers    000000000005a020     DxeCore:Timer.obj
 0005:00000020       $unwind$FwVolBlockGetAttributes 000000000005a020     DxeCore:FwVolBlock.obj
 0005:00000020       $unwind$FwVolBlockGetPhysicalAddress 000000000005a020     DxeCore:FwVolBlock.obj
 0005:00000020       $unwind$CoreFreeIoSpace    000000000005a020     DxeCore:Gcd.obj
 0005:00000020       $unwind$CoreFreeMemorySpace 000000000005a020     DxeCore:Gcd.obj
 0005:00000020       $unwind$CoreRemoveIoSpace  000000000005a020     DxeCore:Gcd.obj
 0005:00000020       $unwind$CoreRemoveMemorySpace 000000000005a020     DxeCore:Gcd.obj
 0005:00000020       $unwind$CoreGetNextLocateAllHandles 000000000005a020     DxeCore:Locate.obj
 0005:00000020       $unwind$AdjustMemoryF      000000000005a020     DxeCore:HeapGuard.obj
 0005:00000020       $unwind$ClearGuardedMemoryBits 000000000005a020     DxeCore:HeapGuard.obj
 0005:00000020       $unwind$MergeGuardPages    000000000005a020     DxeCore:HeapGuard.obj
 0005:00000020       $unwind$PromoteGuardedFreePages 000000000005a020     DxeCore:HeapGuard.obj
 0005:00000020       $unwind$SetGuardedMemoryBits 000000000005a020     DxeCore:HeapGuard.obj
 0005:00000020       $unwind$CoreSetMemoryTypeInformationRange 000000000005a020     DxeCore:Page.obj
 0005:00000020       $unwind$CoreInstallConfigurationTable 000000000005a020     DxeCore:InstallConfigurationTable.obj
 0005:00000020       $unwind$ProtectUefiImage   000000000005a020     DxeCore:MemoryProtection.obj
 0005:00000020       $unwind$UnprotectUefiImage 000000000005a020     DxeCore:MemoryProtection.obj
 0005:00000020       $unwind$CreateGuidedExtractionRpnEvent 000000000005a020     DxeCore:CoreSectionExtraction.obj
 0005:00000020       $unwind$InitializeSectionExtraction 000000000005a020     DxeCore:CoreSectionExtraction.obj
 0005:00000020       $unwind$IsValidSectionStream 000000000005a020     DxeCore:CoreSectionExtraction.obj
 0005:00000020       $unwind$VerifyGuidedSectionGuid 000000000005a020     DxeCore:CoreSectionExtraction.obj
 0005:00000020       $unwind$AllocateAlignedPages 000000000005a020     DxeCoreMemoryAllocationLib:MemoryAllocationLib.obj
 0005:00000020       $unwind$AllocateCopyPool   000000000005a020     DxeCoreMemoryAllocationLib:MemoryAllocationLib.obj
 0005:00000020       $unwind$AllocateRuntimeCopyPool 000000000005a020     DxeCoreMemoryAllocationLib:MemoryAllocationLib.obj
 0005:00000020       $unwind$GetMaxSplitRecordCount 000000000005a020     ImagePropertiesRecordLib:ImagePropertiesRecordLib.obj
 0005:00000020       $unwind$LzmaDec_WriteRem   000000000005a020     LzmaDecompressLib:LzmaDec.obj
 0005:00000020       $unwind$CalculateSum16     000000000005a020     BaseLib:CheckSum.obj
 0005:00000020       $unwind$IsNodeInList       000000000005a020     BaseLib:LinkedList.obj
 0005:00000020       $unwind$OrderedCollectionFind 000000000005a020     BaseOrderedCollectionRedBlackTreeLib:BaseOrderedCollectionRedBlackTreeLib.obj
 0005:00000020       $unwind$IsDevicePathValid  000000000005a020     UefiDevicePathLib:DevicePathUtilities.obj
 0005:00000028       $unwind$DxeMainUefiDecompressGetInfo 000000000005a028     DxeCore:DxeMain.obj
 0005:00000028       $unwind$CoreInsertGcdMapEntry 000000000005a028     DxeCore:Gcd.obj
 0005:00000028       $unwind$Crc32GuidedSectionGetInfo 000000000005a028     DxeCrc32GuidedSectionExtractLib:DxeCrc32GuidedSectionExtractLib.obj
 0005:00000028       $unwind$LzmaGuidedSectionExtraction 000000000005a028     LzmaDecompressLib:GuidedSectionExtraction.obj
 0005:00000028       $unwind$LzmaGuidedSectionGetInfo 000000000005a028     LzmaDecompressLib:GuidedSectionExtraction.obj
 0005:00000028       $unwind$PeCoffLoaderImageReadFromMemory 000000000005a028     BasePeCoffLib:BasePeCoff.obj
 0005:00000030       $unwind$CoreAddToDriverList 000000000005a030     DxeCore:Dispatcher.obj
 0005:00000030       $unwind$DxeMainUefiDecompress 000000000005a030     DxeCore:DxeMain.obj
 0005:00000030       $unwind$CoreCleanupGcdMapEntry 000000000005a030     DxeCore:Gcd.obj
 0005:00000030       $unwind$CoreInstallProtocolInterface 000000000005a030     DxeCore:Handle.obj
 0005:00000030       $unwind$CoreExit           000000000005a030     DxeCore:Image.obj
 0005:00000030       $unwind$CoreReadImageFile  000000000005a030     DxeCore:Image.obj
 0005:00000030       $unwind$ProfileProtocolRecord 000000000005a030     DxeCore:MemoryProfileRecord.obj
 0005:00000030       $unwind$CoreSetWatchdogTimer 000000000005a030     DxeCore:SetWatchdogTimer.obj
 0005:00000030       $unwind$ChildIsType        000000000005a030     DxeCore:CoreSectionExtraction.obj
 0005:00000030       $unwind$OpenSectionStreamEx 000000000005a030     DxeCore:CoreSectionExtraction.obj
 0005:00000030       $unwind$LzmaDec_AllocateProbs 000000000005a030     LzmaDecompressLib:LzmaDec.obj
 0005:00000030       $unwind$DebugPrint         000000000005a030     BaseDebugLibSerialPort:DebugLib.obj
 0005:00000030       $unwind$AsciiBSPrint       000000000005a030     BasePrintLib:PrintLib.obj
 0005:00000030       $unwind$AsciiSPrint        000000000005a030     BasePrintLib:PrintLib.obj
 0005:00000030       $unwind$AsciiVSPrint       000000000005a030     BasePrintLib:PrintLib.obj
 0005:00000030       $unwind$ExtractGuidedSectionDecode 000000000005a030     DxeExtractGuidedSectionLib:DxeExtractGuidedSectionLib.obj
 0005:00000030       $unwind$ExtractGuidedSectionGetInfo 000000000005a030     DxeExtractGuidedSectionLib:DxeExtractGuidedSectionLib.obj
 0005:00000038       $unwind$CoreAllEfiServicesAvailable 000000000005a038     DxeCore:DxeProtocolNotify.obj
 0005:00000038       $unwind$ReportDebugCodeEnabled 000000000005a038     DxeReportStatusCodeLib:ReportStatusCodeLib.obj
 0005:00000038       $unwind$ReportErrorCodeEnabled 000000000005a038     DxeReportStatusCodeLib:ReportStatusCodeLib.obj
 0005:00000038       $unwind$ReportProgressCodeEnabled 000000000005a038     DxeReportStatusCodeLib:ReportStatusCodeLib.obj
 0005:00000038       $unwind$DebugAssertEnabled 000000000005a038     BaseDebugLibSerialPort:DebugLib.obj
 0005:00000038       $unwind$DebugClearMemoryEnabled 000000000005a038     BaseDebugLibSerialPort:DebugLib.obj
 0005:00000038       $unwind$DebugCodeEnabled   000000000005a038     BaseDebugLibSerialPort:DebugLib.obj
 0005:00000038       $unwind$DebugPrintEnabled  000000000005a038     BaseDebugLibSerialPort:DebugLib.obj
 0005:00000038       $unwind$PerformanceMeasurementEnabled 000000000005a038     BasePerformanceLibNull:PerformanceLib.obj
 0005:00000040       $unwind$GenericProtocolNotify 000000000005a040     DxeCore:DxeProtocolNotify.obj
 0005:00000040       $unwind$FwVolBlockDriverInit 000000000005a040     DxeCore:FwVolBlock.obj
 0005:00000040       $unwind$FvGetVolumeAttributes 000000000005a040     DxeCore:FwVolAttrib.obj
 0005:00000040       $unwind$CoreGetIoSpaceMap  000000000005a040     DxeCore:Gcd.obj
 0005:00000040       $unwind$CoreGetMemorySpaceMap 000000000005a040     DxeCore:Gcd.obj
 0005:00000040       $unwind$CoreGetProtocolInterface 000000000005a040     DxeCore:Handle.obj
 0005:00000040       $unwind$CoreGetNextLocateByProtocol 000000000005a040     DxeCore:Locate.obj
 0005:00000040       $unwind$CoreGetNextLocateByRegisterNotify 000000000005a040     DxeCore:Locate.obj
 0005:00000040       $unwind$GetGuardedMemoryBits 000000000005a040     DxeCore:HeapGuard.obj
 0005:00000040       $unwind$GetMemoryProfileDriverInfoFromAddress 000000000005a040     DxeCore:MemoryProfileRecord.obj
 0005:00000040       $unwind$FindStreamNode     000000000005a040     DxeCore:CoreSectionExtraction.obj
 0005:00000040       $unwind$CompareGuid        000000000005a040     BaseMemoryLib:MemLibGuid.obj
 0005:00000040       $unwind$UefiDevicePathLibAppendDevicePath 000000000005a040     UefiDevicePathLib:DevicePathUtilities.obj
 0005:00000048       $unwind$FvHasBeenProcessed 000000000005a048     DxeCore:Dispatcher.obj
 0005:00000048       $unwind$CoreNotifyOnProtocolEntryTable 000000000005a048     DxeCore:DxeProtocolNotify.obj
 0005:00000048       $unwind$CoreTimerTick      000000000005a048     DxeCore:Timer.obj
 0005:00000048       $unwind$CoreNotifyProtocolEntry 000000000005a048     DxeCore:Notify.obj
 0005:00000048       $unwind$CoreIsImageTypeSupported 000000000005a048     DxeCore:Image.obj
 0005:00000048       $unwind$InternalPeCoffGetSubsystem 000000000005a048     DxeCore:MemoryProfileRecord.obj
 0005:00000048       $unwind$CoreFreePool       000000000005a048     DxeCore:Pool.obj
 0005:00000048       $unwind$InsertImageRecord  000000000005a048     DxeCore:MemoryAttributesTable.obj
 0005:00000048       $unwind$CoreStall          000000000005a048     DxeCore:Stall.obj
 0005:00000048       $unwind$AllocatePool       000000000005a048     DxeCoreMemoryAllocationLib:MemoryAllocationLib.obj
 0005:00000048       $unwind$AllocateRuntimePool 000000000005a048     DxeCoreMemoryAllocationLib:MemoryAllocationLib.obj
 0005:00000048       $unwind$AllocateRuntimeZeroPool 000000000005a048     DxeCoreMemoryAllocationLib:MemoryAllocationLib.obj
 0005:00000048       $unwind$AllocateZeroPool   000000000005a048     DxeCoreMemoryAllocationLib:MemoryAllocationLib.obj
 0005:00000048       $unwind$FreeImageRecordCodeSections 000000000005a048     ImagePropertiesRecordLib:ImagePropertiesRecordLib.obj
 0005:00000048       $unwind$InternalBaseLibIsListValid 000000000005a048     BaseLib:LinkedList.obj
 0005:00000048       $unwind$IsZeroGuid         000000000005a048     BaseMemoryLib:MemLibGuid.obj
 0005:00000048       $unwind$PeCoffGetSizeOfHeaders 000000000005a048     BasePeCoffGetEntryPointLib:PeCoffGetEntryPoint.obj
 0005:00000048       $unwind$DecodeP            000000000005a048     BaseUefiDecompressLib:BaseUefiDecompressLib.obj
 0005:00000048       $unwind$ReadCLen           000000000005a048     BaseUefiDecompressLib:BaseUefiDecompressLib.obj
 0005:00000050       $unwind$CoreAcquireDispatcherLock 000000000005a050     DxeCore:Dispatcher.obj
 0005:00000050       $unwind$CoreReleaseDispatcherLock 000000000005a050     DxeCore:Dispatcher.obj
 0005:00000050       $unwind$CoreNotifyOnProtocolInstallation 000000000005a050     DxeCore:DxeProtocolNotify.obj
 0005:00000050       $unwind$CoreAcquireEventLock 000000000005a050     DxeCore:Event.obj
 0005:00000050       $unwind$CoreReleaseEventLock 000000000005a050     DxeCore:Event.obj
 0005:00000050       $unwind$CoreAcquireGcdIoLock 000000000005a050     DxeCore:Gcd.obj
 0005:00000050       $unwind$CoreAcquireGcdMemoryLock 000000000005a050     DxeCore:Gcd.obj
 0005:00000050       $unwind$CoreReleaseGcdIoLock 000000000005a050     DxeCore:Gcd.obj
 0005:00000050       $unwind$CoreReleaseGcdMemoryLock 000000000005a050     DxeCore:Gcd.obj
 0005:00000050       $unwind$CoreAcquireProtocolLock 000000000005a050     DxeCore:Handle.obj
 0005:00000050       $unwind$CoreInitializeHandleServices 000000000005a050     DxeCore:Handle.obj
 0005:00000050       $unwind$CoreReleaseProtocolLock 000000000005a050     DxeCore:Handle.obj
 0005:00000050       $unwind$HeapGuardCpuArchProtocolNotify 000000000005a050     DxeCore:HeapGuard.obj
 0005:00000050       $unwind$CoreAcquireMemoryProfileLock 000000000005a050     DxeCore:MemoryProfileRecord.obj
 0005:00000050       $unwind$CoreReleaseMemoryProfileLock 000000000005a050     DxeCore:MemoryProfileRecord.obj
 0005:00000050       $unwind$CoreAcquireMemoryLock 000000000005a050     DxeCore:Page.obj
 0005:00000050       $unwind$CoreReleaseMemoryLock 000000000005a050     DxeCore:Page.obj
 0005:00000050       $unwind$CoreUpdateDebugTableCrc32 000000000005a050     DxeCore:DebugImageInfo.obj
 0005:00000050       $unwind$CoreAcquiremMemoryAttributesTableLock 000000000005a050     DxeCore:MemoryAttributesTable.obj
 0005:00000050       $unwind$CoreReleasemMemoryAttributesTableLock 000000000005a050     DxeCore:MemoryAttributesTable.obj
 0005:00000050       $unwind$LzmaDecompressLibConstructor 000000000005a050     LzmaDecompressLib:GuidedSectionExtraction.obj
 0005:00000050       $unwind$BaseDebugLibSerialPortConstructor 000000000005a050     BaseDebugLibSerialPort:DebugLib.obj
 0005:00000050       $unwind$GetHobList         000000000005a050     DxeCoreHobLib:HobLib.obj
 0005:00000050       $unwind$ReallocateExtractHandlerTable 000000000005a050     DxeExtractGuidedSectionLib:DxeExtractGuidedSectionLib.obj
 0005:00000058       $unwind$GrowDepexStack     000000000005a058     DxeCore:Dependency.obj
 0005:00000058       $unwind$CoreInitializeDispatcher 000000000005a058     DxeCore:Dispatcher.obj
 0005:00000058       $unwind$CoreDisplayMissingArchProtocols 000000000005a058     DxeCore:DxeProtocolNotify.obj
 0005:00000058       $unwind$CoreCurrentSystemTime 000000000005a058     DxeCore:Timer.obj
 0005:00000058       $unwind$CalculateTotalMemoryBinSizeNeeded 000000000005a058     DxeCore:Gcd.obj
 0005:00000058       $unwind$MemoryProfileInstallProtocol 000000000005a058     DxeCore:MemoryProfileRecord.obj
 0005:00000058       $unwind$CoreInitializePool 000000000005a058     DxeCore:Pool.obj
 0005:00000058       $unwind$IsInSmm            000000000005a058     DxeCore:MemoryProtection.obj
 0005:00000058       $unwind$MemoryProtectionExitBootServicesCallback 000000000005a058     DxeCore:MemoryProtection.obj
 0005:00000058       $unwind$InternalGetReportStatusCode 000000000005a058     DxeReportStatusCodeLib:ReportStatusCodeLib.obj
 0005:00000058       $unwind$CpuDeadLoop        000000000005a058     BaseLib:CpuDeadLoop.obj
 0005:00000060       $unwind$CoreGetDepexSectionAndPreProccess 000000000005a060     DxeCore:Dispatcher.obj
 0005:00000060       $unwind$CoreUnregisterProtocolNotifyEvent 000000000005a060     DxeCore:Handle.obj
 0005:00000060       $unwind$IsDevicePathInstalled 000000000005a060     DxeCore:Handle.obj
 0005:00000060       $unwind$SetUefiImageProtectionAttributes 000000000005a060     DxeCore:MemoryProtection.obj
 0005:00000060       $unwind$IsImageRecordCodeSectionValid 000000000005a060     ImagePropertiesRecordLib:ImagePropertiesRecordLib.obj
 0005:00000060       $unwind$RedBlackTreeValidate 000000000005a060     BaseOrderedCollectionRedBlackTreeLib:BaseOrderedCollectionRedBlackTreeLib.obj
 0005:00000068       $unwind$CoreDispatcher     000000000005a068     DxeCore:Dispatcher.obj
 0005:00000068       $unwind$InitializeDxeNxMemoryProtectionPolicy 000000000005a068     DxeCore:MemoryProtection.obj
 0005:00000070       $unwind$CoreInsertOnScheduledQueueWhileProcessingBeforeAndAfter 000000000005a070     DxeCore:Dispatcher.obj
 0005:00000070       $unwind$CoreDispatchEventNotifies 000000000005a070     DxeCore:Event.obj
 0005:00000070       $unwind$CoreNotifySignalList 000000000005a070     DxeCore:Event.obj
 0005:00000070       $unwind$CoreInsertEventTimer 000000000005a070     DxeCore:Timer.obj
 0005:00000070       $unwind$CoreLoadedImageInfo 000000000005a070     DxeCore:Image.obj
 0005:00000070       $unwind$GetLastGuardedFreePageAddress 000000000005a070     DxeCore:HeapGuard.obj
 0005:00000070       $unwind$NeedRecordThisDriver 000000000005a070     DxeCore:MemoryProfileRecord.obj
 0005:00000070       $unwind$UnregisterMemoryProfileImage 000000000005a070     DxeCore:MemoryProfileRecord.obj
 0005:00000070       $unwind$CoreTerminateMemoryMap 000000000005a070     DxeCore:Page.obj
 0005:00000070       $unwind$GetImageType       000000000005a070     DxeCore:MemoryProtection.obj
 0005:00000078       $unwind$FvIsBeingProcessed 000000000005a078     DxeCore:Dispatcher.obj
 0005:00000088       $unwind$CoreFvToDevicePath 000000000005a088     DxeCore:Dispatcher.obj
 0005:00000088       $unwind$CoreProcessFirmwareVolume 000000000005a088     DxeCore:FwVolBlock.obj
 0005:00000088       $unwind$CoreSetMemorySpaceAttributes 000000000005a088     DxeCore:Gcd.obj
 0005:00000088       $unwind$CoreSetMemorySpaceCapabilities 000000000005a088     DxeCore:Gcd.obj
 0005:00000088       $unwind$CoreUninstallProtocolInterface 000000000005a088     DxeCore:Handle.obj
 0005:00000088       $unwind$CoreRegisterProtocolNotify 000000000005a088     DxeCore:Notify.obj
 0005:00000088       $unwind$ProfileProtocolGetData 000000000005a088     DxeCore:MemoryProfileRecord.obj
 0005:00000088       $unwind$ReallocatePool     000000000005a088     DxeCoreMemoryAllocationLib:MemoryAllocationLib.obj
 0005:00000088       $unwind$FindImageRecord    000000000005a088     ImagePropertiesRecordLib:ImagePropertiesRecordLib.obj
 0005:00000088       $unwind$GetImageRecordByAddress 000000000005a088     ImagePropertiesRecordLib:ImagePropertiesRecordLib.obj
 0005:00000090       $unwind$GetFvUsedSize      000000000005a090     DxeCore:Dispatcher.obj
 0005:00000090       $unwind$FindLargestFreeRegion 000000000005a090     DxeCore:Gcd.obj
 0005:00000090       $unwind$CoreFindProtocolInterface 000000000005a090     DxeCore:Handle.obj
 0005:00000090       $unwind$CoreRemoveInterfaceFromProtocol 000000000005a090     DxeCore:Notify.obj
 0005:00000090       $unwind$ClearBits          000000000005a090     DxeCore:HeapGuard.obj
 0005:00000090       $unwind$GetBits            000000000005a090     DxeCore:HeapGuard.obj
 0005:00000090       $unwind$SetBits            000000000005a090     DxeCore:HeapGuard.obj
 0005:00000090       $unwind$GetMemoryProfileDriverInfoByFileNameAndAddress 000000000005a090     DxeCore:MemoryProfileRecord.obj
 0005:00000090       $unwind$MergeMemoryMap     000000000005a090     DxeCore:MemoryAttributesTable.obj
 0005:00000090       $unwind$MergeMemoryMapForProtectionPolicy 000000000005a090     DxeCore:MemoryProtection.obj
 0005:00000090       $unwind$InternalMemSetMem  000000000005a090     BaseMemoryLib:SetMem.obj
 0005:00000098       $unwind$CoreProcessFvImageFile 000000000005a098     DxeCore:Dispatcher.obj
 0005:00000098       $unwind$SetUefiImageMemoryAttributes 000000000005a098     DxeCore:MemoryProtection.obj
 0005:000000a0       $unwind$CoreFwVolEventProtocolNotify 000000000005a0a0     DxeCore:Dispatcher.obj
 0005:000000b0       $unwind$CoreDisplayDiscoveredNotDispatched 000000000005a0b0     DxeCore:Dispatcher.obj
 0005:000000b0       $unwind$CoreInitializeEventServices 000000000005a0b0     DxeCore:Event.obj
 0005:000000b0       $unwind$CoreInitializeTimer 000000000005a0b0     DxeCore:Timer.obj
 0005:000000b0       $unwind$CoreLoadingFixedAddressHook 000000000005a0b0     DxeCore:Page.obj
 0005:000000b8       $unwind$PushBool           000000000005a0b8     DxeCore:Dependency.obj
 0005:000000b8       $unwind$CoreSetInterruptState 000000000005a0b8     DxeCore:Tpl.obj
 0005:000000b8       $unwind$FfsAttributes2FvFileAttributes 000000000005a0b8     DxeCore:FwVolRead.obj
 0005:000000b8       $unwind$CoreNeedRecordProfile 000000000005a0b8     DxeCore:MemoryProfileRecord.obj
 0005:000000b8       $unwind$GetMemoryProtectionSectionAlignment 000000000005a0b8     DxeCore:MemoryProtection.obj
 0005:000000b8       $unwind$GetPermissionAttributeForMemoryType 000000000005a0b8     DxeCore:MemoryProtection.obj
 0005:000000c0       $unwind$CoreIsSchedulable  000000000005a0c0     DxeCore:Dependency.obj
 0005:000000d0       $unwind$CoreCreateEvent    000000000005a0d0     DxeCore:Event.obj
 0005:000000d0       $unwind$CoreCreateEventEx  000000000005a0d0     DxeCore:Event.obj
 0005:000000d0       $unwind$CoreAllocatePoolPagesI 000000000005a0d0     DxeCore:Pool.obj
 0005:000000d0       $unwind$InternalReallocatePool 000000000005a0d0     DxeCoreMemoryAllocationLib:MemoryAllocationLib.obj
 0005:000000d0       $unwind$LzmaUefiDecompressGetInfo 000000000005a0d0     LzmaDecompressLib:LzmaDecompress.obj
 0005:000000d0       $unwind$UefiDecompressGetInfo 000000000005a0d0     BaseUefiDecompressLib:BaseUefiDecompressLib.obj
 0005:000000d8       $unwind$CoreCreateEventInternal 000000000005a0d8     DxeCore:Event.obj
 0005:000000d8       $unwind$CoreLocateHandle   000000000005a0d8     DxeCore:Locate.obj
 0005:000000d8       $unwind$CoreLocateHandleBuffer 000000000005a0d8     DxeCore:Locate.obj
 0005:000000d8       $unwind$CoreAllocatePoolPages 000000000005a0d8     DxeCore:Page.obj
 0005:000000e0       $unwind$CoreWaitForEvent   000000000005a0e0     DxeCore:Event.obj
 0005:000000e0       $unwind$AlignValue         000000000005a0e0     DxeCore:Gcd.obj
 0005:000000e0       $unwind$CoreHandleProtocol 000000000005a0e0     DxeCore:Handle.obj
 0005:000000e0       $unwind$AdjustMemoryS      000000000005a0e0     DxeCore:HeapGuard.obj
 0005:000000e0       $unwind$CoreConvertPagesWithGuard 000000000005a0e0     DxeCore:HeapGuard.obj
 0005:000000e0       $unwind$CoreConvertPages   000000000005a0e0     DxeCore:Page.obj
 0005:000000e0       $unwind$CoreUpdateMemoryAttributes 000000000005a0e0     DxeCore:Page.obj
 0005:000000e0       $unwind$OpenSectionStream  000000000005a0e0     DxeCore:CoreSectionExtraction.obj
 0005:000000e0       $unwind$LzmaDec_AllocateProbs2 000000000005a0e0     LzmaDecompressLib:LzmaDec.obj
 0005:000000e0       $unwind$LzmaDec_DecodeReal2 000000000005a0e0     LzmaDecompressLib:LzmaDec.obj
 0005:000000e0       $unwind$BasePrintLibValueToString 000000000005a0e0     BasePrintLib:PrintLibInternal.obj
 0005:000000e0       $unwind$ExtractGuidedSectionRegisterHandlers 000000000005a0e0     DxeExtractGuidedSectionLib:DxeExtractGuidedSectionLib.obj
 0005:000000e8       $unwind$CoreSetTimer       000000000005a0e8     DxeCore:Timer.obj
 0005:000000e8       $unwind$IsValidFfsHeader   000000000005a0e8     DxeCore:Ffs.obj
 0005:000000e8       $unwind$CoreFreePoolPagesWithGuard 000000000005a0e8     DxeCore:Pool.obj
 0005:000000e8       $unwind$InitializeDebugAgent 000000000005a0e8     DebugAgentLibNull:DebugAgentLibNull.obj
 0005:000000e8       $unwind$InternalAllocateCopyPool 000000000005a0e8     DxeCoreMemoryAllocationLib:MemoryAllocationLib.obj
 0005:000000f0       $unwind$FwVolBlockReadBlock 000000000005a0f0     DxeCore:FwVolBlock.obj
 0005:000000f0       $unwind$ReadFvbData        000000000005a0f0     DxeCore:FwVol.obj
 0005:000000f0       $unwind$CoreInstallMultipleProtocolInterfaces 000000000005a0f0     DxeCore:Handle.obj
 0005:000000f0       $unwind$CoreInstallProtocolInterfaceNotify 000000000005a0f0     DxeCore:Handle.obj
 0005:000000f0       $unwind$BuildDriverInfo    000000000005a0f0     DxeCore:MemoryProfileRecord.obj
 0005:000000f0       $unwind$SplitTable         000000000005a0f0     ImagePropertiesRecordLib:ImagePropertiesRecordLib.obj
 0005:000000f8       $unwind$GetFwVolHeader     000000000005a0f8     DxeCore:FwVol.obj
 0005:00000108       $unwind$FvCheck            000000000005a108     DxeCore:FwVol.obj
 0005:00000108       $unwind$PeCoffLoaderRelocateImage 000000000005a108     BasePeCoffLib:BasePeCoff.obj
 0005:00000110       $unwind$NotifyFwVolBlock   000000000005a110     DxeCore:FwVol.obj
 0005:00000110       $unwind$CheckAndMarkFixLoadingMemoryUsageBitMap 000000000005a110     DxeCore:Image.obj
 0005:00000110       $unwind$NotifyGuidedExtraction 000000000005a110     DxeCore:CoreSectionExtraction.obj
 0005:00000118       $unwind$GetFileState       000000000005a118     DxeCore:Ffs.obj
 0005:00000118       $unwind$CoreConvertResourceDescriptorHobAttributesToCapabilities 000000000005a118     DxeCore:Gcd.obj
 0005:00000120       $unwind$IsBufferErased     000000000005a120     DxeCore:Ffs.obj
 0005:00000120       $unwind$CoreFreePoolPagesI 000000000005a120     DxeCore:Pool.obj
 0005:00000120       $unwind$DivU64x32Remainder 000000000005a120     BaseLib:DivU64x32Remainder.obj
 0005:00000128       $unwind$IsValidFfsFile     000000000005a128     DxeCore:Ffs.obj
 0005:00000128       $unwind$ProfileProtocolSetRecordingState 000000000005a128     DxeCore:MemoryProfileRecord.obj
 0005:00000128       $unwind$InternalAllocatePool 000000000005a128     DxeCoreMemoryAllocationLib:MemoryAllocationLib.obj
 0005:00000128       $unwind$InternalAllocateZeroPool 000000000005a128     DxeCoreMemoryAllocationLib:MemoryAllocationLib.obj
 0005:00000128       $unwind$MultU64x32         000000000005a128     BaseLib:MultU64x32.obj
 0005:00000130       $unwind$FvGetNextFile      000000000005a130     DxeCore:FwVolRead.obj
 0005:00000130       $unwind$CoreOpenProtocolInformation 000000000005a130     DxeCore:Handle.obj
 0005:00000130       $unwind$CoreFindFreePagesI 000000000005a130     DxeCore:Page.obj
 0005:00000130       $unwind$LzmaDec_DecodeToDic 000000000005a130     LzmaDecompressLib:LzmaDec.obj
 0005:00000138       $unwind$FvReadFile         000000000005a138     DxeCore:FwVolRead.obj
 0005:00000148       $unwind$FvReadFileSection  000000000005a148     DxeCore:FwVolRead.obj
 0005:00000148       $unwind$GetSection         000000000005a148     DxeCore:CoreSectionExtraction.obj
 0005:00000150       $unwind$FwVolBlockGetBlockSize 000000000005a150     DxeCore:FwVolBlock.obj
 0005:00000150       $unwind$AddSortedDriverBindingProtocol 000000000005a150     DxeCore:DriverSupport.obj
 0005:00000150       $unwind$CoreCloseProtocol  000000000005a150     DxeCore:Handle.obj
 0005:00000150       $unwind$CoreUninstallMultipleProtocolInterfaces 000000000005a150     DxeCore:Handle.obj
 0005:00000150       $unwind$FindFreePages      000000000005a150     DxeCore:Page.obj
 0005:00000150       $unwind$CoreGetMemoryMapWithSeparatedImageSection 000000000005a150     DxeCore:MemoryAttributesTable.obj
 0005:00000150       $unwind$CustomGuidedSectionExtract 000000000005a150     DxeCore:CoreSectionExtraction.obj
 0005:00000150       $unwind$UefiTianoDecompress 000000000005a150     BaseUefiDecompressLib:BaseUefiDecompressLib.obj
 0005:00000158       $unwind$GetFvbAuthenticationStatus 000000000005a158     DxeCore:FwVolBlock.obj
 0005:00000158       $unwind$ConverToCpuArchAttributes 000000000005a158     DxeCore:Gcd.obj
 0005:00000158       $unwind$CoreCountGcdMapEntry 000000000005a158     DxeCore:Gcd.obj
 0005:00000158       $unwind$GetMachineTypeName 000000000005a158     DxeCore:Image.obj
 0005:00000158       $unwind$GetPoolIndexFromSize 000000000005a158     DxeCore:Pool.obj
 0005:00000158       $unwind$DebugPrintLevelEnabled 000000000005a158     BaseDebugLibSerialPort:DebugLib.obj
 0005:00000158       $unwind$NodeIsNullOrBlack  000000000005a158     BaseOrderedCollectionRedBlackTreeLib:BaseOrderedCollectionRedBlackTreeLib.obj
 0005:00000158       $unwind$OrderedCollectionMax 000000000005a158     BaseOrderedCollectionRedBlackTreeLib:BaseOrderedCollectionRedBlackTreeLib.obj
 0005:00000158       $unwind$OrderedCollectionMin 000000000005a158     BaseOrderedCollectionRedBlackTreeLib:BaseOrderedCollectionRedBlackTreeLib.obj
 0005:00000158       $unwind$OrderedCollectionNext 000000000005a158     BaseOrderedCollectionRedBlackTreeLib:BaseOrderedCollectionRedBlackTreeLib.obj
 0005:00000158       $unwind$OrderedCollectionPrev 000000000005a158     BaseOrderedCollectionRedBlackTreeLib:BaseOrderedCollectionRedBlackTreeLib.obj
 0005:00000160       $unwind$ProduceFVBProtocolOnBuffer 000000000005a160     DxeCore:FwVolBlock.obj
 0005:00000160       $unwind$CoreOpenProtocol   000000000005a160     DxeCore:Handle.obj
 0005:00000168       $unwind$FindGuardedMemoryMap 000000000005a168     DxeCore:HeapGuard.obj
 0005:00000170       $unwind$IsMemoryTypeToGuard 000000000005a170     DxeCore:HeapGuard.obj
 0005:00000178       $unwind$IsHeapGuardEnabled 000000000005a178     DxeCore:HeapGuard.obj
 0005:00000178       $unwind$IsPoolTypeToGuard  000000000005a178     DxeCore:HeapGuard.obj
 0005:00000178       $unwind$InstallMemoryAttributesTableOnMemoryAllocation 000000000005a178     DxeCore:MemoryAttributesTable.obj
 0005:00000180       $unwind$IsPageTypeToGuard  000000000005a180     DxeCore:HeapGuard.obj
 0005:00000188       $unwind$SerialPortWrite    000000000005a188     DxeEmuStdErrSerialPortLib:DxeEmuStdErrSerialPortLib.obj
 0005:00000188       $unwind$CoreAllocateGcdMapEntry 000000000005a188     DxeCore:Gcd.obj
 0005:00000188       $unwind$AdjustMemoryA      000000000005a188     DxeCore:HeapGuard.obj
 0005:00000188       $unwind$GuardFreedPagesChecked 000000000005a188     DxeCore:HeapGuard.obj
 0005:00000188       $unwind$MarkFreedPages     000000000005a188     DxeCore:HeapGuard.obj
 0005:00000188       $unwind$CoreFreePoolPages  000000000005a188     DxeCore:Page.obj
 0005:00000188       $unwind$InstallMemoryAttributesTableOnEndOfDxe 000000000005a188     DxeCore:MemoryAttributesTable.obj
 0005:00000188       $unwind$InstallMemoryAttributesTableOnReadyToBoot 000000000005a188     DxeCore:MemoryAttributesTable.obj
 0005:00000188       $unwind$DxeCrc32GuidedSectionExtractLibConstructor 000000000005a188     DxeCrc32GuidedSectionExtractLib:DxeCrc32GuidedSectionExtractLib.obj
 0005:00000188       $unwind$LzmaDec_FreeProbs  000000000005a188     LzmaDecompressLib:LzmaDec.obj
 0005:00000188       $unwind$InvalidateInstructionCacheRange 000000000005a188     BaseCacheMaintenanceLib:X86Cache.obj
 0005:00000188       $unwind$DebugClearMemory   000000000005a188     BaseDebugLibSerialPort:DebugLib.obj
 0005:00000188       $unwind$LShiftU64          000000000005a188     BaseLib:LShiftU64.obj
 0005:00000188       $unwind$GetNextNode        000000000005a188     BaseLib:LinkedList.obj
 0005:00000188       $unwind$InsertHeadList     000000000005a188     BaseLib:LinkedList.obj
 0005:00000188       $unwind$InsertTailList     000000000005a188     BaseLib:LinkedList.obj
 0005:00000188       $unwind$LongJump           000000000005a188     BaseLib:LongJump.obj
 0005:00000188       $unwind$RShiftU64          000000000005a188     BaseLib:RShiftU64.obj
 0005:00000188       $unwind$WriteUnaligned16   000000000005a188     BaseLib:Unaligned.obj
 0005:00000188       $unwind$WriteUnaligned64   000000000005a188     BaseLib:Unaligned.obj
 0005:00000188       $unwind$InternalMemZeroMem 000000000005a188     BaseMemoryLib:MemLibGeneric.obj
 0005:00000188       $unwind$CopyGuid           000000000005a188     BaseMemoryLib:MemLibGuid.obj
 0005:00000188       $unwind$ZeroMem            000000000005a188     BaseMemoryLib:ZeroMemWrapper.obj
 0005:00000188       $unwind$RedBlackTreeRotateLeft 000000000005a188     BaseOrderedCollectionRedBlackTreeLib:BaseOrderedCollectionRedBlackTreeLib.obj
 0005:00000188       $unwind$RedBlackTreeRotateRight 000000000005a188     BaseOrderedCollectionRedBlackTreeLib:BaseOrderedCollectionRedBlackTreeLib.obj
 0005:00000188       $unwind$DxeExtractGuidedSectionLibConstructor 000000000005a188     DxeExtractGuidedSectionLib:DxeExtractGuidedSectionLib.obj
 0005:00000188       $unwind$UefiBootServicesTableLibConstructor 000000000005a188     UefiBootServicesTableLib:UefiBootServicesTableLib.obj
 0005:00000188       $unwind$SetDevicePathNodeLength 000000000005a188     UefiDevicePathLib:DevicePathUtilities.obj
 0005:00000188       $unwind$AppendDevicePath   000000000005a188     UefiDevicePathLib:UefiDevicePathLib.obj
 0005:00000188       $unwind$EfiInitializeFwVolDevicepathNode 000000000005a188     UefiLib:UefiNotTiano.obj
 0005:00000188       $unwind$UefiRuntimeServicesTableLibConstructor 000000000005a188     UefiRuntimeServicesTableLib:UefiRuntimeServicesTableLib.obj
 0005:00000190       $unwind$GuardAllFreedPages 000000000005a190     DxeCore:HeapGuard.obj
 0005:00000190       $unwind$SetAllGuardPages   000000000005a190     DxeCore:HeapGuard.obj
 0005:000001a0       $unwind$DumpGuardedMemoryBitmap 000000000005a1a0     DxeCore:HeapGuard.obj
 0005:000001b0       $unwind$RegisterDxeCore    000000000005a1b0     DxeCore:MemoryProfileRecord.obj
 0005:000001c0       $unwind$CoreFindProtocolEntry 000000000005a1c0     DxeCore:Handle.obj
 0005:000001c0       $unwind$RegisterMemoryProfileImage 000000000005a1c0     DxeCore:MemoryProfileRecord.obj
 0005:000001c8       $unwind$InternalCoreLocateHandle 000000000005a1c8     DxeCore:Locate.obj
 0005:000001c8       $unwind$CoreUpdateProfileAllocate 000000000005a1c8     DxeCore:MemoryProfileRecord.obj
 0005:000001d0       $unwind$CoreAddMemorySpace 000000000005a1d0     DxeCore:Gcd.obj
 0005:000001d0       $unwind$CoreLoadImage      000000000005a1d0     DxeCore:Image.obj
 0005:000001d0       $unwind$GetMemoryProfileAllocInfoFromAddress 000000000005a1d0     DxeCore:MemoryProfileRecord.obj
 0005:000001d8       $unwind$CoreConvertSpace   000000000005a1d8     DxeCore:Gcd.obj
 0005:000001d8       $unwind$CoreLoadImageCommon 000000000005a1d8     DxeCore:Image.obj
 0005:000001d8       $unwind$CoreUpdateProfileFree 000000000005a1d8     DxeCore:MemoryProfileRecord.obj
 0005:000001e0       $unwind$CoreInternalAddMemorySpace 000000000005a1e0     DxeCore:Gcd.obj
 0005:000001e0       $unwind$CoreUpdateProfile  000000000005a1e0     DxeCore:MemoryProfileRecord.obj
 0005:000001e0       $unwind$CoreAddRange       000000000005a1e0     DxeCore:Page.obj
 0005:000001e8       $unwind$MemoryProfileGetDataSize 000000000005a1e8     DxeCore:MemoryProfileRecord.obj
 0005:000001f0       $unwind$MemoryProfileCopyData 000000000005a1f0     DxeCore:MemoryProfileRecord.obj
 0005:000001f8       $unwind$ProfileProtocolRegisterImage 000000000005a1f8     DxeCore:MemoryProfileRecord.obj
 0005:000001f8       $unwind$ProfileProtocolUnregisterImage 000000000005a1f8     DxeCore:MemoryProfileRecord.obj
 0005:00000200       $unwind$AllocateMemoryMapEntry 000000000005a200     DxeCore:Page.obj
 0005:00000200       $unwind$CoreFreeMemoryMapStack 000000000005a200     DxeCore:Page.obj
 0005:00000200       $unwind$CoreInitializeMemoryAttributesTable 000000000005a200     DxeCore:MemoryAttributesTable.obj
 0005:00000208       $unwind$PromoteMemoryResource 000000000005a208     DxeCore:Page.obj
 0005:00000208       $unwind$InstallMemoryAttributesTable 000000000005a208     DxeCore:MemoryAttributesTable.obj
 0005:00000210       $unwind$CoreAddMemoryDescriptor 000000000005a210     DxeCore:Page.obj
 0005:00000218       $unwind$CoreConvertPagesEx 000000000005a218     DxeCore:Page.obj
 0005:00000218       $unwind$LzmaUefiDecompress 000000000005a218     LzmaDecompressLib:LzmaDecompress.obj
 0005:00000220       $unwind$CoreInternalAllocatePages 000000000005a220     DxeCore:Page.obj
 0005:00000228       $unwind$CoreAllocatePages  000000000005a228     DxeCore:Page.obj
 0005:00000228       $unwind$ReportStatusCodeWithExtendedData 000000000005a228     DxeReportStatusCodeLib:ReportStatusCodeLib.obj
 0005:00000230       $unwind$CoreStartImage     000000000005a230     DxeCore:Image.obj
 0005:00000230       $unwind$CoreInternalFreePages 000000000005a230     DxeCore:Page.obj
 0005:00000230       $unwind$InternalMemCopyMem 000000000005a230     BaseMemoryLib:CopyMem.obj
 0005:00000238       $unwind$CoreGetIoSpaceDescriptor 000000000005a238     DxeCore:Gcd.obj
 0005:00000238       $unwind$CoreGetMemorySpaceDescriptor 000000000005a238     DxeCore:Gcd.obj
 0005:00000238       $unwind$CoreDisconnectControllersUsingProtocolInterface 000000000005a238     DxeCore:Handle.obj
 0005:00000238       $unwind$PeCoffEmuProtocolNotify 000000000005a238     DxeCore:Image.obj
 0005:00000238       $unwind$CoreFreePages      000000000005a238     DxeCore:Page.obj
 0005:00000238       $unwind$DisableNullDetectionAtTheEndOfDxe 000000000005a238     DxeCore:MemoryProtection.obj
 0005:00000238       $unwind$MemoryProtectionCpuArchProtocolNotify 000000000005a238     DxeCore:MemoryProtection.obj
 0005:00000238       $unwind$SwapImageRecord    000000000005a238     ImagePropertiesRecordLib:ImagePropertiesRecordLib.obj
 0005:00000240       $unwind$CoreGetMemoryMap   000000000005a240     DxeCore:Page.obj
 0005:00000248       $unwind$LookupPoolHead     000000000005a248     DxeCore:Pool.obj
 0005:00000250       $unwind$CoreAllocatePool   000000000005a250     DxeCore:Pool.obj
 0005:00000250       $unwind$CoreInternalAllocatePool 000000000005a250     DxeCore:Pool.obj
 0005:00000250       $unwind$CoreNewDebugImageInfoEntry 000000000005a250     DxeCore:DebugImageInfo.obj
 0005:00000258       $unwind$CoreAllocatePoolI  000000000005a258     DxeCore:Pool.obj
 0005:00000260       $unwind$CoreFreePoolI      000000000005a260     DxeCore:Pool.obj
 0005:00000268       $unwind$CoreDumpGcdMemorySpaceMap 000000000005a268     DxeCore:Gcd.obj
 0005:00000270       $unwind$CoreDumpGcdIoSpaceMap 000000000005a270     DxeCore:Gcd.obj
 0005:00000278       $unwind$CoreMergeGcdMapEntry 000000000005a278     DxeCore:Gcd.obj
 0005:00000278       $unwind$InternalAllocateAlignedPages 000000000005a278     DxeCoreMemoryAllocationLib:MemoryAllocationLib.obj
 0005:00000280       $unwind$CoreSearchGcdMapEntry 000000000005a280     DxeCore:Gcd.obj
 0005:00000280       $unwind$CoreReinstallProtocolInterface 000000000005a280     DxeCore:Notify.obj
 0005:00000280       $unwind$Crc32GuidedSectionHandler 000000000005a280     DxeCrc32GuidedSectionExtractLib:DxeCrc32GuidedSectionExtractLib.obj
 0005:00000280       $unwind$BasePrintLibSPrint 000000000005a280     BasePrintLib:PrintLibInternal.obj
 0005:00000280       $unwind$EfiCreateProtocolNotifyEvent 000000000005a280     UefiLib:UefiLib.obj
 0005:00000288       $unwind$CoreAllocateSpaceCheckEntry 000000000005a288     DxeCore:Gcd.obj
 0005:00000288       $unwind$BasePrintLibFillBuffer 000000000005a288     BasePrintLib:PrintLibInternal.obj
 0005:00000290       $unwind$CoreAllocateSpace  000000000005a290     DxeCore:Gcd.obj
 0005:00000290       $unwind$GetFileBufferByFilePath 000000000005a290     DxeServicesLib:DxeServicesLib.obj
 0005:00000298       $unwind$CoreAllocateIoSpace 000000000005a298     DxeCore:Gcd.obj
 0005:00000298       $unwind$CoreAllocateMemorySpace 000000000005a298     DxeCore:Gcd.obj
 0005:000002a0       $unwind$CoreAddIoSpace     000000000005a2a0     DxeCore:Gcd.obj
 0005:000002a8       $unwind$CoreInitializeMemoryServices 000000000005a2a8     DxeCore:Gcd.obj
 0005:000002a8       $unwind$CoreConnectSingleController 000000000005a2a8     DxeCore:DriverSupport.obj
 0005:000002b0       $unwind$CoreInitializeGcdServices 000000000005a2b0     DxeCore:Gcd.obj
 0005:000002b0       $unwind$CoreDisconnectController 000000000005a2b0     DxeCore:DriverSupport.obj
 0005:000002b0       $unwind$LzmaDec_DecodeReal_3 000000000005a2b0     LzmaDecompressLib:LzmaDec.obj
 0005:000002b8       $unwind$CoreProtocolsPerHandle 000000000005a2b8     DxeCore:Handle.obj
 0005:000002b8       $unwind$CoreLocateProtocol 000000000005a2b8     DxeCore:Locate.obj
 0005:000002b8       $unwind$OrderedCollectionInsert 000000000005a2b8     BaseOrderedCollectionRedBlackTreeLib:BaseOrderedCollectionRedBlackTreeLib.obj
 0005:000002c0       $unwind$CoreConnectHandlesByKey 000000000005a2c0     DxeCore:Handle.obj
 0005:000002c0       $unwind$CoreInitializeImageServices 000000000005a2c0     DxeCore:Image.obj
 0005:000002c0       $unwind$SortImageRecord    000000000005a2c0     ImagePropertiesRecordLib:ImagePropertiesRecordLib.obj
 0005:000002c0       $unwind$PeCoffLoaderGetPdbPointer 000000000005a2c0     BasePeCoffGetEntryPointLib:PeCoffGetEntryPoint.obj
 0005:000002c8       $unwind$CoreLocateDevicePath 000000000005a2c8     DxeCore:Locate.obj
 0005:000002d0       $unwind$CoreConnectController 000000000005a2d0     DxeCore:DriverSupport.obj
 0005:000002d8       $unwind$SortMemoryMap      000000000005a2d8     DxeCore:MemoryProtection.obj
 0005:000002d8       $unwind$SortMemoryMap      000000000005a2d8     ImagePropertiesRecordLib:ImagePropertiesRecordLib.obj
 0005:000002e8       $unwind$CoreInitializeDebugImageInfoTable 000000000005a2e8     DxeCore:DebugImageInfo.obj
 0005:000002e8       $unwind$CoreInitializeMemoryProtection 000000000005a2e8     DxeCore:MemoryProtection.obj
 0005:000002f0       $unwind$ApplyMemoryProtectionPolicy 000000000005a2f0     DxeCore:MemoryProtection.obj
 0005:000002f0       $unwind$InternalReportStatusCode 000000000005a2f0     DxeReportStatusCodeLib:ReportStatusCodeLib.obj
 0005:000002f8       $unwind$EnforceMemoryMapAttribute 000000000005a2f8     DxeCore:MemoryAttributesTable.obj
 0005:000002f8       $unwind$DebugVPrint        000000000005a2f8     BaseDebugLibSerialPort:DebugLib.obj
 0005:000002f8       $unwind$CompareMem         000000000005a2f8     BaseMemoryLib:CompareMemWrapper.obj
 0005:000002f8       $unwind$CopyMem            000000000005a2f8     BaseMemoryLib:CopyMemWrapper.obj
 0005:000002f8       $unwind$SetMem64           000000000005a2f8     BaseMemoryLib:SetMem64Wrapper.obj
 0005:000002f8       $unwind$SetMem             000000000005a2f8     BaseMemoryLib:SetMemWrapper.obj
 0005:000002f8       $unwind$UefiDecompress     000000000005a2f8     BaseUefiDecompressLib:BaseUefiDecompressLib.obj
 0005:00000300       $unwind$GetPeCoffImageFixLoadingAssignedAddress 000000000005a300     DxeCore:Image.obj
 0005:00000310       $unwind$CoreLoadPeImage    000000000005a310     DxeCore:Image.obj
 0005:00000320       $unwind$CoreUnloadAndCloseImage 000000000005a320     DxeCore:Image.obj
 0005:00000328       $unwind$CreateChildNode    000000000005a328     DxeCore:CoreSectionExtraction.obj
 0005:00000330       $unwind$FindChildNode      000000000005a330     DxeCore:CoreSectionExtraction.obj
 0005:00000338       $unwind$CloseSectionStream 000000000005a338     DxeCore:CoreSectionExtraction.obj
 0005:00000340       $unwind$InternalMathDivRemU64x32 000000000005a340     BaseLib:Math64.obj
 0005:00000348       $unwind$AsciiStrnLenS      000000000005a348     BaseLib:SafeString.obj
 0005:00000350       $unwind$HighBitSet32       000000000005a350     BaseLib:HighBitSet32.obj
 0005:00000358       $unwind$SetMem16           000000000005a358     BaseMemoryLib:SetMem16Wrapper.obj
 0005:00000360       $unwind$BasePrintLibSPrintMarker 000000000005a360     BasePrintLib:PrintLibInternal.obj
 0005:00000378       $unwind$DebugPrintMarker   000000000005a378     BaseDebugLibSerialPort:DebugLib.obj
 0005:00000388       $unwind$DebugAssert        000000000005a388     BaseDebugLibSerialPort:DebugLib.obj
 0005:00000398       $unwind$SafeUint32Add      000000000005a398     BaseSafeIntLib:SafeIntLib.obj
 0005:000003a0       $unwind$MakeTable          000000000005a3a0     BaseUefiDecompressLib:BaseUefiDecompressLib.obj
 0005:000003b0       $unwind$ReadPTLen          000000000005a3b0     BaseUefiDecompressLib:BaseUefiDecompressLib.obj
 0005:000003b8       $unwind$PeCoffLoaderGetPeHeader 000000000005a3b8     BasePeCoffLib:BasePeCoff.obj
 0005:000003c8       $unwind$PeCoffLoaderGetImageInfo 000000000005a3c8     BasePeCoffLib:BasePeCoff.obj
 0005:000003d8       $unwind$ReportStatusCode   000000000005a3d8     DxeReportStatusCodeLib:ReportStatusCodeLib.obj
 0005:000003e0       $unwind$ReportStatusCodeEx 000000000005a3e0     DxeReportStatusCodeLib:ReportStatusCodeLib.obj
 0005:000003f0       $unwind$SetNewRecord       000000000005a3f0     ImagePropertiesRecordLib:ImagePropertiesRecordLib.obj
 0005:00000400       $unwind$SplitRecord        000000000005a400     ImagePropertiesRecordLib:ImagePropertiesRecordLib.obj
 0005:00000410       $unwind$SortImageRecordCodeSection 000000000005a410     ImagePropertiesRecordLib:ImagePropertiesRecordLib.obj
 0005:00000418       $unwind$GetFilename        000000000005a418     ImagePropertiesRecordLib:ImagePropertiesRecordLib.obj
 0005:00000418       $unwind$LzmaProps_Decode   000000000005a418     LzmaDecompressLib:LzmaDec.obj
 0005:00000420       $unwind$DumpImageRecords   000000000005a420     ImagePropertiesRecordLib:ImagePropertiesRecordLib.obj
 0005:00000430       $unwind$CreateImagePropertiesRecord 000000000005a430     ImagePropertiesRecordLib:ImagePropertiesRecordLib.obj
 0005:0000043c       $unwind$OrderedCollectionDelete 000000000005a43c     BaseOrderedCollectionRedBlackTreeLib:BaseOrderedCollectionRedBlackTreeLib.obj
 0005:00000444       $unwind$LzmaDec_TryDummy   000000000005a444     LzmaDecompressLib:LzmaDec.obj
 0005:0000044c       $unwind$LzmaDecode         000000000005a44c     LzmaDecompressLib:LzmaDec.obj
