 StatusCodeHandlerPei

 Timestamp is 68f5d07e (Mon Oct 20 14:02:38 2025)

 Preferred load address is 0000000000010000

 Start         Length     Name                   Class
 0001:00000000 00000014H .text                   CODE
 0001:00000014 000054a1H .text$mn                CODE
 0002:00000000 0000122cH .rdata                  DATA
 0002:0000122c 00000018H .rdata$voltmd           DATA
 0002:00001244 00000170H .rdata$zzzdbg           DATA
 0003:00000000 00000078H .data                   DATA
 0003:00000078 00000018H .bss                    DATA
 0004:00000000 00000294H .pdata                  DATA
 0005:00000000 00000108H .xdata                  DATA

  Address         Publics by Value              Rva+Base               Lib:Object

 0000:00000000       __x64_code_ranges_to_entry_points_count 0000000000000000     <absolute>
 0000:00000000       __guard_iat_table          0000000000000000     <absolute>
 0000:00000000       __guard_iat_count          0000000000000000     <absolute>
 0000:00000000       __guard_longjmp_count      0000000000000000     <absolute>
 0000:00000000       __dynamic_value_reloc_table 0000000000000000     <absolute>
 0000:00000000       __guard_longjmp_table      0000000000000000     <absolute>
 0000:00000000       __hybrid_code_map_count    0000000000000000     <absolute>
 0000:00000000       __x64_code_ranges_to_entry_points 0000000000000000     <absolute>
 0000:00000000       __hybrid_auxiliary_iat     0000000000000000     <absolute>
 0000:00000000       __hybrid_auxiliary_iat_copy 0000000000000000     <absolute>
 0000:00000000       __guard_fids_count         0000000000000000     <absolute>
 0000:00000000       __arm64x_native_entrypoint 0000000000000000     <absolute>
 0000:00000000       __arm64x_extra_rfe_table   0000000000000000     <absolute>
 0000:00000000       __AbsoluteZero             0000000000000000     <absolute>
 0000:00000000       __guard_eh_cont_table      0000000000000000     <absolute>
 0000:00000000       __guard_check_icall_a64n_fptr 0000000000000000     <absolute>
 0000:00000000       __hybrid_code_map          0000000000000000     <absolute>
 0000:00000000       __guard_fids_table         0000000000000000     <absolute>
 0000:00000000       __arm64x_extra_rfe_table_size 0000000000000000     <absolute>
 0000:00000000       __enclave_config           0000000000000000     <absolute>
 0000:00000000       __guard_flags              0000000000000000     <absolute>
 0000:00000000       __guard_eh_cont_count      0000000000000000     <absolute>
 0000:00000000       __arm64x_redirection_metadata_count 0000000000000000     <absolute>
 0000:00000000       __arm64x_redirection_metadata 0000000000000000     <absolute>
 0001:00000000       __report_rangecheckfailure 0000000000011000     StackCheckLibNull:StackCheckFunctionsMsvc.obj
 0001:00000001       __GSHandlerCheck           0000000000011001     StackCheckLibNull:StackCheckFunctionsMsvc.obj
 0001:00000002       __security_check_cookie    0000000000011002     StackCheckLibNull:StackCheckFunctionsMsvc.obj
 0001:00000010       CpuPause                   0000000000011010     BaseLib:CpuPause.obj
 0001:00000014       _ModuleEntryPoint          0000000000011014 f   PeimEntryPoint:PeimEntryPoint.obj
 0001:0000008c       ProcessLibraryConstructorList 000000000001108c f   StatusCodeHandlerPei:AutoGen.obj
 0001:00000098       ProcessModuleEntryPointList 0000000000011098 f   StatusCodeHandlerPei:AutoGen.obj
 0001:000000bc       StatusCodeHandlerPeiEntry  00000000000110bc f   StatusCodeHandlerPei:StatusCodeHandlerPei.obj
 0001:000003a8       MemoryStatusCodeInitializeWorker 00000000000113a8 f   StatusCodeHandlerPei:MemoryStausCodeWorker.obj
 0001:00000444       MemoryStatusCodeReportWorker 0000000000011444 f   StatusCodeHandlerPei:MemoryStausCodeWorker.obj
 0001:00000548       SerialStatusCodeReportWorker 0000000000011548 f   StatusCodeHandlerPei:SerialStatusCodeWorker.obj
 0001:000008bc       CopyGuid                   00000000000118bc f   BaseMemoryLib:MemLibGuid.obj
 0001:00000910       CompareGuid                0000000000011910 f   BaseMemoryLib:MemLibGuid.obj
 0001:00000998       DebugPrint                 0000000000011998 f   PeiDxeDebugLibReportStatusCode:DebugLib.obj
 0001:000009dc       DebugPrintMarker           00000000000119dc f   PeiDxeDebugLibReportStatusCode:DebugLib.obj
 0001:00001184       DebugVPrint                0000000000012184 f   PeiDxeDebugLibReportStatusCode:DebugLib.obj
 0001:000011b4       DebugAssert                00000000000121b4 f   PeiDxeDebugLibReportStatusCode:DebugLib.obj
 0001:00001550       DebugAssertEnabled         0000000000012550 f   PeiDxeDebugLibReportStatusCode:DebugLib.obj
 0001:00001574       DebugPrintEnabled          0000000000012574 f   PeiDxeDebugLibReportStatusCode:DebugLib.obj
 0001:00001598       DebugPrintLevelEnabled     0000000000012598 f   PeiDxeDebugLibReportStatusCode:DebugLib.obj
 0001:000015cc       InternalReportStatusCode   00000000000125cc f   PeiReportStatusCodeLib:ReportStatusCodeLib.obj
 0001:000016e4       ReportStatusCodeExtractAssertInfo 00000000000126e4 f   PeiReportStatusCodeLib:ReportStatusCodeLib.obj
 0001:0000184c       ReportStatusCodeExtractDebugInfo 000000000001284c f   PeiReportStatusCodeLib:ReportStatusCodeLib.obj
 0001:00001998       ReportStatusCodeEx         0000000000012998 f   PeiReportStatusCodeLib:ReportStatusCodeLib.obj
 0001:00001b80       ReportProgressCodeEnabled  0000000000012b80 f   PeiReportStatusCodeLib:ReportStatusCodeLib.obj
 0001:00001ba4       ReportErrorCodeEnabled     0000000000012ba4 f   PeiReportStatusCodeLib:ReportStatusCodeLib.obj
 0001:00001bc8       ReportDebugCodeEnabled     0000000000012bc8 f   PeiReportStatusCodeLib:ReportStatusCodeLib.obj
 0001:00001bec       GetHobList                 0000000000012bec f   PeiHobLib:HobLib.obj
 0001:00001cb8       GetNextHob                 0000000000012cb8 f   PeiHobLib:HobLib.obj
 0001:00001d4c       GetNextGuidHob             0000000000012d4c f   PeiHobLib:HobLib.obj
 0001:00001dc4       GetFirstGuidHob            0000000000012dc4 f   PeiHobLib:HobLib.obj
 0001:00001dec       InternalPeiCreateHob       0000000000012dec f   PeiHobLib:HobLib.obj
 0001:00001e6c       BuildGuidHob               0000000000012e6c f   PeiHobLib:HobLib.obj
 0001:00001f30       PeiServicesLocatePpi       0000000000012f30 f   PeiServicesLib:PeiServicesLib.obj
 0001:00001f80       PeiServicesGetHobList      0000000000012f80 f   PeiServicesLib:PeiServicesLib.obj
 0001:00001fb0       PeiServicesCreateHob       0000000000012fb0 f   PeiServicesLib:PeiServicesLib.obj
 0001:00001ff4       SerialPortInitialize       0000000000012ff4 f   PeiEmuSerialPortLibNull:PeiEmuSerialPortLib.obj
 0001:00001ff4       OemHookStatusCodeInitialize 0000000000012ff4 f   OemHookStatusCodeLibNull:OemHookStatusCodeLibNull.obj
 0001:00001ff8       SerialPortWrite            0000000000012ff8 f   PeiEmuSerialPortLibNull:PeiEmuSerialPortLib.obj
 0001:0000205c       AsciiVSPrint               000000000001305c f   BasePrintLib:PrintLib.obj
 0001:000020a4       AsciiBSPrint               00000000000130a4 f   BasePrintLib:PrintLib.obj
 0001:000020f0       AsciiSPrint                00000000000130f0 f   BasePrintLib:PrintLib.obj
 0001:00002144       BasePrintLibFillBuffer     0000000000013144 f   BasePrintLib:PrintLibInternal.obj
 0001:000021d0       BasePrintLibValueToString  00000000000131d0 f   BasePrintLib:PrintLibInternal.obj
 0001:00002238       BasePrintLibSPrintMarker   0000000000013238 f   BasePrintLib:PrintLibInternal.obj
 0001:00004354       BasePrintLibSPrint         0000000000015354 f   BasePrintLib:PrintLibInternal.obj
 0001:000043bc       OemHookStatusCodeReport    00000000000153bc f   OemHookStatusCodeLibNull:OemHookStatusCodeLibNull.obj
 0001:000043d4       GetPeiServicesTablePointer 00000000000153d4 f   EmulatorPkgPeiServicesTablePointerLib:PeiServicesTablePointer.obj
 0001:00004458       GetDebugPrintErrorLevel    0000000000015458 f   BaseDebugPrintErrorLevelLib:BaseDebugPrintErrorLevelLib.obj
 0001:00004460       ReadUnaligned16            0000000000015460 f   BaseLib:Unaligned.obj
 0001:000044a8       ReadUnaligned32            00000000000154a8 f   BaseLib:Unaligned.obj
 0001:000044f0       ReadUnaligned64            00000000000154f0 f   BaseLib:Unaligned.obj
 0001:00004538       WriteUnaligned64           0000000000015538 f   BaseLib:Unaligned.obj
 0001:00004590       AsciiStrLen                0000000000015590 f   BaseLib:String.obj
 0001:00004648       AsciiStrSize               0000000000015648 f   BaseLib:String.obj
 0001:00004664       InternalSafeStringIsOverlap 0000000000015664 f   BaseLib:SafeString.obj
 0001:000046c8       InternalSafeStringNoAsciiStrOverlap 00000000000156c8 f   BaseLib:SafeString.obj
 0001:0000471c       StrnLenS                   000000000001571c f   BaseLib:SafeString.obj
 0001:000047c0       AsciiStrnLenS              00000000000157c0 f   BaseLib:SafeString.obj
 0001:0000482c       AsciiStrnCpyS              000000000001582c f   BaseLib:SafeString.obj
 0001:00004d1c       CpuBreakpoint              0000000000015d1c f   BaseLib:CpuBreakpoint.obj
 0001:00004d20       CpuDeadLoop                0000000000015d20 f   BaseLib:CpuDeadLoop.obj
 0001:00004d50       DivU64x32Remainder         0000000000015d50 f   BaseLib:DivU64x32Remainder.obj
 0001:00004dac       InternalMathDivRemU64x32   0000000000015dac f   BaseLib:Math64.obj
 0001:00004e04       CopyMem                    0000000000015e04 f   BaseMemoryLib:CopyMemWrapper.obj
 0001:00004edc       InternalMemCopyMem         0000000000015edc f   BaseMemoryLib:CopyMem.obj
 0002:00000000       ??_C@_0CP@KCAHKNFK@?$CI?$CKPeiServices?$CJ?9?$DOHdr?4Revision?5?$DO?$DN@ 0000000000017000     PeimEntryPoint:PeimEntryPoint.obj
 0002:00000030       ??_C@_0EE@JMAAPGDI@D?3?2develop?2EDK2?2edk2?2MdePkg?2Lib@ 0000000000017030     PeimEntryPoint:PeimEntryPoint.obj
 0002:00000074       _gPeimRevision             0000000000017074     StatusCodeHandlerPei:AutoGen.obj
 0002:00000078       ??_C@_0BF@KIBMBEBN@StatusCodeHandlerPei@ 0000000000017078     StatusCodeHandlerPei:AutoGen.obj
 0002:00000090       _gPcd_FixedAtBuild_PcdMaximumUnicodeStringLength 0000000000017090     StatusCodeHandlerPei:AutoGen.obj
 0002:00000090       _gPcd_FixedAtBuild_PcdMaximumAsciiStringLength 0000000000017090     StatusCodeHandlerPei:AutoGen.obj
 0002:00000094       _gPcd_FixedAtBuild_PcdReportStatusCodePropertyMask 0000000000017094     StatusCodeHandlerPei:AutoGen.obj
 0002:00000095       _gPcd_FixedAtBuild_PcdStatusCodeUseMemory 0000000000017095     StatusCodeHandlerPei:AutoGen.obj
 0002:00000098       _gPcd_FixedAtBuild_PcdDebugPrintErrorLevel 0000000000017098     StatusCodeHandlerPei:AutoGen.obj
 0002:000000a0       _gPcd_FixedAtBuild_PcdPeiServicesTablePage 00000000000170a0     StatusCodeHandlerPei:AutoGen.obj
 0002:000000a8       _gPcd_FixedAtBuild_PcdFixedDebugPrintErrorLevel 00000000000170a8     StatusCodeHandlerPei:AutoGen.obj
 0002:000000ac       _gPcd_FixedAtBuild_PcdStatusCodeUseSerial 00000000000170ac     StatusCodeHandlerPei:AutoGen.obj
 0002:000000ad       _gPcd_FixedAtBuild_PcdDebugPropertyMask 00000000000170ad     StatusCodeHandlerPei:AutoGen.obj
 0002:000000b0       _gPcd_FixedAtBuild_PcdStatusCodeMemorySize 00000000000170b0     StatusCodeHandlerPei:AutoGen.obj
 0002:000000b8       ??_C@_0CB@DMEJJJHA@?6ASSERT_EFI_ERROR?5?$CIStatus?5?$DN?5?$CFr?$CJ@ 00000000000170b8     StatusCodeHandlerPei:StatusCodeHandlerPei.obj
 0002:000000e0       ??_C@_0DG@FLPEIDFK@?$CB?$CI?$CI?$CIRETURN_STATUS?$CJ?$CIStatus?$CJ?$CJ?5?$DO?$DN?5@ 00000000000170e0     StatusCodeHandlerPei:StatusCodeHandlerPei.obj
 0002:00000120       ??_C@_0FJ@HKDDDGFF@D?3?2develop?2EDK2?2edk2?2MdeModuleP@ 0000000000017120     StatusCodeHandlerPei:StatusCodeHandlerPei.obj
 0002:00000180       ??_C@_0BN@OGPGCGMP@PacketHeader?5?$CB?$DN?5?$CI?$CIvoid?5?$CK?$CJ?50?$CJ@ 0000000000017180     StatusCodeHandlerPei:MemoryStausCodeWorker.obj
 0002:000001a0       ??_C@_0FK@OFENPBHL@D?3?2develop?2EDK2?2edk2?2MdeModuleP@ 00000000000171a0     StatusCodeHandlerPei:MemoryStausCodeWorker.obj
 0002:00000200       ??_C@_0BI@BALJAKGN@Hob?4Raw?5?$CB?$DN?5?$CI?$CIvoid?5?$CK?$CJ?50?$CJ@ 0000000000017200     StatusCodeHandlerPei:MemoryStausCodeWorker.obj
 0002:00000218       ??_C@_0BN@KNAPJAOP@?6?$ANPEI_ASSERT?$CB?3?5?$CFa?5?$CI?$CFd?$CJ?3?5?$CFa?6?$AN@ 0000000000017218     StatusCodeHandlerPei:SerialStatusCodeWorker.obj
 0002:00000238       ??_C@_0BH@PAPCHACL@ERROR?3?5C?$CF08x?3V?$CF08x?5I?$CFx@ 0000000000017238     StatusCodeHandlerPei:SerialStatusCodeWorker.obj
 0002:00000250       ??_C@_0O@DNDGFDLM@CharCount?5?$DO?50@ 0000000000017250     StatusCodeHandlerPei:SerialStatusCodeWorker.obj
 0002:00000260       ??_C@_0FL@CLMICIHL@D?3?2develop?2EDK2?2edk2?2MdeModuleP@ 0000000000017260     StatusCodeHandlerPei:SerialStatusCodeWorker.obj
 0002:000002bc       ??_C@_03GKLDPGLG@?5?$CFg@  00000000000172bc     StatusCodeHandlerPei:SerialStatusCodeWorker.obj
 0002:000002c0       ??_C@_03KHOJPICI@?5?$CFx@  00000000000172c0     StatusCodeHandlerPei:SerialStatusCodeWorker.obj
 0002:000002c4       ??_C@_02LIIHNNHG@?6?$AN@   00000000000172c4     StatusCodeHandlerPei:SerialStatusCodeWorker.obj
 0002:000002c8       ??_C@_0BL@IAPLMAOF@PROGRESS?5CODE?3?5V?$CF08x?5I?$CFx?6?$AN@ 00000000000172c8     StatusCodeHandlerPei:SerialStatusCodeWorker.obj
 0002:000002e4       ??_C@_02ECNOPIAA@?$CFa@    00000000000172e4     StatusCodeHandlerPei:SerialStatusCodeWorker.obj
 0002:000002e8       ??_C@_0BN@KKBLPMFL@Undefined?3?5C?$CF08x?3V?$CF08x?5I?$CFx?6?$AN@ 00000000000172e8     StatusCodeHandlerPei:SerialStatusCodeWorker.obj
 0002:00000308       ??_C@_0BH@LKMBFCBF@Format?5?$CB?$DN?5?$CI?$CIvoid?5?$CK?$CJ?50?$CJ@ 0000000000017308     PeiDxeDebugLibReportStatusCode:DebugLib.obj
 0002:00000320       ??_C@_0FE@BEFIIBEL@D?3?2develop?2EDK2?2edk2?2MdeModuleP@ 0000000000017320     PeiDxeDebugLibReportStatusCode:DebugLib.obj
 0002:00000378       ??_C@_0CP@EFCGCEBK@?$CICHAR8?5?$CK?$CJBaseListMarkerPointer?5@ 0000000000017378     PeiDxeDebugLibReportStatusCode:DebugLib.obj
 0002:000003a8       ??_C@_01OHGJGJJP@?$FL@     00000000000173a8     PeiDxeDebugLibReportStatusCode:DebugLib.obj
 0002:000003ac       ??_C@_02PBFOLPKM@?$FN?5@   00000000000173ac     PeiDxeDebugLibReportStatusCode:DebugLib.obj
 0002:000003b0       ??_C@_0BH@IACGKAP@Buffer?5?$CB?$DN?5?$CI?$CIvoid?5?$CK?$CJ?50?$CJ@ 00000000000173b0     PeiDxeDebugLibReportStatusCode:DebugLib.obj
 0002:000003d0       ??_C@_0FH@CEHMGJKM@D?3?2develop?2EDK2?2edk2?2MdeModuleP@ 00000000000173d0     PeiReportStatusCodeLib:ReportStatusCodeLib.obj
 0002:00000428       ??_C@_0BF@OBJIPFIC@Data?5?$CB?$DN?5?$CI?$CIvoid?5?$CK?$CJ?50?$CJ@ 0000000000017428     PeiReportStatusCodeLib:ReportStatusCodeLib.obj
 0002:00000440       ??_C@_0BJ@IMECHJFE@Filename?5?$CB?$DN?5?$CI?$CIvoid?5?$CK?$CJ?50?$CJ@ 0000000000017440     PeiReportStatusCodeLib:ReportStatusCodeLib.obj
 0002:00000460       ??_C@_0BM@HAIDGOCB@Description?5?$CB?$DN?5?$CI?$CIvoid?5?$CK?$CJ?50?$CJ@ 0000000000017460     PeiReportStatusCodeLib:ReportStatusCodeLib.obj
 0002:00000480       ??_C@_0BL@PEJNABGB@LineNumber?5?$CB?$DN?5?$CI?$CIvoid?5?$CK?$CJ?50?$CJ@ 0000000000017480     PeiReportStatusCodeLib:ReportStatusCodeLib.obj
 0002:000004a0       ??_C@_0BL@OBAOKMLN@ErrorLevel?5?$CB?$DN?5?$CI?$CIvoid?5?$CK?$CJ?50?$CJ@ 00000000000174a0     PeiReportStatusCodeLib:ReportStatusCodeLib.obj
 0002:000004c0       ??_C@_0BH@GEBIHIDM@Marker?5?$CB?$DN?5?$CI?$CIvoid?5?$CK?$CJ?50?$CJ@ 00000000000174c0     PeiReportStatusCodeLib:ReportStatusCodeLib.obj
 0002:000004d8       ??_C@_0DN@HHIHPHHB@?$CB?$CI?$CIExtendedData?5?$DN?$DN?5?$CI?$CIvoid?5?$CK?$CJ?50?$CJ@ 00000000000174d8     PeiReportStatusCodeLib:ReportStatusCodeLib.obj
 0002:00000518       ??_C@_0DN@BBBIFINB@?$CB?$CI?$CIExtendedData?5?$CB?$DN?5?$CI?$CIvoid?5?$CK?$CJ?50?$CJ@ 0000000000017518     PeiReportStatusCodeLib:ReportStatusCodeLib.obj
 0002:00000558       ??_C@_0DI@MIEIGAOH@Status?5code?5extended?5data?5is?5to@ 0000000000017558     PeiReportStatusCodeLib:ReportStatusCodeLib.obj
 0002:00000590       ??_C@_0DH@PPNNMDAD@D?3?2develop?2EDK2?2edk2?2MdePkg?2Lib@ 0000000000017590     PeiHobLib:HobLib.obj
 0002:000005c8       ??_C@_0BI@NCGMODPG@HobList?5?$CB?$DN?5?$CI?$CIvoid?5?$CK?$CJ?50?$CJ@ 00000000000175c8     PeiHobLib:HobLib.obj
 0002:000005e0       ??_C@_0BJ@NOLLDKJB@HobStart?5?$CB?$DN?5?$CI?$CIvoid?5?$CK?$CJ?50?$CJ@ 00000000000175e0     PeiHobLib:HobLib.obj
 0002:00000600       ??_C@_0BE@PICCCCHF@Hob?5?$CB?$DN?5?$CI?$CIvoid?5?$CK?$CJ?50?$CJ@ 0000000000017600     PeiHobLib:HobLib.obj
 0002:00000618       ??_C@_0BF@PEDOPNMP@Guid?5?$CB?$DN?5?$CI?$CIvoid?5?$CK?$CJ?50?$CJ@ 0000000000017618     PeiHobLib:HobLib.obj
 0002:00000630       ??_C@_0DE@JLBHCAID@DataLength?5?$DM?$DN?5?$CI0xFFF8?5?9?5sizeof?5@ 0000000000017630     PeiHobLib:HobLib.obj
 0002:00000670       ??_C@_0EE@MECDHINL@D?3?2develop?2EDK2?2edk2?2MdePkg?2Lib@ 0000000000017670     BasePrintLib:PrintLibInternal.obj
 0002:000006b8       ??_C@_0BJ@CNKJJNE@?$CIBuffer?5?$CB?$DN?5?$CI?$CIvoid?5?$CK?$CJ?50?$CJ?$CJ@ 00000000000176b8     BasePrintLib:PrintLibInternal.obj
 0002:000006e0       ??_C@_0EB@HDGIDCIO@?$CIBufferSize?5?$DM?$DN?5?$CI_gPcd_FixedAtBu@ 00000000000176e0     BasePrintLib:PrintLibInternal.obj
 0002:00000728       ??_C@_0BJ@PPAKKDJG@?$CIFormat?5?$CB?$DN?5?$CI?$CIvoid?5?$CK?$CJ?50?$CJ?$CJ@ 0000000000017728     BasePrintLib:PrintLibInternal.obj
 0002:00000750       ??_C@_0ED@LPDDCECB@?$CIBufferSize?5?$DM?$DN?5?$CI_gPcd_FixedAtBu@ 0000000000017750     BasePrintLib:PrintLibInternal.obj
 0002:000007a0       ??_C@_0IM@BFJJFLGB@?$CIStrnLenS?5?$CI?$CICHAR16?5?$CK?$CJFormat?0?5?$CI_@ 00000000000177a0     BasePrintLib:PrintLibInternal.obj
 0002:00000830       ??_C@_0ID@PLGJGION@?$CIAsciiStrnLenS?5?$CIFormat?0?5?$CI_gPcd_@ 0000000000017830     BasePrintLib:PrintLibInternal.obj
 0002:000008b8       ??_C@_0O@MLOLIMFM@?$DMnull?5string?$DO@ 00000000000178b8     BasePrintLib:PrintLibInternal.obj
 0002:000008c8       ??_C@_0M@BJJDNPHK@?$DMnull?5guid?$DO@ 00000000000178c8     BasePrintLib:PrintLibInternal.obj
 0002:000008d8       ??_C@_0DB@PMLHLBMO@?$CF08x?9?$CF04x?9?$CF04x?9?$CF02x?$CF02x?9?$CF02x?$CF02@ 00000000000178d8     BasePrintLib:PrintLibInternal.obj
 0002:00000910       ??_C@_0M@LHGBCIKM@?$DMnull?5time?$DO@ 0000000000017910     BasePrintLib:PrintLibInternal.obj
 0002:00000920       ??_C@_0BK@FCPKCIDD@?$CF02d?1?$CF02d?1?$CF04d?5?5?$CF02d?3?$CF02d@ 0000000000017920     BasePrintLib:PrintLibInternal.obj
 0002:0000093c       ??_C@_04JIMNDDED@?$CF08X@  000000000001793c     BasePrintLib:PrintLibInternal.obj
 0002:00000944       ??_C@_02PCIJFNDE@?$AN?6@   0000000000017944     BasePrintLib:PrintLibInternal.obj
 0002:00000948       ??_C@_01LIIJDEN@?$AN@      0000000000017948     BasePrintLib:PrintLibInternal.obj
 0002:00000950       mWarningString             0000000000017950     BasePrintLib:PrintLibInternal.obj
 0002:00000a20       mErrorString               0000000000017a20     BasePrintLib:PrintLibInternal.obj
 0002:00000d00       mHexStr                    0000000000017d00     BasePrintLib:PrintLibInternal.obj
 0002:00000d10       ??_C@_0CI@MDPGFIOC@PeiServicesTablePointer?5?$CB?$DN?5?$CI?$CIvo@ 0000000000017d10     EmulatorPkgPeiServicesTablePointerLib:PeiServicesTablePointer.obj
 0002:00000d40       ??_C@_0GH@FIBBPKGC@D?3?2develop?2EDK2?2edk2?2EmulatorPk@ 0000000000017d40     EmulatorPkgPeiServicesTablePointerLib:PeiServicesTablePointer.obj
 0002:00000da8       ??_C@_0CJ@NHFDCOMG@?$CKPeiServicesTablePointer?5?$CB?$DN?5?$CI?$CIv@ 0000000000017da8     EmulatorPkgPeiServicesTablePointerLib:PeiServicesTablePointer.obj
 0002:00000dd8       ??_C@_0DI@MBLLHEOH@D?3?2develop?2EDK2?2edk2?2MdePkg?2Lib@ 0000000000017dd8     BaseLib:Unaligned.obj
 0002:00000e10       ??_C@_0BH@MAAHKCPC@String?5?$CB?$DN?5?$CI?$CIvoid?5?$CK?$CJ?50?$CJ@ 0000000000017e10     BaseLib:String.obj
 0002:00000e28       ??_C@_0DF@EAHDDLM@D?3?2develop?2EDK2?2edk2?2MdePkg?2Lib@ 0000000000017e28     BaseLib:String.obj
 0002:00000e60       ??_C@_0CC@GFNLNIOC@?$CI?$CIUINTN?$CJString?5?$CG?50x00000001?$CJ?5?$DN?$DN@ 0000000000017e60     BaseLib:String.obj
 0002:00000e88       ??_C@_0DI@MDIKFADO@Length?5?$DM?5_gPcd_FixedAtBuild_Pcd@ 0000000000017e88     BaseLib:String.obj
 0002:00000ec0       ??_C@_0DJ@DNFJNBOO@D?3?2develop?2EDK2?2edk2?2MdePkg?2Lib@ 0000000000017ec0     BaseLib:SafeString.obj
 0002:00000f00       ??_C@_0BO@ECNIOIHG@?$CIDestination?5?$CB?$DN?5?$CI?$CIvoid?5?$CK?$CJ?50?$CJ?$CJ@ 0000000000017f00     BaseLib:SafeString.obj
 0002:00000f20       ??_C@_0EA@PDPDJJNN@?$CFa?$CI?$CFd?$CJ?5?$CFa?3?5SAFE_STRING_CONSTRAI@ 0000000000017f20     BaseLib:SafeString.obj
 0002:00000f60       ??_C@_0BJ@EAEEJIP@?$CISource?5?$CB?$DN?5?$CI?$CIvoid?5?$CK?$CJ?50?$CJ?$CJ@ 0000000000017f60     BaseLib:SafeString.obj
 0002:00000f80       ??_C@_0P@PMIMLIHM@?$CIDestMax?5?$CB?$DN?50?$CJ@ 0000000000017f80     BaseLib:SafeString.obj
 0002:00000f90       ??_C@_0BG@EEGIIOKH@?$CIDestMax?5?$DO?5SourceLen?$CJ@ 0000000000017f90     BaseLib:SafeString.obj
 0002:00000fa8       ??_C@_0DO@LJFOOPII@?$CIDestMax?5?$DM?$DN?5?$CI_gPcd_FixedAtBuild@ 0000000000017fa8     BaseLib:SafeString.obj
 0002:00000ff0       ??_C@_0FL@CDANCHFO@InternalSafeStringNoAsciiStrOve@ 0000000000017ff0     BaseLib:SafeString.obj
 0002:00001050       ??_C@_0O@DIHNCLLG@AsciiStrnCpyS@ 0000000000018050     BaseLib:SafeString.obj
 0002:00001060       ??_C@_0DN@DLAADCJE@?$CILength?5?$DM?$DN?5?$CI_gPcd_FixedAtBuild_@ 0000000000018060     BaseLib:SafeString.obj
 0002:000010a0       ??_C@_0N@KGHEHMDL@Divisor?5?$CB?$DN?50@ 00000000000180a0     BaseLib:DivU64x32Remainder.obj
 0002:000010b0       ??_C@_0EB@NJAKFAEH@D?3?2develop?2EDK2?2edk2?2MdePkg?2Lib@ 00000000000180b0     BaseLib:DivU64x32Remainder.obj
 0002:00001100       ??_C@_0ED@MKGCMJG@?$CILength?5?9?51?$CJ?5?$DM?$DN?5?$CI0xFFFFFFFFFFFF@ 0000000000018100     BaseMemoryLib:CopyMemWrapper.obj
 0002:00001150       ??_C@_0ED@JLFCAFGL@D?3?2develop?2EDK2?2edk2?2MdePkg?2Lib@ 0000000000018150     BaseMemoryLib:CopyMemWrapper.obj
 0002:00001198       ??_C@_0DO@MAOBOFEG@?$CILength?5?9?51?$CJ?5?$DM?$DN?5?$CI0xFFFFFFFFFFFF@ 0000000000018198     BaseMemoryLib:CopyMemWrapper.obj
 0002:0000122c       __volatile_metadata        000000000001822c     <linker-defined>
 0003:00000000       gEfiStatusCodeSpecificDataGuid 0000000000019000     StatusCodeHandlerPei:AutoGen.obj
 0003:00000010       gEfiPeiRscHandlerPpiGuid   0000000000019010     StatusCodeHandlerPei:AutoGen.obj
 0003:00000020       gEfiStatusCodeDataTypeStringGuid 0000000000019020     StatusCodeHandlerPei:AutoGen.obj
 0003:00000030       gEfiCallerBaseName         0000000000019030     StatusCodeHandlerPei:AutoGen.obj
 0003:00000038       gEfiStatusCodeDataTypeDebugGuid 0000000000019038     StatusCodeHandlerPei:AutoGen.obj
 0003:00000048       gMemoryStatusCodeRecordGuid 0000000000019048     StatusCodeHandlerPei:AutoGen.obj
 0003:00000058       gEfiCallerIdGuid           0000000000019058     StatusCodeHandlerPei:AutoGen.obj
 0003:00000068       gEmuThunkPpiGuid           0000000000019068     StatusCodeHandlerPei:AutoGen.obj
 0003:00000080       __security_cookie          0000000000019080     StackCheckLibNull:StackCheckLibNullMsvc.obj
 0003:00000088       gNullVaList                0000000000019088     <common>

 entry point at        0001:00000014

 Static symbols

 0003:00000078       mDeadLoopComparator        0000000000019078     BaseLib:CpuDeadLoop.obj
 0005:00000000       $unwind$ProcessModuleEntryPointList 000000000001b000     StatusCodeHandlerPei:AutoGen.obj
 0005:00000000       $unwind$WriteUnaligned64   000000000001b000     BaseLib:Unaligned.obj
 0005:00000000       $unwind$CopyGuid           000000000001b000     BaseMemoryLib:MemLibGuid.obj
 0005:00000000       $unwind$_ModuleEntryPoint  000000000001b000     PeimEntryPoint:PeimEntryPoint.obj
 0005:00000008       $unwind$StatusCodeHandlerPeiEntry 000000000001b008     StatusCodeHandlerPei:StatusCodeHandlerPei.obj
 0005:00000008       $unwind$StrnLenS           000000000001b008     BaseLib:SafeString.obj
 0005:00000008       $unwind$BuildGuidHob       000000000001b008     PeiHobLib:HobLib.obj
 0005:00000008       $unwind$GetNextGuidHob     000000000001b008     PeiHobLib:HobLib.obj
 0005:00000008       $unwind$GetNextHob         000000000001b008     PeiHobLib:HobLib.obj
 0005:00000008       $unwind$InternalPeiCreateHob 000000000001b008     PeiHobLib:HobLib.obj
 0005:00000010       $unwind$GetPeiServicesTablePointer 000000000001b010     EmulatorPkgPeiServicesTablePointerLib:PeiServicesTablePointer.obj
 0005:00000010       $unwind$MemoryStatusCodeInitializeWorker 000000000001b010     StatusCodeHandlerPei:MemoryStausCodeWorker.obj
 0005:00000010       $unwind$CpuDeadLoop        000000000001b010     BaseLib:CpuDeadLoop.obj
 0005:00000010       $unwind$GetHobList         000000000001b010     PeiHobLib:HobLib.obj
 0005:00000018       $unwind$MemoryStatusCodeReportWorker 000000000001b018     StatusCodeHandlerPei:MemoryStausCodeWorker.obj
 0005:00000020       $unwind$SerialStatusCodeReportWorker 000000000001b020     StatusCodeHandlerPei:SerialStatusCodeWorker.obj
 0005:00000030       $unwind$CompareGuid        000000000001b030     BaseMemoryLib:MemLibGuid.obj
 0005:00000038       $unwind$DebugPrint         000000000001b038     PeiDxeDebugLibReportStatusCode:DebugLib.obj
 0005:00000038       $unwind$ReportStatusCodeExtractDebugInfo 000000000001b038     PeiReportStatusCodeLib:ReportStatusCodeLib.obj
 0005:00000038       $unwind$InternalSafeStringNoAsciiStrOverlap 000000000001b038     BaseLib:SafeString.obj
 0005:00000038       $unwind$AsciiBSPrint       000000000001b038     BasePrintLib:PrintLib.obj
 0005:00000038       $unwind$AsciiSPrint        000000000001b038     BasePrintLib:PrintLib.obj
 0005:00000038       $unwind$AsciiVSPrint       000000000001b038     BasePrintLib:PrintLib.obj
 0005:00000040       $unwind$DebugPrintMarker   000000000001b040     PeiDxeDebugLibReportStatusCode:DebugLib.obj
 0005:00000050       $unwind$DebugVPrint        000000000001b050     PeiDxeDebugLibReportStatusCode:DebugLib.obj
 0005:00000050       $unwind$CopyMem            000000000001b050     BaseMemoryLib:CopyMemWrapper.obj
 0005:00000058       $unwind$DebugAssert        000000000001b058     PeiDxeDebugLibReportStatusCode:DebugLib.obj
 0005:00000068       $unwind$DebugAssertEnabled 000000000001b068     PeiDxeDebugLibReportStatusCode:DebugLib.obj
 0005:00000068       $unwind$DebugPrintEnabled  000000000001b068     PeiDxeDebugLibReportStatusCode:DebugLib.obj
 0005:00000068       $unwind$ReportDebugCodeEnabled 000000000001b068     PeiReportStatusCodeLib:ReportStatusCodeLib.obj
 0005:00000068       $unwind$ReportErrorCodeEnabled 000000000001b068     PeiReportStatusCodeLib:ReportStatusCodeLib.obj
 0005:00000068       $unwind$ReportProgressCodeEnabled 000000000001b068     PeiReportStatusCodeLib:ReportStatusCodeLib.obj
 0005:00000070       $unwind$DebugPrintLevelEnabled 000000000001b070     PeiDxeDebugLibReportStatusCode:DebugLib.obj
 0005:00000078       $unwind$InternalReportStatusCode 000000000001b078     PeiReportStatusCodeLib:ReportStatusCodeLib.obj
 0005:00000080       $unwind$ReportStatusCodeExtractAssertInfo 000000000001b080     PeiReportStatusCodeLib:ReportStatusCodeLib.obj
 0005:00000088       $unwind$ReportStatusCodeEx 000000000001b088     PeiReportStatusCodeLib:ReportStatusCodeLib.obj
 0005:00000098       $unwind$AsciiStrLen        000000000001b098     BaseLib:String.obj
 0005:00000098       $unwind$GetFirstGuidHob    000000000001b098     PeiHobLib:HobLib.obj
 0005:00000098       $unwind$PeiServicesGetHobList 000000000001b098     PeiServicesLib:PeiServicesLib.obj
 0005:000000a0       $unwind$BasePrintLibSPrint 000000000001b0a0     BasePrintLib:PrintLibInternal.obj
 0005:000000a0       $unwind$PeiServicesLocatePpi 000000000001b0a0     PeiServicesLib:PeiServicesLib.obj
 0005:000000a8       $unwind$BasePrintLibValueToString 000000000001b0a8     BasePrintLib:PrintLibInternal.obj
 0005:000000a8       $unwind$PeiServicesCreateHob 000000000001b0a8     PeiServicesLib:PeiServicesLib.obj
 0005:000000b0       $unwind$SerialPortWrite    000000000001b0b0     PeiEmuSerialPortLibNull:PeiEmuSerialPortLib.obj
 0005:000000b8       $unwind$BasePrintLibFillBuffer 000000000001b0b8     BasePrintLib:PrintLibInternal.obj
 0005:000000c0       $unwind$BasePrintLibSPrintMarker 000000000001b0c0     BasePrintLib:PrintLibInternal.obj
 0005:000000d8       $unwind$AsciiStrSize       000000000001b0d8     BaseLib:String.obj
 0005:000000d8       $unwind$ReadUnaligned16    000000000001b0d8     BaseLib:Unaligned.obj
 0005:000000d8       $unwind$ReadUnaligned32    000000000001b0d8     BaseLib:Unaligned.obj
 0005:000000d8       $unwind$ReadUnaligned64    000000000001b0d8     BaseLib:Unaligned.obj
 0005:000000e0       $unwind$AsciiStrnLenS      000000000001b0e0     BaseLib:SafeString.obj
 0005:000000e8       $unwind$AsciiStrnCpyS      000000000001b0e8     BaseLib:SafeString.obj
 0005:000000f0       $unwind$DivU64x32Remainder 000000000001b0f0     BaseLib:DivU64x32Remainder.obj
 0005:000000f8       $unwind$InternalMathDivRemU64x32 000000000001b0f8     BaseLib:Math64.obj
 0005:00000100       $unwind$InternalMemCopyMem 000000000001b100     BaseMemoryLib:CopyMem.obj
