 ConPlatformDxe

 Timestamp is 68f5fea0 (Mon Oct 20 17:19:28 2025)

 Preferred load address is 0000000000010000

 Start         Length     Name                   Class
 0001:00000000 00000014H .text                   CODE
 0001:00000014 000057d7H .text$mn                CODE
 0002:00000000 00000f14H .rdata                  DATA
 0002:00000f14 00000018H .rdata$voltmd           DATA
 0002:00000f2c 0000016cH .rdata$zzzdbg           DATA
 0003:00000000 00000248H .data                   DATA
 0003:00000248 00000070H .bss                    DATA
 0004:00000000 000003f0H .pdata                  DATA
 0005:00000000 00000110H .xdata                  DATA

  Address         Publics by Value              Rva+Base               Lib:Object

 0000:00000000       __guard_longjmp_table      0000000000000000     <absolute>
 0000:00000000       __guard_fids_count         0000000000000000     <absolute>
 0000:00000000       __x64_code_ranges_to_entry_points_count 0000000000000000     <absolute>
 0000:00000000       __arm64x_extra_rfe_table   0000000000000000     <absolute>
 0000:00000000       __arm64x_redirection_metadata 0000000000000000     <absolute>
 0000:00000000       __guard_iat_table          0000000000000000     <absolute>
 0000:00000000       __hybrid_code_map          0000000000000000     <absolute>
 0000:00000000       __arm64x_extra_rfe_table_size 0000000000000000     <absolute>
 0000:00000000       __x64_code_ranges_to_entry_points 0000000000000000     <absolute>
 0000:00000000       __guard_iat_count          0000000000000000     <absolute>
 0000:00000000       __guard_longjmp_count      0000000000000000     <absolute>
 0000:00000000       __dynamic_value_reloc_table 0000000000000000     <absolute>
 0000:00000000       __hybrid_auxiliary_iat     0000000000000000     <absolute>
 0000:00000000       __hybrid_auxiliary_iat_copy 0000000000000000     <absolute>
 0000:00000000       __guard_flags              0000000000000000     <absolute>
 0000:00000000       __guard_eh_cont_count      0000000000000000     <absolute>
 0000:00000000       __AbsoluteZero             0000000000000000     <absolute>
 0000:00000000       __guard_check_icall_a64n_fptr 0000000000000000     <absolute>
 0000:00000000       __guard_fids_table         0000000000000000     <absolute>
 0000:00000000       __arm64x_redirection_metadata_count 0000000000000000     <absolute>
 0000:00000000       __enclave_config           0000000000000000     <absolute>
 0000:00000000       __hybrid_code_map_count    0000000000000000     <absolute>
 0000:00000000       __guard_eh_cont_table      0000000000000000     <absolute>
 0000:00000000       __arm64x_native_entrypoint 0000000000000000     <absolute>
 0001:00000000       __report_rangecheckfailure 0000000000011000     StackCheckLibNull:StackCheckFunctionsMsvc.obj
 0001:00000001       __GSHandlerCheck           0000000000011001     StackCheckLibNull:StackCheckFunctionsMsvc.obj
 0001:00000002       __security_check_cookie    0000000000011002     StackCheckLibNull:StackCheckFunctionsMsvc.obj
 0001:00000010       CpuPause                   0000000000011010     BaseLib:CpuPause.obj
 0001:00000014       _DriverUnloadHandler       0000000000011014 f   UefiDriverEntryPoint:DriverEntryPoint.obj
 0001:00000058       _ModuleEntryPoint          0000000000011058 f   UefiDriverEntryPoint:DriverEntryPoint.obj
 0001:00000198       ProcessLibraryConstructorList 0000000000011198 f   ConPlatformDxe:AutoGen.obj
 0001:00000500       ProcessLibraryDestructorList 0000000000011500 f   ConPlatformDxe:AutoGen.obj
 0001:0000050c       ProcessModuleEntryPointList 000000000001150c f   ConPlatformDxe:AutoGen.obj
 0001:00000530       ProcessModuleUnloadList    0000000000011530 f   ConPlatformDxe:AutoGen.obj
 0001:00000538       InitializeConPlatform      0000000000011538 f   ConPlatformDxe:ConPlatform.obj
 0001:000006b0       ConPlatformTextInDriverBindingSupported 00000000000116b0 f   ConPlatformDxe:ConPlatform.obj
 0001:000006e0       ConPlatformTextOutDriverBindingSupported 00000000000116e0 f   ConPlatformDxe:ConPlatform.obj
 0001:00000710       ConPlatformDriverBindingSupported 0000000000011710 f   ConPlatformDxe:ConPlatform.obj
 0001:000007f8       ConPlatformTextInDriverBindingStart 00000000000117f8 f   ConPlatformDxe:ConPlatform.obj
 0001:00000960       ConPlatformTextOutDriverBindingStart 0000000000011960 f   ConPlatformDxe:ConPlatform.obj
 0001:00000b68       ConPlatformTextInDriverBindingStop 0000000000011b68 f   ConPlatformDxe:ConPlatform.obj
 0001:00000c2c       ConPlatformTextOutDriverBindingStop 0000000000011c2c f   ConPlatformDxe:ConPlatform.obj
 0001:00000d1c       ConPlatformUnInstallProtocol 0000000000011d1c f   ConPlatformDxe:ConPlatform.obj
 0001:00000d9c       ConPlatformGetVariable     0000000000011d9c f   ConPlatformDxe:ConPlatform.obj
 0001:00000e6c       IsGopSibling               0000000000011e6c f   ConPlatformDxe:ConPlatform.obj
 0001:00001074       MatchUsbClass              0000000000012074 f   ConPlatformDxe:ConPlatform.obj
 0001:0000124c       MatchUsbWwid               000000000001224c f   ConPlatformDxe:ConPlatform.obj
 0001:00001530       MatchUsbShortformDevicePath 0000000000012530 f   ConPlatformDxe:ConPlatform.obj
 0001:0000173c       ConPlatformMatchDevicePaths 000000000001273c f   ConPlatformDxe:ConPlatform.obj
 0001:000018ac       ConPlatformUpdateDeviceVariable 00000000000128ac f   ConPlatformDxe:ConPlatform.obj
 0001:00001a14       ConPlatformUpdateGopCandidate 0000000000012a14 f   ConPlatformDxe:ConPlatform.obj
 0001:00001ae4       ConPlatformComponentNameGetDriverName 0000000000012ae4 f   ConPlatformDxe:ComponentName.obj
 0001:00001b40       ConPlatformComponentNameGetControllerName 0000000000012b40 f   ConPlatformDxe:ComponentName.obj
 0001:00001b60       StrLen                     0000000000012b60 f   BaseLib:String.obj
 0001:00001c54       AsciiStrLen                0000000000012c54 f   BaseLib:String.obj
 0001:00001d0c       AsciiStrSize               0000000000012d0c f   BaseLib:String.obj
 0001:00001d28       AsciiStrnCmp               0000000000012d28 f   BaseLib:String.obj
 0001:00001e74       InternalSafeStringIsOverlap 0000000000012e74 f   BaseLib:SafeString.obj
 0001:00001ed8       InternalSafeStringNoAsciiStrOverlap 0000000000012ed8 f   BaseLib:SafeString.obj
 0001:00001f2c       AsciiStrnLenS              0000000000012f2c f   BaseLib:SafeString.obj
 0001:00001f98       AsciiStrnCpyS              0000000000012f98 f   BaseLib:SafeString.obj
 0001:00002488       DebugPrint                 0000000000013488 f   PeiDxeDebugLibReportStatusCode:DebugLib.obj
 0001:000024cc       DebugPrintMarker           00000000000134cc f   PeiDxeDebugLibReportStatusCode:DebugLib.obj
 0001:00002c74       DebugVPrint                0000000000013c74 f   PeiDxeDebugLibReportStatusCode:DebugLib.obj
 0001:00002ca4       DebugAssert                0000000000013ca4 f   PeiDxeDebugLibReportStatusCode:DebugLib.obj
 0001:00003040       DebugAssertEnabled         0000000000014040 f   PeiDxeDebugLibReportStatusCode:DebugLib.obj
 0001:00003064       DebugPrintEnabled          0000000000014064 f   PeiDxeDebugLibReportStatusCode:DebugLib.obj
 0001:00003088       DebugPrintLevelEnabled     0000000000014088 f   PeiDxeDebugLibReportStatusCode:DebugLib.obj
 0001:000030bc       CompareMem                 00000000000140bc f   BaseMemoryLib:CompareMemWrapper.obj
 0001:000031f0       CopyGuid                   00000000000141f0 f   BaseMemoryLib:MemLibGuid.obj
 0001:00003244       CompareGuid                0000000000014244 f   BaseMemoryLib:MemLibGuid.obj
 0001:000032cc       CopyMem                    00000000000142cc f   BaseMemoryLib:CopyMemWrapper.obj
 0001:000033a4       InternalMemCompareMem      00000000000143a4 f   BaseMemoryLib:MemLibGeneric.obj
 0001:0000340c       InternalMemCopyMem         000000000001440c f   BaseMemoryLib:CopyMem.obj
 0001:000039e8       IsDevicePathValid          00000000000149e8 f   UefiDevicePathLib:DevicePathUtilities.obj
 0001:00003b54       DevicePathType             0000000000014b54 f   UefiDevicePathLib:DevicePathUtilities.obj
 0001:00003b9c       DevicePathSubType          0000000000014b9c f   UefiDevicePathLib:DevicePathUtilities.obj
 0001:00003be4       DevicePathNodeLength       0000000000014be4 f   UefiDevicePathLib:DevicePathUtilities.obj
 0001:00003c44       NextDevicePathNode         0000000000014c44 f   UefiDevicePathLib:DevicePathUtilities.obj
 0001:00003c9c       IsDevicePathEndType        0000000000014c9c f   UefiDevicePathLib:DevicePathUtilities.obj
 0001:00003d00       IsDevicePathEnd            0000000000014d00 f   UefiDevicePathLib:DevicePathUtilities.obj
 0001:00003d78       UefiDevicePathLibGetDevicePathSize 0000000000014d78 f   UefiDevicePathLib:DevicePathUtilities.obj
 0001:00003e00       UefiDevicePathLibDuplicateDevicePath 0000000000014e00 f   UefiDevicePathLib:DevicePathUtilities.obj
 0001:00003e38       UefiDevicePathLibAppendDevicePathInstance 0000000000014e38 f   UefiDevicePathLib:DevicePathUtilities.obj
 0001:00003f50       UefiDevicePathLibGetNextDevicePathInstance 0000000000014f50 f   UefiDevicePathLib:DevicePathUtilities.obj
 0001:00004094       GetDevicePathSize          0000000000015094 f   UefiDevicePathLib:UefiDevicePathLib.obj
 0001:000040ac       DuplicateDevicePath        00000000000150ac f   UefiDevicePathLib:UefiDevicePathLib.obj
 0001:000040c4       AppendDevicePathInstance   00000000000150c4 f   UefiDevicePathLib:UefiDevicePathLib.obj
 0001:000040e8       GetNextDevicePathInstance  00000000000150e8 f   UefiDevicePathLib:UefiDevicePathLib.obj
 0001:0000410c       InternalAllocatePool       000000000001510c f   UefiMemoryAllocationLib:MemoryAllocationLib.obj
 0001:0000415c       AllocatePool               000000000001515c f   UefiMemoryAllocationLib:MemoryAllocationLib.obj
 0001:0000417c       InternalAllocateCopyPool   000000000001517c f   UefiMemoryAllocationLib:MemoryAllocationLib.obj
 0001:00004240       AllocateCopyPool           0000000000015240 f   UefiMemoryAllocationLib:MemoryAllocationLib.obj
 0001:00004268       FreePool                   0000000000015268 f   UefiMemoryAllocationLib:MemoryAllocationLib.obj
 0001:00004304       UefiBootServicesTableLibConstructor 0000000000015304 f   UefiBootServicesTableLib:UefiBootServicesTableLib.obj
 0001:000043e0       UefiRuntimeServicesTableLibConstructor 00000000000153e0 f   UefiRuntimeServicesTableLib:UefiRuntimeServicesTableLib.obj
 0001:0000443c       UefiLibConstructor         000000000001543c f   UefiLib:UefiLib.obj
 0001:0000444c       CompareIso639LanguageCode  000000000001544c f   UefiLib:UefiLib.obj
 0001:00004498       EfiGetSystemConfigurationTable 0000000000015498 f   UefiLib:UefiLib.obj
 0001:000045a4       IsLanguageSupported        00000000000155a4 f   UefiLib:UefiLib.obj
 0001:00004694       LookupUnicodeString2       0000000000015694 f   UefiLib:UefiLib.obj
 0001:000048a4       EfiLibInstallDriverBindingComponentName2 00000000000158a4 f   UefiLib:UefiDriverModel.obj
 0001:00004af8       UefiHiiServicesLibConstructor 0000000000015af8 f   UefiHiiServicesLib:UefiHiiServicesLib.obj
 0001:00004d1c       GetHobList                 0000000000015d1c f   DxeHobLib:HobLib.obj
 0001:00004e00       HobLibConstructor          0000000000015e00 f   DxeHobLib:HobLib.obj
 0001:00004e1c       DxeServicesTableLibConstructor 0000000000015e1c f   DxeServicesTableLib:DxeServicesTableLib.obj
 0001:00004efc       EfiBootManagerGetGopDevicePath 0000000000015efc f   UefiBootManagerLib:BmConsole.obj
 0001:0000526c       GetDebugPrintErrorLevel    000000000001626c f   BaseDebugPrintErrorLevelLib:BaseDebugPrintErrorLevelLib.obj
 0001:00005274       InternalGetReportStatusCode 0000000000016274 f   DxeReportStatusCodeLib:ReportStatusCodeLib.obj
 0001:000052e4       InternalReportStatusCode   00000000000162e4 f   DxeReportStatusCodeLib:ReportStatusCodeLib.obj
 0001:0000539c       ReportStatusCodeEx         000000000001639c f   DxeReportStatusCodeLib:ReportStatusCodeLib.obj
 0001:00005618       ReportProgressCodeEnabled  0000000000016618 f   DxeReportStatusCodeLib:ReportStatusCodeLib.obj
 0001:0000563c       ReportErrorCodeEnabled     000000000001663c f   DxeReportStatusCodeLib:ReportStatusCodeLib.obj
 0001:00005660       ReportDebugCodeEnabled     0000000000016660 f   DxeReportStatusCodeLib:ReportStatusCodeLib.obj
 0001:00005684       CpuBreakpoint              0000000000016684 f   BaseLib:CpuBreakpoint.obj
 0001:00005688       CpuDeadLoop                0000000000016688 f   BaseLib:CpuDeadLoop.obj
 0001:000056b8       ReadUnaligned16            00000000000166b8 f   BaseLib:Unaligned.obj
 0001:00005700       ReadUnaligned24            0000000000016700 f   BaseLib:Unaligned.obj
 0001:0000574c       ReadUnaligned64            000000000001674c f   BaseLib:Unaligned.obj
 0001:00005794       WriteUnaligned64           0000000000016794 f   BaseLib:Unaligned.obj
 0002:00000000       ??_C@_0CB@DMEJJJHA@?6ASSERT_EFI_ERROR?5?$CIStatus?5?$DN?5?$CFr?$CJ@ 0000000000017000     UefiDriverEntryPoint:DriverEntryPoint.obj
 0002:00000028       ??_C@_0DG@FLPEIDFK@?$CB?$CI?$CI?$CIRETURN_STATUS?$CJ?$CIStatus?$CJ?$CJ?5?$DO?$DN?5@ 0000000000017028     UefiDriverEntryPoint:DriverEntryPoint.obj
 0002:00000060       ??_C@_0FE@KBEJNINE@D?3?2develop?2Self_develop?2edk2?2Md@ 0000000000017060     UefiDriverEntryPoint:DriverEntryPoint.obj
 0002:000000b4       _gPcd_FixedAtBuild_PcdComponentNameDisable 00000000000170b4     ConPlatformDxe:AutoGen.obj
 0002:000000b4       _gDriverUnloadImageCount   00000000000170b4     ConPlatformDxe:AutoGen.obj
 0002:000000b4       _gPcd_FixedAtBuild_PcdComponentName2Disable 00000000000170b4     ConPlatformDxe:AutoGen.obj
 0002:000000b8       _gUefiDriverRevision       00000000000170b8     ConPlatformDxe:AutoGen.obj
 0002:000000b8       _gPcd_FixedAtBuild_PcdMaximumDevicePathNodeCount 00000000000170b8     ConPlatformDxe:AutoGen.obj
 0002:000000c0       ??_C@_0P@DCAFEACP@ConPlatformDxe@ 00000000000170c0     ConPlatformDxe:AutoGen.obj
 0002:000000d0       ??_C@_0IN@LEEEEDML@D?3?2develop?2Self_develop?2edk2?2Bu@ 00000000000170d0     ConPlatformDxe:AutoGen.obj
 0002:00000160       _gPcd_FixedAtBuild_PcdMaximumUnicodeStringLength 0000000000017160     ConPlatformDxe:AutoGen.obj
 0002:00000160       _gPcd_FixedAtBuild_PcdMaximumAsciiStringLength 0000000000017160     ConPlatformDxe:AutoGen.obj
 0002:00000164       _gPcd_FixedAtBuild_PcdReportStatusCodePropertyMask 0000000000017164     ConPlatformDxe:AutoGen.obj
 0002:00000168       _gPcd_FixedAtBuild_PcdDebugPrintErrorLevel 0000000000017168     ConPlatformDxe:AutoGen.obj
 0002:0000016c       _gPcd_FixedAtBuild_PcdFixedDebugPrintErrorLevel 000000000001716c     ConPlatformDxe:AutoGen.obj
 0002:00000170       _gPcd_FixedAtBuild_PcdDebugPropertyMask 0000000000017170     ConPlatformDxe:AutoGen.obj
 0002:00000180       ??_C@_0FJ@HLNICAAJ@D?3?2develop?2Self_develop?2edk2?2Md@ 0000000000017180     ConPlatformDxe:ConPlatform.obj
 0002:000001e0       ??_C@_1M@NFPEGKHA@?$AAC?$AAo?$AAn?$AAI?$AAn@ 00000000000171e0     ConPlatformDxe:ConPlatform.obj
 0002:000001f0       ??_C@_1BC@OBFMLJLI@?$AAC?$AAo?$AAn?$AAI?$AAn?$AAD?$AAe?$AAv@ 00000000000171f0     ConPlatformDxe:ConPlatform.obj
 0002:00000208       ??_C@_1O@MJHLOIFA@?$AAC?$AAo?$AAn?$AAO?$AAu?$AAt@ 0000000000017208     ConPlatformDxe:ConPlatform.obj
 0002:00000218       ??_C@_1O@JOJMCOJC@?$AAE?$AAr?$AAr?$AAO?$AAu?$AAt@ 0000000000017218     ConPlatformDxe:ConPlatform.obj
 0002:00000228       ??_C@_1BE@INNAKDAF@?$AAC?$AAo?$AAn?$AAO?$AAu?$AAt?$AAD?$AAe?$AAv@ 0000000000017228     ConPlatformDxe:ConPlatform.obj
 0002:00000240       ??_C@_1BE@JFPOEAHF@?$AAE?$AAr?$AAr?$AAO?$AAu?$AAt?$AAD?$AAe?$AAv@ 0000000000017240     ConPlatformDxe:ConPlatform.obj
 0002:00000254       ??_C@_03LKLGDMJI@eng@      0000000000017254     ConPlatformDxe:ComponentName.obj
 0002:00000258       ??_C@_02LFNMGJAP@en@       0000000000017258     ConPlatformDxe:ComponentName.obj
 0002:0000025c       ??_C@_06DALJLGPG@eng?$DLen@ 000000000001725c     ConPlatformDxe:ComponentName.obj
 0002:00000270       ??_C@_1EG@IAMKDAMC@?$AAP?$AAl?$AAa?$AAt?$AAf?$AAo?$AAr?$AAm?$AA?5?$AAC?$AAo?$AAn?$AAs?$AAo?$AAl@ 0000000000017270     ConPlatformDxe:ComponentName.obj
 0002:000002b8       ??_C@_0BH@MAAHKCPC@String?5?$CB?$DN?5?$CI?$CIvoid?5?$CK?$CJ?50?$CJ@ 00000000000172b8     BaseLib:String.obj
 0002:000002d0       ??_C@_0DN@POJBHOAP@D?3?2develop?2Self_develop?2edk2?2Md@ 00000000000172d0     BaseLib:String.obj
 0002:00000310       ??_C@_0CC@GFNLNIOC@?$CI?$CIUINTN?$CJString?5?$CG?50x00000001?$CJ?5?$DN?$DN@ 0000000000017310     BaseLib:String.obj
 0002:00000338       ??_C@_0DK@EOJCOAME@Length?5?$DM?5_gPcd_FixedAtBuild_Pcd@ 0000000000017338     BaseLib:String.obj
 0002:00000378       ??_C@_0DI@MDIKFADO@Length?5?$DM?5_gPcd_FixedAtBuild_Pcd@ 0000000000017378     BaseLib:String.obj
 0002:000003b0       ??_C@_0BL@IKFBNFIL@AsciiStrSize?5?$CIFirstString?$CJ@ 00000000000173b0     BaseLib:String.obj
 0002:000003d0       ??_C@_0BM@EDNOKLLE@AsciiStrSize?5?$CISecondString?$CJ@ 00000000000173d0     BaseLib:String.obj
 0002:000003f0       ??_C@_0DJ@JJHGIFMP@Length?5?$DM?$DN?5_gPcd_FixedAtBuild_Pc@ 00000000000173f0     BaseLib:String.obj
 0002:00000430       ??_C@_0EB@DAKPBIJH@D?3?2develop?2Self_develop?2edk2?2Md@ 0000000000017430     BaseLib:SafeString.obj
 0002:00000478       ??_C@_0BO@ECNIOIHG@?$CIDestination?5?$CB?$DN?5?$CI?$CIvoid?5?$CK?$CJ?50?$CJ?$CJ@ 0000000000017478     BaseLib:SafeString.obj
 0002:000004a0       ??_C@_0EA@PDPDJJNN@?$CFa?$CI?$CFd?$CJ?5?$CFa?3?5SAFE_STRING_CONSTRAI@ 00000000000174a0     BaseLib:SafeString.obj
 0002:000004e0       ??_C@_0BJ@EAEEJIP@?$CISource?5?$CB?$DN?5?$CI?$CIvoid?5?$CK?$CJ?50?$CJ?$CJ@ 00000000000174e0     BaseLib:SafeString.obj
 0002:00000500       ??_C@_0P@PMIMLIHM@?$CIDestMax?5?$CB?$DN?50?$CJ@ 0000000000017500     BaseLib:SafeString.obj
 0002:00000510       ??_C@_0BG@EEGIIOKH@?$CIDestMax?5?$DO?5SourceLen?$CJ@ 0000000000017510     BaseLib:SafeString.obj
 0002:00000528       ??_C@_0DO@LJFOOPII@?$CIDestMax?5?$DM?$DN?5?$CI_gPcd_FixedAtBuild@ 0000000000017528     BaseLib:SafeString.obj
 0002:00000570       ??_C@_0FL@CDANCHFO@InternalSafeStringNoAsciiStrOve@ 0000000000017570     BaseLib:SafeString.obj
 0002:000005d0       ??_C@_0O@DIHNCLLG@AsciiStrnCpyS@ 00000000000175d0     BaseLib:SafeString.obj
 0002:000005e0       ??_C@_0DN@DLAADCJE@?$CILength?5?$DM?$DN?5?$CI_gPcd_FixedAtBuild_@ 00000000000175e0     BaseLib:SafeString.obj
 0002:00000620       ??_C@_0BH@LKMBFCBF@Format?5?$CB?$DN?5?$CI?$CIvoid?5?$CK?$CJ?50?$CJ@ 0000000000017620     PeiDxeDebugLibReportStatusCode:DebugLib.obj
 0002:00000640       ??_C@_0FM@HDIIFGPN@D?3?2develop?2Self_develop?2edk2?2Md@ 0000000000017640     PeiDxeDebugLibReportStatusCode:DebugLib.obj
 0002:000006a0       ??_C@_0CP@EFCGCEBK@?$CICHAR8?5?$CK?$CJBaseListMarkerPointer?5@ 00000000000176a0     PeiDxeDebugLibReportStatusCode:DebugLib.obj
 0002:000006d0       ??_C@_01OHGJGJJP@?$FL@     00000000000176d0     PeiDxeDebugLibReportStatusCode:DebugLib.obj
 0002:000006d4       ??_C@_02PBFOLPKM@?$FN?5@   00000000000176d4     PeiDxeDebugLibReportStatusCode:DebugLib.obj
 0002:000006d8       ??_C@_0BH@IACGKAP@Buffer?5?$CB?$DN?5?$CI?$CIvoid?5?$CK?$CJ?50?$CJ@ 00000000000176d8     PeiDxeDebugLibReportStatusCode:DebugLib.obj
 0002:000006f0       ??_C@_0CC@JOEHDGKB@DestinationBuffer?5?$CB?$DN?5?$CI?$CIvoid?5?$CK?$CJ?5@ 00000000000176f0     BaseMemoryLib:CompareMemWrapper.obj
 0002:00000720       ??_C@_0EO@FAHMLNEH@D?3?2develop?2Self_develop?2edk2?2Md@ 0000000000017720     BaseMemoryLib:CompareMemWrapper.obj
 0002:00000770       ??_C@_0BN@MDMCNBCC@SourceBuffer?5?$CB?$DN?5?$CI?$CIvoid?5?$CK?$CJ?50?$CJ@ 0000000000017770     BaseMemoryLib:CompareMemWrapper.obj
 0002:00000790       ??_C@_0ED@MKGCMJG@?$CILength?5?9?51?$CJ?5?$DM?$DN?5?$CI0xFFFFFFFFFFFF@ 0000000000017790     BaseMemoryLib:CompareMemWrapper.obj
 0002:000007d8       ??_C@_0DO@MAOBOFEG@?$CILength?5?9?51?$CJ?5?$DM?$DN?5?$CI0xFFFFFFFFFFFF@ 00000000000177d8     BaseMemoryLib:CompareMemWrapper.obj
 0002:00000820       ??_C@_0EL@NNLJGCCH@D?3?2develop?2Self_develop?2edk2?2Md@ 0000000000017820     BaseMemoryLib:CopyMemWrapper.obj
 0002:00000870       ??_C@_0BF@CBLMFKOC@Node?5?$CB?$DN?5?$CI?$CIvoid?5?$CK?$CJ?50?$CJ@ 0000000000017870     UefiDevicePathLib:DevicePathUtilities.obj
 0002:00000890       ??_C@_0FE@LBAOMKEJ@D?3?2develop?2Self_develop?2edk2?2Md@ 0000000000017890     UefiDevicePathLib:DevicePathUtilities.obj
 0002:000008e8       ??_C@_0BF@MBJFHGBE@Size?5?$CB?$DN?5?$CI?$CIvoid?5?$CK?$CJ?50?$CJ@ 00000000000178e8     UefiDevicePathLib:DevicePathUtilities.obj
 0002:00000900       ??_C@_0FK@KCDEFJBC@D?3?2develop?2Self_develop?2edk2?2Md@ 0000000000017900     UefiMemoryAllocationLib:MemoryAllocationLib.obj
 0002:00000960       ??_C@_0DO@GEEICOOO@AllocationSize?5?$DM?$DN?5?$CI0xFFFFFFFFFF@ 0000000000017960     UefiMemoryAllocationLib:MemoryAllocationLib.obj
 0002:000009a0       ??_C@_0BN@COECPDCC@gImageHandle?5?$CB?$DN?5?$CI?$CIvoid?5?$CK?$CJ?50?$CJ@ 00000000000179a0     UefiBootServicesTableLib:UefiBootServicesTableLib.obj
 0002:000009c0       ??_C@_0GA@INMEIGJE@D?3?2develop?2Self_develop?2edk2?2Md@ 00000000000179c0     UefiBootServicesTableLib:UefiBootServicesTableLib.obj
 0002:00000a20       ??_C@_0BE@DGNHAHIL@gST?5?$CB?$DN?5?$CI?$CIvoid?5?$CK?$CJ?50?$CJ@ 0000000000017a20     UefiBootServicesTableLib:UefiBootServicesTableLib.obj
 0002:00000a38       ??_C@_0BE@BDFJLGLN@gBS?5?$CB?$DN?5?$CI?$CIvoid?5?$CK?$CJ?50?$CJ@ 0000000000017a38     UefiBootServicesTableLib:UefiBootServicesTableLib.obj
 0002:00000a50       ??_C@_0BE@OBDFIHND@gRT?5?$CB?$DN?5?$CI?$CIvoid?5?$CK?$CJ?50?$CJ@ 0000000000017a50     UefiRuntimeServicesTableLib:UefiRuntimeServicesTableLib.obj
 0002:00000a70       ??_C@_0GG@OBDIBKMM@D?3?2develop?2Self_develop?2edk2?2Md@ 0000000000017a70     UefiRuntimeServicesTableLib:UefiRuntimeServicesTableLib.obj
 0002:00000ad8       ??_C@_0BK@PPOBBAMB@TableGuid?5?$CB?$DN?5?$CI?$CIvoid?5?$CK?$CJ?50?$CJ@ 0000000000017ad8     UefiLib:UefiLib.obj
 0002:00000af8       ??_C@_0DO@KJBPHFLK@D?3?2develop?2Self_develop?2edk2?2Md@ 0000000000017af8     UefiLib:UefiLib.obj
 0002:00000b38       ??_C@_0BG@JDKEGFNB@Table?5?$CB?$DN?5?$CI?$CIvoid?5?$CK?$CJ?50?$CJ@ 0000000000017b38     UefiLib:UefiLib.obj
 0002:00000b50       ??_C@_0BO@MHFMIIAE@DriverBinding?5?$CB?$DN?5?$CI?$CIvoid?5?$CK?$CJ?50?$CJ@ 0000000000017b50     UefiLib:UefiDriverModel.obj
 0002:00000b70       ??_C@_0EG@HGMADJAK@D?3?2develop?2Self_develop?2edk2?2Md@ 0000000000017b70     UefiLib:UefiDriverModel.obj
 0002:00000bc0       ??_C@_0FK@MLELAAND@D?3?2develop?2Self_develop?2edk2?2Md@ 0000000000017bc0     UefiHiiServicesLib:UefiHiiServicesLib.obj
 0002:00000c20       ??_C@_0DP@IKGCDEIJ@D?3?2develop?2Self_develop?2edk2?2Md@ 0000000000017c20     DxeHobLib:HobLib.obj
 0002:00000c60       ??_C@_0BJ@OBFMLLDO@mHobList?5?$CB?$DN?5?$CI?$CIvoid?5?$CK?$CJ?50?$CJ@ 0000000000017c60     DxeHobLib:HobLib.obj
 0002:00000c80       ??_C@_0FG@BBBJNEFD@D?3?2develop?2Self_develop?2edk2?2Md@ 0000000000017c80     DxeServicesTableLib:DxeServicesTableLib.obj
 0002:00000cd8       ??_C@_0BE@IOIFLNKO@gDS?5?$CB?$DN?5?$CI?$CIvoid?5?$CK?$CJ?50?$CJ@ 0000000000017cd8     DxeServicesTableLib:DxeServicesTableLib.obj
 0002:00000cf0       ??_C@_0BJ@LJAJNOJ@Previous?5?$CB?$DN?5?$CI?$CIvoid?5?$CK?$CJ?50?$CJ@ 0000000000017cf0     UefiBootManagerLib:BmConsole.obj
 0002:00000d10       ??_C@_0FB@HBNFOPMF@D?3?2develop?2Self_develop?2edk2?2Md@ 0000000000017d10     UefiBootManagerLib:BmConsole.obj
 0002:00000d68       ??_C@_0CJ@JFALCEFL@?$FLBds?$FN?5Looking?5for?5GOP?5child?5dee@ 0000000000017d68     UefiBootManagerLib:BmConsole.obj
 0002:00000da0       ??_C@_0FP@CCJIJCDG@D?3?2develop?2Self_develop?2edk2?2Md@ 0000000000017da0     DxeReportStatusCodeLib:ReportStatusCodeLib.obj
 0002:00000e00       ??_C@_0DN@HHIHPHHB@?$CB?$CI?$CIExtendedData?5?$DN?$DN?5?$CI?$CIvoid?5?$CK?$CJ?50?$CJ@ 0000000000017e00     DxeReportStatusCodeLib:ReportStatusCodeLib.obj
 0002:00000e40       ??_C@_0DN@BBBIFINB@?$CB?$CI?$CIExtendedData?5?$CB?$DN?5?$CI?$CIvoid?5?$CK?$CJ?50?$CJ@ 0000000000017e40     DxeReportStatusCodeLib:ReportStatusCodeLib.obj
 0002:00000e80       ??_C@_0EA@FKBIDDGN@D?3?2develop?2Self_develop?2edk2?2Md@ 0000000000017e80     BaseLib:Unaligned.obj
 0002:00000f14       __volatile_metadata        0000000000017f14     <linker-defined>
 0003:00000000       gEfiLoadedImageProtocolGuid 0000000000019000     ConPlatformDxe:AutoGen.obj
 0003:00000010       gEfiStatusCodeSpecificDataGuid 0000000000019010     ConPlatformDxe:AutoGen.obj
 0003:00000020       gEfiGlobalVariableGuid     0000000000019020     ConPlatformDxe:AutoGen.obj
 0003:00000030       gEfiStatusCodeRuntimeProtocolGuid 0000000000019030     ConPlatformDxe:AutoGen.obj
 0003:00000040       gEfiConsoleOutDeviceGuid   0000000000019040     ConPlatformDxe:AutoGen.obj
 0003:00000050       gEfiComponentName2ProtocolGuid 0000000000019050     ConPlatformDxe:AutoGen.obj
 0003:00000060       gEfiSimpleTextOutProtocolGuid 0000000000019060     ConPlatformDxe:AutoGen.obj
 0003:00000070       gEfiDevicePathProtocolGuid 0000000000019070     ConPlatformDxe:AutoGen.obj
 0003:00000080       gEfiPciIoProtocolGuid      0000000000019080     ConPlatformDxe:AutoGen.obj
 0003:00000090       gEfiStandardErrorDeviceGuid 0000000000019090     ConPlatformDxe:AutoGen.obj
 0003:000000a0       gEfiCallerBaseName         00000000000190a0     ConPlatformDxe:AutoGen.obj
 0003:000000a8       gEfiHiiConfigRoutingProtocolGuid 00000000000190a8     ConPlatformDxe:AutoGen.obj
 0003:000000b8       gEfiSimpleTextInProtocolGuid 00000000000190b8     ConPlatformDxe:AutoGen.obj
 0003:000000c8       gEfiStatusCodeDataTypeDebugGuid 00000000000190c8     ConPlatformDxe:AutoGen.obj
 0003:000000d8       gEfiUsbIoProtocolGuid      00000000000190d8     ConPlatformDxe:AutoGen.obj
 0003:000000e8       gEfiHiiImageProtocolGuid   00000000000190e8     ConPlatformDxe:AutoGen.obj
 0003:000000f8       gEfiGraphicsOutputProtocolGuid 00000000000190f8     ConPlatformDxe:AutoGen.obj
 0003:00000108       gEfiHiiDatabaseProtocolGuid 0000000000019108     ConPlatformDxe:AutoGen.obj
 0003:00000118       gEfiHiiStringProtocolGuid  0000000000019118     ConPlatformDxe:AutoGen.obj
 0003:00000128       gEfiHobListGuid            0000000000019128     ConPlatformDxe:AutoGen.obj
 0003:00000138       gEfiConsoleInDeviceGuid    0000000000019138     ConPlatformDxe:AutoGen.obj
 0003:00000148       gEfiDriverBindingProtocolGuid 0000000000019148     ConPlatformDxe:AutoGen.obj
 0003:00000158       gEfiComponentNameProtocolGuid 0000000000019158     ConPlatformDxe:AutoGen.obj
 0003:00000168       gEfiDxeServicesTableGuid   0000000000019168     ConPlatformDxe:AutoGen.obj
 0003:00000178       gEfiCallerIdGuid           0000000000019178     ConPlatformDxe:AutoGen.obj
 0003:00000188       gEfiHiiFontProtocolGuid    0000000000019188     ConPlatformDxe:AutoGen.obj
 0003:00000198       gConPlatformTextOutDriverBinding 0000000000019198     ConPlatformDxe:ConPlatform.obj
 0003:000001c8       gConPlatformTextInDriverBinding 00000000000191c8     ConPlatformDxe:ConPlatform.obj
 0003:000001f8       gConPlatformComponentName2 00000000000191f8     ConPlatformDxe:ComponentName.obj
 0003:00000210       gConPlatformComponentName  0000000000019210     ConPlatformDxe:ComponentName.obj
 0003:00000228       mConPlatformDriverNameTable 0000000000019228     ConPlatformDxe:ComponentName.obj
 0003:00000248       gST                        0000000000019248     UefiBootServicesTableLib:UefiBootServicesTableLib.obj
 0003:00000250       gBS                        0000000000019250     UefiBootServicesTableLib:UefiBootServicesTableLib.obj
 0003:00000258       gImageHandle               0000000000019258     UefiBootServicesTableLib:UefiBootServicesTableLib.obj
 0003:00000260       gRT                        0000000000019260     UefiRuntimeServicesTableLib:UefiRuntimeServicesTableLib.obj
 0003:00000268       gHiiString                 0000000000019268     UefiHiiServicesLib:UefiHiiServicesLib.obj
 0003:00000270       gHiiFont                   0000000000019270     UefiHiiServicesLib:UefiHiiServicesLib.obj
 0003:00000278       gHiiConfigRouting          0000000000019278     UefiHiiServicesLib:UefiHiiServicesLib.obj
 0003:00000280       gHiiImage                  0000000000019280     UefiHiiServicesLib:UefiHiiServicesLib.obj
 0003:00000288       gHiiDatabase               0000000000019288     UefiHiiServicesLib:UefiHiiServicesLib.obj
 0003:00000290       mHobList                   0000000000019290     DxeHobLib:HobLib.obj
 0003:00000298       gDS                        0000000000019298     DxeServicesTableLib:DxeServicesTableLib.obj
 0003:000002a0       mReportStatusCodeLibStatusCodeProtocol 00000000000192a0     DxeReportStatusCodeLib:ReportStatusCodeLib.obj
 0003:000002b0       __security_cookie          00000000000192b0     StackCheckLibNull:StackCheckLibNullMsvc.obj

 entry point at        0001:00000058

 Static symbols

 0003:000002a8       mDeadLoopComparator        00000000000192a8     BaseLib:CpuDeadLoop.obj
 0005:00000000       $unwind$AsciiStrLen        000000000001b000     BaseLib:String.obj
 0005:00000000       $unwind$StrLen             000000000001b000     BaseLib:String.obj
 0005:00000000       $unwind$IsDevicePathEnd    000000000001b000     UefiDevicePathLib:DevicePathUtilities.obj
 0005:00000000       $unwind$IsDevicePathEndType 000000000001b000     UefiDevicePathLib:DevicePathUtilities.obj
 0005:00000000       $unwind$UefiDevicePathLibDuplicateDevicePath 000000000001b000     UefiDevicePathLib:DevicePathUtilities.obj
 0005:00000000       $unwind$UefiDevicePathLibGetDevicePathSize 000000000001b000     UefiDevicePathLib:DevicePathUtilities.obj
 0005:00000000       $unwind$_DriverUnloadHandler 000000000001b000     UefiDriverEntryPoint:DriverEntryPoint.obj
 0005:00000000       $unwind$FreePool           000000000001b000     UefiMemoryAllocationLib:MemoryAllocationLib.obj
 0005:00000008       $unwind$UefiHiiServicesLibConstructor 000000000001b008     UefiHiiServicesLib:UefiHiiServicesLib.obj
 0005:00000008       $unwind$ProcessLibraryConstructorList 000000000001b008     ConPlatformDxe:AutoGen.obj
 0005:00000008       $unwind$DxeServicesTableLibConstructor 000000000001b008     DxeServicesTableLib:DxeServicesTableLib.obj
 0005:00000008       $unwind$_ModuleEntryPoint  000000000001b008     UefiDriverEntryPoint:DriverEntryPoint.obj
 0005:00000008       $unwind$CompareIso639LanguageCode 000000000001b008     UefiLib:UefiLib.obj
 0005:00000008       $unwind$EfiGetSystemConfigurationTable 000000000001b008     UefiLib:UefiLib.obj
 0005:00000008       $unwind$IsLanguageSupported 000000000001b008     UefiLib:UefiLib.obj
 0005:00000010       $unwind$ProcessModuleEntryPointList 000000000001b010     ConPlatformDxe:AutoGen.obj
 0005:00000010       $unwind$WriteUnaligned64   000000000001b010     BaseLib:Unaligned.obj
 0005:00000010       $unwind$CopyGuid           000000000001b010     BaseMemoryLib:MemLibGuid.obj
 0005:00000010       $unwind$HobLibConstructor  000000000001b010     DxeHobLib:HobLib.obj
 0005:00000010       $unwind$UefiBootServicesTableLibConstructor 000000000001b010     UefiBootServicesTableLib:UefiBootServicesTableLib.obj
 0005:00000010       $unwind$AppendDevicePathInstance 000000000001b010     UefiDevicePathLib:UefiDevicePathLib.obj
 0005:00000010       $unwind$GetNextDevicePathInstance 000000000001b010     UefiDevicePathLib:UefiDevicePathLib.obj
 0005:00000010       $unwind$AllocateCopyPool   000000000001b010     UefiMemoryAllocationLib:MemoryAllocationLib.obj
 0005:00000010       $unwind$UefiRuntimeServicesTableLibConstructor 000000000001b010     UefiRuntimeServicesTableLib:UefiRuntimeServicesTableLib.obj
 0005:00000018       $unwind$InitializeConPlatform 000000000001b018     ConPlatformDxe:ConPlatform.obj
 0005:00000018       $unwind$IsGopSibling       000000000001b018     ConPlatformDxe:ConPlatform.obj
 0005:00000018       $unwind$IsDevicePathValid  000000000001b018     UefiDevicePathLib:DevicePathUtilities.obj
 0005:00000018       $unwind$UefiDevicePathLibAppendDevicePathInstance 000000000001b018     UefiDevicePathLib:DevicePathUtilities.obj
 0005:00000018       $unwind$UefiDevicePathLibGetNextDevicePathInstance 000000000001b018     UefiDevicePathLib:DevicePathUtilities.obj
 0005:00000020       $unwind$DebugVPrint        000000000001b020     PeiDxeDebugLibReportStatusCode:DebugLib.obj
 0005:00000020       $unwind$ConPlatformTextInDriverBindingSupported 000000000001b020     ConPlatformDxe:ConPlatform.obj
 0005:00000020       $unwind$ConPlatformTextOutDriverBindingSupported 000000000001b020     ConPlatformDxe:ConPlatform.obj
 0005:00000020       $unwind$AsciiStrnCmp       000000000001b020     BaseLib:String.obj
 0005:00000020       $unwind$CompareMem         000000000001b020     BaseMemoryLib:CompareMemWrapper.obj
 0005:00000020       $unwind$CopyMem            000000000001b020     BaseMemoryLib:CopyMemWrapper.obj
 0005:00000028       $unwind$ConPlatformComponentNameGetDriverName 000000000001b028     ConPlatformDxe:ComponentName.obj
 0005:00000028       $unwind$ConPlatformDriverBindingSupported 000000000001b028     ConPlatformDxe:ConPlatform.obj
 0005:00000028       $unwind$ConPlatformUnInstallProtocol 000000000001b028     ConPlatformDxe:ConPlatform.obj
 0005:00000030       $unwind$ConPlatformTextInDriverBindingStart 000000000001b030     ConPlatformDxe:ConPlatform.obj
 0005:00000030       $unwind$ConPlatformTextOutDriverBindingStart 000000000001b030     ConPlatformDxe:ConPlatform.obj
 0005:00000030       $unwind$ConPlatformUpdateDeviceVariable 000000000001b030     ConPlatformDxe:ConPlatform.obj
 0005:00000038       $unwind$ConPlatformTextInDriverBindingStop 000000000001b038     ConPlatformDxe:ConPlatform.obj
 0005:00000038       $unwind$ConPlatformTextOutDriverBindingStop 000000000001b038     ConPlatformDxe:ConPlatform.obj
 0005:00000038       $unwind$LookupUnicodeString2 000000000001b038     UefiLib:UefiLib.obj
 0005:00000040       $unwind$ConPlatformGetVariable 000000000001b040     ConPlatformDxe:ConPlatform.obj
 0005:00000048       $unwind$MatchUsbClass      000000000001b048     ConPlatformDxe:ConPlatform.obj
 0005:00000058       $unwind$MatchUsbWwid       000000000001b058     ConPlatformDxe:ConPlatform.obj
 0005:00000068       $unwind$MatchUsbShortformDevicePath 000000000001b068     ConPlatformDxe:ConPlatform.obj
 0005:00000070       $unwind$ConPlatformMatchDevicePaths 000000000001b070     ConPlatformDxe:ConPlatform.obj
 0005:00000070       $unwind$AsciiStrnCpyS      000000000001b070     BaseLib:SafeString.obj
 0005:00000070       $unwind$EfiLibInstallDriverBindingComponentName2 000000000001b070     UefiLib:UefiDriverModel.obj
 0005:00000078       $unwind$ConPlatformUpdateGopCandidate 000000000001b078     ConPlatformDxe:ConPlatform.obj
 0005:00000080       $unwind$AsciiStrSize       000000000001b080     BaseLib:String.obj
 0005:00000080       $unwind$ReadUnaligned16    000000000001b080     BaseLib:Unaligned.obj
 0005:00000080       $unwind$ReadUnaligned24    000000000001b080     BaseLib:Unaligned.obj
 0005:00000080       $unwind$ReadUnaligned64    000000000001b080     BaseLib:Unaligned.obj
 0005:00000080       $unwind$DevicePathNodeLength 000000000001b080     UefiDevicePathLib:DevicePathUtilities.obj
 0005:00000080       $unwind$DevicePathSubType  000000000001b080     UefiDevicePathLib:DevicePathUtilities.obj
 0005:00000080       $unwind$DevicePathType     000000000001b080     UefiDevicePathLib:DevicePathUtilities.obj
 0005:00000080       $unwind$NextDevicePathNode 000000000001b080     UefiDevicePathLib:DevicePathUtilities.obj
 0005:00000080       $unwind$DuplicateDevicePath 000000000001b080     UefiDevicePathLib:UefiDevicePathLib.obj
 0005:00000080       $unwind$GetDevicePathSize  000000000001b080     UefiDevicePathLib:UefiDevicePathLib.obj
 0005:00000080       $unwind$AllocatePool       000000000001b080     UefiMemoryAllocationLib:MemoryAllocationLib.obj
 0005:00000088       $unwind$DebugPrint         000000000001b088     PeiDxeDebugLibReportStatusCode:DebugLib.obj
 0005:00000088       $unwind$InternalSafeStringNoAsciiStrOverlap 000000000001b088     BaseLib:SafeString.obj
 0005:00000090       $unwind$AsciiStrnLenS      000000000001b090     BaseLib:SafeString.obj
 0005:00000098       $unwind$DebugPrintMarker   000000000001b098     PeiDxeDebugLibReportStatusCode:DebugLib.obj
 0005:000000a8       $unwind$DebugAssert        000000000001b0a8     PeiDxeDebugLibReportStatusCode:DebugLib.obj
 0005:000000b8       $unwind$ReportDebugCodeEnabled 000000000001b0b8     DxeReportStatusCodeLib:ReportStatusCodeLib.obj
 0005:000000b8       $unwind$ReportErrorCodeEnabled 000000000001b0b8     DxeReportStatusCodeLib:ReportStatusCodeLib.obj
 0005:000000b8       $unwind$ReportProgressCodeEnabled 000000000001b0b8     DxeReportStatusCodeLib:ReportStatusCodeLib.obj
 0005:000000b8       $unwind$DebugAssertEnabled 000000000001b0b8     PeiDxeDebugLibReportStatusCode:DebugLib.obj
 0005:000000b8       $unwind$DebugPrintEnabled  000000000001b0b8     PeiDxeDebugLibReportStatusCode:DebugLib.obj
 0005:000000c0       $unwind$DebugPrintLevelEnabled 000000000001b0c0     PeiDxeDebugLibReportStatusCode:DebugLib.obj
 0005:000000c8       $unwind$CompareGuid        000000000001b0c8     BaseMemoryLib:MemLibGuid.obj
 0005:000000d0       $unwind$InternalMemCopyMem 000000000001b0d0     BaseMemoryLib:CopyMem.obj
 0005:000000d8       $unwind$InternalAllocatePool 000000000001b0d8     UefiMemoryAllocationLib:MemoryAllocationLib.obj
 0005:000000e0       $unwind$InternalAllocateCopyPool 000000000001b0e0     UefiMemoryAllocationLib:MemoryAllocationLib.obj
 0005:000000e8       $unwind$InternalGetReportStatusCode 000000000001b0e8     DxeReportStatusCodeLib:ReportStatusCodeLib.obj
 0005:000000e8       $unwind$CpuDeadLoop        000000000001b0e8     BaseLib:CpuDeadLoop.obj
 0005:000000e8       $unwind$GetHobList         000000000001b0e8     DxeHobLib:HobLib.obj
 0005:000000f0       $unwind$EfiBootManagerGetGopDevicePath 000000000001b0f0     UefiBootManagerLib:BmConsole.obj
 0005:000000f8       $unwind$InternalReportStatusCode 000000000001b0f8     DxeReportStatusCodeLib:ReportStatusCodeLib.obj
 0005:00000100       $unwind$ReportStatusCodeEx 000000000001b100     DxeReportStatusCodeLib:ReportStatusCodeLib.obj
