 ReportStatusCodeRouterRuntimeDxe

 Timestamp is 68f5d082 (Mon Oct 20 14:02:42 2025)

 Preferred load address is 0000000000010000

 Start         Length     Name                   Class
 0001:00000000 00000048H .text                   CODE
 0001:00000048 00004c06H .text$mn                CODE
 0002:00000000 00000e84H .rdata                  DATA
 0002:00000e84 00000018H .rdata$voltmd           DATA
 0002:00000e9c 00000194H .rdata$zzzdbg           DATA
 0003:00000000 000000d0H .data                   DATA
 0003:000000d0 000000a0H .bss                    DATA
 0004:00000000 0000039cH .pdata                  DATA
 0005:00000000 000000f0H .xdata                  DATA

  Address         Publics by Value              Rva+Base               Lib:Object

 0000:00000000       __guard_longjmp_table      0000000000000000     <absolute>
 0000:00000000       __guard_fids_count         0000000000000000     <absolute>
 0000:00000000       __arm64x_extra_rfe_table   0000000000000000     <absolute>
 0000:00000000       __x64_code_ranges_to_entry_points_count 0000000000000000     <absolute>
 0000:00000000       __arm64x_redirection_metadata 0000000000000000     <absolute>
 0000:00000000       __hybrid_code_map          0000000000000000     <absolute>
 0000:00000000       __guard_iat_table          0000000000000000     <absolute>
 0000:00000000       __arm64x_extra_rfe_table_size 0000000000000000     <absolute>
 0000:00000000       __x64_code_ranges_to_entry_points 0000000000000000     <absolute>
 0000:00000000       __guard_iat_count          0000000000000000     <absolute>
 0000:00000000       __guard_longjmp_count      0000000000000000     <absolute>
 0000:00000000       __dynamic_value_reloc_table 0000000000000000     <absolute>
 0000:00000000       __hybrid_auxiliary_iat     0000000000000000     <absolute>
 0000:00000000       __hybrid_auxiliary_iat_copy 0000000000000000     <absolute>
 0000:00000000       __guard_flags              0000000000000000     <absolute>
 0000:00000000       __guard_eh_cont_count      0000000000000000     <absolute>
 0000:00000000       __AbsoluteZero             0000000000000000     <absolute>
 0000:00000000       __guard_check_icall_a64n_fptr 0000000000000000     <absolute>
 0000:00000000       __guard_fids_table         0000000000000000     <absolute>
 0000:00000000       __arm64x_redirection_metadata_count 0000000000000000     <absolute>
 0000:00000000       __enclave_config           0000000000000000     <absolute>
 0000:00000000       __hybrid_code_map_count    0000000000000000     <absolute>
 0000:00000000       __guard_eh_cont_table      0000000000000000     <absolute>
 0000:00000000       __arm64x_native_entrypoint 0000000000000000     <absolute>
 0001:00000000       __report_rangecheckfailure 0000000000011000     StackCheckLibNull:StackCheckFunctionsMsvc.obj
 0001:00000001       __GSHandlerCheck           0000000000011001     StackCheckLibNull:StackCheckFunctionsMsvc.obj
 0001:00000002       __security_check_cookie    0000000000011002     StackCheckLibNull:StackCheckFunctionsMsvc.obj
 0001:00000010       CpuPause                   0000000000011010     BaseLib:CpuPause.obj
 0001:00000020       AsmCpuid                   0000000000011020     BaseLib:CpuId.obj
 0001:00000048       _DriverUnloadHandler       0000000000011048 f   UefiDriverEntryPoint:DriverEntryPoint.obj
 0001:0000008c       _ModuleEntryPoint          000000000001108c f   UefiDriverEntryPoint:DriverEntryPoint.obj
 0001:000001cc       ProcessLibraryConstructorList 00000000000111cc f   ReportStatusCodeRouterRuntimeDxe:AutoGen.obj
 0001:000005c4       ProcessLibraryDestructorList 00000000000115c4 f   ReportStatusCodeRouterRuntimeDxe:AutoGen.obj
 0001:00000668       ProcessModuleEntryPointList 0000000000011668 f   ReportStatusCodeRouterRuntimeDxe:AutoGen.obj
 0001:0000068c       ProcessModuleUnloadList    000000000001168c f   ReportStatusCodeRouterRuntimeDxe:AutoGen.obj
 0001:00000694       RscHandlerNotification     0000000000011694 f   ReportStatusCodeRouterRuntimeDxe:ReportStatusCodeRouterRuntimeDxe.obj
 0001:00000770       Register                   0000000000011770 f   ReportStatusCodeRouterRuntimeDxe:ReportStatusCodeRouterRuntimeDxe.obj
 0001:000009ec       Unregister                 00000000000119ec f   ReportStatusCodeRouterRuntimeDxe:ReportStatusCodeRouterRuntimeDxe.obj
 0001:00000b3c       ReportDispatcher           0000000000011b3c f   ReportStatusCodeRouterRuntimeDxe:ReportStatusCodeRouterRuntimeDxe.obj
 0001:00000fc0       VirtualAddressChangeCallBack 0000000000011fc0 f   ReportStatusCodeRouterRuntimeDxe:ReportStatusCodeRouterRuntimeDxe.obj
 0001:000011b8       GenericStatusCodeRuntimeDxeEntry 00000000000121b8 f   ReportStatusCodeRouterRuntimeDxe:ReportStatusCodeRouterRuntimeDxe.obj
 0001:00001344       InternalBaseLibIsListValid 0000000000012344 f   BaseLib:LinkedList.obj
 0001:00001460       IsNodeInList               0000000000012460 f   BaseLib:LinkedList.obj
 0001:00001560       InsertTailList             0000000000012560 f   BaseLib:LinkedList.obj
 0001:00001648       GetFirstNode               0000000000012648 f   BaseLib:LinkedList.obj
 0001:0000169c       GetNextNode                000000000001269c f   BaseLib:LinkedList.obj
 0001:0000174c       IsListEmpty                000000000001274c f   BaseLib:LinkedList.obj
 0001:000017b4       IsNull                     00000000000127b4 f   BaseLib:LinkedList.obj
 0001:00001878       RemoveEntryList            0000000000012878 f   BaseLib:LinkedList.obj
 0001:000018f4       DebugPrint                 00000000000128f4 f   PeiDxeDebugLibReportStatusCode:DebugLib.obj
 0001:00001938       DebugPrintMarker           0000000000012938 f   PeiDxeDebugLibReportStatusCode:DebugLib.obj
 0001:000020e0       DebugVPrint                00000000000130e0 f   PeiDxeDebugLibReportStatusCode:DebugLib.obj
 0001:00002110       DebugAssert                0000000000013110 f   PeiDxeDebugLibReportStatusCode:DebugLib.obj
 0001:000024ac       DebugAssertEnabled         00000000000134ac f   PeiDxeDebugLibReportStatusCode:DebugLib.obj
 0001:000024d0       DebugPrintEnabled          00000000000134d0 f   PeiDxeDebugLibReportStatusCode:DebugLib.obj
 0001:000024f4       DebugPrintLevelEnabled     00000000000134f4 f   PeiDxeDebugLibReportStatusCode:DebugLib.obj
 0001:00002528       CopyGuid                   0000000000013528 f   BaseMemoryLib:MemLibGuid.obj
 0001:0000257c       CompareGuid                000000000001357c f   BaseMemoryLib:MemLibGuid.obj
 0001:00002604       CopyMem                    0000000000013604 f   BaseMemoryLib:CopyMemWrapper.obj
 0001:000026dc       ZeroMem                    00000000000136dc f   BaseMemoryLib:ZeroMemWrapper.obj
 0001:00002784       InternalMemCopyMem         0000000000013784 f   BaseMemoryLib:CopyMem.obj
 0001:00002d60       InternalMemZeroMem         0000000000013d60 f   BaseMemoryLib:MemLibGeneric.obj
 0001:00002d88       InternalMemSetMem          0000000000013d88 f   BaseMemoryLib:SetMem.obj
 0001:00002f1c       InternalAllocatePool       0000000000013f1c f   UefiMemoryAllocationLib:MemoryAllocationLib.obj
 0001:00002f6c       AllocatePool               0000000000013f6c f   UefiMemoryAllocationLib:MemoryAllocationLib.obj
 0001:00002f8c       InternalAllocateZeroPool   0000000000013f8c f   UefiMemoryAllocationLib:MemoryAllocationLib.obj
 0001:00002fd4       AllocateRuntimeZeroPool    0000000000013fd4 f   UefiMemoryAllocationLib:MemoryAllocationLib.obj
 0001:00002ff4       InternalReallocatePool     0000000000013ff4 f   UefiMemoryAllocationLib:MemoryAllocationLib.obj
 0001:00003078       ReallocatePool             0000000000014078 f   UefiMemoryAllocationLib:MemoryAllocationLib.obj
 0001:000030ac       FreePool                   00000000000140ac f   UefiMemoryAllocationLib:MemoryAllocationLib.obj
 0001:00003148       UefiBootServicesTableLibConstructor 0000000000014148 f   UefiBootServicesTableLib:UefiBootServicesTableLib.obj
 0001:00003224       UefiRuntimeServicesTableLibConstructor 0000000000014224 f   UefiRuntimeServicesTableLib:UefiRuntimeServicesTableLib.obj
 0001:00003280       UefiLibConstructor         0000000000014280 f   UefiLib:UefiLib.obj
 0001:00003290       EfiGetSystemConfigurationTable 0000000000014290 f   UefiLib:UefiLib.obj
 0001:0000339c       EfiCreateProtocolNotifyEvent 000000000001439c f   UefiLib:UefiLib.obj
 0001:000035a8       EfiGetCurrentTpl           00000000000145a8 f   UefiLib:UefiLib.obj
 0001:000035dc       GetHobList                 00000000000145dc f   DxeHobLib:HobLib.obj
 0001:000036c0       HobLibConstructor          00000000000146c0 f   DxeHobLib:HobLib.obj
 0001:000036dc       GetNextHob                 00000000000146dc f   DxeHobLib:HobLib.obj
 0001:00003770       GetNextGuidHob             0000000000014770 f   DxeHobLib:HobLib.obj
 0001:000037e8       GetFirstGuidHob            00000000000147e8 f   DxeHobLib:HobLib.obj
 0001:00003810       DxeEmuLibConstructor       0000000000014810 f   DxeEmuLib:DxeEmuLib.obj
 0001:000038ac       RegisterTimerArchProtocol  00000000000148ac f   EmuDxeTimerLib:DxeTimerLib.obj
 0001:00003a58       DxeTimerLibConstructor     0000000000014a58 f   EmuDxeTimerLib:DxeTimerLib.obj
 0001:00003a94       RuntimeLibExitBootServicesEvent 0000000000014a94 f   UefiRuntimeLib:RuntimeLib.obj
 0001:00003aa8       RuntimeLibVirtualNotifyEvent 0000000000014aa8 f   UefiRuntimeLib:RuntimeLib.obj
 0001:00003ad0       RuntimeDriverLibConstruct  0000000000014ad0 f   UefiRuntimeLib:RuntimeLib.obj
 0001:00003cb0       RuntimeDriverLibDeconstruct 0000000000014cb0 f   UefiRuntimeLib:RuntimeLib.obj
 0001:00003e1c       EfiAtRuntime               0000000000014e1c f   UefiRuntimeLib:RuntimeLib.obj
 0001:00003e24       EfiConvertPointer          0000000000014e24 f   UefiRuntimeLib:RuntimeLib.obj
 0001:00003e4c       EfiConvertFunctionPointer  0000000000014e4c f   UefiRuntimeLib:RuntimeLib.obj
 0001:00003e70       EfiConvertList             0000000000014e70 f   UefiRuntimeLib:RuntimeLib.obj
 0001:00003f38       InterlockedCompareExchange32 0000000000014f38 f   BaseSynchronizationLib:SynchronizationMsc.obj
 0001:00003f94       InternalSyncCompareExchange32 0000000000014f94 f   BaseSynchronizationLib:InterlockedCompareExchange32.obj
 0001:00003fc4       GetDebugPrintErrorLevel    0000000000014fc4 f   BaseDebugPrintErrorLevelLib:BaseDebugPrintErrorLevelLib.obj
 0001:00003fcc       InternalGetReportStatusCode 0000000000014fcc f   DxeReportStatusCodeLib:ReportStatusCodeLib.obj
 0001:0000403c       InternalReportStatusCode   000000000001503c f   DxeReportStatusCodeLib:ReportStatusCodeLib.obj
 0001:000040f4       ReportStatusCodeEx         00000000000150f4 f   DxeReportStatusCodeLib:ReportStatusCodeLib.obj
 0001:00004370       ReportProgressCodeEnabled  0000000000015370 f   DxeReportStatusCodeLib:ReportStatusCodeLib.obj
 0001:00004394       ReportErrorCodeEnabled     0000000000015394 f   DxeReportStatusCodeLib:ReportStatusCodeLib.obj
 0001:000043b8       ReportDebugCodeEnabled     00000000000153b8 f   DxeReportStatusCodeLib:ReportStatusCodeLib.obj
 0001:000043dc       AsciiStrLen                00000000000153dc f   BaseLib:String.obj
 0001:00004494       AsciiStrSize               0000000000015494 f   BaseLib:String.obj
 0001:000044b0       InternalSafeStringIsOverlap 00000000000154b0 f   BaseLib:SafeString.obj
 0001:00004514       InternalSafeStringNoAsciiStrOverlap 0000000000015514 f   BaseLib:SafeString.obj
 0001:00004568       AsciiStrnLenS              0000000000015568 f   BaseLib:SafeString.obj
 0001:000045d4       AsciiStrnCpyS              00000000000155d4 f   BaseLib:SafeString.obj
 0001:00004ac4       CpuBreakpoint              0000000000015ac4 f   BaseLib:CpuBreakpoint.obj
 0001:00004ac8       CpuDeadLoop                0000000000015ac8 f   BaseLib:CpuDeadLoop.obj
 0001:00004af8       ReadUnaligned64            0000000000015af8 f   BaseLib:Unaligned.obj
 0001:00004b40       WriteUnaligned64           0000000000015b40 f   BaseLib:Unaligned.obj
 0001:00004b98       LShiftU64                  0000000000015b98 f   BaseLib:LShiftU64.obj
 0001:00004bec       MultU64x32                 0000000000015bec f   BaseLib:MultU64x32.obj
 0001:00004c18       InternalMathLShiftU64      0000000000015c18 f   BaseLib:Math64.obj
 0001:00004c34       InternalMathMultU64x32     0000000000015c34 f   BaseLib:Math64.obj
 0002:00000000       ??_C@_0CB@DMEJJJHA@?6ASSERT_EFI_ERROR?5?$CIStatus?5?$DN?5?$CFr?$CJ@ 0000000000016000     UefiDriverEntryPoint:DriverEntryPoint.obj
 0002:00000028       ??_C@_0DG@FLPEIDFK@?$CB?$CI?$CI?$CIRETURN_STATUS?$CJ?$CIStatus?$CJ?$CJ?5?$DO?$DN?5@ 0000000000016028     UefiDriverEntryPoint:DriverEntryPoint.obj
 0002:00000060       ??_C@_0EM@JLGHJKPJ@D?3?2develop?2EDK2?2edk2?2MdePkg?2Lib@ 0000000000016060     UefiDriverEntryPoint:DriverEntryPoint.obj
 0002:000000ac       _gDriverUnloadImageCount   00000000000160ac     ReportStatusCodeRouterRuntimeDxe:AutoGen.obj
 0002:000000ac       _gPcd_FixedAtBuild_PcdVerifyNodeInList 00000000000160ac     ReportStatusCodeRouterRuntimeDxe:AutoGen.obj
 0002:000000b0       _gUefiDriverRevision       00000000000160b0     ReportStatusCodeRouterRuntimeDxe:AutoGen.obj
 0002:000000b8       ??_C@_0CB@PINBHLDO@ReportStatusCodeRouterRuntimeDx@ 00000000000160b8     ReportStatusCodeRouterRuntimeDxe:AutoGen.obj
 0002:000000e0       ??_C@_0KC@NIKNIJBK@D?3?2develop?2EDK2?2edk2?2Build?2Emul@ 00000000000160e0     ReportStatusCodeRouterRuntimeDxe:AutoGen.obj
 0002:00000184       _gPcd_FixedAtBuild_PcdMaximumAsciiStringLength 0000000000016184     ReportStatusCodeRouterRuntimeDxe:AutoGen.obj
 0002:00000184       _gPcd_FixedAtBuild_PcdMaximumLinkedListLength 0000000000016184     ReportStatusCodeRouterRuntimeDxe:AutoGen.obj
 0002:00000188       _gPcd_FixedAtBuild_PcdReportStatusCodePropertyMask 0000000000016188     ReportStatusCodeRouterRuntimeDxe:AutoGen.obj
 0002:0000018c       _gPcd_FixedAtBuild_PcdDebugPrintErrorLevel 000000000001618c     ReportStatusCodeRouterRuntimeDxe:AutoGen.obj
 0002:00000190       _gPcd_FixedAtBuild_PcdFixedDebugPrintErrorLevel 0000000000016190     ReportStatusCodeRouterRuntimeDxe:AutoGen.obj
 0002:00000194       _gPcd_FixedAtBuild_PcdDebugPropertyMask 0000000000016194     ReportStatusCodeRouterRuntimeDxe:AutoGen.obj
 0002:00000198       ??_C@_0BF@NDBIKIKC@CR?5has?5Bad?5Signature@ 0000000000016198     ReportStatusCodeRouterRuntimeDxe:ReportStatusCodeRouterRuntimeDxe.obj
 0002:000001b0       ??_C@_0HB@CPGPAIMG@D?3?2develop?2EDK2?2edk2?2MdeModuleP@ 00000000000161b0     ReportStatusCodeRouterRuntimeDxe:ReportStatusCodeRouterRuntimeDxe.obj
 0002:00000228       ??_C@_0BO@GLGOPODC@CallbackEntry?5?$CB?$DN?5?$CI?$CIvoid?5?$CK?$CJ?50?$CJ@ 0000000000016228     ReportStatusCodeRouterRuntimeDxe:ReportStatusCodeRouterRuntimeDxe.obj
 0002:00000248       ??_C@_0BF@NJNGJMPC@List?5?$CB?$DN?5?$CI?$CIvoid?5?$CK?$CJ?50?$CJ@ 0000000000016248     BaseLib:LinkedList.obj
 0002:00000260       ??_C@_0DJ@PDIPIDH@D?3?2develop?2EDK2?2edk2?2MdePkg?2Lib@ 0000000000016260     BaseLib:LinkedList.obj
 0002:000002a0       ??_C@_0CC@KDLPLAED@List?9?$DOForwardLink?5?$CB?$DN?5?$CI?$CIvoid?5?$CK?$CJ?5@ 00000000000162a0     BaseLib:LinkedList.obj
 0002:000002c8       ??_C@_0BP@IJJCCMAK@List?9?$DOBackLink?5?$CB?$DN?5?$CI?$CIvoid?5?$CK?$CJ?50?$CJ@ 00000000000162c8     BaseLib:LinkedList.obj
 0002:000002e8       ??_C@_0CI@BMHOPIIO@InternalBaseLibIsListValid?5?$CIFir@ 00000000000162e8     BaseLib:LinkedList.obj
 0002:00000310       ??_C@_0BM@BAIHHOEP@SecondEntry?5?$CB?$DN?5?$CI?$CIvoid?5?$CK?$CJ?50?$CJ@ 0000000000016310     BaseLib:LinkedList.obj
 0002:00000330       ??_C@_0DI@HOMAKAJD@?$CI?$CIBOOLEAN?$CJ?$CI0?$DN?$DN1?$CJ?$CJ?5?$DN?$DN?5IsNodeInLi@ 0000000000016330     BaseLib:LinkedList.obj
 0002:00000368       ??_C@_0CG@LGIALJFK@InternalBaseLibIsListValid?5?$CILis@ 0000000000016368     BaseLib:LinkedList.obj
 0002:00000390       ??_C@_0CC@JLDICICM@InternalBaseLibIsListValid?5?$CILis@ 0000000000016390     BaseLib:LinkedList.obj
 0002:000003b8       ??_C@_0DD@OAAIDOJD@?$CI?$CIBOOLEAN?$CJ?$CI1?$DN?$DN1?$CJ?$CJ?5?$DN?$DN?5IsNodeInLi@ 00000000000163b8     BaseLib:LinkedList.obj
 0002:000003f0       ??_C@_0BF@NMBJJECB@?$CBIsListEmpty?5?$CIEntry?$CJ@ 00000000000163f0     BaseLib:LinkedList.obj
 0002:00000408       ??_C@_0BH@LKMBFCBF@Format?5?$CB?$DN?5?$CI?$CIvoid?5?$CK?$CJ?50?$CJ@ 0000000000016408     PeiDxeDebugLibReportStatusCode:DebugLib.obj
 0002:00000420       ??_C@_0FE@BEFIIBEL@D?3?2develop?2EDK2?2edk2?2MdeModuleP@ 0000000000016420     PeiDxeDebugLibReportStatusCode:DebugLib.obj
 0002:00000478       ??_C@_0CP@EFCGCEBK@?$CICHAR8?5?$CK?$CJBaseListMarkerPointer?5@ 0000000000016478     PeiDxeDebugLibReportStatusCode:DebugLib.obj
 0002:000004a8       ??_C@_01OHGJGJJP@?$FL@     00000000000164a8     PeiDxeDebugLibReportStatusCode:DebugLib.obj
 0002:000004ac       ??_C@_02PBFOLPKM@?$FN?5@   00000000000164ac     PeiDxeDebugLibReportStatusCode:DebugLib.obj
 0002:000004b0       ??_C@_0BH@IACGKAP@Buffer?5?$CB?$DN?5?$CI?$CIvoid?5?$CK?$CJ?50?$CJ@ 00000000000164b0     PeiDxeDebugLibReportStatusCode:DebugLib.obj
 0002:000004c8       ??_C@_0DG@EEENIGGL@Length?5?$DM?$DN?5?$CI0xFFFFFFFFFFFFFFFFUL@ 00000000000164c8     BaseMemoryLib:MemLibGuid.obj
 0002:00000500       ??_C@_0ED@MKGCMJG@?$CILength?5?9?51?$CJ?5?$DM?$DN?5?$CI0xFFFFFFFFFFFF@ 0000000000016500     BaseMemoryLib:CopyMemWrapper.obj
 0002:00000550       ??_C@_0ED@JLFCAFGL@D?3?2develop?2EDK2?2edk2?2MdePkg?2Lib@ 0000000000016550     BaseMemoryLib:CopyMemWrapper.obj
 0002:00000598       ??_C@_0DO@MAOBOFEG@?$CILength?5?9?51?$CJ?5?$DM?$DN?5?$CI0xFFFFFFFFFFFF@ 0000000000016598     BaseMemoryLib:CopyMemWrapper.obj
 0002:000005e0       ??_C@_0ED@CPPAGEKM@D?3?2develop?2EDK2?2edk2?2MdePkg?2Lib@ 00000000000165e0     BaseMemoryLib:ZeroMemWrapper.obj
 0002:00000630       ??_C@_0FC@FCCEPMJI@D?3?2develop?2EDK2?2edk2?2MdePkg?2Lib@ 0000000000016630     UefiMemoryAllocationLib:MemoryAllocationLib.obj
 0002:00000688       ??_C@_0BN@COECPDCC@gImageHandle?5?$CB?$DN?5?$CI?$CIvoid?5?$CK?$CJ?50?$CJ@ 0000000000016688     UefiBootServicesTableLib:UefiBootServicesTableLib.obj
 0002:000006b0       ??_C@_0FI@GPPFIFID@D?3?2develop?2EDK2?2edk2?2MdePkg?2Lib@ 00000000000166b0     UefiBootServicesTableLib:UefiBootServicesTableLib.obj
 0002:00000708       ??_C@_0BE@DGNHAHIL@gST?5?$CB?$DN?5?$CI?$CIvoid?5?$CK?$CJ?50?$CJ@ 0000000000016708     UefiBootServicesTableLib:UefiBootServicesTableLib.obj
 0002:00000720       ??_C@_0BE@BDFJLGLN@gBS?5?$CB?$DN?5?$CI?$CIvoid?5?$CK?$CJ?50?$CJ@ 0000000000016720     UefiBootServicesTableLib:UefiBootServicesTableLib.obj
 0002:00000738       ??_C@_0BE@OBDFIHND@gRT?5?$CB?$DN?5?$CI?$CIvoid?5?$CK?$CJ?50?$CJ@ 0000000000016738     UefiRuntimeServicesTableLib:UefiRuntimeServicesTableLib.obj
 0002:00000750       ??_C@_0FO@FKLKMJDF@D?3?2develop?2EDK2?2edk2?2MdePkg?2Lib@ 0000000000016750     UefiRuntimeServicesTableLib:UefiRuntimeServicesTableLib.obj
 0002:000007b0       ??_C@_0BK@PPOBBAMB@TableGuid?5?$CB?$DN?5?$CI?$CIvoid?5?$CK?$CJ?50?$CJ@ 00000000000167b0     UefiLib:UefiLib.obj
 0002:000007d0       ??_C@_0DG@PLINABMB@D?3?2develop?2EDK2?2edk2?2MdePkg?2Lib@ 00000000000167d0     UefiLib:UefiLib.obj
 0002:00000808       ??_C@_0BG@JDKEGFNB@Table?5?$CB?$DN?5?$CI?$CIvoid?5?$CK?$CJ?50?$CJ@ 0000000000016808     UefiLib:UefiLib.obj
 0002:00000820       ??_C@_0BN@HHGHCLME@ProtocolGuid?5?$CB?$DN?5?$CI?$CIvoid?5?$CK?$CJ?50?$CJ@ 0000000000016820     UefiLib:UefiLib.obj
 0002:00000840       ??_C@_0BP@DEIEJICI@NotifyFunction?5?$CB?$DN?5?$CI?$CIvoid?5?$CK?$CJ?50?$CJ@ 0000000000016840     UefiLib:UefiLib.obj
 0002:00000860       ??_C@_0BN@OMCJCPAI@Registration?5?$CB?$DN?5?$CI?$CIvoid?5?$CK?$CJ?50?$CJ@ 0000000000016860     UefiLib:UefiLib.obj
 0002:00000880       ??_C@_0DH@ENOHAOEJ@D?3?2develop?2EDK2?2edk2?2MdePkg?2Lib@ 0000000000016880     DxeHobLib:HobLib.obj
 0002:000008b8       ??_C@_0BJ@OBFMLLDO@mHobList?5?$CB?$DN?5?$CI?$CIvoid?5?$CK?$CJ?50?$CJ@ 00000000000168b8     DxeHobLib:HobLib.obj
 0002:000008d8       ??_C@_0BJ@NOLLDKJB@HobStart?5?$CB?$DN?5?$CI?$CIvoid?5?$CK?$CJ?50?$CJ@ 00000000000168d8     DxeHobLib:HobLib.obj
 0002:000008f8       ??_C@_0BI@EDOKPJOP@GuidHob?5?$CB?$DN?5?$CI?$CIvoid?5?$CK?$CJ?50?$CJ@ 00000000000168f8     DxeEmuLib:DxeEmuLib.obj
 0002:00000910       ??_C@_0DP@GJOPCIJA@D?3?2develop?2EDK2?2edk2?2EmulatorPk@ 0000000000016910     DxeEmuLib:DxeEmuLib.obj
 0002:00000950       ??_C@_0BK@ELNDAPDH@gEmuThunk?5?$CB?$DN?5?$CI?$CIvoid?5?$CK?$CJ?50?$CJ@ 0000000000016950     DxeEmuLib:DxeEmuLib.obj
 0002:00000970       ??_C@_0ED@JOAJHCKD@D?3?2develop?2EDK2?2edk2?2EmulatorPk@ 0000000000016970     EmuDxeTimerLib:DxeTimerLib.obj
 0002:000009c0       ??_C@_0EA@PLPDONMA@D?3?2develop?2EDK2?2edk2?2MdePkg?2Lib@ 00000000000169c0     UefiRuntimeLib:RuntimeLib.obj
 0002:00000a00       ??_C@_0FA@EOPKMLHI@D?3?2develop?2EDK2?2edk2?2MdePkg?2Lib@ 0000000000016a00     BaseSynchronizationLib:SynchronizationMsc.obj
 0002:00000a50       ??_C@_0BG@GJANEBOB@Value?5?$CB?$DN?5?$CI?$CIvoid?5?$CK?$CJ?50?$CJ@ 0000000000016a50     BaseSynchronizationLib:SynchronizationMsc.obj
 0002:00000a70       ??_C@_0FH@KLOBJBPP@D?3?2develop?2EDK2?2edk2?2MdeModuleP@ 0000000000016a70     DxeReportStatusCodeLib:ReportStatusCodeLib.obj
 0002:00000ac8       ??_C@_0DN@HHIHPHHB@?$CB?$CI?$CIExtendedData?5?$DN?$DN?5?$CI?$CIvoid?5?$CK?$CJ?50?$CJ@ 0000000000016ac8     DxeReportStatusCodeLib:ReportStatusCodeLib.obj
 0002:00000b08       ??_C@_0DN@BBBIFINB@?$CB?$CI?$CIExtendedData?5?$CB?$DN?5?$CI?$CIvoid?5?$CK?$CJ?50?$CJ@ 0000000000016b08     DxeReportStatusCodeLib:ReportStatusCodeLib.obj
 0002:00000b48       ??_C@_0BH@MAAHKCPC@String?5?$CB?$DN?5?$CI?$CIvoid?5?$CK?$CJ?50?$CJ@ 0000000000016b48     BaseLib:String.obj
 0002:00000b60       ??_C@_0DF@EAHDDLM@D?3?2develop?2EDK2?2edk2?2MdePkg?2Lib@ 0000000000016b60     BaseLib:String.obj
 0002:00000b98       ??_C@_0DI@MDIKFADO@Length?5?$DM?5_gPcd_FixedAtBuild_Pcd@ 0000000000016b98     BaseLib:String.obj
 0002:00000bd0       ??_C@_0DJ@DNFJNBOO@D?3?2develop?2EDK2?2edk2?2MdePkg?2Lib@ 0000000000016bd0     BaseLib:SafeString.obj
 0002:00000c10       ??_C@_0BO@ECNIOIHG@?$CIDestination?5?$CB?$DN?5?$CI?$CIvoid?5?$CK?$CJ?50?$CJ?$CJ@ 0000000000016c10     BaseLib:SafeString.obj
 0002:00000c30       ??_C@_0EA@PDPDJJNN@?$CFa?$CI?$CFd?$CJ?5?$CFa?3?5SAFE_STRING_CONSTRAI@ 0000000000016c30     BaseLib:SafeString.obj
 0002:00000c70       ??_C@_0BJ@EAEEJIP@?$CISource?5?$CB?$DN?5?$CI?$CIvoid?5?$CK?$CJ?50?$CJ?$CJ@ 0000000000016c70     BaseLib:SafeString.obj
 0002:00000c90       ??_C@_0P@PMIMLIHM@?$CIDestMax?5?$CB?$DN?50?$CJ@ 0000000000016c90     BaseLib:SafeString.obj
 0002:00000ca0       ??_C@_0BG@EEGIIOKH@?$CIDestMax?5?$DO?5SourceLen?$CJ@ 0000000000016ca0     BaseLib:SafeString.obj
 0002:00000cb8       ??_C@_0DO@LJFOOPII@?$CIDestMax?5?$DM?$DN?5?$CI_gPcd_FixedAtBuild@ 0000000000016cb8     BaseLib:SafeString.obj
 0002:00000d00       ??_C@_0FL@CDANCHFO@InternalSafeStringNoAsciiStrOve@ 0000000000016d00     BaseLib:SafeString.obj
 0002:00000d60       ??_C@_0O@DIHNCLLG@AsciiStrnCpyS@ 0000000000016d60     BaseLib:SafeString.obj
 0002:00000d70       ??_C@_0DN@DLAADCJE@?$CILength?5?$DM?$DN?5?$CI_gPcd_FixedAtBuild_@ 0000000000016d70     BaseLib:SafeString.obj
 0002:00000db0       ??_C@_0DI@MBLLHEOH@D?3?2develop?2EDK2?2edk2?2MdePkg?2Lib@ 0000000000016db0     BaseLib:Unaligned.obj
 0002:00000de8       ??_C@_0L@MEMPDLHB@Count?5?$DM?564@ 0000000000016de8     BaseLib:LShiftU64.obj
 0002:00000df8       ??_C@_0DI@FAGDBCDM@D?3?2develop?2EDK2?2edk2?2MdePkg?2Lib@ 0000000000016df8     BaseLib:LShiftU64.obj
 0002:00000e84       __volatile_metadata        0000000000016e84     <linker-defined>
 0003:00000000       gEfiLoadedImageProtocolGuid 0000000000018000     ReportStatusCodeRouterRuntimeDxe:AutoGen.obj
 0003:00000010       gEfiStatusCodeSpecificDataGuid 0000000000018010     ReportStatusCodeRouterRuntimeDxe:AutoGen.obj
 0003:00000020       gEfiStatusCodeRuntimeProtocolGuid 0000000000018020     ReportStatusCodeRouterRuntimeDxe:AutoGen.obj
 0003:00000030       gEfiCallerBaseName         0000000000018030     ReportStatusCodeRouterRuntimeDxe:AutoGen.obj
 0003:00000038       gEfiStatusCodeDataTypeDebugGuid 0000000000018038     ReportStatusCodeRouterRuntimeDxe:AutoGen.obj
 0003:00000048       gEfiRscHandlerProtocolGuid 0000000000018048     ReportStatusCodeRouterRuntimeDxe:AutoGen.obj
 0003:00000058       gEfiTimerArchProtocolGuid  0000000000018058     ReportStatusCodeRouterRuntimeDxe:AutoGen.obj
 0003:00000068       gEfiHobListGuid            0000000000018068     ReportStatusCodeRouterRuntimeDxe:AutoGen.obj
 0003:00000078       gEfiEventVirtualAddressChangeGuid 0000000000018078     ReportStatusCodeRouterRuntimeDxe:AutoGen.obj
 0003:00000088       gEfiCallerIdGuid           0000000000018088     ReportStatusCodeRouterRuntimeDxe:AutoGen.obj
 0003:00000098       gEmuThunkProtocolGuid      0000000000018098     ReportStatusCodeRouterRuntimeDxe:AutoGen.obj
 0003:000000a8       mCallbackListHead          00000000000180a8     ReportStatusCodeRouterRuntimeDxe:ReportStatusCodeRouterRuntimeDxe.obj
 0003:000000b8       mStatusCodeProtocol        00000000000180b8     ReportStatusCodeRouterRuntimeDxe:ReportStatusCodeRouterRuntimeDxe.obj
 0003:000000c0       mRscHandlerProtocol        00000000000180c0     ReportStatusCodeRouterRuntimeDxe:ReportStatusCodeRouterRuntimeDxe.obj
 0003:000000d0       mStatusCodeNestStatus      00000000000180d0     ReportStatusCodeRouterRuntimeDxe:ReportStatusCodeRouterRuntimeDxe.obj
 0003:000000d8       mHandle                    00000000000180d8     ReportStatusCodeRouterRuntimeDxe:ReportStatusCodeRouterRuntimeDxe.obj
 0003:000000e0       mVirtualAddressChangeEvent 00000000000180e0     ReportStatusCodeRouterRuntimeDxe:ReportStatusCodeRouterRuntimeDxe.obj
 0003:000000e8       gST                        00000000000180e8     UefiBootServicesTableLib:UefiBootServicesTableLib.obj
 0003:000000f0       gBS                        00000000000180f0     UefiBootServicesTableLib:UefiBootServicesTableLib.obj
 0003:000000f8       gImageHandle               00000000000180f8     UefiBootServicesTableLib:UefiBootServicesTableLib.obj
 0003:00000100       gRT                        0000000000018100     UefiRuntimeServicesTableLib:UefiRuntimeServicesTableLib.obj
 0003:00000108       mHobList                   0000000000018108     DxeHobLib:HobLib.obj
 0003:00000110       gEmuThunk                  0000000000018110     DxeEmuLib:DxeEmuLib.obj
 0003:00000138       mEfiAtRuntime              0000000000018138     UefiRuntimeLib:RuntimeLib.obj
 0003:00000139       mEfiGoneVirtual            0000000000018139     UefiRuntimeLib:RuntimeLib.obj
 0003:00000140       mReportStatusCodeLibStatusCodeProtocol 0000000000018140     DxeReportStatusCodeLib:ReportStatusCodeLib.obj
 0003:00000150       __security_cookie          0000000000018150     StackCheckLibNull:StackCheckLibNullMsvc.obj
 0003:00000158       mEfiVirtualNotifyEvent     0000000000018158     <common>
 0003:00000160       mInternalRT                0000000000018160     <common>
 0003:00000168       mEfiExitBootServicesEvent  0000000000018168     <common>

 entry point at        0001:0000008c

 Static symbols

 0001:0000002f       AsmCpuid.0                 000000000001102f     BaseLib:CpuId.obj
 0001:00000034       AsmCpuid.1                 0000000000011034     BaseLib:CpuId.obj
 0001:0000003b       AsmCpuid.2                 000000000001103b     BaseLib:CpuId.obj
 0001:00000044       AsmCpuid.3                 0000000000011044     BaseLib:CpuId.obj
 0003:00000118       gRegistration              0000000000018118     EmuDxeTimerLib:DxeTimerLib.obj
 0003:00000120       gTimerEvent                0000000000018120     EmuDxeTimerLib:DxeTimerLib.obj
 0003:00000128       gTimerPeriod               0000000000018128     EmuDxeTimerLib:DxeTimerLib.obj
 0003:00000130       gTimerAp                   0000000000018130     EmuDxeTimerLib:DxeTimerLib.obj
 0003:00000148       mDeadLoopComparator        0000000000018148     BaseLib:CpuDeadLoop.obj
 0005:00000000       $unwind$IsListEmpty        000000000001a000     BaseLib:LinkedList.obj
 0005:00000000       $unwind$AsciiStrLen        000000000001a000     BaseLib:String.obj
 0005:00000000       $unwind$GetFirstGuidHob    000000000001a000     DxeHobLib:HobLib.obj
 0005:00000000       $unwind$_DriverUnloadHandler 000000000001a000     UefiDriverEntryPoint:DriverEntryPoint.obj
 0005:00000000       $unwind$FreePool           000000000001a000     UefiMemoryAllocationLib:MemoryAllocationLib.obj
 0005:00000008       $unwind$DxeEmuLibConstructor 000000000001a008     DxeEmuLib:DxeEmuLib.obj
 0005:00000008       $unwind$DxeTimerLibConstructor 000000000001a008     EmuDxeTimerLib:DxeTimerLib.obj
 0005:00000008       $unwind$ProcessLibraryConstructorList 000000000001a008     ReportStatusCodeRouterRuntimeDxe:AutoGen.obj
 0005:00000008       $unwind$ProcessLibraryDestructorList 000000000001a008     ReportStatusCodeRouterRuntimeDxe:AutoGen.obj
 0005:00000008       $unwind$IsNull             000000000001a008     BaseLib:LinkedList.obj
 0005:00000008       $unwind$GetNextGuidHob     000000000001a008     DxeHobLib:HobLib.obj
 0005:00000008       $unwind$GetNextHob         000000000001a008     DxeHobLib:HobLib.obj
 0005:00000008       $unwind$_ModuleEntryPoint  000000000001a008     UefiDriverEntryPoint:DriverEntryPoint.obj
 0005:00000008       $unwind$EfiGetSystemConfigurationTable 000000000001a008     UefiLib:UefiLib.obj
 0005:00000008       $unwind$RuntimeDriverLibDeconstruct 000000000001a008     UefiRuntimeLib:RuntimeLib.obj
 0005:00000010       $unwind$ProcessModuleEntryPointList 000000000001a010     ReportStatusCodeRouterRuntimeDxe:AutoGen.obj
 0005:00000010       $unwind$LShiftU64          000000000001a010     BaseLib:LShiftU64.obj
 0005:00000010       $unwind$GetNextNode        000000000001a010     BaseLib:LinkedList.obj
 0005:00000010       $unwind$InsertTailList     000000000001a010     BaseLib:LinkedList.obj
 0005:00000010       $unwind$WriteUnaligned64   000000000001a010     BaseLib:Unaligned.obj
 0005:00000010       $unwind$InternalMemZeroMem 000000000001a010     BaseMemoryLib:MemLibGeneric.obj
 0005:00000010       $unwind$CopyGuid           000000000001a010     BaseMemoryLib:MemLibGuid.obj
 0005:00000010       $unwind$ZeroMem            000000000001a010     BaseMemoryLib:ZeroMemWrapper.obj
 0005:00000010       $unwind$HobLibConstructor  000000000001a010     DxeHobLib:HobLib.obj
 0005:00000010       $unwind$UefiBootServicesTableLibConstructor 000000000001a010     UefiBootServicesTableLib:UefiBootServicesTableLib.obj
 0005:00000010       $unwind$EfiConvertFunctionPointer 000000000001a010     UefiRuntimeLib:RuntimeLib.obj
 0005:00000010       $unwind$EfiConvertPointer  000000000001a010     UefiRuntimeLib:RuntimeLib.obj
 0005:00000010       $unwind$RuntimeLibVirtualNotifyEvent 000000000001a010     UefiRuntimeLib:RuntimeLib.obj
 0005:00000010       $unwind$UefiRuntimeServicesTableLibConstructor 000000000001a010     UefiRuntimeServicesTableLib:UefiRuntimeServicesTableLib.obj
 0005:00000018       $unwind$RscHandlerNotification 000000000001a018     ReportStatusCodeRouterRuntimeDxe:ReportStatusCodeRouterRuntimeDxe.obj
 0005:00000018       $unwind$VirtualAddressChangeCallBack 000000000001a018     ReportStatusCodeRouterRuntimeDxe:ReportStatusCodeRouterRuntimeDxe.obj
 0005:00000018       $unwind$CompareGuid        000000000001a018     BaseMemoryLib:MemLibGuid.obj
 0005:00000020       $unwind$Register           000000000001a020     ReportStatusCodeRouterRuntimeDxe:ReportStatusCodeRouterRuntimeDxe.obj
 0005:00000028       $unwind$Unregister         000000000001a028     ReportStatusCodeRouterRuntimeDxe:ReportStatusCodeRouterRuntimeDxe.obj
 0005:00000028       $unwind$InternalBaseLibIsListValid 000000000001a028     BaseLib:LinkedList.obj
 0005:00000030       $unwind$ReportDispatcher   000000000001a030     ReportStatusCodeRouterRuntimeDxe:ReportStatusCodeRouterRuntimeDxe.obj
 0005:00000038       $unwind$RegisterTimerArchProtocol 000000000001a038     EmuDxeTimerLib:DxeTimerLib.obj
 0005:00000038       $unwind$GenericStatusCodeRuntimeDxeEntry 000000000001a038     ReportStatusCodeRouterRuntimeDxe:ReportStatusCodeRouterRuntimeDxe.obj
 0005:00000038       $unwind$IsNodeInList       000000000001a038     BaseLib:LinkedList.obj
 0005:00000038       $unwind$EfiConvertList     000000000001a038     UefiRuntimeLib:RuntimeLib.obj
 0005:00000038       $unwind$RuntimeDriverLibConstruct 000000000001a038     UefiRuntimeLib:RuntimeLib.obj
 0005:00000040       $unwind$GetFirstNode       000000000001a040     BaseLib:LinkedList.obj
 0005:00000040       $unwind$RemoveEntryList    000000000001a040     BaseLib:LinkedList.obj
 0005:00000040       $unwind$AsciiStrSize       000000000001a040     BaseLib:String.obj
 0005:00000040       $unwind$ReadUnaligned64    000000000001a040     BaseLib:Unaligned.obj
 0005:00000040       $unwind$AllocatePool       000000000001a040     UefiMemoryAllocationLib:MemoryAllocationLib.obj
 0005:00000040       $unwind$AllocateRuntimeZeroPool 000000000001a040     UefiMemoryAllocationLib:MemoryAllocationLib.obj
 0005:00000048       $unwind$DebugPrint         000000000001a048     PeiDxeDebugLibReportStatusCode:DebugLib.obj
 0005:00000048       $unwind$InternalSafeStringNoAsciiStrOverlap 000000000001a048     BaseLib:SafeString.obj
 0005:00000050       $unwind$DebugPrintMarker   000000000001a050     PeiDxeDebugLibReportStatusCode:DebugLib.obj
 0005:00000060       $unwind$DebugVPrint        000000000001a060     PeiDxeDebugLibReportStatusCode:DebugLib.obj
 0005:00000060       $unwind$CopyMem            000000000001a060     BaseMemoryLib:CopyMemWrapper.obj
 0005:00000060       $unwind$ReallocatePool     000000000001a060     UefiMemoryAllocationLib:MemoryAllocationLib.obj
 0005:00000068       $unwind$DebugAssert        000000000001a068     PeiDxeDebugLibReportStatusCode:DebugLib.obj
 0005:00000078       $unwind$ReportDebugCodeEnabled 000000000001a078     DxeReportStatusCodeLib:ReportStatusCodeLib.obj
 0005:00000078       $unwind$ReportErrorCodeEnabled 000000000001a078     DxeReportStatusCodeLib:ReportStatusCodeLib.obj
 0005:00000078       $unwind$ReportProgressCodeEnabled 000000000001a078     DxeReportStatusCodeLib:ReportStatusCodeLib.obj
 0005:00000078       $unwind$DebugAssertEnabled 000000000001a078     PeiDxeDebugLibReportStatusCode:DebugLib.obj
 0005:00000078       $unwind$DebugPrintEnabled  000000000001a078     PeiDxeDebugLibReportStatusCode:DebugLib.obj
 0005:00000080       $unwind$DebugPrintLevelEnabled 000000000001a080     PeiDxeDebugLibReportStatusCode:DebugLib.obj
 0005:00000088       $unwind$InternalMemCopyMem 000000000001a088     BaseMemoryLib:CopyMem.obj
 0005:00000090       $unwind$InternalMemSetMem  000000000001a090     BaseMemoryLib:SetMem.obj
 0005:00000098       $unwind$MultU64x32         000000000001a098     BaseLib:MultU64x32.obj
 0005:00000098       $unwind$InternalAllocatePool 000000000001a098     UefiMemoryAllocationLib:MemoryAllocationLib.obj
 0005:00000098       $unwind$InternalAllocateZeroPool 000000000001a098     UefiMemoryAllocationLib:MemoryAllocationLib.obj
 0005:000000a0       $unwind$InternalReallocatePool 000000000001a0a0     UefiMemoryAllocationLib:MemoryAllocationLib.obj
 0005:000000a8       $unwind$EfiCreateProtocolNotifyEvent 000000000001a0a8     UefiLib:UefiLib.obj
 0005:000000b0       $unwind$InternalGetReportStatusCode 000000000001a0b0     DxeReportStatusCodeLib:ReportStatusCodeLib.obj
 0005:000000b0       $unwind$CpuDeadLoop        000000000001a0b0     BaseLib:CpuDeadLoop.obj
 0005:000000b0       $unwind$GetHobList         000000000001a0b0     DxeHobLib:HobLib.obj
 0005:000000b0       $unwind$EfiGetCurrentTpl   000000000001a0b0     UefiLib:UefiLib.obj
 0005:000000b8       $unwind$InterlockedCompareExchange32 000000000001a0b8     BaseSynchronizationLib:SynchronizationMsc.obj
 0005:000000c0       $unwind$InternalSyncCompareExchange32 000000000001a0c0     BaseSynchronizationLib:InterlockedCompareExchange32.obj
 0005:000000c8       $unwind$InternalReportStatusCode 000000000001a0c8     DxeReportStatusCodeLib:ReportStatusCodeLib.obj
 0005:000000d0       $unwind$ReportStatusCodeEx 000000000001a0d0     DxeReportStatusCodeLib:ReportStatusCodeLib.obj
 0005:000000e0       $unwind$AsciiStrnLenS      000000000001a0e0     BaseLib:SafeString.obj
 0005:000000e8       $unwind$AsciiStrnCpyS      000000000001a0e8     BaseLib:SafeString.obj
