 UefiPxeBcDxe

 Timestamp is 68f5fe9a (Mon Oct 20 17:19:22 2025)

 Preferred load address is 0000000000010000

 Start         Length     Name                   Class
 0001:00000000 00000014H .text                   CODE
 0001:00000014 0001eedbH .text$mn                CODE
 0002:00000000 00002920H .rdata                  DATA
 0002:00002920 00000018H .rdata$voltmd           DATA
 0002:00002938 00000150H .rdata$zzzdbg           DATA
 0003:00000000 00000548H .data                   DATA
 0003:00000548 00000050H .bss                    DATA
 0004:00000000 00000b7cH .pdata                  DATA
 0005:00000000 00000398H .xdata                  DATA

  Address         Publics by Value              Rva+Base               Lib:Object

 0000:00000000       __arm64x_redirection_metadata 0000000000000000     <absolute>
 0000:00000000       __x64_code_ranges_to_entry_points_count 0000000000000000     <absolute>
 0000:00000000       __guard_iat_count          0000000000000000     <absolute>
 0000:00000000       __guard_longjmp_count      0000000000000000     <absolute>
 0000:00000000       __guard_longjmp_table      0000000000000000     <absolute>
 0000:00000000       __dynamic_value_reloc_table 0000000000000000     <absolute>
 0000:00000000       __x64_code_ranges_to_entry_points 0000000000000000     <absolute>
 0000:00000000       __guard_fids_count         0000000000000000     <absolute>
 0000:00000000       __hybrid_auxiliary_iat     0000000000000000     <absolute>
 0000:00000000       __arm64x_extra_rfe_table   0000000000000000     <absolute>
 0000:00000000       __hybrid_auxiliary_iat_copy 0000000000000000     <absolute>
 0000:00000000       __guard_iat_table          0000000000000000     <absolute>
 0000:00000000       __hybrid_code_map          0000000000000000     <absolute>
 0000:00000000       __arm64x_extra_rfe_table_size 0000000000000000     <absolute>
 0000:00000000       __AbsoluteZero             0000000000000000     <absolute>
 0000:00000000       __guard_check_icall_a64n_fptr 0000000000000000     <absolute>
 0000:00000000       __guard_fids_table         0000000000000000     <absolute>
 0000:00000000       __guard_flags              0000000000000000     <absolute>
 0000:00000000       __guard_eh_cont_count      0000000000000000     <absolute>
 0000:00000000       __arm64x_redirection_metadata_count 0000000000000000     <absolute>
 0000:00000000       __enclave_config           0000000000000000     <absolute>
 0000:00000000       __guard_eh_cont_table      0000000000000000     <absolute>
 0000:00000000       __arm64x_native_entrypoint 0000000000000000     <absolute>
 0000:00000000       __hybrid_code_map_count    0000000000000000     <absolute>
 0001:00000000       CpuPause                   0000000000011000     BaseLib:CpuPause.obj
 0001:00000010       __report_rangecheckfailure 0000000000011010     StackCheckLibNull:StackCheckFunctionsMsvc.obj
 0001:00000011       __GSHandlerCheck           0000000000011011     StackCheckLibNull:StackCheckFunctionsMsvc.obj
 0001:00000012       __security_check_cookie    0000000000011012     StackCheckLibNull:StackCheckFunctionsMsvc.obj
 0001:00000014       _DriverUnloadHandler       0000000000011014 f   UefiDriverEntryPoint:DriverEntryPoint.obj
 0001:00000058       _ModuleEntryPoint          0000000000011058 f   UefiDriverEntryPoint:DriverEntryPoint.obj
 0001:00000198       ProcessLibraryConstructorList 0000000000011198 f   UefiPxeBcDxe:AutoGen.obj
 0001:000003e4       ProcessLibraryDestructorList 00000000000113e4 f   UefiPxeBcDxe:AutoGen.obj
 0001:000003f0       ProcessModuleEntryPointList 00000000000113f0 f   UefiPxeBcDxe:AutoGen.obj
 0001:00000414       ProcessModuleUnloadList    0000000000011414 f   UefiPxeBcDxe:AutoGen.obj
 0001:0000042c       PxeBcGetNicByIp4Children   000000000001142c f   UefiPxeBcDxe:PxeBcDriver.obj
 0001:000004dc       PxeBcGetNicByIp6Children   00000000000114dc f   UefiPxeBcDxe:PxeBcDriver.obj
 0001:0000056c       PxeBcDestroyIp4Children    000000000001156c f   UefiPxeBcDxe:PxeBcDriver.obj
 0001:000009b0       PxeBcDestroyIp6Children    00000000000119b0 f   UefiPxeBcDxe:PxeBcDriver.obj
 0001:00000dcc       PxeBcCheckIpv6Support      0000000000011dcc f   UefiPxeBcDxe:PxeBcDriver.obj
 0001:00001034       PxeBcCreateIp4Children     0000000000012034 f   UefiPxeBcDxe:PxeBcDriver.obj
 0001:0000193c       PxeBcCreateIp6Children     000000000001293c f   UefiPxeBcDxe:PxeBcDriver.obj
 0001:00002378       PxeBcDriverEntryPoint      0000000000013378 f   UefiPxeBcDxe:PxeBcDriver.obj
 0001:00002474       PxeBcSupported             0000000000013474 f   UefiPxeBcDxe:PxeBcDriver.obj
 0001:000025b4       PxeBcStart                 00000000000135b4 f   UefiPxeBcDxe:PxeBcDriver.obj
 0001:00002960       PxeBcStop                  0000000000013960 f   UefiPxeBcDxe:PxeBcDriver.obj
 0001:00002d04       PxeBcIp4DriverBindingSupported 0000000000013d04 f   UefiPxeBcDxe:PxeBcDriver.obj
 0001:00002d34       PxeBcIp4DriverBindingStart 0000000000013d34 f   UefiPxeBcDxe:PxeBcDriver.obj
 0001:00002d64       PxeBcIp4DriverBindingStop  0000000000013d64 f   UefiPxeBcDxe:PxeBcDriver.obj
 0001:00002da0       PxeBcIp6DriverBindingSupported 0000000000013da0 f   UefiPxeBcDxe:PxeBcDriver.obj
 0001:00002dd0       PxeBcIp6DriverBindingStart 0000000000013dd0 f   UefiPxeBcDxe:PxeBcDriver.obj
 0001:00002e00       PxeBcIp6DriverBindingStop  0000000000013e00 f   UefiPxeBcDxe:PxeBcDriver.obj
 0001:00002e3c       EfiPxeBcStart              0000000000013e3c f   UefiPxeBcDxe:PxeBcImpl.obj
 0001:000035a0       EfiPxeBcStop               00000000000145a0 f   UefiPxeBcDxe:PxeBcImpl.obj
 0001:00003af8       EfiPxeBcDhcp               0000000000014af8 f   UefiPxeBcDxe:PxeBcImpl.obj
 0001:00003d7c       EfiPxeBcDiscover           0000000000014d7c f   UefiPxeBcDxe:PxeBcImpl.obj
 0001:00004634       EfiPxeBcMtftp              0000000000015634 f   UefiPxeBcDxe:PxeBcImpl.obj
 0001:00004cf8       EfiPxeBcUdpWrite           0000000000015cf8 f   UefiPxeBcDxe:PxeBcImpl.obj
 0001:0000532c       EfiPxeBcUdpRead            000000000001632c f   UefiPxeBcDxe:PxeBcImpl.obj
 0001:00005f14       EfiPxeBcSetIpFilter        0000000000016f14 f   UefiPxeBcDxe:PxeBcImpl.obj
 0001:000065c4       EfiPxeBcArp                00000000000175c4 f   UefiPxeBcDxe:PxeBcImpl.obj
 0001:00006908       EfiPxeBcSetParameters      0000000000017908 f   UefiPxeBcDxe:PxeBcImpl.obj
 0001:00006bd4       EfiPxeBcSetStationIP       0000000000017bd4 f   UefiPxeBcDxe:PxeBcImpl.obj
 0001:00006efc       EfiPxeBcSetPackets         0000000000017efc f   UefiPxeBcDxe:PxeBcImpl.obj
 0001:00007178       EfiPxeLoadFileCallback     0000000000018178 f   UefiPxeBcDxe:PxeBcImpl.obj
 0001:00007288       EfiPxeLoadFile             0000000000018288 f   UefiPxeBcDxe:PxeBcImpl.obj
 0001:00007538       PxeBcComponentNameGetDriverName 0000000000018538 f   UefiPxeBcDxe:ComponentName.obj
 0001:00007594       PxeBcComponentNameGetControllerName 0000000000018594 f   UefiPxeBcDxe:ComponentName.obj
 0001:000076a0       PxeBcFlushStationIp        00000000000186a0 f   UefiPxeBcDxe:PxeBcSupport.obj
 0001:00007b24       PxeBcCommonNotify          0000000000018b24 f   UefiPxeBcDxe:PxeBcSupport.obj
 0001:00007b38       PxeBcCheckArpCache         0000000000018b38 f   UefiPxeBcDxe:PxeBcSupport.obj
 0001:00007c0c       PxeBcArpCacheUpdate        0000000000018c0c f   UefiPxeBcDxe:PxeBcSupport.obj
 0001:00007dc8       PxeBcIcmpErrorDpcHandle    0000000000018dc8 f   UefiPxeBcDxe:PxeBcSupport.obj
 0001:00008160       PxeBcIcmpErrorUpdate       0000000000019160 f   UefiPxeBcDxe:PxeBcSupport.obj
 0001:0000818c       PxeBcIcmp6ErrorDpcHandle   000000000001918c f   UefiPxeBcDxe:PxeBcSupport.obj
 0001:0000845c       PxeBcIcmp6ErrorUpdate      000000000001945c f   UefiPxeBcDxe:PxeBcSupport.obj
 0001:00008488       PxeBcConfigUdp4Write       0000000000019488 f   UefiPxeBcDxe:PxeBcSupport.obj
 0001:00008660       PxeBcConfigUdp6Write       0000000000019660 f   UefiPxeBcDxe:PxeBcSupport.obj
 0001:00008790       PxeBcUdp4Write             0000000000019790 f   UefiPxeBcDxe:PxeBcSupport.obj
 0001:00008a3c       PxeBcUdp6Write             0000000000019a3c f   UefiPxeBcDxe:PxeBcSupport.obj
 0001:00008ccc       PxeBcCheckByIpFilter       0000000000019ccc f   UefiPxeBcDxe:PxeBcSupport.obj
 0001:00008f5c       PxeBcCheckByDestIp         0000000000019f5c f   UefiPxeBcDxe:PxeBcSupport.obj
 0001:00009090       PxeBcCheckByDestPort       000000000001a090 f   UefiPxeBcDxe:PxeBcSupport.obj
 0001:0000911c       PxeBcFilterBySrcIp         000000000001a11c f   UefiPxeBcDxe:PxeBcSupport.obj
 0001:000091ec       PxeBcFilterBySrcPort       000000000001a1ec f   UefiPxeBcDxe:PxeBcSupport.obj
 0001:00009278       PxeBcUdp4Read              000000000001a278 f   UefiPxeBcDxe:PxeBcSupport.obj
 0001:00009534       PxeBcUdp6Read              000000000001a534 f   UefiPxeBcDxe:PxeBcSupport.obj
 0001:000097f0       PxeBcShowIp4Addr           000000000001a7f0 f   UefiPxeBcDxe:PxeBcSupport.obj
 0001:00009858       PxeBcShowIp6Addr           000000000001a858 f   UefiPxeBcDxe:PxeBcSupport.obj
 0001:00009954       PxeBcUintnToAscDecWithFormat 000000000001a954 f   UefiPxeBcDxe:PxeBcSupport.obj
 0001:000099cc       PxeBcUintnToAscDec         000000000001a9cc f   UefiPxeBcDxe:PxeBcSupport.obj
 0001:00009ac8       PxeBcUniHexToUint8         000000000001aac8 f   UefiPxeBcDxe:PxeBcSupport.obj
 0001:00009b54       CalcElapsedTime            000000000001ab54 f   UefiPxeBcDxe:PxeBcSupport.obj
 0001:00009c78       PxeBcDisplayBootItem       000000000001ac78 f   UefiPxeBcDxe:PxeBcBoot.obj
 0001:00009cf0       PxeBcSelectBootPrompt      000000000001acf0 f   UefiPxeBcDxe:PxeBcBoot.obj
 0001:0000a27c       PxeBcSelectBootMenu        000000000001b27c f   UefiPxeBcDxe:PxeBcBoot.obj
 0001:0000ab64       PxeBcDhcp4BootInfo         000000000001bb64 f   UefiPxeBcDxe:PxeBcBoot.obj
 0001:0000aeec       PxeBcDhcp6BootInfo         000000000001beec f   UefiPxeBcDxe:PxeBcBoot.obj
 0001:0000b1ec       PxeBcExtractDiscoverInfo   000000000001c1ec f   UefiPxeBcDxe:PxeBcBoot.obj
 0001:0000b660       PxeBcDiscoverBootServer    000000000001c660 f   UefiPxeBcDxe:PxeBcBoot.obj
 0001:0000b6f4       PxeBcDiscoverBootFile      000000000001c6f4 f   UefiPxeBcDxe:PxeBcBoot.obj
 0001:0000b964       PxeBcInstallCallback       000000000001c964 f   UefiPxeBcDxe:PxeBcBoot.obj
 0001:0000baf8       PxeBcUninstallCallback     000000000001caf8 f   UefiPxeBcDxe:PxeBcBoot.obj
 0001:0000bbb4       PxeBcReadBootFileList      000000000001cbb4 f   UefiPxeBcDxe:PxeBcBoot.obj
 0001:0000bc6c       PxeBcLoadBootFile          000000000001cc6c f   UefiPxeBcDxe:PxeBcBoot.obj
 0001:0000c1c8       PxeBcParseDhcp4Options     000000000001d1c8 f   UefiPxeBcDxe:PxeBcDhcp4.obj
 0001:0000c260       PxeBcParseVendorOptions    000000000001d260 f   UefiPxeBcDxe:PxeBcDhcp4.obj
 0001:0000c69c       PxeBcBuildDhcp4Options     000000000001d69c f   UefiPxeBcDxe:PxeBcDhcp4.obj
 0001:0000ce68       PxeBcSeedDhcp4Packet       000000000001de68 f   UefiPxeBcDxe:PxeBcDhcp4.obj
 0001:0000cf74       PxeBcCacheDhcp6Packet      000000000001df74 f   UefiPxeBcDxe:PxeBcDhcp6.obj
 0001:0000cf74       PxeBcCacheDhcp4Packet      000000000001df74 f   UefiPxeBcDxe:PxeBcDhcp4.obj
 0001:0000cfe8       PxeBcParseDhcp4Packet      000000000001dfe8 f   UefiPxeBcDxe:PxeBcDhcp4.obj
 0001:0000d4a8       PxeBcCopyDhcp4Ack          000000000001e4a8 f   UefiPxeBcDxe:PxeBcDhcp4.obj
 0001:0000d564       PxeBcCopyProxyOffer        000000000001e564 f   UefiPxeBcDxe:PxeBcDhcp4.obj
 0001:0000d698       PxeBcRetryBinlOffer        000000000001e698 f   UefiPxeBcDxe:PxeBcDhcp4.obj
 0001:0000d954       PxeBcCacheDhcp4Offer       000000000001e954 f   UefiPxeBcDxe:PxeBcDhcp4.obj
 0001:0000dc94       PxeBcSelectDhcp4Offer      000000000001ec94 f   UefiPxeBcDxe:PxeBcDhcp4.obj
 0001:0000e104       PxeBcHandleDhcp4Offer      000000000001f104 f   UefiPxeBcDxe:PxeBcDhcp4.obj
 0001:0000e640       PxeBcDhcp4CallBack         000000000001f640 f   UefiPxeBcDxe:PxeBcDhcp4.obj
 0001:0000eaa4       PxeBcDhcp4Discover         000000000001faa4 f   UefiPxeBcDxe:PxeBcDhcp4.obj
 0001:0000f2f4       PxeBcSetIp4Policy          00000000000202f4 f   UefiPxeBcDxe:PxeBcDhcp4.obj
 0001:0000f39c       PxeBcDhcp4Dora             000000000002039c f   UefiPxeBcDxe:PxeBcDhcp4.obj
 0001:0000f808       PxeBcMtftp4CheckPacket     0000000000020808 f   UefiPxeBcDxe:PxeBcMtftp.obj
 0001:0000f808       PxeBcMtftp6CheckPacket     0000000000020808 f   UefiPxeBcDxe:PxeBcMtftp.obj
 0001:0000f92c       PxeBcMtftp6GetFileSize     000000000002092c f   UefiPxeBcDxe:PxeBcMtftp.obj
 0001:0000fdf8       PxeBcMtftp6ReadFile        0000000000020df8 f   UefiPxeBcDxe:PxeBcMtftp.obj
 0001:0001008c       PxeBcMtftp6WriteFile       000000000002108c f   UefiPxeBcDxe:PxeBcMtftp.obj
 0001:00010278       PxeBcMtftp6ReadDirectory   0000000000021278 f   UefiPxeBcDxe:PxeBcMtftp.obj
 0001:0001050c       PxeBcMtftp4GetFileSize     000000000002150c f   UefiPxeBcDxe:PxeBcMtftp.obj
 0001:000109d8       PxeBcMtftp4ReadFile        00000000000219d8 f   UefiPxeBcDxe:PxeBcMtftp.obj
 0001:00010c6c       PxeBcMtftp4WriteFile       0000000000021c6c f   UefiPxeBcDxe:PxeBcMtftp.obj
 0001:00010e58       PxeBcMtftp4ReadDirectory   0000000000021e58 f   UefiPxeBcDxe:PxeBcMtftp.obj
 0001:000110ec       PxeBcTftpGetFileSize       00000000000220ec f   UefiPxeBcDxe:PxeBcMtftp.obj
 0001:0001117c       PxeBcTftpReadFile          000000000002217c f   UefiPxeBcDxe:PxeBcMtftp.obj
 0001:0001123c       PxeBcTftpWriteFile         000000000002223c f   UefiPxeBcDxe:PxeBcMtftp.obj
 0001:000112e8       PxeBcTftpReadDirectory     00000000000222e8 f   UefiPxeBcDxe:PxeBcMtftp.obj
 0001:000113a8       PxeBcParseDhcp6Options     00000000000223a8 f   UefiPxeBcDxe:PxeBcDhcp6.obj
 0001:00011434       PxeBcBuildDhcp6Options     0000000000022434 f   UefiPxeBcDxe:PxeBcDhcp6.obj
 0001:0001187c       PxeBcDns6                  000000000002287c f   UefiPxeBcDxe:PxeBcDhcp6.obj
 0001:00011c18       PxeBcExtractBootFileUrl    0000000000022c18 f   UefiPxeBcDxe:PxeBcDhcp6.obj
 0001:000120d8       PxeBcExtractBootFileParam  00000000000230d8 f   UefiPxeBcDxe:PxeBcDhcp6.obj
 0001:000121ec       PxeBcParseDhcp6Packet      00000000000231ec f   UefiPxeBcDxe:PxeBcDhcp6.obj
 0001:000124dc       PxeBcCopyDhcp6Ack          00000000000234dc f   UefiPxeBcDxe:PxeBcDhcp6.obj
 0001:00012598       PxeBcCopyDhcp6Proxy        0000000000023598 f   UefiPxeBcDxe:PxeBcDhcp6.obj
 0001:000126cc       PxeBcDhcp6SeekOption       00000000000236cc f   UefiPxeBcDxe:PxeBcDhcp6.obj
 0001:00012788       PxeBcRequestBootService    0000000000023788 f   UefiPxeBcDxe:PxeBcDhcp6.obj
 0001:00012dc4       PxeBcRetryDhcp6Binl        0000000000023dc4 f   UefiPxeBcDxe:PxeBcDhcp6.obj
 0001:0001309c       PxeBcCacheDhcp6Offer       000000000002409c f   UefiPxeBcDxe:PxeBcDhcp6.obj
 0001:00013320       PxeBcSelectDhcp6Offer      0000000000024320 f   UefiPxeBcDxe:PxeBcDhcp6.obj
 0001:000136d8       PxeBcCacheDnsServerAddresses 00000000000246d8 f   UefiPxeBcDxe:PxeBcDhcp6.obj
 0001:000137b4       PxeBcHandleDhcp6Offer      00000000000247b4 f   UefiPxeBcDxe:PxeBcDhcp6.obj
 0001:00013bfc       PxeBcUnregisterIp6Address  0000000000024bfc f   UefiPxeBcDxe:PxeBcDhcp6.obj
 0001:00013c08       PxeBcCheckRouteTable       0000000000024c08 f   UefiPxeBcDxe:PxeBcDhcp6.obj
 0001:00013f90       PxeBcRegisterIp6Address    0000000000024f90 f   UefiPxeBcDxe:PxeBcDhcp6.obj
 0001:000143f0       PxeBcSetIp6Policy          00000000000253f0 f   UefiPxeBcDxe:PxeBcDhcp6.obj
 0001:000144b8       PxeBcSetIp6Address         00000000000254b8 f   UefiPxeBcDxe:PxeBcDhcp6.obj
 0001:000145d8       PxeBcDhcp6CallBack         00000000000255d8 f   UefiPxeBcDxe:PxeBcDhcp6.obj
 0001:00014abc       PxeBcDhcp6Discover         0000000000025abc f   UefiPxeBcDxe:PxeBcDhcp6.obj
 0001:0001501c       PxeBcDhcp6Sarr             000000000002601c f   UefiPxeBcDxe:PxeBcDhcp6.obj
 0001:000155c0       InternalGetReportStatusCode 00000000000265c0 f   DxeReportStatusCodeLib:ReportStatusCodeLib.obj
 0001:00015630       InternalReportStatusCode   0000000000026630 f   DxeReportStatusCodeLib:ReportStatusCodeLib.obj
 0001:000156e8       ReportStatusCodeWithExtendedData 00000000000266e8 f   DxeReportStatusCodeLib:ReportStatusCodeLib.obj
 0001:00015798       ReportStatusCodeEx         0000000000026798 f   DxeReportStatusCodeLib:ReportStatusCodeLib.obj
 0001:00015a14       ReportProgressCodeEnabled  0000000000026a14 f   DxeReportStatusCodeLib:ReportStatusCodeLib.obj
 0001:00015a38       ReportErrorCodeEnabled     0000000000026a38 f   DxeReportStatusCodeLib:ReportStatusCodeLib.obj
 0001:00015a5c       ReportDebugCodeEnabled     0000000000026a5c f   DxeReportStatusCodeLib:ReportStatusCodeLib.obj
 0001:00015a80       GetPcdProtocol             0000000000026a80 f   DxePcdLib:DxePcdLib.obj
 0001:00015b70       LibPcdGet8                 0000000000026b70 f   DxePcdLib:DxePcdLib.obj
 0001:00015b8c       IsDevicePathValid          0000000000026b8c f   UefiDevicePathLib:DevicePathUtilities.obj
 0001:00015cf8       DevicePathType             0000000000026cf8 f   UefiDevicePathLib:DevicePathUtilities.obj
 0001:00015d40       DevicePathSubType          0000000000026d40 f   UefiDevicePathLib:DevicePathUtilities.obj
 0001:00015d88       DevicePathNodeLength       0000000000026d88 f   UefiDevicePathLib:DevicePathUtilities.obj
 0001:00015de8       NextDevicePathNode         0000000000026de8 f   UefiDevicePathLib:DevicePathUtilities.obj
 0001:00015e40       IsDevicePathEndType        0000000000026e40 f   UefiDevicePathLib:DevicePathUtilities.obj
 0001:00015ea4       IsDevicePathEnd            0000000000026ea4 f   UefiDevicePathLib:DevicePathUtilities.obj
 0001:00015f1c       SetDevicePathNodeLength    0000000000026f1c f   UefiDevicePathLib:DevicePathUtilities.obj
 0001:00015fc0       SetDevicePathEndNode       0000000000026fc0 f   UefiDevicePathLib:DevicePathUtilities.obj
 0001:00016018       UefiDevicePathLibGetDevicePathSize 0000000000027018 f   UefiDevicePathLib:DevicePathUtilities.obj
 0001:000160a0       UefiDevicePathLibDuplicateDevicePath 00000000000270a0 f   UefiDevicePathLib:DevicePathUtilities.obj
 0001:000160d8       UefiDevicePathLibAppendDevicePath 00000000000270d8 f   UefiDevicePathLib:DevicePathUtilities.obj
 0001:000161f8       UefiDevicePathLibAppendDevicePathNode 00000000000271f8 f   UefiDevicePathLib:DevicePathUtilities.obj
 0001:000162c8       GetDevicePathSize          00000000000272c8 f   UefiDevicePathLib:UefiDevicePathLib.obj
 0001:000162e0       DuplicateDevicePath        00000000000272e0 f   UefiDevicePathLib:UefiDevicePathLib.obj
 0001:000162f8       AppendDevicePath           00000000000272f8 f   UefiDevicePathLib:UefiDevicePathLib.obj
 0001:0001631c       AppendDevicePathNode       000000000002731c f   UefiDevicePathLib:UefiDevicePathLib.obj
 0001:00016340       DevicePathFromHandle       0000000000027340 f   UefiDevicePathLib:DevicePathUtilitiesDxeSmm.obj
 0001:00016390       DebugPrint                 0000000000027390 f   PeiDxeDebugLibReportStatusCode:DebugLib.obj
 0001:000163d4       DebugPrintMarker           00000000000273d4 f   PeiDxeDebugLibReportStatusCode:DebugLib.obj
 0001:00016b7c       DebugVPrint                0000000000027b7c f   PeiDxeDebugLibReportStatusCode:DebugLib.obj
 0001:00016bac       DebugAssert                0000000000027bac f   PeiDxeDebugLibReportStatusCode:DebugLib.obj
 0001:00016f48       DebugAssertEnabled         0000000000027f48 f   PeiDxeDebugLibReportStatusCode:DebugLib.obj
 0001:00016f6c       DebugPrintEnabled          0000000000027f6c f   PeiDxeDebugLibReportStatusCode:DebugLib.obj
 0001:00016f90       DebugPrintLevelEnabled     0000000000027f90 f   PeiDxeDebugLibReportStatusCode:DebugLib.obj
 0001:00016fc4       InternalAllocatePool       0000000000027fc4 f   UefiMemoryAllocationLib:MemoryAllocationLib.obj
 0001:00017014       AllocatePool               0000000000028014 f   UefiMemoryAllocationLib:MemoryAllocationLib.obj
 0001:00017034       InternalAllocateZeroPool   0000000000028034 f   UefiMemoryAllocationLib:MemoryAllocationLib.obj
 0001:0001707c       AllocateZeroPool           000000000002807c f   UefiMemoryAllocationLib:MemoryAllocationLib.obj
 0001:0001709c       InternalAllocateCopyPool   000000000002809c f   UefiMemoryAllocationLib:MemoryAllocationLib.obj
 0001:00017160       AllocateCopyPool           0000000000028160 f   UefiMemoryAllocationLib:MemoryAllocationLib.obj
 0001:00017188       FreePool                   0000000000028188 f   UefiMemoryAllocationLib:MemoryAllocationLib.obj
 0001:00017224       CopyMem                    0000000000028224 f   BaseMemoryLib:CopyMemWrapper.obj
 0001:000172fc       ZeroMem                    00000000000282fc f   BaseMemoryLib:ZeroMemWrapper.obj
 0001:000173a4       CopyGuid                   00000000000283a4 f   BaseMemoryLib:MemLibGuid.obj
 0001:000173f8       CompareGuid                00000000000283f8 f   BaseMemoryLib:MemLibGuid.obj
 0001:00017480       CompareMem                 0000000000028480 f   BaseMemoryLib:CompareMemWrapper.obj
 0001:000175b4       SetMem                     00000000000285b4 f   BaseMemoryLib:SetMemWrapper.obj
 0001:00017634       InternalMemCopyMem         0000000000028634 f   BaseMemoryLib:CopyMem.obj
 0001:00017c10       InternalMemZeroMem         0000000000028c10 f   BaseMemoryLib:MemLibGeneric.obj
 0001:00017c38       InternalMemCompareMem      0000000000028c38 f   BaseMemoryLib:MemLibGeneric.obj
 0001:00017ca0       InternalMemSetMem          0000000000028ca0 f   BaseMemoryLib:SetMem.obj
 0001:00017e34       SwapBytes32                0000000000028e34 f   BaseLib:SwapBytes32.obj
 0001:00017e74       MultU64x32                 0000000000028e74 f   BaseLib:MultU64x32.obj
 0001:00017ea0       InternalIsDecimalDigitCharacter 0000000000028ea0 f   BaseLib:String.obj
 0001:00017ed0       InternalAsciiIsDecimalDigitCharacter 0000000000028ed0 f   BaseLib:String.obj
 0001:00017f00       InternalAsciiIsHexaDecimalDigitCharacter 0000000000028f00 f   BaseLib:String.obj
 0001:00017f58       AsciiStrLen                0000000000028f58 f   BaseLib:String.obj
 0001:00018010       AsciiStrSize               0000000000029010 f   BaseLib:String.obj
 0001:0001802c       AsciiCharToUpper           000000000002902c f   BaseLib:String.obj
 0001:00018068       InternalAsciiHexCharToUintn 0000000000029068 f   BaseLib:String.obj
 0001:000180a8       AsciiStrnCmp               00000000000290a8 f   BaseLib:String.obj
 0001:000181f4       AsciiStrStr                00000000000291f4 f   BaseLib:String.obj
 0001:00018328       AsciiStrDecimalToUint64    0000000000029328 f   BaseLib:String.obj
 0001:0001836c       AsciiStrHexToUintn         000000000002936c f   BaseLib:String.obj
 0001:000183b0       DivU64x32                  00000000000293b0 f   BaseLib:DivU64x32.obj
 0001:00018404       InternalSafeStringIsOverlap 0000000000029404 f   BaseLib:SafeString.obj
 0001:00018468       InternalSafeStringNoAsciiStrOverlap 0000000000029468 f   BaseLib:SafeString.obj
 0001:000184bc       StrnLenS                   00000000000294bc f   BaseLib:SafeString.obj
 0001:00018560       AsciiStrnLenS              0000000000029560 f   BaseLib:SafeString.obj
 0001:000185cc       AsciiStrCpyS               00000000000295cc f   BaseLib:SafeString.obj
 0001:000189c4       AsciiStrnCpyS              00000000000299c4 f   BaseLib:SafeString.obj
 0001:00018eb4       AsciiStrDecimalToUintnS    0000000000029eb4 f   BaseLib:SafeString.obj
 0001:000191c4       AsciiStrDecimalToUint64S   000000000002a1c4 f   BaseLib:SafeString.obj
 0001:000194e0       AsciiStrHexToUintnS        000000000002a4e0 f   BaseLib:SafeString.obj
 0001:00019860       AsciiStrToUnicodeStrS      000000000002a860 f   BaseLib:SafeString.obj
 0001:00019d3c       AsciiStrToIpv6Address      000000000002ad3c f   BaseLib:SafeString.obj
 0001:0001a268       SwapBytes16                000000000002b268 f   BaseLib:SwapBytes16.obj
 0001:0001a280       ReadUnaligned16            000000000002b280 f   BaseLib:Unaligned.obj
 0001:0001a2c8       WriteUnaligned16           000000000002b2c8 f   BaseLib:Unaligned.obj
 0001:0001a320       ReadUnaligned24            000000000002b320 f   BaseLib:Unaligned.obj
 0001:0001a36c       ReadUnaligned32            000000000002b36c f   BaseLib:Unaligned.obj
 0001:0001a3b4       ReadUnaligned64            000000000002b3b4 f   BaseLib:Unaligned.obj
 0001:0001a3fc       WriteUnaligned64           000000000002b3fc f   BaseLib:Unaligned.obj
 0001:0001a454       SwapBytes64                000000000002b454 f   BaseLib:SwapBytes64.obj
 0001:0001a46c       LShiftU64                  000000000002b46c f   BaseLib:LShiftU64.obj
 0001:0001a4c0       CpuBreakpoint              000000000002b4c0 f   BaseLib:CpuBreakpoint.obj
 0001:0001a4c4       CpuDeadLoop                000000000002b4c4 f   BaseLib:CpuDeadLoop.obj
 0001:0001a4f4       InternalMathLShiftU64      000000000002b4f4 f   BaseLib:Math64.obj
 0001:0001a510       InternalMathSwapBytes64    000000000002b510 f   BaseLib:Math64.obj
 0001:0001a554       InternalMathMultU64x32     000000000002b554 f   BaseLib:Math64.obj
 0001:0001a570       InternalMathDivU64x32      000000000002b570 f   BaseLib:Math64.obj
 0001:0001a598       InternalMathDivRemU64x32   000000000002b598 f   BaseLib:Math64.obj
 0001:0001a5f0       UefiBootServicesTableLibConstructor 000000000002b5f0 f   UefiBootServicesTableLib:UefiBootServicesTableLib.obj
 0001:0001a6cc       UefiRuntimeServicesTableLibConstructor 000000000002b6cc f   UefiRuntimeServicesTableLib:UefiRuntimeServicesTableLib.obj
 0001:0001a728       UefiLibConstructor         000000000002b728 f   UefiLib:UefiLib.obj
 0001:0001a738       CompareIso639LanguageCode  000000000002b738 f   UefiLib:UefiLib.obj
 0001:0001a784       EfiGetSystemConfigurationTable 000000000002b784 f   UefiLib:UefiLib.obj
 0001:0001a890       IsLanguageSupported        000000000002b890 f   UefiLib:UefiLib.obj
 0001:0001a980       LookupUnicodeString2       000000000002b980 f   UefiLib:UefiLib.obj
 0001:0001ab90       EfiLibInstallDriverBindingComponentName2 000000000002bb90 f   UefiLib:UefiDriverModel.obj
 0001:0001ade4       EfiLibUninstallDriverBindingComponentName2 000000000002bde4 f   UefiLib:UefiDriverModel.obj
 0001:0001aff8       AsciiInternalPrint         000000000002bff8 f   UefiLib:UefiLibPrint.obj
 0001:0001b13c       AsciiPrint                 000000000002c13c f   UefiLib:UefiLibPrint.obj
 0001:0001b1c4       NetGetMaskLength           000000000002c1c4 f   DxeNetLib:DxeNetLib.obj
 0001:0001b20c       NetIp4IsUnicast            000000000002c20c f   DxeNetLib:DxeNetLib.obj
 0001:0001b2e4       NetIp6IsValidUnicast       000000000002c2e4 f   DxeNetLib:DxeNetLib.obj
 0001:0001b3a0       NetIp6IsUnspecifiedAddr    000000000002c3a0 f   DxeNetLib:DxeNetLib.obj
 0001:0001b418       NetIp6IsNetEqual           000000000002c418 f   DxeNetLib:DxeNetLib.obj
 0001:0001b578       Ip6Swap128                 000000000002c578 f   DxeNetLib:DxeNetLib.obj
 0001:0001b654       PseudoRandom               000000000002c654 f   DxeNetLib:DxeNetLib.obj
 0001:0001bae0       PseudoRandomU32            000000000002cae0 f   DxeNetLib:DxeNetLib.obj
 0001:0001bb00       NetLibDefaultUnload        000000000002cb00 f   DxeNetLib:DxeNetLib.obj
 0001:0001bd20       NetLibCreateServiceChild   000000000002cd20 f   DxeNetLib:DxeNetLib.obj
 0001:0001bde4       NetLibDestroyServiceChild  000000000002cde4 f   DxeNetLib:DxeNetLib.obj
 0001:0001bea0       NetLibGetSnpHandle         000000000002cea0 f   DxeNetLib:DxeNetLib.obj
 0001:0001bfc0       NetLibDetectMedia          000000000002cfc0 f   DxeNetLib:DxeNetLib.obj
 0001:0001c368       NetLibDetectMediaWaitTimeout 000000000002d368 f   DxeNetLib:DxeNetLib.obj
 0001:0001c77c       NetLibGetNicHandle         000000000002d77c f   DxeNetLib:DxeNetLib.obj
 0001:0001c86c       NetLibAsciiStrToIp6        000000000002d86c f   DxeNetLib:DxeNetLib.obj
 0001:0001c8c8       NetLibGetSystemGuid        000000000002d8c8 f   DxeNetLib:DxeNetLib.obj
 0001:0001caa0       DpcLibConstructor          000000000002daa0 f   DxeDpcLib:DpcLib.obj
 0001:0001cb54       QueueDpc                   000000000002db54 f   DxeDpcLib:DpcLib.obj
 0001:0001cb8c       GetDebugPrintErrorLevel    000000000002db8c f   BaseDebugPrintErrorLevelLib:BaseDebugPrintErrorLevelLib.obj
 0001:0001cb94       UnicodeVSPrintAsciiFormat  000000000002db94 f   BasePrintLib:PrintLib.obj
 0001:0001cc1c       BasePrintLibFillBuffer     000000000002dc1c f   BasePrintLib:PrintLibInternal.obj
 0001:0001cca8       BasePrintLibValueToString  000000000002dca8 f   BasePrintLib:PrintLibInternal.obj
 0001:0001cd10       BasePrintLibSPrintMarker   000000000002dd10 f   BasePrintLib:PrintLibInternal.obj
 0001:0001ee2c       BasePrintLibSPrint         000000000002fe2c f   BasePrintLib:PrintLibInternal.obj
 0001:0001ee94       DivU64x32Remainder         000000000002fe94 f   BaseLib:DivU64x32Remainder.obj
 0002:00000000       ??_C@_0CB@DMEJJJHA@?6ASSERT_EFI_ERROR?5?$CIStatus?5?$DN?5?$CFr?$CJ@ 0000000000030000     UefiDriverEntryPoint:DriverEntryPoint.obj
 0002:00000028       ??_C@_0DG@FLPEIDFK@?$CB?$CI?$CI?$CIRETURN_STATUS?$CJ?$CIStatus?$CJ?$CJ?5?$DO?$DN?5@ 0000000000030028     UefiDriverEntryPoint:DriverEntryPoint.obj
 0002:00000060       ??_C@_0FE@KBEJNINE@D?3?2develop?2Self_develop?2edk2?2Md@ 0000000000030060     UefiDriverEntryPoint:DriverEntryPoint.obj
 0002:000000b4       _gDriverUnloadImageCount   00000000000300b4     UefiPxeBcDxe:AutoGen.obj
 0002:000000b4       _gPcd_FixedAtBuild_PcdEnforceSecureRngAlgorithms 00000000000300b4     UefiPxeBcDxe:AutoGen.obj
 0002:000000b8       _gPcd_FixedAtBuild_PcdMaximumDevicePathNodeCount 00000000000300b8     UefiPxeBcDxe:AutoGen.obj
 0002:000000b8       _gUefiDriverRevision       00000000000300b8     UefiPxeBcDxe:AutoGen.obj
 0002:000000c0       ??_C@_0N@NPDJDCEN@UefiPxeBcDxe@ 00000000000300c0     UefiPxeBcDxe:AutoGen.obj
 0002:000000d0       ??_C@_0HF@GIMJNPOL@D?3?2develop?2Self_develop?2edk2?2Bu@ 00000000000300d0     UefiPxeBcDxe:AutoGen.obj
 0002:00000148       _gPcd_FixedAtBuild_PcdMaximumUnicodeStringLength 0000000000030148     UefiPxeBcDxe:AutoGen.obj
 0002:00000148       _gPcd_FixedAtBuild_PcdMaximumAsciiStringLength 0000000000030148     UefiPxeBcDxe:AutoGen.obj
 0002:0000014c       _gPcd_FixedAtBuild_PcdReportStatusCodePropertyMask 000000000003014c     UefiPxeBcDxe:AutoGen.obj
 0002:00000150       _gPcd_FixedAtBuild_PcdTftpBlockSize 0000000000030150     UefiPxeBcDxe:AutoGen.obj
 0002:00000158       _gPcd_FixedAtBuild_PcdDebugPrintErrorLevel 0000000000030158     UefiPxeBcDxe:AutoGen.obj
 0002:0000015c       _gPcd_FixedAtBuild_PcdUefiLibMaxPrintBufferSize 000000000003015c     UefiPxeBcDxe:AutoGen.obj
 0002:00000160       _gPcd_FixedAtBuild_PcdFixedDebugPrintErrorLevel 0000000000030160     UefiPxeBcDxe:AutoGen.obj
 0002:00000164       _gPcd_FixedAtBuild_PcdComponentNameDisable 0000000000030164     UefiPxeBcDxe:AutoGen.obj
 0002:00000164       _gPcd_FixedAtBuild_PcdComponentName2Disable 0000000000030164     UefiPxeBcDxe:AutoGen.obj
 0002:00000165       _gPcd_FixedAtBuild_PcdDebugPropertyMask 0000000000030165     UefiPxeBcDxe:AutoGen.obj
 0002:00000168       _gPcd_FixedAtBuild_PcdPxeTftpWindowSize 0000000000030168     UefiPxeBcDxe:AutoGen.obj
 0002:00000170       ??_C@_0BI@GONLCNCH@Private?5?$CB?$DN?5?$CI?$CIvoid?5?$CK?$CJ?50?$CJ@ 0000000000030170     UefiPxeBcDxe:PxeBcDriver.obj
 0002:00000190       ??_C@_0ED@OACAALEO@D?3?2develop?2Self_develop?2edk2?2Ne@ 0000000000030190     UefiPxeBcDxe:PxeBcDriver.obj
 0002:000001d8       ??_C@_0DH@PHCKOAB@Private?5?$CB?$DN?5?$CI?$CIvoid?5?$CK?$CJ?50?$CJ?5?$CG?$CG?5Ipv6@ 00000000000301d8     UefiPxeBcDxe:PxeBcDriver.obj
 0002:00000210       ??_C@_0DN@ICAKIFPB@Failed?5to?5generate?5random?5numbe@ 0000000000030210     UefiPxeBcDxe:PxeBcDriver.obj
 0002:00000250       ??_C@_0BF@NDBIKIKC@CR?5has?5Bad?5Signature@ 0000000000030250     UefiPxeBcDxe:PxeBcDriver.obj
 0002:00000270       ??_C@_0EB@NPFHICEM@D?3?2develop?2Self_develop?2edk2?2Ne@ 0000000000030270     UefiPxeBcDxe:PxeBcImpl.obj
 0002:000002b8       ??_C@_0BH@PKOIACI@?6?$DO?$DOStart?5PXE?5over?5IPv6@ 00000000000302b8     UefiPxeBcDxe:PxeBcImpl.obj
 0002:000002d0       ??_C@_0BH@DNJIOCKK@?6?$DO?$DOStart?5PXE?5over?5IPv4@ 00000000000302d0     UefiPxeBcDxe:PxeBcImpl.obj
 0002:000002e8       ??_C@_0BP@ELOMBNON@NewCreatedInfo?5?$CB?$DN?5?$CI?$CIvoid?5?$CK?$CJ?50?$CJ@ 00000000000302e8     UefiPxeBcDxe:PxeBcImpl.obj
 0002:00000308       ??_C@_0BB@KEMLAILA@?$CBMode?9?$DOUsingIpv6@ 0000000000030308     UefiPxeBcDxe:PxeBcImpl.obj
 0002:00000320       ??_C@_0BH@MEIMEFKP@Udp6Rx?5?$CB?$DN?5?$CI?$CIvoid?5?$CK?$CJ?50?$CJ@ 0000000000030320     UefiPxeBcDxe:PxeBcImpl.obj
 0002:00000338       ??_C@_0BH@OECDDCD@Udp4Rx?5?$CB?$DN?5?$CI?$CIvoid?5?$CK?$CJ?50?$CJ@ 0000000000030338     UefiPxeBcDxe:PxeBcImpl.obj
 0002:00000350       ??_C@_09NEMLDBHM@Index?5?$DM?58@ 0000000000030350     UefiPxeBcDxe:PxeBcImpl.obj
 0002:00000360       ??_C@_0DI@DIKGJEHI@PXE?3?5Failed?5to?5read?5system?5GUID@ 0000000000030360     UefiPxeBcDxe:PxeBcImpl.obj
 0002:00000398       ??_C@_01LFCBOECM@?4@       0000000000030398     UefiPxeBcDxe:PxeBcImpl.obj
 0002:0000039c       ??_C@_03LKLGDMJI@eng@      000000000003039c     UefiPxeBcDxe:ComponentName.obj
 0002:000003a0       ??_C@_02LFNMGJAP@en@       00000000000303a0     UefiPxeBcDxe:ComponentName.obj
 0002:000003a4       ??_C@_06DALJLGPG@eng?$DLen@ 00000000000303a4     UefiPxeBcDxe:ComponentName.obj
 0002:000003b0       ??_C@_1DE@DLEHGBLE@?$AAU?$AAE?$AAF?$AAI?$AA?5?$AAP?$AAX?$AAE?$AA?5?$AAB?$AAa?$AAs?$AAe?$AA?5?$AAC@ 00000000000303b0     UefiPxeBcDxe:ComponentName.obj
 0002:000003e8       ??_C@_1BO@MKJHNEPA@?$AAP?$AAX?$AAE?$AA?5?$AAC?$AAo?$AAn?$AAt?$AAr?$AAo?$AAl?$AAl?$AAe?$AAr@ 00000000000303e8     UefiPxeBcDxe:ComponentName.obj
 0002:00000410       ??_C@_0EE@DAKEOKJ@D?3?2develop?2Self_develop?2edk2?2Ne@ 0000000000030410     UefiPxeBcDxe:PxeBcSupport.obj
 0002:00000458       ??_C@_0CB@DGLANILO@RxData?9?$DOHeader?9?$DOProtocol?5?$DN?$DN?50x0@ 0000000000030458     UefiPxeBcDxe:PxeBcSupport.obj
 0002:00000480       ??_C@_0BA@CIJKELOB@Mode?9?$DOUsingIpv6@ 0000000000030480     UefiPxeBcDxe:PxeBcSupport.obj
 0002:00000490       ??_C@_0CB@DIDAIMEI@RxData?9?$DOHeader?9?$DONextHeader?5?$DN?$DN?55@ 0000000000030490     UefiPxeBcDxe:PxeBcSupport.obj
 0002:000004b4       ??_C@_02DPKJAMEF@?$CFd@    00000000000304b4     UefiPxeBcDxe:PxeBcSupport.obj
 0002:000004b8       ??_C@_02NJNOFBBI@?$CFx@    00000000000304b8     UefiPxeBcDxe:PxeBcSupport.obj
 0002:000004bc       ??_C@_01GBGANLPD@0@        00000000000304bc     UefiPxeBcDxe:PxeBcSupport.obj
 0002:000004c0       ??_C@_01JLIPDDHJ@?3@       00000000000304c0     UefiPxeBcDxe:PxeBcSupport.obj
 0002:000004c4       ??_C@_04HBMEJGJK@?$CFa?5?6@ 00000000000304c4     UefiPxeBcDxe:PxeBcBoot.obj
 0002:000004d0       ??_C@_0EB@OHIFAIJO@D?3?2develop?2Self_develop?2edk2?2Ne@ 00000000000304d0     UefiPxeBcDxe:PxeBcBoot.obj
 0002:00000514       ??_C@_05LKLPEAOK@?$CI?$CFd?$CJ?5@ 0000000000030514     UefiPxeBcDxe:PxeBcBoot.obj
 0002:00000520       ??_C@_0EK@JNJGHDHI@OfferType?5?$DN?$DN?5PxeOfferTypeProxyP@ 0000000000030520     UefiPxeBcDxe:PxeBcBoot.obj
 0002:00000570       ??_C@_0BJ@EBFNAMMK@MenuItem?5?$CB?$DN?5?$CI?$CIvoid?5?$CK?$CJ?50?$CJ@ 0000000000030570     UefiPxeBcDxe:PxeBcBoot.obj
 0002:00000590       ??_C@_0BN@JLELCFCL@MenuArray?$FL0?$FN?5?$CB?$DN?5?$CI?$CIvoid?5?$CK?$CJ?50?$CJ@ 0000000000030590     UefiPxeBcDxe:PxeBcBoot.obj
 0002:000005b0       ??_C@_0CB@HHEMAIIO@MenuArray?$FLIndex?$FN?5?$CB?$DN?5?$CI?$CIvoid?5?$CK?$CJ?50@ 00000000000305b0     UefiPxeBcDxe:PxeBcBoot.obj
 0002:000005d8       ??_C@_0M@CKKKMFOF@Select?5?$DM?524@ 00000000000305d8     UefiPxeBcDxe:PxeBcBoot.obj
 0002:000005e8       ??_C@_0CC@JFDIFDKO@MenuArray?$FLSelect?$FN?5?$CB?$DN?5?$CI?$CIvoid?5?$CK?$CJ?5@ 00000000000305e8     UefiPxeBcDxe:PxeBcBoot.obj
 0002:0000060c       ??_C@_03LFOMKALF@?$CFa?$AN@ 000000000003060c     UefiPxeBcDxe:PxeBcBoot.obj
 0002:00000610       ??_C@_0BA@CDBOHDGK@LastSelect?5?$DM?524@ 0000000000030610     UefiPxeBcDxe:PxeBcBoot.obj
 0002:00000620       ??_C@_0CG@OEMKFGJO@MenuArray?$FLLastSelect?$FN?5?$CB?$DN?5?$CI?$CIvoid@ 0000000000030620     UefiPxeBcDxe:PxeBcBoot.obj
 0002:00000648       ??_C@_0BJ@FHIDIOID@?6?5?5Server?5IP?5address?5is?5@ 0000000000030648     UefiPxeBcDxe:PxeBcBoot.obj
 0002:00000668       ??_C@_0BG@KFMELNLO@?6?5?5NBP?5filename?5is?5?$CFa@ 0000000000030668     UefiPxeBcDxe:PxeBcBoot.obj
 0002:00000680       ??_C@_0BM@NIMIGHBL@?6?5?5NBP?5filesize?5is?5?$CFd?5Bytes@ 0000000000030680     UefiPxeBcDxe:PxeBcBoot.obj
 0002:000006a0       ??_C@_0BL@BBLPMEEF@?6?5Downloading?5NBP?5file?4?4?4?6@ 00000000000306a0     UefiPxeBcDxe:PxeBcBoot.obj
 0002:000006c0       ??_C@_0CG@DNODKIIF@?6?5?5NBP?5file?5downloaded?5successf@ 00000000000306c0     UefiPxeBcDxe:PxeBcBoot.obj
 0002:000006e8       ??_C@_0DN@EFPOLNGH@?6?5?5PXE?9E05?3?5Buffer?5size?5is?5smal@ 00000000000306e8     UefiPxeBcDxe:PxeBcBoot.obj
 0002:00000728       ??_C@_0CD@IHNNKJHF@?6?5?5PXE?9E07?3?5Network?5device?5erro@ 0000000000030728     UefiPxeBcDxe:PxeBcBoot.obj
 0002:00000750       ??_C@_0CN@MLKENCCC@?6?5?5PXE?9E09?3?5Could?5not?5allocate?5@ 0000000000030750     UefiPxeBcDxe:PxeBcBoot.obj
 0002:00000780       ??_C@_0DC@POOEDFOK@?6?5?5PXE?9E12?3?5Could?5not?5detect?5ne@ 0000000000030780     UefiPxeBcDxe:PxeBcBoot.obj
 0002:000007b8       ??_C@_0CG@CKKIKGIH@?6?5?5PXE?9E16?3?5No?5valid?5offer?5rece@ 00000000000307b8     UefiPxeBcDxe:PxeBcBoot.obj
 0002:000007e0       ??_C@_0CG@MEDHJNOP@?6?5?5PXE?9E18?3?5Server?5response?5tim@ 00000000000307e0     UefiPxeBcDxe:PxeBcBoot.obj
 0002:00000808       ??_C@_0CE@PGADCLCN@?6?5?5PXE?9E21?3?5Remote?5boot?5cancell@ 0000000000030808     UefiPxeBcDxe:PxeBcBoot.obj
 0002:00000830       ??_C@_0DF@IGIOEDID@?6?5?5PXE?9E22?3?5Client?5received?5ICM@ 0000000000030830     UefiPxeBcDxe:PxeBcBoot.obj
 0002:00000868       ??_C@_0DF@PEBHMBAL@?6?5?5PXE?9E23?3?5Client?5received?5TFT@ 0000000000030868     UefiPxeBcDxe:PxeBcBoot.obj
 0002:000008a0       ??_C@_0CI@ENMOAOOC@?6?5?5PXE?9E53?3?5No?5boot?5filename?5re@ 00000000000308a0     UefiPxeBcDxe:PxeBcBoot.obj
 0002:000008c8       ??_C@_0CH@EEGHIBHP@?6?5?5PXE?9E99?3?5Unexpected?5network?5@ 00000000000308c8     UefiPxeBcDxe:PxeBcBoot.obj
 0002:000008f0       ??_C@_0BK@LIBPPABO@PxeOption?5?$CB?$DN?5?$CI?$CIvoid?5?$CK?$CJ?50?$CJ@ 00000000000308f0     UefiPxeBcDxe:PxeBcDhcp4.obj
 0002:00000910       ??_C@_0EC@JPOMPLPF@D?3?2develop?2Self_develop?2edk2?2Ne@ 0000000000030910     UefiPxeBcDxe:PxeBcDhcp4.obj
 0002:00000958       ??_C@_0CB@IIAGGHCA@PXEClient?3Arch?3xxxxx?3UNDI?300300@ 0000000000030958     UefiPxeBcDxe:PxeBcDhcp4.obj
 0002:00000980       ??_C@_0BP@ECLLALEN@OfferIndex?5?$DM?5Private?9?$DOOfferNum@ 0000000000030980     UefiPxeBcDxe:PxeBcDhcp4.obj
 0002:000009a0       ??_C@_0BA@DHHEBEAN@OfferIndex?5?$DM?516@ 00000000000309a0     UefiPxeBcDxe:PxeBcDhcp4.obj
 0002:000009b0       ??_C@_0L@NPKKFMNM@Index?5?$DM?516@ 00000000000309b0     UefiPxeBcDxe:PxeBcDhcp4.obj
 0002:000009c0       ??_C@_0IM@KKEDKMBM@Private?9?$DOOfferBuffer?$FLIndex?$FN?4Dhc@ 00000000000309c0     UefiPxeBcDxe:PxeBcDhcp4.obj
 0002:00000a50       ??_C@_0BH@MCCFFLKM@Private?9?$DOOfferNum?5?$DM?516@ 0000000000030a50     UefiPxeBcDxe:PxeBcDhcp4.obj
 0002:00000a68       ??_C@_0BM@NMFBEHKK@OfferType?5?$DM?5PxeOfferTypeMax@ 0000000000030a68     UefiPxeBcDxe:PxeBcDhcp4.obj
 0002:00000a88       ??_C@_0CE@LGPAILPE@Private?9?$DOOfferCount?$FLOfferType?$FN?5@ 0000000000030a88     UefiPxeBcDxe:PxeBcDhcp4.obj
 0002:00000ab0       ??_C@_0BJ@OOAGAEFH@Private?9?$DOSelectIndex?5?$DO?50@ 0000000000030ab0     UefiPxeBcDxe:PxeBcDhcp4.obj
 0002:00000ad0       ??_C@_0BB@LMJHOKEJ@SelectIndex?5?$DM?516@ 0000000000030ad0     UefiPxeBcDxe:PxeBcDhcp4.obj
 0002:00000ae8       ??_C@_0CL@ONLHCLLH@Private?9?$DOSelectProxyType?5?$DM?5PxeO@ 0000000000030ae8     UefiPxeBcDxe:PxeBcDhcp4.obj
 0002:00000b18       ??_C@_0DC@LCFHNCIB@Private?9?$DOOfferCount?$FLPrivate?9?$DOSe@ 0000000000030b18     UefiPxeBcDxe:PxeBcDhcp4.obj
 0002:00000b50       ??_C@_0BH@CELONLOG@Packet?5?$CB?$DN?5?$CI?$CIvoid?5?$CK?$CJ?50?$CJ@ 0000000000030b50     UefiPxeBcDxe:PxeBcDhcp4.obj
 0002:00000b68       ??_C@_0BK@JEJDJFOL@NewPacket?5?$CB?$DN?5?$CI?$CIvoid?5?$CK?$CJ?50?$CJ@ 0000000000030b68     UefiPxeBcDxe:PxeBcDhcp4.obj
 0002:00000b88       ??_C@_0BK@HGECNIMB@Private?9?$DOSelectIndex?5?$CB?$DN?50@ 0000000000030b88     UefiPxeBcDxe:PxeBcDhcp4.obj
 0002:00000ba8       ??_C@_0BD@NFIHAFN@PxeBcDhcp4Discover@ 0000000000030ba8     UefiPxeBcDxe:PxeBcDhcp4.obj
 0002:00000bc0       ??_C@_0CJ@DPPPPJB@?$CFa?5failed?5to?5generate?5random?5nu@ 0000000000030bc0     UefiPxeBcDxe:PxeBcDhcp4.obj
 0002:00000bf0       ??_C@_0BG@GNOLCPMK@Dhcp4?5?$CB?$DN?5?$CI?$CIvoid?5?$CK?$CJ?50?$CJ@ 0000000000030bf0     UefiPxeBcDxe:PxeBcDhcp4.obj
 0002:00000c08       ??_C@_0N@GPCEJIKO@OptCount?5?$DO?50@ 0000000000030c08     UefiPxeBcDxe:PxeBcDhcp4.obj
 0002:00000c18       ??_C@_0BJ@KCGKFGLG@Mode?4State?5?$DN?$DN?5Dhcp4Bound@ 0000000000030c18     UefiPxeBcDxe:PxeBcDhcp4.obj
 0002:00000c38       ??_C@_0BK@JGLFKFII@?6?5?5Station?5IP?5address?5is?5@ 0000000000030c38     UefiPxeBcDxe:PxeBcDhcp4.obj
 0002:00000c54       ??_C@_01EEMJAFIK@?6@       0000000000030c54     UefiPxeBcDxe:PxeBcDhcp4.obj
 0002:00000c58       ??_C@_07JPIGAOKK@blksize@  0000000000030c58     UefiPxeBcDxe:PxeBcMtftp.obj
 0002:00000c60       ??_C@_07DDHNKDGP@timeout@  0000000000030c60     UefiPxeBcDxe:PxeBcMtftp.obj
 0002:00000c68       ??_C@_05GHDOEBHJ@tsize@    0000000000030c68     UefiPxeBcDxe:PxeBcMtftp.obj
 0002:00000c70       ??_C@_09HCCMHGIN@multicast@ 0000000000030c70     UefiPxeBcDxe:PxeBcMtftp.obj
 0002:00000c80       ??_C@_0L@HMPKIDCJ@windowsize@ 0000000000030c80     UefiPxeBcDxe:PxeBcMtftp.obj
 0002:00000c90       ??_C@_07INFLEIEO@tftp?3?1?1@ 0000000000030c90     UefiPxeBcDxe:PxeBcDhcp6.obj
 0002:00000c98       ??_C@_0M@MMCPKHFN@?$DLmode?$DNoctet@ 0000000000030c98     UefiPxeBcDxe:PxeBcDhcp6.obj
 0002:00000ca4       ??_C@_06PHEPAMBA@?$DLmode?$DN@ 0000000000030ca4     UefiPxeBcDxe:PxeBcDhcp6.obj
 0002:00000cb0       ??_C@_0EC@DFOFDDHO@D?3?2develop?2Self_develop?2edk2?2Ne@ 0000000000030cb0     UefiPxeBcDxe:PxeBcDhcp6.obj
 0002:00000d00       ??_C@_0IM@CHDGADFC@Private?9?$DOOfferBuffer?$FLIndex?$FN?4Dhc@ 0000000000030d00     UefiPxeBcDxe:PxeBcDhcp6.obj
 0002:00000d90       ??_C@_0CC@JOMINCKP@Offer?9?$DOOptList?$FL1?$FN?5?$CB?$DN?5?$CI?$CIvoid?5?$CK?$CJ?5@ 0000000000030d90     UefiPxeBcDxe:PxeBcDhcp6.obj
 0002:00000db8       ??_C@_0CD@HICJBAPI@Cache6?9?$DOOptList?$FL1?$FN?5?$CB?$DN?5?$CI?$CIvoid?5?$CK?$CJ@ 0000000000030db8     UefiPxeBcDxe:PxeBcDhcp6.obj
 0002:00000de0       ??_C@_0BM@JJAGOHNP@GatewayAddr?5?$CB?$DN?5?$CI?$CIvoid?5?$CK?$CJ?50?$CJ@ 0000000000030de0     UefiPxeBcDxe:PxeBcDhcp6.obj
 0002:00000e00       ??_C@_0BL@ICHGMPMI@?$CKNewPacket?5?$CB?$DN?5?$CI?$CIvoid?5?$CK?$CJ?50?$CJ@ 0000000000030e00     UefiPxeBcDxe:PxeBcDhcp6.obj
 0002:00000e20       ??_C@_0BD@JKNKAGA@PxeBcDhcp6Discover@ 0000000000030e20     UefiPxeBcDxe:PxeBcDhcp6.obj
 0002:00000e38       ??_C@_0DM@CIKMDCDN@?$CIMode?4Ia?5?$CB?$DN?5?$CI?$CIvoid?5?$CK?$CJ?50?$CJ?$CJ?5?$CG?$CG?5?$CIM@ 0000000000030e38     UefiPxeBcDxe:PxeBcDhcp6.obj
 0002:00000e80       ??_C@_0FP@CCJIJCDG@D?3?2develop?2Self_develop?2edk2?2Md@ 0000000000030e80     DxeReportStatusCodeLib:ReportStatusCodeLib.obj
 0002:00000ee0       ??_C@_0BH@LKMBFCBF@Format?5?$CB?$DN?5?$CI?$CIvoid?5?$CK?$CJ?50?$CJ@ 0000000000030ee0     DxeReportStatusCodeLib:ReportStatusCodeLib.obj
 0002:00000ef8       ??_C@_0BN@HMHGLLOO@ExtendedData?5?$CB?$DN?5?$CI?$CIvoid?5?$CK?$CJ?50?$CJ@ 0000000000030ef8     DxeReportStatusCodeLib:ReportStatusCodeLib.obj
 0002:00000f18       ??_C@_0BG@BPIKKLEE@ExtendedDataSize?5?$CB?$DN?50@ 0000000000030f18     DxeReportStatusCodeLib:ReportStatusCodeLib.obj
 0002:00000f30       ??_C@_0DN@HHIHPHHB@?$CB?$CI?$CIExtendedData?5?$DN?$DN?5?$CI?$CIvoid?5?$CK?$CJ?50?$CJ@ 0000000000030f30     DxeReportStatusCodeLib:ReportStatusCodeLib.obj
 0002:00000f70       ??_C@_0DN@BBBIFINB@?$CB?$CI?$CIExtendedData?5?$CB?$DN?5?$CI?$CIvoid?5?$CK?$CJ?50?$CJ@ 0000000000030f70     DxeReportStatusCodeLib:ReportStatusCodeLib.obj
 0002:00000fb0       ??_C@_0EC@GNADPOFK@D?3?2develop?2Self_develop?2edk2?2Md@ 0000000000030fb0     DxePcdLib:DxePcdLib.obj
 0002:00000ff8       ??_C@_0BF@OOKDELHM@mPcd?5?$CB?$DN?5?$CI?$CIvoid?5?$CK?$CJ?50?$CJ@ 0000000000030ff8     DxePcdLib:DxePcdLib.obj
 0002:00001010       ??_C@_0BH@IACGKAP@Buffer?5?$CB?$DN?5?$CI?$CIvoid?5?$CK?$CJ?50?$CJ@ 0000000000031010     DxePcdLib:DxePcdLib.obj
 0002:00001028       ??_C@_0BF@CBLMFKOC@Node?5?$CB?$DN?5?$CI?$CIvoid?5?$CK?$CJ?50?$CJ@ 0000000000031028     UefiDevicePathLib:DevicePathUtilities.obj
 0002:00001040       ??_C@_0FE@LBAOMKEJ@D?3?2develop?2Self_develop?2edk2?2Md@ 0000000000031040     UefiDevicePathLib:DevicePathUtilities.obj
 0002:000010a0       ??_C@_0EH@ENCEEKKL@?$CILength?5?$DO?$DN?5sizeof?5?$CIEFI_DEVICE_P@ 00000000000310a0     UefiDevicePathLib:DevicePathUtilities.obj
 0002:000010e8       mUefiDevicePathLibEndDevicePath 00000000000310e8     UefiDevicePathLib:DevicePathUtilities.obj
 0002:000010f0       ??_C@_0FM@HDIIFGPN@D?3?2develop?2Self_develop?2edk2?2Md@ 00000000000310f0     PeiDxeDebugLibReportStatusCode:DebugLib.obj
 0002:00001150       ??_C@_0CP@EFCGCEBK@?$CICHAR8?5?$CK?$CJBaseListMarkerPointer?5@ 0000000000031150     PeiDxeDebugLibReportStatusCode:DebugLib.obj
 0002:00001180       ??_C@_01OHGJGJJP@?$FL@     0000000000031180     PeiDxeDebugLibReportStatusCode:DebugLib.obj
 0002:00001184       ??_C@_02PBFOLPKM@?$FN?5@   0000000000031184     PeiDxeDebugLibReportStatusCode:DebugLib.obj
 0002:00001190       ??_C@_0FK@KCDEFJBC@D?3?2develop?2Self_develop?2edk2?2Md@ 0000000000031190     UefiMemoryAllocationLib:MemoryAllocationLib.obj
 0002:000011f0       ??_C@_0DO@GEEICOOO@AllocationSize?5?$DM?$DN?5?$CI0xFFFFFFFFFF@ 00000000000311f0     UefiMemoryAllocationLib:MemoryAllocationLib.obj
 0002:00001230       ??_C@_0ED@MKGCMJG@?$CILength?5?9?51?$CJ?5?$DM?$DN?5?$CI0xFFFFFFFFFFFF@ 0000000000031230     BaseMemoryLib:CopyMemWrapper.obj
 0002:00001280       ??_C@_0EL@NNLJGCCH@D?3?2develop?2Self_develop?2edk2?2Md@ 0000000000031280     BaseMemoryLib:CopyMemWrapper.obj
 0002:000012d0       ??_C@_0DO@MAOBOFEG@?$CILength?5?9?51?$CJ?5?$DM?$DN?5?$CI0xFFFFFFFFFFFF@ 00000000000312d0     BaseMemoryLib:CopyMemWrapper.obj
 0002:00001310       ??_C@_0EL@GJBLADOA@D?3?2develop?2Self_develop?2edk2?2Md@ 0000000000031310     BaseMemoryLib:ZeroMemWrapper.obj
 0002:00001360       ??_C@_0DG@EEENIGGL@Length?5?$DM?$DN?5?$CI0xFFFFFFFFFFFFFFFFUL@ 0000000000031360     BaseMemoryLib:ZeroMemWrapper.obj
 0002:00001398       ??_C@_0CC@JOEHDGKB@DestinationBuffer?5?$CB?$DN?5?$CI?$CIvoid?5?$CK?$CJ?5@ 0000000000031398     BaseMemoryLib:CompareMemWrapper.obj
 0002:000013c0       ??_C@_0EO@FAHMLNEH@D?3?2develop?2Self_develop?2edk2?2Md@ 00000000000313c0     BaseMemoryLib:CompareMemWrapper.obj
 0002:00001410       ??_C@_0BN@MDMCNBCC@SourceBuffer?5?$CB?$DN?5?$CI?$CIvoid?5?$CK?$CJ?50?$CJ@ 0000000000031410     BaseMemoryLib:CompareMemWrapper.obj
 0002:00001430       ??_C@_0DI@DAGDPLPG@?$CILength?5?9?51?$CJ?5?$DM?$DN?5?$CI0xFFFFFFFFFFFF@ 0000000000031430     BaseMemoryLib:SetMemWrapper.obj
 0002:00001470       ??_C@_0EK@FKIKDMAD@D?3?2develop?2Self_develop?2edk2?2Md@ 0000000000031470     BaseMemoryLib:SetMemWrapper.obj
 0002:000014c0       ??_C@_0BH@MAAHKCPC@String?5?$CB?$DN?5?$CI?$CIvoid?5?$CK?$CJ?50?$CJ@ 00000000000314c0     BaseLib:String.obj
 0002:000014d8       ??_C@_0DN@POJBHOAP@D?3?2develop?2Self_develop?2edk2?2Md@ 00000000000314d8     BaseLib:String.obj
 0002:00001518       ??_C@_0CC@GFNLNIOC@?$CI?$CIUINTN?$CJString?5?$CG?50x00000001?$CJ?5?$DN?$DN@ 0000000000031518     BaseLib:String.obj
 0002:00001540       ??_C@_0DI@MDIKFADO@Length?5?$DM?5_gPcd_FixedAtBuild_Pcd@ 0000000000031540     BaseLib:String.obj
 0002:00001578       ??_C@_0BL@IKFBNFIL@AsciiStrSize?5?$CIFirstString?$CJ@ 0000000000031578     BaseLib:String.obj
 0002:00001598       ??_C@_0BM@EDNOKLLE@AsciiStrSize?5?$CISecondString?$CJ@ 0000000000031598     BaseLib:String.obj
 0002:000015b8       ??_C@_0DJ@JJHGIFMP@Length?5?$DM?$DN?5_gPcd_FixedAtBuild_Pc@ 00000000000315b8     BaseLib:String.obj
 0002:000015f8       ??_C@_0BL@OFIBAIAL@AsciiStrSize?5?$CIString?$CJ?5?$CB?$DN?50@ 00000000000315f8     BaseLib:String.obj
 0002:00001618       ??_C@_0CB@NAIDGIOA@AsciiStrSize?5?$CISearchString?$CJ?5?$CB?$DN?5@ 0000000000031618     BaseLib:String.obj
 0002:00001640       ??_C@_0N@KGHEHMDL@Divisor?5?$CB?$DN?50@ 0000000000031640     BaseLib:DivU64x32.obj
 0002:00001650       ??_C@_0EA@LBPPPCLG@D?3?2develop?2Self_develop?2edk2?2Md@ 0000000000031650     BaseLib:DivU64x32.obj
 0002:00001690       ??_C@_0EB@DAKPBIJH@D?3?2develop?2Self_develop?2edk2?2Md@ 0000000000031690     BaseLib:SafeString.obj
 0002:000016d8       ??_C@_0CH@LALFPBMC@?$CI?$CIUINTN?$CJDestination?5?$CG?50x0000000@ 00000000000316d8     BaseLib:SafeString.obj
 0002:00001700       ??_C@_0BO@ECNIOIHG@?$CIDestination?5?$CB?$DN?5?$CI?$CIvoid?5?$CK?$CJ?50?$CJ?$CJ@ 0000000000031700     BaseLib:SafeString.obj
 0002:00001720       ??_C@_0EA@PDPDJJNN@?$CFa?$CI?$CFd?$CJ?5?$CFa?3?5SAFE_STRING_CONSTRAI@ 0000000000031720     BaseLib:SafeString.obj
 0002:00001760       ??_C@_0BJ@EAEEJIP@?$CISource?5?$CB?$DN?5?$CI?$CIvoid?5?$CK?$CJ?50?$CJ?$CJ@ 0000000000031760     BaseLib:SafeString.obj
 0002:00001780       ??_C@_0EA@BBALOHPI@?$CIDestMax?5?$DM?$DN?5?$CI_gPcd_FixedAtBuild@ 0000000000031780     BaseLib:SafeString.obj
 0002:000017c0       ??_C@_0P@PMIMLIHM@?$CIDestMax?5?$CB?$DN?50?$CJ@ 00000000000317c0     BaseLib:SafeString.obj
 0002:000017d0       ??_C@_0BG@EEGIIOKH@?$CIDestMax?5?$DO?5SourceLen?$CJ@ 00000000000317d0     BaseLib:SafeString.obj
 0002:000017e8       ??_C@_0BJ@MBBOBCLN@?$CIString?5?$CB?$DN?5?$CI?$CIvoid?5?$CK?$CJ?50?$CJ?$CJ@ 00000000000317e8     BaseLib:SafeString.obj
 0002:00001808       ??_C@_0BH@JPMEDPAI@?$CIData?5?$CB?$DN?5?$CI?$CIvoid?5?$CK?$CJ?50?$CJ?$CJ@ 0000000000031808     BaseLib:SafeString.obj
 0002:00001820       ??_C@_0BK@PFCDEPEA@?$CIAddress?5?$CB?$DN?5?$CI?$CIvoid?5?$CK?$CJ?50?$CJ?$CJ@ 0000000000031820     BaseLib:SafeString.obj
 0002:00001840       ??_C@_0EK@OFPBBCEA@AddressIndex?5?$CL?51?5?$DM?5?$CIsizeof?5?$CIAdd@ 0000000000031840     BaseLib:SafeString.obj
 0002:00001890       ??_C@_0BJ@CNKJJNE@?$CIBuffer?5?$CB?$DN?5?$CI?$CIvoid?5?$CK?$CJ?50?$CJ?$CJ@ 0000000000031890     BaseLib:SafeString.obj
 0002:000018b0       ??_C@_0N@OMPODJLB@AsciiStrCpyS@ 00000000000318b0     BaseLib:SafeString.obj
 0002:000018c0       ??_C@_0DO@LJFOOPII@?$CIDestMax?5?$DM?$DN?5?$CI_gPcd_FixedAtBuild@ 00000000000318c0     BaseLib:SafeString.obj
 0002:00001900       ??_C@_0FL@CDANCHFO@InternalSafeStringNoAsciiStrOve@ 0000000000031900     BaseLib:SafeString.obj
 0002:00001960       ??_C@_0O@DIHNCLLG@AsciiStrnCpyS@ 0000000000031960     BaseLib:SafeString.obj
 0002:00001970       ??_C@_0DN@DLAADCJE@?$CILength?5?$DM?$DN?5?$CI_gPcd_FixedAtBuild_@ 0000000000031970     BaseLib:SafeString.obj
 0002:000019b0       ??_C@_0BI@GIIHIIN@AsciiStrDecimalToUintnS@ 00000000000319b0     BaseLib:SafeString.obj
 0002:000019d0       ??_C@_0ID@JMCCGBLD@?$CIAsciiStrnLenS?5?$CIString?0?5?$CI_gPcd_@ 00000000000319d0     BaseLib:SafeString.obj
 0002:00001a58       ??_C@_0BJ@EBLIIDJK@AsciiStrDecimalToUint64S@ 0000000000031a58     BaseLib:SafeString.obj
 0002:00001a78       ??_C@_0BE@KNBHPEHC@AsciiStrHexToUintnS@ 0000000000031a78     BaseLib:SafeString.obj
 0002:00001a90       ??_C@_0BG@MFINJFHO@AsciiStrToUnicodeStrS@ 0000000000031a90     BaseLib:SafeString.obj
 0002:00001ab0       ??_C@_0GF@GCLJAOAI@?$CBInternalSafeStringIsOverlap?5?$CID@ 0000000000031ab0     BaseLib:SafeString.obj
 0002:00001b18       ??_C@_0BG@HJJNNPII@AsciiStrToIpv6Address@ 0000000000031b18     BaseLib:SafeString.obj
 0002:00001b30       ??_C@_0EA@FKBIDDGN@D?3?2develop?2Self_develop?2edk2?2Md@ 0000000000031b30     BaseLib:Unaligned.obj
 0002:00001b70       ??_C@_0L@MEMPDLHB@Count?5?$DM?564@ 0000000000031b70     BaseLib:LShiftU64.obj
 0002:00001b80       ??_C@_0EA@MLMAFFLG@D?3?2develop?2Self_develop?2edk2?2Md@ 0000000000031b80     BaseLib:LShiftU64.obj
 0002:00001bc0       ??_C@_0BN@COECPDCC@gImageHandle?5?$CB?$DN?5?$CI?$CIvoid?5?$CK?$CJ?50?$CJ@ 0000000000031bc0     UefiBootServicesTableLib:UefiBootServicesTableLib.obj
 0002:00001be0       ??_C@_0GA@INMEIGJE@D?3?2develop?2Self_develop?2edk2?2Md@ 0000000000031be0     UefiBootServicesTableLib:UefiBootServicesTableLib.obj
 0002:00001c40       ??_C@_0BE@DGNHAHIL@gST?5?$CB?$DN?5?$CI?$CIvoid?5?$CK?$CJ?50?$CJ@ 0000000000031c40     UefiBootServicesTableLib:UefiBootServicesTableLib.obj
 0002:00001c58       ??_C@_0BE@BDFJLGLN@gBS?5?$CB?$DN?5?$CI?$CIvoid?5?$CK?$CJ?50?$CJ@ 0000000000031c58     UefiBootServicesTableLib:UefiBootServicesTableLib.obj
 0002:00001c70       ??_C@_0BE@OBDFIHND@gRT?5?$CB?$DN?5?$CI?$CIvoid?5?$CK?$CJ?50?$CJ@ 0000000000031c70     UefiRuntimeServicesTableLib:UefiRuntimeServicesTableLib.obj
 0002:00001c90       ??_C@_0GG@OBDIBKMM@D?3?2develop?2Self_develop?2edk2?2Md@ 0000000000031c90     UefiRuntimeServicesTableLib:UefiRuntimeServicesTableLib.obj
 0002:00001cf8       ??_C@_0BK@PPOBBAMB@TableGuid?5?$CB?$DN?5?$CI?$CIvoid?5?$CK?$CJ?50?$CJ@ 0000000000031cf8     UefiLib:UefiLib.obj
 0002:00001d18       ??_C@_0DO@KJBPHFLK@D?3?2develop?2Self_develop?2edk2?2Md@ 0000000000031d18     UefiLib:UefiLib.obj
 0002:00001d58       ??_C@_0BG@JDKEGFNB@Table?5?$CB?$DN?5?$CI?$CIvoid?5?$CK?$CJ?50?$CJ@ 0000000000031d58     UefiLib:UefiLib.obj
 0002:00001d70       ??_C@_0BN@HHGHCLME@ProtocolGuid?5?$CB?$DN?5?$CI?$CIvoid?5?$CK?$CJ?50?$CJ@ 0000000000031d70     UefiLib:UefiLib.obj
 0002:00001d90       ??_C@_0BO@MHFMIIAE@DriverBinding?5?$CB?$DN?5?$CI?$CIvoid?5?$CK?$CJ?50?$CJ@ 0000000000031d90     UefiLib:UefiDriverModel.obj
 0002:00001db0       ??_C@_0EG@HGMADJAK@D?3?2develop?2Self_develop?2edk2?2Md@ 0000000000031db0     UefiLib:UefiDriverModel.obj
 0002:00001e00       ??_C@_0ED@IHPNEENF@D?3?2develop?2Self_develop?2edk2?2Md@ 0000000000031e00     UefiLib:UefiLibPrint.obj
 0002:00001e48       ??_C@_0BI@DIKLKBJC@Console?5?$CB?$DN?5?$CI?$CIvoid?5?$CK?$CJ?50?$CJ@ 0000000000031e48     UefiLib:UefiLibPrint.obj
 0002:00001e60       ??_C@_0EG@DLIGODDF@D?3?2develop?2Self_develop?2edk2?2Ne@ 0000000000031e60     DxeNetLib:DxeNetLib.obj
 0002:00001ea8       ??_C@_0N@NMJPNKHJ@NetMask?5?$CB?$DN?50@ 0000000000031ea8     DxeNetLib:DxeNetLib.obj
 0002:00001eb8       ??_C@_0CI@KOOBFNBF@?$CIMaskLength?5?$DO?$DN?50?$CJ?5?$CG?$CG?5?$CIMaskLengt@ 0000000000031eb8     DxeNetLib:DxeNetLib.obj
 0002:00001ee0       ??_C@_0BE@FCBOEPIJ@Ip6?5?$CB?$DN?5?$CI?$CIvoid?5?$CK?$CJ?50?$CJ@ 0000000000031ee0     DxeNetLib:DxeNetLib.obj
 0002:00001f00       ??_C@_0EI@NJONMNNM@?$CIIp1?5?$CB?$DN?5?$CI?$CIvoid?5?$CK?$CJ?50?$CJ?$CJ?5?$CG?$CG?5?$CIIp2?5?$CB@ 0000000000031f00     DxeNetLib:DxeNetLib.obj
 0002:00001f48       ??_C@_09EEFECIOP@Byte?5?$DM?516@ 0000000000031f48     DxeNetLib:DxeNetLib.obj
 0002:00001f58       ??_C@_0CH@EKOHECKI@Failed?5to?5locate?5EFI_RNG_PROTOC@ 0000000000031f58     DxeNetLib:DxeNetLib.obj
 0002:00001f80       ??_C@_0DO@GOOAHEEE@Failed?5to?5generate?5random?5data?5@ 0000000000031f80     DxeNetLib:DxeNetLib.obj
 0002:00001fc0       ??_C@_0EF@DNLPDIOB@Failed?5to?5generate?5random?5data?0@ 0000000000031fc0     DxeNetLib:DxeNetLib.obj
 0002:00002008       ??_C@_0N@OFAONPPP@PseudoRandom@ 0000000000032008     DxeNetLib:DxeNetLib.obj
 0002:00002018       ??_C@_0CH@LEJGMPCG@?$CFa?5failed?5to?5generate?5random?5da@ 0000000000032018     DxeNetLib:DxeNetLib.obj
 0002:00002040       ??_C@_0EG@FMMHPKDI@?$CIServiceBindingGuid?5?$CB?$DN?5?$CI?$CIvoid?5?$CK@ 0000000000032040     DxeNetLib:DxeNetLib.obj
 0002:00002088       ??_C@_0CD@PCCGAHJM@ServiceBindingGuid?5?$CB?$DN?5?$CI?$CIvoid?5?$CK?$CJ@ 0000000000032088     DxeNetLib:DxeNetLib.obj
 0002:000020b0       ??_C@_0BN@NHNKBDLL@MediaPresent?5?$CB?$DN?5?$CI?$CIvoid?5?$CK?$CJ?50?$CJ@ 00000000000320b0     DxeNetLib:DxeNetLib.obj
 0002:000020d0       ??_C@_0BM@CPKMECHF@MCastFilter?5?$CB?$DN?5?$CI?$CIvoid?5?$CK?$CJ?50?$CJ@ 00000000000320d0     DxeNetLib:DxeNetLib.obj
 0002:000020f0       ??_C@_0BL@DHOPNPCL@SystemGuid?5?$CB?$DN?5?$CI?$CIvoid?5?$CK?$CJ?50?$CJ@ 00000000000320f0     DxeNetLib:DxeNetLib.obj
 0002:00002140       ??_C@_0ED@EHGOBKNG@D?3?2develop?2Self_develop?2edk2?2Ne@ 0000000000032140     DxeDpcLib:DpcLib.obj
 0002:00002188       ??_C@_0CI@BGLNHBLM@?$CI?$CI?$CIUINTN?$CJ?5?$CIStartOfBuffer?$CJ?$CJ?5?$CG?50x@ 0000000000032188     BasePrintLib:PrintLib.obj
 0002:000021b0       ??_C@_0EE@ODNPLEBG@D?3?2develop?2Self_develop?2edk2?2Md@ 00000000000321b0     BasePrintLib:PrintLib.obj
 0002:00002200       ??_C@_0EM@LLAPJOAH@D?3?2develop?2Self_develop?2edk2?2Md@ 0000000000032200     BasePrintLib:PrintLibInternal.obj
 0002:00002250       ??_C@_0EB@HDGIDCIO@?$CIBufferSize?5?$DM?$DN?5?$CI_gPcd_FixedAtBu@ 0000000000032250     BasePrintLib:PrintLibInternal.obj
 0002:00002298       ??_C@_0BJ@PPAKKDJG@?$CIFormat?5?$CB?$DN?5?$CI?$CIvoid?5?$CK?$CJ?50?$CJ?$CJ@ 0000000000032298     BasePrintLib:PrintLibInternal.obj
 0002:000022c0       ??_C@_0ED@LPDDCECB@?$CIBufferSize?5?$DM?$DN?5?$CI_gPcd_FixedAtBu@ 00000000000322c0     BasePrintLib:PrintLibInternal.obj
 0002:00002310       ??_C@_0IM@BFJJFLGB@?$CIStrnLenS?5?$CI?$CICHAR16?5?$CK?$CJFormat?0?5?$CI_@ 0000000000032310     BasePrintLib:PrintLibInternal.obj
 0002:000023a0       ??_C@_0ID@PLGJGION@?$CIAsciiStrnLenS?5?$CIFormat?0?5?$CI_gPcd_@ 00000000000323a0     BasePrintLib:PrintLibInternal.obj
 0002:00002428       ??_C@_0O@MLOLIMFM@?$DMnull?5string?$DO@ 0000000000032428     BasePrintLib:PrintLibInternal.obj
 0002:00002438       ??_C@_0M@BJJDNPHK@?$DMnull?5guid?$DO@ 0000000000032438     BasePrintLib:PrintLibInternal.obj
 0002:00002448       ??_C@_0DB@PMLHLBMO@?$CF08x?9?$CF04x?9?$CF04x?9?$CF02x?$CF02x?9?$CF02x?$CF02@ 0000000000032448     BasePrintLib:PrintLibInternal.obj
 0002:00002480       ??_C@_0M@LHGBCIKM@?$DMnull?5time?$DO@ 0000000000032480     BasePrintLib:PrintLibInternal.obj
 0002:00002490       ??_C@_0BK@FCPKCIDD@?$CF02d?1?$CF02d?1?$CF04d?5?5?$CF02d?3?$CF02d@ 0000000000032490     BasePrintLib:PrintLibInternal.obj
 0002:000024ac       ??_C@_04JIMNDDED@?$CF08X@  00000000000324ac     BasePrintLib:PrintLibInternal.obj
 0002:000024b4       ??_C@_02PCIJFNDE@?$AN?6@   00000000000324b4     BasePrintLib:PrintLibInternal.obj
 0002:000024b8       ??_C@_01LIIJDEN@?$AN@      00000000000324b8     BasePrintLib:PrintLibInternal.obj
 0002:000024c0       mWarningString             00000000000324c0     BasePrintLib:PrintLibInternal.obj
 0002:00002590       mErrorString               0000000000032590     BasePrintLib:PrintLibInternal.obj
 0002:00002870       mHexStr                    0000000000032870     BasePrintLib:PrintLibInternal.obj
 0002:00002880       ??_C@_0EJ@IMLDOBB@D?3?2develop?2Self_develop?2edk2?2Md@ 0000000000032880     BaseLib:DivU64x32Remainder.obj
 0002:00002920       __volatile_metadata        0000000000032920     <linker-defined>
 0003:00000000       gEfiLoadedImageProtocolGuid 0000000000033000     UefiPxeBcDxe:AutoGen.obj
 0003:00000010       gEfiStatusCodeSpecificDataGuid 0000000000033010     UefiPxeBcDxe:AutoGen.obj
 0003:00000020       gEfiRngAlgorithmArmRndr    0000000000033020     UefiPxeBcDxe:AutoGen.obj
 0003:00000030       gEfiAdapterInfoUndiIpv6SupportGuid 0000000000033030     UefiPxeBcDxe:AutoGen.obj
 0003:00000040       gEfiDhcp6ServiceBindingProtocolGuid 0000000000033040     UefiPxeBcDxe:AutoGen.obj
 0003:00000050       gEfiStatusCodeRuntimeProtocolGuid 0000000000033050     UefiPxeBcDxe:AutoGen.obj
 0003:00000060       gEfiPxeBaseCodeProtocolGuid 0000000000033060     UefiPxeBcDxe:AutoGen.obj
 0003:00000070       gEfiRngAlgorithmSp80090Hmac256Guid 0000000000033070     UefiPxeBcDxe:AutoGen.obj
 0003:00000080       gEfiRngProtocolGuid        0000000000033080     UefiPxeBcDxe:AutoGen.obj
 0003:00000090       gEfiMtftp4ProtocolGuid     0000000000033090     UefiPxeBcDxe:AutoGen.obj
 0003:000000a0       gEfiComponentName2ProtocolGuid 00000000000330a0     UefiPxeBcDxe:AutoGen.obj
 0003:000000b0       gPcdProtocolGuid           00000000000330b0     UefiPxeBcDxe:AutoGen.obj
 0003:000000c0       gEfiAdapterInformationProtocolGuid 00000000000330c0     UefiPxeBcDxe:AutoGen.obj
 0003:000000d0       gEfiLoadFileProtocolGuid   00000000000330d0     UefiPxeBcDxe:AutoGen.obj
 0003:000000e0       gEfiRngAlgorithmSp80090Hash256Guid 00000000000330e0     UefiPxeBcDxe:AutoGen.obj
 0003:000000f0       gEfiMtftp6ServiceBindingProtocolGuid 00000000000330f0     UefiPxeBcDxe:AutoGen.obj
 0003:00000100       gEfiDhcp6ProtocolGuid      0000000000033100     UefiPxeBcDxe:AutoGen.obj
 0003:00000110       gEfiNetworkInterfaceIdentifierProtocolGuid_31 0000000000033110     UefiPxeBcDxe:AutoGen.obj
 0003:00000120       gEfiDhcp4ServiceBindingProtocolGuid 0000000000033120     UefiPxeBcDxe:AutoGen.obj
 0003:00000130       gEfiDevicePathProtocolGuid 0000000000033130     UefiPxeBcDxe:AutoGen.obj
 0003:00000140       gEfiIp6ConfigProtocolGuid  0000000000033140     UefiPxeBcDxe:AutoGen.obj
 0003:00000150       gEfiSimpleNetworkProtocolGuid 0000000000033150     UefiPxeBcDxe:AutoGen.obj
 0003:00000160       gEfiCallerBaseName         0000000000033160     UefiPxeBcDxe:AutoGen.obj
 0003:00000168       gEfiDns6ServiceBindingProtocolGuid 0000000000033168     UefiPxeBcDxe:AutoGen.obj
 0003:00000178       gEfiPxeBaseCodeCallbackProtocolGuid 0000000000033178     UefiPxeBcDxe:AutoGen.obj
 0003:00000188       gEfiUdp4ServiceBindingProtocolGuid 0000000000033188     UefiPxeBcDxe:AutoGen.obj
 0003:00000198       gEfiStatusCodeDataTypeDebugGuid 0000000000033198     UefiPxeBcDxe:AutoGen.obj
 0003:000001a8       gEfiIp4Config2ProtocolGuid 00000000000331a8     UefiPxeBcDxe:AutoGen.obj
 0003:000001b8       gEfiMtftp6ProtocolGuid     00000000000331b8     UefiPxeBcDxe:AutoGen.obj
 0003:000001c8       gEfiIp4ServiceBindingProtocolGuid 00000000000331c8     UefiPxeBcDxe:AutoGen.obj
 0003:000001d8       gEfiUdp6ProtocolGuid       00000000000331d8     UefiPxeBcDxe:AutoGen.obj
 0003:000001e8       gEfiSmbios3TableGuid       00000000000331e8     UefiPxeBcDxe:AutoGen.obj
 0003:000001f8       gEfiUdp6ServiceBindingProtocolGuid 00000000000331f8     UefiPxeBcDxe:AutoGen.obj
 0003:00000208       gEfiIp6ServiceBindingProtocolGuid 0000000000033208     UefiPxeBcDxe:AutoGen.obj
 0003:00000218       gEfiSmbiosTableGuid        0000000000033218     UefiPxeBcDxe:AutoGen.obj
 0003:00000228       gEfiDns6ProtocolGuid       0000000000033228     UefiPxeBcDxe:AutoGen.obj
 0003:00000238       gEfiIp4ProtocolGuid        0000000000033238     UefiPxeBcDxe:AutoGen.obj
 0003:00000248       gEfiAdapterInfoMediaStateGuid 0000000000033248     UefiPxeBcDxe:AutoGen.obj
 0003:00000258       gEfiMtftp4ServiceBindingProtocolGuid 0000000000033258     UefiPxeBcDxe:AutoGen.obj
 0003:00000268       gEfiDriverBindingProtocolGuid 0000000000033268     UefiPxeBcDxe:AutoGen.obj
 0003:00000278       gEfiArpServiceBindingProtocolGuid 0000000000033278     UefiPxeBcDxe:AutoGen.obj
 0003:00000288       gEfiUdp4ProtocolGuid       0000000000033288     UefiPxeBcDxe:AutoGen.obj
 0003:00000298       gEfiIp6ProtocolGuid        0000000000033298     UefiPxeBcDxe:AutoGen.obj
 0003:000002a8       gEfiComponentNameProtocolGuid 00000000000332a8     UefiPxeBcDxe:AutoGen.obj
 0003:000002b8       gEfiDpcProtocolGuid        00000000000332b8     UefiPxeBcDxe:AutoGen.obj
 0003:000002c8       gEfiCallerIdGuid           00000000000332c8     UefiPxeBcDxe:AutoGen.obj
 0003:000002d8       gEfiDhcp4ProtocolGuid      00000000000332d8     UefiPxeBcDxe:AutoGen.obj
 0003:000002e8       gEfiArpProtocolGuid        00000000000332e8     UefiPxeBcDxe:AutoGen.obj
 0003:000002f8       gEfiRngAlgorithmRaw        00000000000332f8     UefiPxeBcDxe:AutoGen.obj
 0003:00000308       gEfiRngAlgorithmSp80090Ctr256Guid 0000000000033308     UefiPxeBcDxe:AutoGen.obj
 0003:00000318       gPxeBcIp6DriverBinding     0000000000033318     UefiPxeBcDxe:PxeBcDriver.obj
 0003:00000348       gPxeBcIp4DriverBinding     0000000000033348     UefiPxeBcDxe:PxeBcDriver.obj
 0003:00000378       gLoadFileProtocolTemplate  0000000000033378     UefiPxeBcDxe:PxeBcImpl.obj
 0003:00000380       gPxeBcProtocolTemplate     0000000000033380     UefiPxeBcDxe:PxeBcImpl.obj
 0003:000003f0       gPxeBcCallBackTemplate     00000000000333f0     UefiPxeBcDxe:PxeBcImpl.obj
 0003:00000400       gPxeBcComponentName2       0000000000033400     UefiPxeBcDxe:ComponentName.obj
 0003:00000418       gPxeBcComponentName        0000000000033418     UefiPxeBcDxe:ComponentName.obj
 0003:00000430       mPxeBcDriverNameTable      0000000000033430     UefiPxeBcDxe:ComponentName.obj
 0003:00000450       mPxeBcControllerNameTable  0000000000033450     UefiPxeBcDxe:ComponentName.obj
 0003:00000470       mInterestedDhcp4Tags       0000000000033470     UefiPxeBcDxe:PxeBcDhcp4.obj
 0003:00000478       mPxeDhcpTimeout            0000000000033478     UefiPxeBcDxe:PxeBcDhcp4.obj
 0003:00000488       mMtftpOptions              0000000000033488     UefiPxeBcDxe:PxeBcMtftp.obj
 0003:000004b0       mAllDhcpRelayAndServersAddress 00000000000334b0     UefiPxeBcDxe:PxeBcDhcp6.obj
 0003:000004c0       gIp4AllMasks               00000000000334c0     DxeNetLib:DxeNetLib.obj
 0003:00000548       mReportStatusCodeLibStatusCodeProtocol 0000000000033548     DxeReportStatusCodeLib:ReportStatusCodeLib.obj
 0003:00000550       mPcd                       0000000000033550     DxePcdLib:DxePcdLib.obj
 0003:00000560       gST                        0000000000033560     UefiBootServicesTableLib:UefiBootServicesTableLib.obj
 0003:00000568       gBS                        0000000000033568     UefiBootServicesTableLib:UefiBootServicesTableLib.obj
 0003:00000570       gImageHandle               0000000000033570     UefiBootServicesTableLib:UefiBootServicesTableLib.obj
 0003:00000578       gRT                        0000000000033578     UefiRuntimeServicesTableLib:UefiRuntimeServicesTableLib.obj
 0003:00000580       mZeroIp4Addr               0000000000033580     DxeNetLib:DxeNetLib.obj
 0003:00000588       __security_cookie          0000000000033588     StackCheckLibNull:StackCheckLibNullMsvc.obj
 0003:00000590       mDpc                       0000000000033590     <common>

 entry point at        0001:00000058

 Static symbols

 0002:00002110       mSecureHashAlgorithms      0000000000032110     DxeNetLib:DxeNetLib.obj
 0003:00000558       mDeadLoopComparator        0000000000033558     BaseLib:CpuDeadLoop.obj
 0005:00000000       $unwind$InternalMathSwapBytes64 0000000000035000     BaseLib:Math64.obj
 0005:00000000       $unwind$AsciiStrDecimalToUint64 0000000000035000     BaseLib:String.obj
 0005:00000000       $unwind$AsciiStrHexToUintn 0000000000035000     BaseLib:String.obj
 0005:00000000       $unwind$AsciiStrLen        0000000000035000     BaseLib:String.obj
 0005:00000000       $unwind$IsDevicePathEnd    0000000000035000     UefiDevicePathLib:DevicePathUtilities.obj
 0005:00000000       $unwind$IsDevicePathEndType 0000000000035000     UefiDevicePathLib:DevicePathUtilities.obj
 0005:00000000       $unwind$UefiDevicePathLibDuplicateDevicePath 0000000000035000     UefiDevicePathLib:DevicePathUtilities.obj
 0005:00000000       $unwind$UefiDevicePathLibGetDevicePathSize 0000000000035000     UefiDevicePathLib:DevicePathUtilities.obj
 0005:00000000       $unwind$DevicePathFromHandle 0000000000035000     UefiDevicePathLib:DevicePathUtilitiesDxeSmm.obj
 0005:00000000       $unwind$_DriverUnloadHandler 0000000000035000     UefiDriverEntryPoint:DriverEntryPoint.obj
 0005:00000000       $unwind$FreePool           0000000000035000     UefiMemoryAllocationLib:MemoryAllocationLib.obj
 0005:00000000       $unwind$Ip6Swap128         0000000000035000     DxeNetLib:DxeNetLib.obj
 0005:00000000       $unwind$NetIp6IsUnspecifiedAddr 0000000000035000     DxeNetLib:DxeNetLib.obj
 0005:00000000       $unwind$NetIp6IsValidUnicast 0000000000035000     DxeNetLib:DxeNetLib.obj
 0005:00000000       $unwind$PxeBcSelectDhcp4Offer 0000000000035000     UefiPxeBcDxe:PxeBcDhcp4.obj
 0005:00000000       $unwind$PxeBcSetIp6Address 0000000000035000     UefiPxeBcDxe:PxeBcDhcp6.obj
 0005:00000000       $unwind$PxeBcGetNicByIp4Children 0000000000035000     UefiPxeBcDxe:PxeBcDriver.obj
 0005:00000000       $unwind$PxeBcGetNicByIp6Children 0000000000035000     UefiPxeBcDxe:PxeBcDriver.obj
 0005:00000000       $unwind$PxeBcShowIp4Addr   0000000000035000     UefiPxeBcDxe:PxeBcSupport.obj
 0005:00000000       $unwind$PxeBcShowIp6Addr   0000000000035000     UefiPxeBcDxe:PxeBcSupport.obj
 0005:00000008       $unwind$StrnLenS           0000000000035008     BaseLib:SafeString.obj
 0005:00000008       $unwind$AsciiStrStr        0000000000035008     BaseLib:String.obj
 0005:00000008       $unwind$_ModuleEntryPoint  0000000000035008     UefiDriverEntryPoint:DriverEntryPoint.obj
 0005:00000008       $unwind$CompareIso639LanguageCode 0000000000035008     UefiLib:UefiLib.obj
 0005:00000008       $unwind$EfiGetSystemConfigurationTable 0000000000035008     UefiLib:UefiLib.obj
 0005:00000008       $unwind$IsLanguageSupported 0000000000035008     UefiLib:UefiLib.obj
 0005:00000008       $unwind$DpcLibConstructor  0000000000035008     DxeDpcLib:DpcLib.obj
 0005:00000008       $unwind$NetLibAsciiStrToIp6 0000000000035008     DxeNetLib:DxeNetLib.obj
 0005:00000008       $unwind$ProcessLibraryConstructorList 0000000000035008     UefiPxeBcDxe:AutoGen.obj
 0005:00000008       $unwind$PxeBcCacheDhcp4Packet 0000000000035008     UefiPxeBcDxe:PxeBcDhcp4.obj
 0005:00000008       $unwind$PxeBcCacheDhcp6Packet 0000000000035008     UefiPxeBcDxe:PxeBcDhcp6.obj
 0005:00000008       $unwind$PxeBcCacheDnsServerAddresses 0000000000035008     UefiPxeBcDxe:PxeBcDhcp6.obj
 0005:00000008       $unwind$PxeBcExtractBootFileParam 0000000000035008     UefiPxeBcDxe:PxeBcDhcp6.obj
 0005:00000010       $unwind$LShiftU64          0000000000035010     BaseLib:LShiftU64.obj
 0005:00000010       $unwind$WriteUnaligned16   0000000000035010     BaseLib:Unaligned.obj
 0005:00000010       $unwind$WriteUnaligned64   0000000000035010     BaseLib:Unaligned.obj
 0005:00000010       $unwind$InternalMemZeroMem 0000000000035010     BaseMemoryLib:MemLibGeneric.obj
 0005:00000010       $unwind$CopyGuid           0000000000035010     BaseMemoryLib:MemLibGuid.obj
 0005:00000010       $unwind$ZeroMem            0000000000035010     BaseMemoryLib:ZeroMemWrapper.obj
 0005:00000010       $unwind$UefiBootServicesTableLibConstructor 0000000000035010     UefiBootServicesTableLib:UefiBootServicesTableLib.obj
 0005:00000010       $unwind$SetDevicePathNodeLength 0000000000035010     UefiDevicePathLib:DevicePathUtilities.obj
 0005:00000010       $unwind$AppendDevicePath   0000000000035010     UefiDevicePathLib:UefiDevicePathLib.obj
 0005:00000010       $unwind$AppendDevicePathNode 0000000000035010     UefiDevicePathLib:UefiDevicePathLib.obj
 0005:00000010       $unwind$AllocateCopyPool   0000000000035010     UefiMemoryAllocationLib:MemoryAllocationLib.obj
 0005:00000010       $unwind$UefiRuntimeServicesTableLibConstructor 0000000000035010     UefiRuntimeServicesTableLib:UefiRuntimeServicesTableLib.obj
 0005:00000010       $unwind$ProcessModuleEntryPointList 0000000000035010     UefiPxeBcDxe:AutoGen.obj
 0005:00000010       $unwind$PxeBcIcmp6ErrorUpdate 0000000000035010     UefiPxeBcDxe:PxeBcSupport.obj
 0005:00000010       $unwind$PxeBcIcmpErrorUpdate 0000000000035010     UefiPxeBcDxe:PxeBcSupport.obj
 0005:00000018       $unwind$AsciiStrSize       0000000000035018     BaseLib:String.obj
 0005:00000018       $unwind$SwapBytes64        0000000000035018     BaseLib:SwapBytes64.obj
 0005:00000018       $unwind$ReadUnaligned16    0000000000035018     BaseLib:Unaligned.obj
 0005:00000018       $unwind$ReadUnaligned24    0000000000035018     BaseLib:Unaligned.obj
 0005:00000018       $unwind$ReadUnaligned32    0000000000035018     BaseLib:Unaligned.obj
 0005:00000018       $unwind$ReadUnaligned64    0000000000035018     BaseLib:Unaligned.obj
 0005:00000018       $unwind$LibPcdGet8         0000000000035018     DxePcdLib:DxePcdLib.obj
 0005:00000018       $unwind$DevicePathNodeLength 0000000000035018     UefiDevicePathLib:DevicePathUtilities.obj
 0005:00000018       $unwind$DevicePathSubType  0000000000035018     UefiDevicePathLib:DevicePathUtilities.obj
 0005:00000018       $unwind$DevicePathType     0000000000035018     UefiDevicePathLib:DevicePathUtilities.obj
 0005:00000018       $unwind$NextDevicePathNode 0000000000035018     UefiDevicePathLib:DevicePathUtilities.obj
 0005:00000018       $unwind$SetDevicePathEndNode 0000000000035018     UefiDevicePathLib:DevicePathUtilities.obj
 0005:00000018       $unwind$DuplicateDevicePath 0000000000035018     UefiDevicePathLib:UefiDevicePathLib.obj
 0005:00000018       $unwind$GetDevicePathSize  0000000000035018     UefiDevicePathLib:UefiDevicePathLib.obj
 0005:00000018       $unwind$AllocatePool       0000000000035018     UefiMemoryAllocationLib:MemoryAllocationLib.obj
 0005:00000018       $unwind$AllocateZeroPool   0000000000035018     UefiMemoryAllocationLib:MemoryAllocationLib.obj
 0005:00000018       $unwind$PseudoRandomU32    0000000000035018     DxeNetLib:DxeNetLib.obj
 0005:00000018       $unwind$ProcessModuleUnloadList 0000000000035018     UefiPxeBcDxe:AutoGen.obj
 0005:00000020       $unwind$CompareGuid        0000000000035020     BaseMemoryLib:MemLibGuid.obj
 0005:00000020       $unwind$UefiDevicePathLibAppendDevicePath 0000000000035020     UefiDevicePathLib:DevicePathUtilities.obj
 0005:00000020       $unwind$UefiDevicePathLibAppendDevicePathNode 0000000000035020     UefiDevicePathLib:DevicePathUtilities.obj
 0005:00000020       $unwind$NetLibGetNicHandle 0000000000035020     DxeNetLib:DxeNetLib.obj
 0005:00000020       $unwind$PxeBcParseVendorOptions 0000000000035020     UefiPxeBcDxe:PxeBcDhcp4.obj
 0005:00000020       $unwind$PxeBcDestroyIp4Children 0000000000035020     UefiPxeBcDxe:PxeBcDriver.obj
 0005:00000020       $unwind$PxeBcDestroyIp6Children 0000000000035020     UefiPxeBcDxe:PxeBcDriver.obj
 0005:00000028       $unwind$InternalMemCopyMem 0000000000035028     BaseMemoryLib:CopyMem.obj
 0005:00000028       $unwind$PxeBcCheckIpv6Support 0000000000035028     UefiPxeBcDxe:PxeBcDriver.obj
 0005:00000030       $unwind$PxeBcCreateIp4Children 0000000000035030     UefiPxeBcDxe:PxeBcDriver.obj
 0005:00000040       $unwind$PxeBcCreateIp6Children 0000000000035040     UefiPxeBcDxe:PxeBcDriver.obj
 0005:00000050       $unwind$IsDevicePathValid  0000000000035050     UefiDevicePathLib:DevicePathUtilities.obj
 0005:00000050       $unwind$NetLibGetSnpHandle 0000000000035050     DxeNetLib:DxeNetLib.obj
 0005:00000050       $unwind$PseudoRandom       0000000000035050     DxeNetLib:DxeNetLib.obj
 0005:00000050       $unwind$PxeBcCacheDhcp4Offer 0000000000035050     UefiPxeBcDxe:PxeBcDhcp4.obj
 0005:00000050       $unwind$PxeBcCacheDhcp6Offer 0000000000035050     UefiPxeBcDxe:PxeBcDhcp6.obj
 0005:00000050       $unwind$PxeBcDriverEntryPoint 0000000000035050     UefiPxeBcDxe:PxeBcDriver.obj
 0005:00000058       $unwind$AsciiStrnCpyS      0000000000035058     BaseLib:SafeString.obj
 0005:00000058       $unwind$EfiLibInstallDriverBindingComponentName2 0000000000035058     UefiLib:UefiDriverModel.obj
 0005:00000058       $unwind$PxeBcComponentNameGetControllerName 0000000000035058     UefiPxeBcDxe:ComponentName.obj
 0005:00000058       $unwind$PxeBcSupported     0000000000035058     UefiPxeBcDxe:PxeBcDriver.obj
 0005:00000060       $unwind$PxeBcStart         0000000000035060     UefiPxeBcDxe:PxeBcDriver.obj
 0005:00000060       $unwind$EfiPxeLoadFile     0000000000035060     UefiPxeBcDxe:PxeBcImpl.obj
 0005:00000068       $unwind$PxeBcExtractBootFileUrl 0000000000035068     UefiPxeBcDxe:PxeBcDhcp6.obj
 0005:00000068       $unwind$PxeBcStop          0000000000035068     UefiPxeBcDxe:PxeBcDriver.obj
 0005:00000068       $unwind$PxeBcUdp4Write     0000000000035068     UefiPxeBcDxe:PxeBcSupport.obj
 0005:00000068       $unwind$PxeBcUdp6Write     0000000000035068     UefiPxeBcDxe:PxeBcSupport.obj
 0005:00000070       $unwind$DebugVPrint        0000000000035070     PeiDxeDebugLibReportStatusCode:DebugLib.obj
 0005:00000070       $unwind$AsciiStrnCmp       0000000000035070     BaseLib:String.obj
 0005:00000070       $unwind$CompareMem         0000000000035070     BaseMemoryLib:CompareMemWrapper.obj
 0005:00000070       $unwind$CopyMem            0000000000035070     BaseMemoryLib:CopyMemWrapper.obj
 0005:00000070       $unwind$SetMem             0000000000035070     BaseMemoryLib:SetMemWrapper.obj
 0005:00000070       $unwind$QueueDpc           0000000000035070     DxeDpcLib:DpcLib.obj
 0005:00000070       $unwind$PxeBcIp4DriverBindingStart 0000000000035070     UefiPxeBcDxe:PxeBcDriver.obj
 0005:00000070       $unwind$PxeBcIp4DriverBindingSupported 0000000000035070     UefiPxeBcDxe:PxeBcDriver.obj
 0005:00000070       $unwind$PxeBcIp6DriverBindingStart 0000000000035070     UefiPxeBcDxe:PxeBcDriver.obj
 0005:00000070       $unwind$PxeBcIp6DriverBindingSupported 0000000000035070     UefiPxeBcDxe:PxeBcDriver.obj
 0005:00000078       $unwind$DebugPrint         0000000000035078     PeiDxeDebugLibReportStatusCode:DebugLib.obj
 0005:00000078       $unwind$InternalSafeStringNoAsciiStrOverlap 0000000000035078     BaseLib:SafeString.obj
 0005:00000078       $unwind$UnicodeVSPrintAsciiFormat 0000000000035078     BasePrintLib:PrintLib.obj
 0005:00000078       $unwind$AsciiPrint         0000000000035078     UefiLib:UefiLibPrint.obj
 0005:00000078       $unwind$PxeBcBuildDhcp4Options 0000000000035078     UefiPxeBcDxe:PxeBcDhcp4.obj
 0005:00000078       $unwind$PxeBcIp4DriverBindingStop 0000000000035078     UefiPxeBcDxe:PxeBcDriver.obj
 0005:00000078       $unwind$PxeBcIp6DriverBindingStop 0000000000035078     UefiPxeBcDxe:PxeBcDriver.obj
 0005:00000078       $unwind$PxeBcTftpGetFileSize 0000000000035078     UefiPxeBcDxe:PxeBcMtftp.obj
 0005:00000080       $unwind$EfiPxeBcStart      0000000000035080     UefiPxeBcDxe:PxeBcImpl.obj
 0005:00000088       $unwind$EfiPxeBcStop       0000000000035088     UefiPxeBcDxe:PxeBcImpl.obj
 0005:00000088       $unwind$PxeBcIcmp6ErrorDpcHandle 0000000000035088     UefiPxeBcDxe:PxeBcSupport.obj
 0005:00000090       $unwind$EfiPxeBcDhcp       0000000000035090     UefiPxeBcDxe:PxeBcImpl.obj
 0005:000000a0       $unwind$EfiPxeBcDiscover   00000000000350a0     UefiPxeBcDxe:PxeBcImpl.obj
 0005:000000b0       $unwind$EfiPxeBcMtftp      00000000000350b0     UefiPxeBcDxe:PxeBcImpl.obj
 0005:000000c0       $unwind$EfiPxeBcUdpWrite   00000000000350c0     UefiPxeBcDxe:PxeBcImpl.obj
 0005:000000d0       $unwind$EfiPxeBcUdpRead    00000000000350d0     UefiPxeBcDxe:PxeBcImpl.obj
 0005:000000d8       $unwind$PxeBcDhcp4BootInfo 00000000000350d8     UefiPxeBcDxe:PxeBcBoot.obj
 0005:000000d8       $unwind$EfiPxeBcSetIpFilter 00000000000350d8     UefiPxeBcDxe:PxeBcImpl.obj
 0005:000000d8       $unwind$PxeBcArpCacheUpdate 00000000000350d8     UefiPxeBcDxe:PxeBcSupport.obj
 0005:000000e0       $unwind$EfiPxeBcArp        00000000000350e0     UefiPxeBcDxe:PxeBcImpl.obj
 0005:000000f0       $unwind$EfiPxeBcSetParameters 00000000000350f0     UefiPxeBcDxe:PxeBcImpl.obj
 0005:000000f0       $unwind$PxeBcConfigUdp4Write 00000000000350f0     UefiPxeBcDxe:PxeBcSupport.obj
 0005:00000100       $unwind$AsciiStrCpyS       0000000000035100     BaseLib:SafeString.obj
 0005:00000100       $unwind$AsciiStrHexToUintnS 0000000000035100     BaseLib:SafeString.obj
 0005:00000100       $unwind$AsciiStrToUnicodeStrS 0000000000035100     BaseLib:SafeString.obj
 0005:00000100       $unwind$InternalMemSetMem  0000000000035100     BaseMemoryLib:SetMem.obj
 0005:00000100       $unwind$EfiLibUninstallDriverBindingComponentName2 0000000000035100     UefiLib:UefiDriverModel.obj
 0005:00000100       $unwind$PxeBcBuildDhcp6Options 0000000000035100     UefiPxeBcDxe:PxeBcDhcp6.obj
 0005:00000100       $unwind$EfiPxeBcSetStationIP 0000000000035100     UefiPxeBcDxe:PxeBcImpl.obj
 0005:00000108       $unwind$BasePrintLibSPrint 0000000000035108     BasePrintLib:PrintLibInternal.obj
 0005:00000108       $unwind$LookupUnicodeString2 0000000000035108     UefiLib:UefiLib.obj
 0005:00000108       $unwind$NetLibCreateServiceChild 0000000000035108     DxeNetLib:DxeNetLib.obj
 0005:00000108       $unwind$NetLibDestroyServiceChild 0000000000035108     DxeNetLib:DxeNetLib.obj
 0005:00000108       $unwind$PxeBcDiscoverBootServer 0000000000035108     UefiPxeBcDxe:PxeBcBoot.obj
 0005:00000108       $unwind$EfiPxeBcSetPackets 0000000000035108     UefiPxeBcDxe:PxeBcImpl.obj
 0005:00000108       $unwind$PxeBcTftpReadDirectory 0000000000035108     UefiPxeBcDxe:PxeBcMtftp.obj
 0005:00000108       $unwind$PxeBcTftpReadFile  0000000000035108     UefiPxeBcDxe:PxeBcMtftp.obj
 0005:00000108       $unwind$PxeBcTftpWriteFile 0000000000035108     UefiPxeBcDxe:PxeBcMtftp.obj
 0005:00000108       $unwind$PxeBcUdp4Read      0000000000035108     UefiPxeBcDxe:PxeBcSupport.obj
 0005:00000108       $unwind$PxeBcUdp6Read      0000000000035108     UefiPxeBcDxe:PxeBcSupport.obj
 0005:00000110       $unwind$EfiPxeLoadFileCallback 0000000000035110     UefiPxeBcDxe:PxeBcImpl.obj
 0005:00000118       $unwind$AsciiStrDecimalToUint64S 0000000000035118     BaseLib:SafeString.obj
 0005:00000118       $unwind$AsciiStrDecimalToUintnS 0000000000035118     BaseLib:SafeString.obj
 0005:00000118       $unwind$AsciiInternalPrint 0000000000035118     UefiLib:UefiLibPrint.obj
 0005:00000118       $unwind$PxeBcComponentNameGetDriverName 0000000000035118     UefiPxeBcDxe:ComponentName.obj
 0005:00000118       $unwind$PxeBcCopyDhcp4Ack  0000000000035118     UefiPxeBcDxe:PxeBcDhcp4.obj
 0005:00000118       $unwind$PxeBcCopyDhcp6Ack  0000000000035118     UefiPxeBcDxe:PxeBcDhcp6.obj
 0005:00000118       $unwind$PxeBcDhcp6SeekOption 0000000000035118     UefiPxeBcDxe:PxeBcDhcp6.obj
 0005:00000120       $unwind$NetLibDetectMediaWaitTimeout 0000000000035120     DxeNetLib:DxeNetLib.obj
 0005:00000120       $unwind$PxeBcFlushStationIp 0000000000035120     UefiPxeBcDxe:PxeBcSupport.obj
 0005:00000128       $unwind$BasePrintLibValueToString 0000000000035128     BasePrintLib:PrintLibInternal.obj
 0005:00000128       $unwind$NetIp6IsNetEqual   0000000000035128     DxeNetLib:DxeNetLib.obj
 0005:00000128       $unwind$PxeBcParseDhcp6Options 0000000000035128     UefiPxeBcDxe:PxeBcDhcp6.obj
 0005:00000128       $unwind$PxeBcCheckArpCache 0000000000035128     UefiPxeBcDxe:PxeBcSupport.obj
 0005:00000130       $unwind$PxeBcIcmpErrorDpcHandle 0000000000035130     UefiPxeBcDxe:PxeBcSupport.obj
 0005:00000138       $unwind$PxeBcConfigUdp6Write 0000000000035138     UefiPxeBcDxe:PxeBcSupport.obj
 0005:00000148       $unwind$PxeBcCheckByIpFilter 0000000000035148     UefiPxeBcDxe:PxeBcSupport.obj
 0005:00000158       $unwind$PxeBcCheckByDestIp 0000000000035158     UefiPxeBcDxe:PxeBcSupport.obj
 0005:00000158       $unwind$PxeBcFilterBySrcIp 0000000000035158     UefiPxeBcDxe:PxeBcSupport.obj
 0005:00000160       $unwind$PxeBcCheckByDestPort 0000000000035160     UefiPxeBcDxe:PxeBcSupport.obj
 0005:00000160       $unwind$PxeBcFilterBySrcPort 0000000000035160     UefiPxeBcDxe:PxeBcSupport.obj
 0005:00000168       $unwind$PxeBcUintnToAscDecWithFormat 0000000000035168     UefiPxeBcDxe:PxeBcSupport.obj
 0005:00000170       $unwind$PxeBcUintnToAscDec 0000000000035170     UefiPxeBcDxe:PxeBcSupport.obj
 0005:00000180       $unwind$CalcElapsedTime    0000000000035180     UefiPxeBcDxe:PxeBcSupport.obj
 0005:00000190       $unwind$MultU64x32         0000000000035190     BaseLib:MultU64x32.obj
 0005:00000190       $unwind$InternalAllocatePool 0000000000035190     UefiMemoryAllocationLib:MemoryAllocationLib.obj
 0005:00000190       $unwind$InternalAllocateZeroPool 0000000000035190     UefiMemoryAllocationLib:MemoryAllocationLib.obj
 0005:00000190       $unwind$PxeBcDisplayBootItem 0000000000035190     UefiPxeBcDxe:PxeBcBoot.obj
 0005:00000198       $unwind$PxeBcSelectBootPrompt 0000000000035198     UefiPxeBcDxe:PxeBcBoot.obj
 0005:000001a0       $unwind$PxeBcSelectBootMenu 00000000000351a0     UefiPxeBcDxe:PxeBcBoot.obj
 0005:000001b0       $unwind$PxeBcDhcp6BootInfo 00000000000351b0     UefiPxeBcDxe:PxeBcBoot.obj
 0005:000001b8       $unwind$PxeBcExtractDiscoverInfo 00000000000351b8     UefiPxeBcDxe:PxeBcBoot.obj
 0005:000001b8       $unwind$PxeBcDhcp4CallBack 00000000000351b8     UefiPxeBcDxe:PxeBcDhcp4.obj
 0005:000001b8       $unwind$PxeBcDhcp6CallBack 00000000000351b8     UefiPxeBcDxe:PxeBcDhcp6.obj
 0005:000001c0       $unwind$NetLibDetectMedia  00000000000351c0     DxeNetLib:DxeNetLib.obj
 0005:000001c0       $unwind$PxeBcDiscoverBootFile 00000000000351c0     UefiPxeBcDxe:PxeBcBoot.obj
 0005:000001c8       $unwind$PxeBcInstallCallback 00000000000351c8     UefiPxeBcDxe:PxeBcBoot.obj
 0005:000001d0       $unwind$PxeBcUninstallCallback 00000000000351d0     UefiPxeBcDxe:PxeBcBoot.obj
 0005:000001d0       $unwind$PxeBcCopyProxyOffer 00000000000351d0     UefiPxeBcDxe:PxeBcDhcp4.obj
 0005:000001d0       $unwind$PxeBcCopyDhcp6Proxy 00000000000351d0     UefiPxeBcDxe:PxeBcDhcp6.obj
 0005:000001d8       $unwind$PxeBcReadBootFileList 00000000000351d8     UefiPxeBcDxe:PxeBcBoot.obj
 0005:000001e0       $unwind$PxeBcLoadBootFile  00000000000351e0     UefiPxeBcDxe:PxeBcBoot.obj
 0005:000001e8       $unwind$InternalMathDivRemU64x32 00000000000351e8     BaseLib:Math64.obj
 0005:000001e8       $unwind$PxeBcParseDhcp4Options 00000000000351e8     UefiPxeBcDxe:PxeBcDhcp4.obj
 0005:000001f0       $unwind$PxeBcSeedDhcp4Packet 00000000000351f0     UefiPxeBcDxe:PxeBcDhcp4.obj
 0005:00000200       $unwind$NetLibDefaultUnload 0000000000035200     DxeNetLib:DxeNetLib.obj
 0005:00000200       $unwind$PxeBcHandleDhcp4Offer 0000000000035200     UefiPxeBcDxe:PxeBcDhcp4.obj
 0005:00000200       $unwind$PxeBcParseDhcp4Packet 0000000000035200     UefiPxeBcDxe:PxeBcDhcp4.obj
 0005:00000208       $unwind$PxeBcRetryBinlOffer 0000000000035208     UefiPxeBcDxe:PxeBcDhcp4.obj
 0005:00000218       $unwind$PxeBcDhcp4Discover 0000000000035218     UefiPxeBcDxe:PxeBcDhcp4.obj
 0005:00000228       $unwind$PxeBcSetIp4Policy  0000000000035228     UefiPxeBcDxe:PxeBcDhcp4.obj
 0005:00000228       $unwind$PxeBcHandleDhcp6Offer 0000000000035228     UefiPxeBcDxe:PxeBcDhcp6.obj
 0005:00000228       $unwind$PxeBcSetIp6Policy  0000000000035228     UefiPxeBcDxe:PxeBcDhcp6.obj
 0005:00000230       $unwind$PxeBcDhcp4Dora     0000000000035230     UefiPxeBcDxe:PxeBcDhcp4.obj
 0005:00000240       $unwind$PxeBcMtftp4CheckPacket 0000000000035240     UefiPxeBcDxe:PxeBcMtftp.obj
 0005:00000240       $unwind$PxeBcMtftp6CheckPacket 0000000000035240     UefiPxeBcDxe:PxeBcMtftp.obj
 0005:00000248       $unwind$PxeBcMtftp4GetFileSize 0000000000035248     UefiPxeBcDxe:PxeBcMtftp.obj
 0005:00000248       $unwind$PxeBcMtftp4WriteFile 0000000000035248     UefiPxeBcDxe:PxeBcMtftp.obj
 0005:00000248       $unwind$PxeBcMtftp6GetFileSize 0000000000035248     UefiPxeBcDxe:PxeBcMtftp.obj
 0005:00000248       $unwind$PxeBcMtftp6WriteFile 0000000000035248     UefiPxeBcDxe:PxeBcMtftp.obj
 0005:00000258       $unwind$PxeBcMtftp4ReadDirectory 0000000000035258     UefiPxeBcDxe:PxeBcMtftp.obj
 0005:00000258       $unwind$PxeBcMtftp4ReadFile 0000000000035258     UefiPxeBcDxe:PxeBcMtftp.obj
 0005:00000258       $unwind$PxeBcMtftp6ReadDirectory 0000000000035258     UefiPxeBcDxe:PxeBcMtftp.obj
 0005:00000258       $unwind$PxeBcMtftp6ReadFile 0000000000035258     UefiPxeBcDxe:PxeBcMtftp.obj
 0005:00000268       $unwind$PxeBcDns6          0000000000035268     UefiPxeBcDxe:PxeBcDhcp6.obj
 0005:00000278       $unwind$NetLibGetSystemGuid 0000000000035278     DxeNetLib:DxeNetLib.obj
 0005:00000278       $unwind$PxeBcParseDhcp6Packet 0000000000035278     UefiPxeBcDxe:PxeBcDhcp6.obj
 0005:00000280       $unwind$PxeBcRequestBootService 0000000000035280     UefiPxeBcDxe:PxeBcDhcp6.obj
 0005:00000288       $unwind$PxeBcRetryDhcp6Binl 0000000000035288     UefiPxeBcDxe:PxeBcDhcp6.obj
 0005:00000290       $unwind$DebugPrintLevelEnabled 0000000000035290     PeiDxeDebugLibReportStatusCode:DebugLib.obj
 0005:00000290       $unwind$InternalIsDecimalDigitCharacter 0000000000035290     BaseLib:String.obj
 0005:00000290       $unwind$PxeBcSelectDhcp6Offer 0000000000035290     UefiPxeBcDxe:PxeBcDhcp6.obj
 0005:00000298       $unwind$PxeBcCheckRouteTable 0000000000035298     UefiPxeBcDxe:PxeBcDhcp6.obj
 0005:000002a8       $unwind$PxeBcRegisterIp6Address 00000000000352a8     UefiPxeBcDxe:PxeBcDhcp6.obj
 0005:000002b8       $unwind$PxeBcDhcp6Discover 00000000000352b8     UefiPxeBcDxe:PxeBcDhcp6.obj
 0005:000002c0       $unwind$PxeBcDhcp6Sarr     00000000000352c0     UefiPxeBcDxe:PxeBcDhcp6.obj
 0005:000002d0       $unwind$InternalGetReportStatusCode 00000000000352d0     DxeReportStatusCodeLib:ReportStatusCodeLib.obj
 0005:000002d0       $unwind$CpuDeadLoop        00000000000352d0     BaseLib:CpuDeadLoop.obj
 0005:000002d0       $unwind$GetPcdProtocol     00000000000352d0     DxePcdLib:DxePcdLib.obj
 0005:000002d8       $unwind$InternalReportStatusCode 00000000000352d8     DxeReportStatusCodeLib:ReportStatusCodeLib.obj
 0005:000002e0       $unwind$ReportStatusCodeWithExtendedData 00000000000352e0     DxeReportStatusCodeLib:ReportStatusCodeLib.obj
 0005:000002e8       $unwind$ReportStatusCodeEx 00000000000352e8     DxeReportStatusCodeLib:ReportStatusCodeLib.obj
 0005:000002f8       $unwind$ReportDebugCodeEnabled 00000000000352f8     DxeReportStatusCodeLib:ReportStatusCodeLib.obj
 0005:000002f8       $unwind$ReportErrorCodeEnabled 00000000000352f8     DxeReportStatusCodeLib:ReportStatusCodeLib.obj
 0005:000002f8       $unwind$ReportProgressCodeEnabled 00000000000352f8     DxeReportStatusCodeLib:ReportStatusCodeLib.obj
 0005:000002f8       $unwind$DebugAssertEnabled 00000000000352f8     PeiDxeDebugLibReportStatusCode:DebugLib.obj
 0005:000002f8       $unwind$DebugPrintEnabled  00000000000352f8     PeiDxeDebugLibReportStatusCode:DebugLib.obj
 0005:00000300       $unwind$DebugPrintMarker   0000000000035300     PeiDxeDebugLibReportStatusCode:DebugLib.obj
 0005:00000310       $unwind$DebugAssert        0000000000035310     PeiDxeDebugLibReportStatusCode:DebugLib.obj
 0005:00000320       $unwind$InternalAllocateCopyPool 0000000000035320     UefiMemoryAllocationLib:MemoryAllocationLib.obj
 0005:00000328       $unwind$InternalAsciiIsHexaDecimalDigitCharacter 0000000000035328     BaseLib:String.obj
 0005:00000328       $unwind$SwapBytes32        0000000000035328     BaseLib:SwapBytes32.obj
 0005:00000330       $unwind$AsciiCharToUpper   0000000000035330     BaseLib:String.obj
 0005:00000330       $unwind$InternalAsciiIsDecimalDigitCharacter 0000000000035330     BaseLib:String.obj
 0005:00000330       $unwind$NetGetMaskLength   0000000000035330     DxeNetLib:DxeNetLib.obj
 0005:00000338       $unwind$InternalAsciiHexCharToUintn 0000000000035338     BaseLib:String.obj
 0005:00000340       $unwind$DivU64x32          0000000000035340     BaseLib:DivU64x32.obj
 0005:00000348       $unwind$AsciiStrnLenS      0000000000035348     BaseLib:SafeString.obj
 0005:00000350       $unwind$AsciiStrToIpv6Address 0000000000035350     BaseLib:SafeString.obj
 0005:00000360       $unwind$InternalMathDivU64x32 0000000000035360     BaseLib:Math64.obj
 0005:00000368       $unwind$NetIp4IsUnicast    0000000000035368     DxeNetLib:DxeNetLib.obj
 0005:00000370       $unwind$BasePrintLibFillBuffer 0000000000035370     BasePrintLib:PrintLibInternal.obj
 0005:00000378       $unwind$BasePrintLibSPrintMarker 0000000000035378     BasePrintLib:PrintLibInternal.obj
 0005:00000390       $unwind$DivU64x32Remainder 0000000000035390     BaseLib:DivU64x32Remainder.obj
