 EmuGopDxe.dll

 Timestamp is 68f5fe98 (Mon Oct 20 17:19:20 2025)

 Preferred load address is 0000000000010000

 Start         Length     Name                   Class
 0001:00000000 00000ae4H .text                   CODE
 0001:00000ae4 000066f3H .text$mn                CODE
 0002:00000000 00000fb8H .rdata                  DATA
 0002:00000fb8 00000018H .rdata$voltmd           DATA
 0002:00000fd0 0000014cH .rdata$zzzdbg           DATA
 0003:00000000 000001e0H .data                   DATA
 0003:000001e0 00000048H .bss                    DATA
 0004:00000000 00000474H .pdata                  DATA
 0005:00000000 00000130H .xdata                  DATA

  Address         Publics by Value              Rva+Base               Lib:Object

 0000:00000000       __x64_code_ranges_to_entry_points_count 0000000000000000     <absolute>
 0000:00000000       __x64_code_ranges_to_entry_points 0000000000000000     <absolute>
 0000:00000000       __arm64x_redirection_metadata 0000000000000000     <absolute>
 0000:00000000       __guard_fids_count         0000000000000000     <absolute>
 0000:00000000       __guard_iat_table          0000000000000000     <absolute>
 0000:00000000       __arm64x_extra_rfe_table   0000000000000000     <absolute>
 0000:00000000       __hybrid_code_map          0000000000000000     <absolute>
 0000:00000000       __guard_iat_count          0000000000000000     <absolute>
 0000:00000000       __guard_longjmp_count      0000000000000000     <absolute>
 0000:00000000       __arm64x_extra_rfe_table_size 0000000000000000     <absolute>
 0000:00000000       __dynamic_value_reloc_table 0000000000000000     <absolute>
 0000:00000000       __guard_longjmp_table      0000000000000000     <absolute>
 0000:00000000       __hybrid_auxiliary_iat     0000000000000000     <absolute>
 0000:00000000       __hybrid_auxiliary_iat_copy 0000000000000000     <absolute>
 0000:00000000       __AbsoluteZero             0000000000000000     <absolute>
 0000:00000000       __guard_check_icall_a64n_fptr 0000000000000000     <absolute>
 0000:00000000       __guard_flags              0000000000000000     <absolute>
 0000:00000000       __guard_eh_cont_count      0000000000000000     <absolute>
 0000:00000000       __guard_fids_table         0000000000000000     <absolute>
 0000:00000000       __arm64x_redirection_metadata_count 0000000000000000     <absolute>
 0000:00000000       __enclave_config           0000000000000000     <absolute>
 0000:00000000       __guard_eh_cont_table      0000000000000000     <absolute>
 0000:00000000       __arm64x_native_entrypoint 0000000000000000     <absolute>
 0000:00000000       __hybrid_code_map_count    0000000000000000     <absolute>
 0001:00000000       AsmVmgExitSvsm             0000000000011000     BaseLib:VmgExitSvsm.obj
 0001:00000060       AsmVmgExit                 0000000000011060     BaseLib:VmgExit.obj
 0001:00000070       AsmXSetBv                  0000000000011070     BaseLib:XSetBv.obj
 0001:00000080       AsmXGetBv                  0000000000011080     BaseLib:XGetBv.obj
 0001:00000090       AsmRmpAdjust               0000000000011090     BaseLib:RmpAdjust.obj
 0001:000000a0       InternalX86RdRand16        00000000000110a0     BaseLib:RdRand.obj
 0001:000000b2       InternalX86RdRand32        00000000000110b2     BaseLib:RdRand.obj
 0001:000000c3       InternalX86RdRand64        00000000000110c3     BaseLib:RdRand.obj
 0001:000000e0       AsmPvalidate               00000000000110e0     BaseLib:Pvalidate.obj
 0001:00000100       InternalX86DisablePaging64 0000000000011100     BaseLib:DisablePaging64.obj
 0001:00000170       EnableDisableInterrupts    0000000000011170     BaseLib:EnableDisableInterrupts.obj
 0001:00000180       TdVmCall                   0000000000011180     BaseLib:TdVmcall.obj
 0001:00000200       TdCall                     0000000000011200     BaseLib:TdCall.obj
 0001:00000260       AsmReadEflags              0000000000011260     BaseLib:ReadEflags.obj
 0001:00000270       AsmReadCr0                 0000000000011270     BaseLib:ReadCr0.obj
 0001:00000280       AsmReadCr2                 0000000000011280     BaseLib:ReadCr2.obj
 0001:00000290       AsmReadCr3                 0000000000011290     BaseLib:ReadCr3.obj
 0001:000002a0       AsmReadCr4                 00000000000112a0     BaseLib:ReadCr4.obj
 0001:000002b0       AsmWriteCr0                00000000000112b0     BaseLib:WriteCr0.obj
 0001:000002c0       AsmWriteCr2                00000000000112c0     BaseLib:WriteCr2.obj
 0001:000002d0       AsmWriteCr3                00000000000112d0     BaseLib:WriteCr3.obj
 0001:000002e0       AsmWriteCr4                00000000000112e0     BaseLib:WriteCr4.obj
 0001:000002f0       AsmReadDr0                 00000000000112f0     BaseLib:ReadDr0.obj
 0001:00000300       AsmReadDr1                 0000000000011300     BaseLib:ReadDr1.obj
 0001:00000310       AsmReadDr2                 0000000000011310     BaseLib:ReadDr2.obj
 0001:00000320       AsmReadDr3                 0000000000011320     BaseLib:ReadDr3.obj
 0001:00000330       AsmReadDr4                 0000000000011330     BaseLib:ReadDr4.obj
 0001:00000340       AsmReadDr5                 0000000000011340     BaseLib:ReadDr5.obj
 0001:00000350       AsmReadDr6                 0000000000011350     BaseLib:ReadDr6.obj
 0001:00000360       AsmReadDr7                 0000000000011360     BaseLib:ReadDr7.obj
 0001:00000370       AsmWriteDr0                0000000000011370     BaseLib:WriteDr0.obj
 0001:00000380       AsmWriteDr1                0000000000011380     BaseLib:WriteDr1.obj
 0001:00000390       AsmWriteDr2                0000000000011390     BaseLib:WriteDr2.obj
 0001:000003a0       AsmWriteDr3                00000000000113a0     BaseLib:WriteDr3.obj
 0001:000003b0       AsmWriteDr4                00000000000113b0     BaseLib:WriteDr4.obj
 0001:000003c0       AsmWriteDr5                00000000000113c0     BaseLib:WriteDr5.obj
 0001:000003d0       AsmWriteDr6                00000000000113d0     BaseLib:WriteDr6.obj
 0001:000003e0       AsmWriteDr7                00000000000113e0     BaseLib:WriteDr7.obj
 0001:000003f0       AsmReadCs                  00000000000113f0     BaseLib:ReadCs.obj
 0001:00000400       AsmReadDs                  0000000000011400     BaseLib:ReadDs.obj
 0001:00000410       AsmReadEs                  0000000000011410     BaseLib:ReadEs.obj
 0001:00000420       AsmReadFs                  0000000000011420     BaseLib:ReadFs.obj
 0001:00000430       AsmReadGs                  0000000000011430     BaseLib:ReadGs.obj
 0001:00000440       AsmReadSs                  0000000000011440     BaseLib:ReadSs.obj
 0001:00000450       AsmReadTr                  0000000000011450     BaseLib:ReadTr.obj
 0001:00000460       InternalX86ReadGdtr        0000000000011460     BaseLib:ReadGdtr.obj
 0001:00000470       InternalX86WriteGdtr       0000000000011470     BaseLib:WriteGdtr.obj
 0001:00000480       InternalX86ReadIdtr        0000000000011480     BaseLib:ReadIdtr.obj
 0001:00000490       InternalX86WriteIdtr       0000000000011490     BaseLib:WriteIdtr.obj
 0001:000004a0       AsmReadLdtr                00000000000114a0     BaseLib:ReadLdtr.obj
 0001:000004b0       AsmWriteLdtr               00000000000114b0     BaseLib:WriteLdtr.obj
 0001:000004c0       InternalX86FxSave          00000000000114c0     BaseLib:FxSave.obj
 0001:000004d0       InternalX86FxRestore       00000000000114d0     BaseLib:FxRestore.obj
 0001:000004e0       AsmReadMm0                 00000000000114e0     BaseLib:ReadMm0.obj
 0001:000004f0       AsmReadMm1                 00000000000114f0     BaseLib:ReadMm1.obj
 0001:00000500       AsmReadMm2                 0000000000011500     BaseLib:ReadMm2.obj
 0001:00000510       AsmReadMm3                 0000000000011510     BaseLib:ReadMm3.obj
 0001:00000520       AsmReadMm4                 0000000000011520     BaseLib:ReadMm4.obj
 0001:00000530       AsmReadMm5                 0000000000011530     BaseLib:ReadMm5.obj
 0001:00000540       AsmReadMm6                 0000000000011540     BaseLib:ReadMm6.obj
 0001:00000550       AsmReadMm7                 0000000000011550     BaseLib:ReadMm7.obj
 0001:00000560       AsmWriteMm0                0000000000011560     BaseLib:WriteMm0.obj
 0001:00000570       AsmWriteMm1                0000000000011570     BaseLib:WriteMm1.obj
 0001:00000580       AsmWriteMm2                0000000000011580     BaseLib:WriteMm2.obj
 0001:00000590       AsmWriteMm3                0000000000011590     BaseLib:WriteMm3.obj
 0001:000005a0       AsmWriteMm4                00000000000115a0     BaseLib:WriteMm4.obj
 0001:000005b0       AsmWriteMm5                00000000000115b0     BaseLib:WriteMm5.obj
 0001:000005c0       AsmWriteMm6                00000000000115c0     BaseLib:WriteMm6.obj
 0001:000005d0       AsmWriteMm7                00000000000115d0     BaseLib:WriteMm7.obj
 0001:000005e0       AsmReadTsc                 00000000000115e0     BaseLib:ReadTsc.obj
 0001:000005f0       AsmReadPmc                 00000000000115f0     BaseLib:ReadPmc.obj
 0001:00000600       AsmMonitor                 0000000000011600     BaseLib:Monitor.obj
 0001:00000610       AsmMwait                   0000000000011610     BaseLib:Mwait.obj
 0001:00000620       AsmWbinvd                  0000000000011620     BaseLib:Wbinvd.obj
 0001:00000630       AsmInvd                    0000000000011630     BaseLib:Invd.obj
 0001:00000640       AsmFlushCacheLine          0000000000011640     BaseLib:FlushCacheLine.obj
 0001:00000650       EnableInterrupts           0000000000011650     BaseLib:EnableInterrupts.obj
 0001:00000660       DisableInterrupts          0000000000011660     BaseLib:DisableInterrupts.obj
 0001:00000670       CpuPause                   0000000000011670     BaseLib:CpuPause.obj
 0001:00000680       AsmLfence                  0000000000011680     BaseLib:Lfence.obj
 0001:00000690       AsmWriteTr                 0000000000011690     BaseLib:WriteTr.obj
 0001:000006a0       AsmDisableCache            00000000000116a0     BaseLib:DisableCache.obj
 0001:000006c0       AsmEnableCache             00000000000116c0     BaseLib:EnableCache.obj
 0001:000006e0       InternalSwitchStack        00000000000116e0     BaseLib:SwitchStack.obj
 0001:000006f0       SetJump                    00000000000116f0     BaseLib:SetJump.obj
 0001:000007c0       InternalLongJump           00000000000117c0     BaseLib:LongJump.obj
 0001:00000870       AsmCpuid                   0000000000011870     BaseLib:CpuId.obj
 0001:000008a0       AsmCpuidEx                 00000000000118a0     BaseLib:CpuIdEx.obj
 0001:000008d0       m16Start                   00000000000118d0     BaseLib:Thunk16.obj
 0001:00000a00       InternalAsmThunk16         0000000000011a00     BaseLib:Thunk16.obj
 0001:00000ae0       __report_rangecheckfailure 0000000000011ae0     StackCheckLibNull:StackCheckFunctionsMsvc.obj
 0001:00000ae1       __GSHandlerCheck           0000000000011ae1     StackCheckLibNull:StackCheckFunctionsMsvc.obj
 0001:00000ae2       __security_check_cookie    0000000000011ae2     StackCheckLibNull:StackCheckFunctionsMsvc.obj
 0001:00000ae4       ProcessLibraryConstructorList 0000000000011ae4 f   EmuGopDxe:AutoGen.obj
 0001:00000d30       ProcessLibraryDestructorList 0000000000011d30 f   EmuGopDxe:AutoGen.obj
 0001:00000d3c       ProcessModuleEntryPointList 0000000000011d3c f   EmuGopDxe:AutoGen.obj
 0001:00000d60       ProcessModuleUnloadList    0000000000011d60 f   EmuGopDxe:AutoGen.obj
 0001:00000d60       KeyMapMake                 0000000000011d60 f   KeyMapLibNull:KeyMapLibNull.obj
 0001:00000d60       KeyMapBreak                0000000000011d60 f   KeyMapLibNull:KeyMapLibNull.obj
 0001:00000d68       GopPrivateIsKeyRegistered  0000000000011d68 f   EmuGopDxe:GopInput.obj
 0001:00000e30       GopPrivateMakeCallbackFunction 0000000000011e30 f   EmuGopDxe:GopInput.obj
 0001:00000f40       GopPrivateBreakCallbackFunction 0000000000011f40 f   EmuGopDxe:GopInput.obj
 0001:00000f60       EmuGopSimpleTextInReset    0000000000011f60 f   EmuGopDxe:GopInput.obj
 0001:00001060       EmuGopSimpleTextInReadKeyStroke 0000000000012060 f   EmuGopDxe:GopInput.obj
 0001:000011b8       EmuGopSimpleTextInWaitForKey 00000000000121b8 f   EmuGopDxe:GopInput.obj
 0001:00001240       EmuGopSimpleTextInExResetEx 0000000000012240 f   EmuGopDxe:GopInput.obj
 0001:0000124c       EmuGopSimpleTextInExReadKeyStrokeEx 000000000001224c f   EmuGopDxe:GopInput.obj
 0001:00001358       EmuGopSimpleTextInExSetState 0000000000012358 f   EmuGopDxe:GopInput.obj
 0001:0000149c       EmuGopRegisterKeyCallback  000000000001249c f   EmuGopDxe:GopInput.obj
 0001:000014d0       EmuGopSimpleTextInExRegisterKeyNotify 00000000000124d0 f   EmuGopDxe:GopInput.obj
 0001:00001808       EmuGopSimpleTextInExUnregisterKeyNotify 0000000000012808 f   EmuGopDxe:GopInput.obj
 0001:000019dc       EmuGopInitializeSimpleTextInForWindow 00000000000129dc f   EmuGopDxe:GopInput.obj
 0001:00001bf8       EmuGopSimplePointerReset   0000000000012bf8 f   EmuGopDxe:GopInput.obj
 0001:00001cf8       EmuGopSimplePointerGetState 0000000000012cf8 f   EmuGopDxe:GopInput.obj
 0001:00001de8       EmuGopSimplePointerWaitForInput 0000000000012de8 f   EmuGopDxe:GopInput.obj
 0001:00001e70       EmuGopInitializeSimplePointerForWindow 0000000000012e70 f   EmuGopDxe:GopInput.obj
 0001:00001f34       FreeNotifyList             0000000000012f34 f   EmuGopDxe:GopDriver.obj
 0001:00002018       EmuGopDriverBindingSupported 0000000000013018 f   EmuGopDxe:GopDriver.obj
 0001:000020c4       EmuGopDriverBindingStart   00000000000130c4 f   EmuGopDxe:GopDriver.obj
 0001:000023ac       EmuGopDriverBindingStop    00000000000133ac f   EmuGopDxe:GopDriver.obj
 0001:00002700       InitializeEmuGop           0000000000013700 f   EmuGopDxe:GopDriver.obj
 0001:000027cc       EmuGopQuerytMode           00000000000137cc f   EmuGopDxe:GopScreen.obj
 0001:00002948       EmuGopSetMode              0000000000013948 f   EmuGopDxe:GopScreen.obj
 0001:00002b94       EmuGopBlt                  0000000000013b94 f   EmuGopDxe:GopScreen.obj
 0001:00002d70       EmuGopSupported            0000000000013d70 f   EmuGopDxe:GopScreen.obj
 0001:00002da8       EmuGopStartWindow          0000000000013da8 f   EmuGopDxe:GopScreen.obj
 0001:00002ee8       EmuGopConstructor          0000000000013ee8 f   EmuGopDxe:GopScreen.obj
 0001:00003070       EmuGopDestructor           0000000000014070 f   EmuGopDxe:GopScreen.obj
 0001:000030f0       ShutdownGopEvent           00000000000140f0 f   EmuGopDxe:GopScreen.obj
 0001:00003110       EmuGopComponentNameGetDriverName 0000000000014110 f   EmuGopDxe:ComponentName.obj
 0001:0000316c       EmuGopComponentNameGetControllerName 000000000001416c f   EmuGopDxe:ComponentName.obj
 0001:00003300       GetDebugPrintErrorLevel    0000000000014300 f   BaseDebugPrintErrorLevelLib:BaseDebugPrintErrorLevelLib.obj
 0001:00003308       InternalGetReportStatusCode 0000000000014308 f   DxeReportStatusCodeLib:ReportStatusCodeLib.obj
 0001:00003378       InternalReportStatusCode   0000000000014378 f   DxeReportStatusCodeLib:ReportStatusCodeLib.obj
 0001:00003430       ReportStatusCodeEx         0000000000014430 f   DxeReportStatusCodeLib:ReportStatusCodeLib.obj
 0001:000036ac       ReportProgressCodeEnabled  00000000000146ac f   DxeReportStatusCodeLib:ReportStatusCodeLib.obj
 0001:000036d0       ReportErrorCodeEnabled     00000000000146d0 f   DxeReportStatusCodeLib:ReportStatusCodeLib.obj
 0001:000036f4       ReportDebugCodeEnabled     00000000000146f4 f   DxeReportStatusCodeLib:ReportStatusCodeLib.obj
 0001:00003718       DebugPrint                 0000000000014718 f   PeiDxeDebugLibReportStatusCode:DebugLib.obj
 0001:0000375c       DebugPrintMarker           000000000001475c f   PeiDxeDebugLibReportStatusCode:DebugLib.obj
 0001:00003f04       DebugVPrint                0000000000014f04 f   PeiDxeDebugLibReportStatusCode:DebugLib.obj
 0001:00003f34       DebugAssert                0000000000014f34 f   PeiDxeDebugLibReportStatusCode:DebugLib.obj
 0001:000042d0       DebugAssertEnabled         00000000000152d0 f   PeiDxeDebugLibReportStatusCode:DebugLib.obj
 0001:000042f4       DebugPrintEnabled          00000000000152f4 f   PeiDxeDebugLibReportStatusCode:DebugLib.obj
 0001:00004318       DebugPrintLevelEnabled     0000000000015318 f   PeiDxeDebugLibReportStatusCode:DebugLib.obj
 0001:0000434c       ReadUnaligned24            000000000001534c f   BaseLib:Unaligned.obj
 0001:00004398       ReadUnaligned64            0000000000015398 f   BaseLib:Unaligned.obj
 0001:000043e0       WriteUnaligned64           00000000000153e0 f   BaseLib:Unaligned.obj
 0001:00004438       InternalMathLShiftU64      0000000000015438 f   BaseLib:Math64.obj
 0001:00004454       CpuBreakpoint              0000000000015454 f   BaseLib:CpuBreakpoint.obj
 0001:00004458       StrLen                     0000000000015458 f   BaseLib:String.obj
 0001:0000454c       StrSize                    000000000001554c f   BaseLib:String.obj
 0001:0000456c       AsciiStrLen                000000000001556c f   BaseLib:String.obj
 0001:00004624       AsciiStrSize               0000000000015624 f   BaseLib:String.obj
 0001:00004640       AsciiStrnCmp               0000000000015640 f   BaseLib:String.obj
 0001:0000478c       InternalSafeStringIsOverlap 000000000001578c f   BaseLib:SafeString.obj
 0001:000047f0       InternalSafeStringNoAsciiStrOverlap 00000000000157f0 f   BaseLib:SafeString.obj
 0001:00004844       AsciiStrnLenS              0000000000015844 f   BaseLib:SafeString.obj
 0001:000048b0       AsciiStrnCpyS              00000000000158b0 f   BaseLib:SafeString.obj
 0001:00004da0       InternalBaseLibIsListValid 0000000000015da0 f   BaseLib:LinkedList.obj
 0001:00004ebc       IsNodeInList               0000000000015ebc f   BaseLib:LinkedList.obj
 0001:00004fbc       InitializeListHead         0000000000015fbc f   BaseLib:LinkedList.obj
 0001:0000501c       InsertTailList             000000000001601c f   BaseLib:LinkedList.obj
 0001:00005104       IsListEmpty                0000000000016104 f   BaseLib:LinkedList.obj
 0001:0000516c       RemoveEntryList            000000000001616c f   BaseLib:LinkedList.obj
 0001:000051e8       CpuDeadLoop                00000000000161e8 f   BaseLib:CpuDeadLoop.obj
 0001:00005218       LShiftU64                  0000000000016218 f   BaseLib:LShiftU64.obj
 0001:0000526c       InternalAssertJumpBuffer   000000000001626c f   BaseLib:SetJump.obj
 0001:000052e4       InternalMemCopyMem         00000000000162e4 f   BaseMemoryLib:CopyMem.obj
 0001:000058c0       CopyGuid                   00000000000168c0 f   BaseMemoryLib:MemLibGuid.obj
 0001:00005914       CompareGuid                0000000000016914 f   BaseMemoryLib:MemLibGuid.obj
 0001:0000599c       InternalMemZeroMem         000000000001699c f   BaseMemoryLib:MemLibGeneric.obj
 0001:000059c4       CopyMem                    00000000000169c4 f   BaseMemoryLib:CopyMemWrapper.obj
 0001:00005a9c       ZeroMem                    0000000000016a9c f   BaseMemoryLib:ZeroMemWrapper.obj
 0001:00005b44       InternalMemSetMem          0000000000016b44 f   BaseMemoryLib:SetMem.obj
 0001:00005cd8       InternalAllocatePool       0000000000016cd8 f   UefiMemoryAllocationLib:MemoryAllocationLib.obj
 0001:00005d28       AllocatePool               0000000000016d28 f   UefiMemoryAllocationLib:MemoryAllocationLib.obj
 0001:00005d48       InternalAllocateZeroPool   0000000000016d48 f   UefiMemoryAllocationLib:MemoryAllocationLib.obj
 0001:00005d90       AllocateZeroPool           0000000000016d90 f   UefiMemoryAllocationLib:MemoryAllocationLib.obj
 0001:00005db0       InternalAllocateCopyPool   0000000000016db0 f   UefiMemoryAllocationLib:MemoryAllocationLib.obj
 0001:00005e74       AllocateCopyPool           0000000000016e74 f   UefiMemoryAllocationLib:MemoryAllocationLib.obj
 0001:00005e9c       FreePool                   0000000000016e9c f   UefiMemoryAllocationLib:MemoryAllocationLib.obj
 0001:00005f38       UefiBootServicesTableLibConstructor 0000000000016f38 f   UefiBootServicesTableLib:UefiBootServicesTableLib.obj
 0001:00006014       UefiRuntimeServicesTableLibConstructor 0000000000017014 f   UefiRuntimeServicesTableLib:UefiRuntimeServicesTableLib.obj
 0001:00006070       UefiLibConstructor         0000000000017070 f   UefiLib:UefiLib.obj
 0001:00006080       CompareIso639LanguageCode  0000000000017080 f   UefiLib:UefiLib.obj
 0001:000060cc       EfiGetSystemConfigurationTable 00000000000170cc f   UefiLib:UefiLib.obj
 0001:000061d8       EfiTestManagedDevice       00000000000171d8 f   UefiLib:UefiLib.obj
 0001:000062b8       IsLanguageSupported        00000000000172b8 f   UefiLib:UefiLib.obj
 0001:000063a8       LookupUnicodeString2       00000000000173a8 f   UefiLib:UefiLib.obj
 0001:000065b8       AddUnicodeString           00000000000175b8 f   UefiLib:UefiLib.obj
 0001:0000687c       AddUnicodeString2          000000000001787c f   UefiLib:UefiLib.obj
 0001:00006c70       FreeUnicodeStringTable     0000000000017c70 f   UefiLib:UefiLib.obj
 0001:00006d00       EfiLibInstallDriverBindingComponentName2 0000000000017d00 f   UefiLib:UefiDriverModel.obj
 0001:00006f54       GetHobList                 0000000000017f54 f   DxeHobLib:HobLib.obj
 0001:00007038       HobLibConstructor          0000000000018038 f   DxeHobLib:HobLib.obj
 0001:00007054       _DriverUnloadHandler       0000000000018054 f   UefiDriverEntryPoint:DriverEntryPoint.obj
 0001:00007098       _ModuleEntryPoint          0000000000018098 f   UefiDriverEntryPoint:DriverEntryPoint.obj
 0002:00000000       ??_C@_09PKLINNLN@EmuGopDxe@ 0000000000019000     EmuGopDxe:AutoGen.obj
 0002:00000010       ??_C@_0CB@DMEJJJHA@?6ASSERT_EFI_ERROR?5?$CIStatus?5?$DN?5?$CFr?$CJ@ 0000000000019010     EmuGopDxe:AutoGen.obj
 0002:00000038       ??_C@_0DG@FLPEIDFK@?$CB?$CI?$CI?$CIRETURN_STATUS?$CJ?$CIStatus?$CJ?$CJ?5?$DO?$DN?5@ 0000000000019038     EmuGopDxe:AutoGen.obj
 0002:00000070       ??_C@_0HA@BKCAECGM@D?3?2develop?2Self_develop?2edk2?2Bu@ 0000000000019070     EmuGopDxe:AutoGen.obj
 0002:000000e0       _gPcd_FixedAtBuild_PcdMaximumLinkedListLength 00000000000190e0     EmuGopDxe:AutoGen.obj
 0002:000000e0       _gPcd_FixedAtBuild_PcdMaximumAsciiStringLength 00000000000190e0     EmuGopDxe:AutoGen.obj
 0002:000000e0       _gPcd_FixedAtBuild_PcdMaximumUnicodeStringLength 00000000000190e0     EmuGopDxe:AutoGen.obj
 0002:000000e4       _gPcd_FixedAtBuild_PcdReportStatusCodePropertyMask 00000000000190e4     EmuGopDxe:AutoGen.obj
 0002:000000e8       _gPcd_FixedAtBuild_PcdDebugPrintErrorLevel 00000000000190e8     EmuGopDxe:AutoGen.obj
 0002:000000ec       _gDriverUnloadImageCount   00000000000190ec     EmuGopDxe:AutoGen.obj
 0002:000000ec       _gPcd_FixedAtBuild_PcdComponentNameDisable 00000000000190ec     EmuGopDxe:AutoGen.obj
 0002:000000ec       _gPcd_FixedAtBuild_PcdComponentName2Disable 00000000000190ec     EmuGopDxe:AutoGen.obj
 0002:000000ec       _gPcd_FixedAtBuild_PcdVerifyNodeInList 00000000000190ec     EmuGopDxe:AutoGen.obj
 0002:000000f0       _gPcd_FixedAtBuild_PcdFixedDebugPrintErrorLevel 00000000000190f0     EmuGopDxe:AutoGen.obj
 0002:000000f4       _gUefiDriverRevision       00000000000190f4     EmuGopDxe:AutoGen.obj
 0002:000000f8       _gPcd_FixedAtBuild_PcdDebugPropertyMask 00000000000190f8     EmuGopDxe:AutoGen.obj
 0002:000000fc       _gPcd_FixedAtBuild_PcdControlFlowEnforcementPropertyMask 00000000000190fc     EmuGopDxe:AutoGen.obj
 0002:00000100       ??_C@_0DM@CHNNECGH@RegsiteredData?5?$CB?$DN?5?$CI?$CIvoid?5?$CK?$CJ?50?$CJ?5@ 0000000000019100     EmuGopDxe:GopInput.obj
 0002:00000140       ??_C@_0DO@MJGNNAAL@D?3?2develop?2Self_develop?2edk2?2Em@ 0000000000019140     EmuGopDxe:GopInput.obj
 0002:00000180       ??_C@_0BF@NDBIKIKC@CR?5has?5Bad?5Signature@ 0000000000019180     EmuGopDxe:GopInput.obj
 0002:00000198       ??_C@_0DP@NDFLPEAH@D?3?2develop?2Self_develop?2edk2?2Em@ 0000000000019198     EmuGopDxe:GopDriver.obj
 0002:000001d8       ??_C@_03LKLGDMJI@eng@      00000000000191d8     EmuGopDxe:GopDriver.obj
 0002:000001dc       ??_C@_02LFNMGJAP@en@       00000000000191dc     EmuGopDxe:GopDriver.obj
 0002:000001e0       ??_C@_0DP@FBLPLKCM@D?3?2develop?2Self_develop?2edk2?2Em@ 00000000000191e0     EmuGopDxe:GopScreen.obj
 0002:00000220       ??_C@_1CI@FINNNLJ@?$AAE?$AAm?$AAu?$AAl?$AAa?$AAt?$AAo?$AAr?$AA?5?$AAG?$AAO?$AAP?$AA?5?$AAD?$AAr@ 0000000000019220     EmuGopDxe:ComponentName.obj
 0002:00000250       ??_C@_0ED@EPDODNMA@D?3?2develop?2Self_develop?2edk2?2Em@ 0000000000019250     EmuGopDxe:ComponentName.obj
 0002:00000298       ??_C@_0BH@IACGKAP@Buffer?5?$CB?$DN?5?$CI?$CIvoid?5?$CK?$CJ?50?$CJ@ 0000000000019298     BasePrintLib:PrintLibInternal.obj
 0002:000002b0       ??_C@_0FP@CCJIJCDG@D?3?2develop?2Self_develop?2edk2?2Md@ 00000000000192b0     DxeReportStatusCodeLib:ReportStatusCodeLib.obj
 0002:00000310       ??_C@_0BH@LKMBFCBF@Format?5?$CB?$DN?5?$CI?$CIvoid?5?$CK?$CJ?50?$CJ@ 0000000000019310     DxeReportStatusCodeLib:ReportStatusCodeLib.obj
 0002:00000328       ??_C@_0DN@HHIHPHHB@?$CB?$CI?$CIExtendedData?5?$DN?$DN?5?$CI?$CIvoid?5?$CK?$CJ?50?$CJ@ 0000000000019328     DxeReportStatusCodeLib:ReportStatusCodeLib.obj
 0002:00000368       ??_C@_0DN@BBBIFINB@?$CB?$CI?$CIExtendedData?5?$CB?$DN?5?$CI?$CIvoid?5?$CK?$CJ?50?$CJ@ 0000000000019368     DxeReportStatusCodeLib:ReportStatusCodeLib.obj
 0002:000003b0       ??_C@_0FM@HDIIFGPN@D?3?2develop?2Self_develop?2edk2?2Md@ 00000000000193b0     PeiDxeDebugLibReportStatusCode:DebugLib.obj
 0002:00000410       ??_C@_0CP@EFCGCEBK@?$CICHAR8?5?$CK?$CJBaseListMarkerPointer?5@ 0000000000019410     PeiDxeDebugLibReportStatusCode:DebugLib.obj
 0002:00000440       ??_C@_01OHGJGJJP@?$FL@     0000000000019440     PeiDxeDebugLibReportStatusCode:DebugLib.obj
 0002:00000444       ??_C@_02PBFOLPKM@?$FN?5@   0000000000019444     PeiDxeDebugLibReportStatusCode:DebugLib.obj
 0002:00000450       ??_C@_0EA@FKBIDDGN@D?3?2develop?2Self_develop?2edk2?2Md@ 0000000000019450     BaseLib:Unaligned.obj
 0002:00000490       ??_C@_0BH@MAAHKCPC@String?5?$CB?$DN?5?$CI?$CIvoid?5?$CK?$CJ?50?$CJ@ 0000000000019490     BaseLib:String.obj
 0002:000004a8       ??_C@_0DN@POJBHOAP@D?3?2develop?2Self_develop?2edk2?2Md@ 00000000000194a8     BaseLib:String.obj
 0002:000004e8       ??_C@_0CC@GFNLNIOC@?$CI?$CIUINTN?$CJString?5?$CG?50x00000001?$CJ?5?$DN?$DN@ 00000000000194e8     BaseLib:String.obj
 0002:00000510       ??_C@_0DK@EOJCOAME@Length?5?$DM?5_gPcd_FixedAtBuild_Pcd@ 0000000000019510     BaseLib:String.obj
 0002:00000550       ??_C@_0DI@MDIKFADO@Length?5?$DM?5_gPcd_FixedAtBuild_Pcd@ 0000000000019550     BaseLib:String.obj
 0002:00000588       ??_C@_0BL@IKFBNFIL@AsciiStrSize?5?$CIFirstString?$CJ@ 0000000000019588     BaseLib:String.obj
 0002:000005a8       ??_C@_0BM@EDNOKLLE@AsciiStrSize?5?$CISecondString?$CJ@ 00000000000195a8     BaseLib:String.obj
 0002:000005c8       ??_C@_0DJ@JJHGIFMP@Length?5?$DM?$DN?5_gPcd_FixedAtBuild_Pc@ 00000000000195c8     BaseLib:String.obj
 0002:00000610       ??_C@_0EB@DAKPBIJH@D?3?2develop?2Self_develop?2edk2?2Md@ 0000000000019610     BaseLib:SafeString.obj
 0002:00000658       ??_C@_0BO@ECNIOIHG@?$CIDestination?5?$CB?$DN?5?$CI?$CIvoid?5?$CK?$CJ?50?$CJ?$CJ@ 0000000000019658     BaseLib:SafeString.obj
 0002:00000680       ??_C@_0EA@PDPDJJNN@?$CFa?$CI?$CFd?$CJ?5?$CFa?3?5SAFE_STRING_CONSTRAI@ 0000000000019680     BaseLib:SafeString.obj
 0002:000006c0       ??_C@_0BJ@EAEEJIP@?$CISource?5?$CB?$DN?5?$CI?$CIvoid?5?$CK?$CJ?50?$CJ?$CJ@ 00000000000196c0     BaseLib:SafeString.obj
 0002:000006e0       ??_C@_0P@PMIMLIHM@?$CIDestMax?5?$CB?$DN?50?$CJ@ 00000000000196e0     BaseLib:SafeString.obj
 0002:000006f0       ??_C@_0BG@EEGIIOKH@?$CIDestMax?5?$DO?5SourceLen?$CJ@ 00000000000196f0     BaseLib:SafeString.obj
 0002:00000708       ??_C@_0DO@LJFOOPII@?$CIDestMax?5?$DM?$DN?5?$CI_gPcd_FixedAtBuild@ 0000000000019708     BaseLib:SafeString.obj
 0002:00000750       ??_C@_0FL@CDANCHFO@InternalSafeStringNoAsciiStrOve@ 0000000000019750     BaseLib:SafeString.obj
 0002:000007b0       ??_C@_0O@DIHNCLLG@AsciiStrnCpyS@ 00000000000197b0     BaseLib:SafeString.obj
 0002:000007c0       ??_C@_0DN@DLAADCJE@?$CILength?5?$DM?$DN?5?$CI_gPcd_FixedAtBuild_@ 00000000000197c0     BaseLib:SafeString.obj
 0002:00000800       ??_C@_0BF@NJNGJMPC@List?5?$CB?$DN?5?$CI?$CIvoid?5?$CK?$CJ?50?$CJ@ 0000000000019800     BaseLib:LinkedList.obj
 0002:00000820       ??_C@_0EB@CMODBEO@D?3?2develop?2Self_develop?2edk2?2Md@ 0000000000019820     BaseLib:LinkedList.obj
 0002:00000868       ??_C@_0CC@KDLPLAED@List?9?$DOForwardLink?5?$CB?$DN?5?$CI?$CIvoid?5?$CK?$CJ?5@ 0000000000019868     BaseLib:LinkedList.obj
 0002:00000890       ??_C@_0BP@IJJCCMAK@List?9?$DOBackLink?5?$CB?$DN?5?$CI?$CIvoid?5?$CK?$CJ?50?$CJ@ 0000000000019890     BaseLib:LinkedList.obj
 0002:000008b0       ??_C@_0CI@BMHOPIIO@InternalBaseLibIsListValid?5?$CIFir@ 00000000000198b0     BaseLib:LinkedList.obj
 0002:000008d8       ??_C@_0BM@BAIHHOEP@SecondEntry?5?$CB?$DN?5?$CI?$CIvoid?5?$CK?$CJ?50?$CJ@ 00000000000198d8     BaseLib:LinkedList.obj
 0002:000008f8       ??_C@_0BJ@NJABNCDK@ListHead?5?$CB?$DN?5?$CI?$CIvoid?5?$CK?$CJ?50?$CJ@ 00000000000198f8     BaseLib:LinkedList.obj
 0002:00000918       ??_C@_0DI@HOMAKAJD@?$CI?$CIBOOLEAN?$CJ?$CI0?$DN?$DN1?$CJ?$CJ?5?$DN?$DN?5IsNodeInLi@ 0000000000019918     BaseLib:LinkedList.obj
 0002:00000950       ??_C@_0CG@LGIALJFK@InternalBaseLibIsListValid?5?$CILis@ 0000000000019950     BaseLib:LinkedList.obj
 0002:00000978       ??_C@_0BF@NMBJJECB@?$CBIsListEmpty?5?$CIEntry?$CJ@ 0000000000019978     BaseLib:LinkedList.obj
 0002:00000990       ??_C@_0L@MEMPDLHB@Count?5?$DM?564@ 0000000000019990     BaseLib:ARShiftU64.obj
 0002:000009a0       ??_C@_0EA@MLMAFFLG@D?3?2develop?2Self_develop?2edk2?2Md@ 00000000000199a0     BaseLib:LShiftU64.obj
 0002:000009e0       ??_C@_0BL@CPGKAMND@JumpBuffer?5?$CB?$DN?5?$CI?$CIvoid?5?$CK?$CJ?50?$CJ@ 00000000000199e0     BaseLib:SetJump.obj
 0002:00000a00       ??_C@_0DO@CNCBEEME@D?3?2develop?2Self_develop?2edk2?2Md@ 0000000000019a00     BaseLib:SetJump.obj
 0002:00000a40       ??_C@_0CD@OEHNCIHG@?$CI?$CIUINTN?$CJJumpBuffer?5?$CG?5?$CI8?5?9?51?$CJ?$CJ?5?$DN@ 0000000000019a40     BaseLib:SetJump.obj
 0002:00000a68       ??_C@_0DG@EEENIGGL@Length?5?$DM?$DN?5?$CI0xFFFFFFFFFFFFFFFFUL@ 0000000000019a68     BaseMemoryLib:MemLibGuid.obj
 0002:00000aa0       ??_C@_0ED@MKGCMJG@?$CILength?5?9?51?$CJ?5?$DM?$DN?5?$CI0xFFFFFFFFFFFF@ 0000000000019aa0     BaseMemoryLib:CopyMemWrapper.obj
 0002:00000af0       ??_C@_0EL@NNLJGCCH@D?3?2develop?2Self_develop?2edk2?2Md@ 0000000000019af0     BaseMemoryLib:CopyMemWrapper.obj
 0002:00000b40       ??_C@_0DO@MAOBOFEG@?$CILength?5?9?51?$CJ?5?$DM?$DN?5?$CI0xFFFFFFFFFFFF@ 0000000000019b40     BaseMemoryLib:CopyMemWrapper.obj
 0002:00000b80       ??_C@_0EL@GJBLADOA@D?3?2develop?2Self_develop?2edk2?2Md@ 0000000000019b80     BaseMemoryLib:ZeroMemWrapper.obj
 0002:00000bd0       ??_C@_0FK@KCDEFJBC@D?3?2develop?2Self_develop?2edk2?2Md@ 0000000000019bd0     UefiMemoryAllocationLib:MemoryAllocationLib.obj
 0002:00000c30       ??_C@_0DO@GEEICOOO@AllocationSize?5?$DM?$DN?5?$CI0xFFFFFFFFFF@ 0000000000019c30     UefiMemoryAllocationLib:MemoryAllocationLib.obj
 0002:00000c70       ??_C@_0BN@COECPDCC@gImageHandle?5?$CB?$DN?5?$CI?$CIvoid?5?$CK?$CJ?50?$CJ@ 0000000000019c70     UefiBootServicesTableLib:UefiBootServicesTableLib.obj
 0002:00000c90       ??_C@_0GA@INMEIGJE@D?3?2develop?2Self_develop?2edk2?2Md@ 0000000000019c90     UefiBootServicesTableLib:UefiBootServicesTableLib.obj
 0002:00000cf0       ??_C@_0BE@DGNHAHIL@gST?5?$CB?$DN?5?$CI?$CIvoid?5?$CK?$CJ?50?$CJ@ 0000000000019cf0     UefiBootServicesTableLib:UefiBootServicesTableLib.obj
 0002:00000d08       ??_C@_0BE@BDFJLGLN@gBS?5?$CB?$DN?5?$CI?$CIvoid?5?$CK?$CJ?50?$CJ@ 0000000000019d08     UefiBootServicesTableLib:UefiBootServicesTableLib.obj
 0002:00000d20       ??_C@_0BE@OBDFIHND@gRT?5?$CB?$DN?5?$CI?$CIvoid?5?$CK?$CJ?50?$CJ@ 0000000000019d20     UefiRuntimeServicesTableLib:UefiRuntimeServicesTableLib.obj
 0002:00000d40       ??_C@_0GG@OBDIBKMM@D?3?2develop?2Self_develop?2edk2?2Md@ 0000000000019d40     UefiRuntimeServicesTableLib:UefiRuntimeServicesTableLib.obj
 0002:00000da8       ??_C@_0BK@PPOBBAMB@TableGuid?5?$CB?$DN?5?$CI?$CIvoid?5?$CK?$CJ?50?$CJ@ 0000000000019da8     UefiLib:UefiLib.obj
 0002:00000dc8       ??_C@_0DO@KJBPHFLK@D?3?2develop?2Self_develop?2edk2?2Md@ 0000000000019dc8     UefiLib:UefiLib.obj
 0002:00000e08       ??_C@_0BG@JDKEGFNB@Table?5?$CB?$DN?5?$CI?$CIvoid?5?$CK?$CJ?50?$CJ@ 0000000000019e08     UefiLib:UefiLib.obj
 0002:00000e20       ??_C@_0BN@HHGHCLME@ProtocolGuid?5?$CB?$DN?5?$CI?$CIvoid?5?$CK?$CJ?50?$CJ@ 0000000000019e20     UefiLib:UefiLib.obj
 0002:00000e40       ??_C@_0BO@MHFMIIAE@DriverBinding?5?$CB?$DN?5?$CI?$CIvoid?5?$CK?$CJ?50?$CJ@ 0000000000019e40     UefiLib:UefiDriverModel.obj
 0002:00000e60       ??_C@_0EG@HGMADJAK@D?3?2develop?2Self_develop?2edk2?2Md@ 0000000000019e60     UefiLib:UefiDriverModel.obj
 0002:00000ea8       ??_C@_0DP@IKGCDEIJ@D?3?2develop?2Self_develop?2edk2?2Md@ 0000000000019ea8     DxeHobLib:HobLib.obj
 0002:00000ee8       ??_C@_0BJ@OBFMLLDO@mHobList?5?$CB?$DN?5?$CI?$CIvoid?5?$CK?$CJ?50?$CJ@ 0000000000019ee8     DxeHobLib:HobLib.obj
 0002:00000f10       ??_C@_0FE@KBEJNINE@D?3?2develop?2Self_develop?2edk2?2Md@ 0000000000019f10     UefiDriverEntryPoint:DriverEntryPoint.obj
 0002:00000fb8       __volatile_metadata        0000000000019fb8     <linker-defined>
 0003:00000000       m16Size                    000000000001b000     BaseLib:Thunk16.obj
 0003:00000002       mThunk16Attr               000000000001b002     BaseLib:Thunk16.obj
 0003:00000004       m16Gdt                     000000000001b004     BaseLib:Thunk16.obj
 0003:00000006       m16GdtrBase                000000000001b006     BaseLib:Thunk16.obj
 0003:00000008       mTransition                000000000001b008     BaseLib:Thunk16.obj
 0003:00000010       gEfiStatusCodeSpecificDataGuid 000000000001b010     EmuGopDxe:AutoGen.obj
 0003:00000020       gEfiStatusCodeRuntimeProtocolGuid 000000000001b020     EmuGopDxe:AutoGen.obj
 0003:00000030       gEfiComponentName2ProtocolGuid 000000000001b030     EmuGopDxe:AutoGen.obj
 0003:00000040       gEfiSimplePointerProtocolGuid 000000000001b040     EmuGopDxe:AutoGen.obj
 0003:00000050       gEmuGraphicsWindowProtocolGuid 000000000001b050     EmuGopDxe:AutoGen.obj
 0003:00000060       gEfiLoadedImageProtocolGuid 000000000001b060     EmuGopDxe:AutoGen.obj
 0003:00000070       gEfiCallerBaseName         000000000001b070     EmuGopDxe:AutoGen.obj
 0003:00000078       gEfiSimpleTextInputExProtocolGuid 000000000001b078     EmuGopDxe:AutoGen.obj
 0003:00000088       gEfiSimpleTextInProtocolGuid 000000000001b088     EmuGopDxe:AutoGen.obj
 0003:00000098       gEfiStatusCodeDataTypeDebugGuid 000000000001b098     EmuGopDxe:AutoGen.obj
 0003:000000a8       gEfiGraphicsOutputProtocolGuid 000000000001b0a8     EmuGopDxe:AutoGen.obj
 0003:000000b8       gEfiHobListGuid            000000000001b0b8     EmuGopDxe:AutoGen.obj
 0003:000000c8       gEfiDriverBindingProtocolGuid 000000000001b0c8     EmuGopDxe:AutoGen.obj
 0003:000000d8       gEfiComponentNameProtocolGuid 000000000001b0d8     EmuGopDxe:AutoGen.obj
 0003:000000e8       gEfiCallerIdGuid           000000000001b0e8     EmuGopDxe:AutoGen.obj
 0003:000000f8       gEmuIoThunkProtocolGuid    000000000001b0f8     EmuGopDxe:AutoGen.obj
 0003:00000108       gEmuGopDriverBinding       000000000001b108     EmuGopDxe:GopDriver.obj
 0003:00000140       mGopModeData               000000000001b140     EmuGopDxe:GopScreen.obj
 0003:00000190       gEmuGopComponentName       000000000001b190     EmuGopDxe:ComponentName.obj
 0003:000001a8       gEmuGopComponentName2      000000000001b1a8     EmuGopDxe:ComponentName.obj
 0003:000001c0       mEmuGopDriverNameTable     000000000001b1c0     EmuGopDxe:ComponentName.obj
 0003:000001e0       __security_cookie          000000000001b1e0     StackCheckLibNull:StackCheckLibNullMsvc.obj
 0003:000001e8       mReportStatusCodeLibStatusCodeProtocol 000000000001b1e8     DxeReportStatusCodeLib:ReportStatusCodeLib.obj
 0003:000001f8       gST                        000000000001b1f8     UefiBootServicesTableLib:UefiBootServicesTableLib.obj
 0003:00000200       gImageHandle               000000000001b200     UefiBootServicesTableLib:UefiBootServicesTableLib.obj
 0003:00000208       gBS                        000000000001b208     UefiBootServicesTableLib:UefiBootServicesTableLib.obj
 0003:00000210       gRT                        000000000001b210     UefiRuntimeServicesTableLib:UefiRuntimeServicesTableLib.obj
 0003:00000218       mHobList                   000000000001b218     DxeHobLib:HobLib.obj
 0003:00000220       mGopScreenExitBootServicesEvent 000000000001b220     <common>

 entry point at        0001:00007098

 Static symbols

 0001:000000a9       rn16_ok                    00000000000110a9     BaseLib:RdRand.obj
 0001:000000bb       rn32_ok                    00000000000110bb     BaseLib:RdRand.obj
 0001:000000cd       rn64_ok                    00000000000110cd     BaseLib:RdRand.obj
 0001:000000fa       PvalidateExit              00000000000110fa     BaseLib:Pvalidate.obj
 0001:0000013a       InternalX86DisablePaging64.0 000000000001113a     BaseLib:DisablePaging64.obj
 0001:00000161       mTransitionEnd             0000000000011161     BaseLib:DisablePaging64.obj
 0001:000001d9       TdVmCall.no_return_data    00000000000111d9     BaseLib:TdVmcall.obj
 0001:0000024b       TdCall.exit                000000000001124b     BaseLib:TdCall.obj
 0001:00000733       CetDone                    0000000000011733     BaseLib:SetJump.obj
 0001:000007f0       CetDone                    00000000000117f0     BaseLib:LongJump.obj
 0001:0000087f       AsmCpuid.0                 000000000001187f     BaseLib:CpuId.obj
 0001:00000884       AsmCpuid.1                 0000000000011884     BaseLib:CpuId.obj
 0001:0000088b       AsmCpuid.2                 000000000001188b     BaseLib:CpuId.obj
 0001:00000894       AsmCpuid.3                 0000000000011894     BaseLib:CpuId.obj
 0001:000008b5       AsmCpuidEx.0               00000000000118b5     BaseLib:CpuIdEx.obj
 0001:000008bc       AsmCpuidEx.1               00000000000118bc     BaseLib:CpuIdEx.obj
 0001:000008c3       AsmCpuidEx.2               00000000000118c3     BaseLib:CpuIdEx.obj
 0001:000008cc       AsmCpuidEx.3               00000000000118cc     BaseLib:CpuIdEx.obj
 0001:000008d0       SavedGdt                   00000000000118d0     BaseLib:Thunk16.obj
 0001:000008da       _BackFromUserCode          00000000000118da     BaseLib:Thunk16.obj
 0001:000008e2       _BackFromUserCode.Base     00000000000118e2     BaseLib:Thunk16.obj
 0001:000008f6       _BackFromUserCode.ThunkAttrEnd 00000000000118f6     BaseLib:Thunk16.obj
 0001:00000903       _BackFromUserCode.1        0000000000011903     BaseLib:Thunk16.obj
 0001:0000090e       _BackFromUserCode.2        000000000001190e     BaseLib:Thunk16.obj
 0001:00000944       _BackFromUserCode.SavedCr4End 0000000000011944     BaseLib:Thunk16.obj
 0001:00000960       _BackFromUserCode.SavedCr0End 0000000000011960     BaseLib:Thunk16.obj
 0001:0000096b       _BackFromUserCode.X64JmpEnd 000000000001196b     BaseLib:Thunk16.obj
 0001:00000976       _BackFromUserCode.SavedSpEnd 0000000000011976     BaseLib:Thunk16.obj
 0001:00000978       _EntryPoint                0000000000011978     BaseLib:Thunk16.obj
 0001:0000097e       _16Gdtr                    000000000001197e     BaseLib:Thunk16.obj
 0001:00000980       _16GdtrBase                0000000000011980     BaseLib:Thunk16.obj
 0001:00000988       _16Idtr                    0000000000011988     BaseLib:Thunk16.obj
 0001:0000098e       _ToUserCode                000000000001198e     BaseLib:Thunk16.obj
 0001:000009b6       _ToUserCode.Base           00000000000119b6     BaseLib:Thunk16.obj
 0001:000009c5       _ToUserCode.RealMode       00000000000119c5     BaseLib:Thunk16.obj
 0001:000009e0       _NullSeg                   00000000000119e0     BaseLib:Thunk16.obj
 0001:000009e8       _16Code                    00000000000119e8     BaseLib:Thunk16.obj
 0001:000009f0       _16Data                    00000000000119f0     BaseLib:Thunk16.obj
 0001:000009f8       _32Data                    00000000000119f8     BaseLib:Thunk16.obj
 0001:00000ab4       InternalAsmThunk16.RetFromRealMode 0000000000011ab4     BaseLib:Thunk16.obj
 0003:000001f0       mDeadLoopComparator        000000000001b1f0     BaseLib:CpuDeadLoop.obj
 0005:00000000       $unwind$ProcessLibraryConstructorList 000000000001d000     EmuGopDxe:AutoGen.obj
 0005:00000000       $unwind$EmuGopRegisterKeyCallback 000000000001d000     EmuGopDxe:GopInput.obj
 0005:00000000       $unwind$_ModuleEntryPoint  000000000001d000     UefiDriverEntryPoint:DriverEntryPoint.obj
 0005:00000000       $unwind$CompareIso639LanguageCode 000000000001d000     UefiLib:UefiLib.obj
 0005:00000000       $unwind$EfiGetSystemConfigurationTable 000000000001d000     UefiLib:UefiLib.obj
 0005:00000000       $unwind$IsLanguageSupported 000000000001d000     UefiLib:UefiLib.obj
 0005:00000008       $unwind$ProcessModuleEntryPointList 000000000001d008     EmuGopDxe:AutoGen.obj
 0005:00000008       $unwind$GopPrivateBreakCallbackFunction 000000000001d008     EmuGopDxe:GopInput.obj
 0005:00000008       $unwind$GopPrivateIsKeyRegistered 000000000001d008     EmuGopDxe:GopInput.obj
 0005:00000008       $unwind$ShutdownGopEvent   000000000001d008     EmuGopDxe:GopScreen.obj
 0005:00000008       $unwind$LShiftU64          000000000001d008     BaseLib:LShiftU64.obj
 0005:00000008       $unwind$InsertTailList     000000000001d008     BaseLib:LinkedList.obj
 0005:00000008       $unwind$WriteUnaligned64   000000000001d008     BaseLib:Unaligned.obj
 0005:00000008       $unwind$InternalMemZeroMem 000000000001d008     BaseMemoryLib:MemLibGeneric.obj
 0005:00000008       $unwind$CopyGuid           000000000001d008     BaseMemoryLib:MemLibGuid.obj
 0005:00000008       $unwind$ZeroMem            000000000001d008     BaseMemoryLib:ZeroMemWrapper.obj
 0005:00000008       $unwind$HobLibConstructor  000000000001d008     DxeHobLib:HobLib.obj
 0005:00000008       $unwind$UefiBootServicesTableLibConstructor 000000000001d008     UefiBootServicesTableLib:UefiBootServicesTableLib.obj
 0005:00000008       $unwind$AllocateCopyPool   000000000001d008     UefiMemoryAllocationLib:MemoryAllocationLib.obj
 0005:00000008       $unwind$UefiRuntimeServicesTableLibConstructor 000000000001d008     UefiRuntimeServicesTableLib:UefiRuntimeServicesTableLib.obj
 0005:00000010       $unwind$EmuGopSimplePointerGetState 000000000001d010     EmuGopDxe:GopInput.obj
 0005:00000010       $unwind$EmuGopSimpleTextInExReadKeyStrokeEx 000000000001d010     EmuGopDxe:GopInput.obj
 0005:00000010       $unwind$EmuGopSimpleTextInExSetState 000000000001d010     EmuGopDxe:GopInput.obj
 0005:00000010       $unwind$GopPrivateMakeCallbackFunction 000000000001d010     EmuGopDxe:GopInput.obj
 0005:00000010       $unwind$CompareGuid        000000000001d010     BaseMemoryLib:MemLibGuid.obj
 0005:00000018       $unwind$EmuGopSimplePointerReset 000000000001d018     EmuGopDxe:GopInput.obj
 0005:00000018       $unwind$EmuGopSimpleTextInReset 000000000001d018     EmuGopDxe:GopInput.obj
 0005:00000028       $unwind$EmuGopSimpleTextInReadKeyStroke 000000000001d028     EmuGopDxe:GopInput.obj
 0005:00000038       $unwind$InitializeEmuGop   000000000001d038     EmuGopDxe:GopDriver.obj
 0005:00000038       $unwind$EmuGopSimplePointerWaitForInput 000000000001d038     EmuGopDxe:GopInput.obj
 0005:00000038       $unwind$EmuGopSimpleTextInWaitForKey 000000000001d038     EmuGopDxe:GopInput.obj
 0005:00000038       $unwind$IsNodeInList       000000000001d038     BaseLib:LinkedList.obj
 0005:00000040       $unwind$EmuGopDriverBindingStop 000000000001d040     EmuGopDxe:GopDriver.obj
 0005:00000040       $unwind$EmuGopSimpleTextInExRegisterKeyNotify 000000000001d040     EmuGopDxe:GopInput.obj
 0005:00000048       $unwind$EmuGopSimpleTextInExUnregisterKeyNotify 000000000001d048     EmuGopDxe:GopInput.obj
 0005:00000050       $unwind$FreeNotifyList     000000000001d050     EmuGopDxe:GopDriver.obj
 0005:00000050       $unwind$EmuGopInitializeSimplePointerForWindow 000000000001d050     EmuGopDxe:GopInput.obj
 0005:00000050       $unwind$EmuGopInitializeSimpleTextInForWindow 000000000001d050     EmuGopDxe:GopInput.obj
 0005:00000050       $unwind$InternalBaseLibIsListValid 000000000001d050     BaseLib:LinkedList.obj
 0005:00000058       $unwind$EmuGopComponentNameGetDriverName 000000000001d058     EmuGopDxe:ComponentName.obj
 0005:00000058       $unwind$EmuGopDriverBindingSupported 000000000001d058     EmuGopDxe:GopDriver.obj
 0005:00000058       $unwind$EfiTestManagedDevice 000000000001d058     UefiLib:UefiLib.obj
 0005:00000060       $unwind$EmuGopDriverBindingStart 000000000001d060     EmuGopDxe:GopDriver.obj
 0005:00000060       $unwind$InternalMemCopyMem 000000000001d060     BaseMemoryLib:CopyMem.obj
 0005:00000068       $unwind$EmuGopQuerytMode   000000000001d068     EmuGopDxe:GopScreen.obj
 0005:00000068       $unwind$EmuGopStartWindow  000000000001d068     EmuGopDxe:GopScreen.obj
 0005:00000070       $unwind$EmuGopSetMode      000000000001d070     EmuGopDxe:GopScreen.obj
 0005:00000078       $unwind$EmuGopBlt          000000000001d078     EmuGopDxe:GopScreen.obj
 0005:00000088       $unwind$EmuGopConstructor  000000000001d088     EmuGopDxe:GopScreen.obj
 0005:00000088       $unwind$EmuGopDestructor   000000000001d088     EmuGopDxe:GopScreen.obj
 0005:00000088       $unwind$EmuGopSupported    000000000001d088     EmuGopDxe:GopScreen.obj
 0005:00000088       $unwind$InitializeListHead 000000000001d088     BaseLib:LinkedList.obj
 0005:00000088       $unwind$RemoveEntryList    000000000001d088     BaseLib:LinkedList.obj
 0005:00000088       $unwind$InternalAssertJumpBuffer 000000000001d088     BaseLib:SetJump.obj
 0005:00000088       $unwind$AsciiStrSize       000000000001d088     BaseLib:String.obj
 0005:00000088       $unwind$StrSize            000000000001d088     BaseLib:String.obj
 0005:00000088       $unwind$ReadUnaligned24    000000000001d088     BaseLib:Unaligned.obj
 0005:00000088       $unwind$ReadUnaligned64    000000000001d088     BaseLib:Unaligned.obj
 0005:00000088       $unwind$AllocatePool       000000000001d088     UefiMemoryAllocationLib:MemoryAllocationLib.obj
 0005:00000088       $unwind$AllocateZeroPool   000000000001d088     UefiMemoryAllocationLib:MemoryAllocationLib.obj
 0005:00000090       $unwind$EmuGopComponentNameGetControllerName 000000000001d090     EmuGopDxe:ComponentName.obj
 0005:00000090       $unwind$AddUnicodeString2  000000000001d090     UefiLib:UefiLib.obj
 0005:00000098       $unwind$InternalGetReportStatusCode 000000000001d098     DxeReportStatusCodeLib:ReportStatusCodeLib.obj
 0005:00000098       $unwind$CpuDeadLoop        000000000001d098     BaseLib:CpuDeadLoop.obj
 0005:00000098       $unwind$GetHobList         000000000001d098     DxeHobLib:HobLib.obj
 0005:000000a0       $unwind$InternalReportStatusCode 000000000001d0a0     DxeReportStatusCodeLib:ReportStatusCodeLib.obj
 0005:000000a8       $unwind$ReportStatusCodeEx 000000000001d0a8     DxeReportStatusCodeLib:ReportStatusCodeLib.obj
 0005:000000b8       $unwind$ReportDebugCodeEnabled 000000000001d0b8     DxeReportStatusCodeLib:ReportStatusCodeLib.obj
 0005:000000b8       $unwind$ReportErrorCodeEnabled 000000000001d0b8     DxeReportStatusCodeLib:ReportStatusCodeLib.obj
 0005:000000b8       $unwind$ReportProgressCodeEnabled 000000000001d0b8     DxeReportStatusCodeLib:ReportStatusCodeLib.obj
 0005:000000b8       $unwind$DebugAssertEnabled 000000000001d0b8     PeiDxeDebugLibReportStatusCode:DebugLib.obj
 0005:000000b8       $unwind$DebugPrintEnabled  000000000001d0b8     PeiDxeDebugLibReportStatusCode:DebugLib.obj
 0005:000000c0       $unwind$DebugPrint         000000000001d0c0     PeiDxeDebugLibReportStatusCode:DebugLib.obj
 0005:000000c0       $unwind$InternalSafeStringNoAsciiStrOverlap 000000000001d0c0     BaseLib:SafeString.obj
 0005:000000c8       $unwind$DebugPrintMarker   000000000001d0c8     PeiDxeDebugLibReportStatusCode:DebugLib.obj
 0005:000000d8       $unwind$DebugVPrint        000000000001d0d8     PeiDxeDebugLibReportStatusCode:DebugLib.obj
 0005:000000d8       $unwind$AsciiStrnCmp       000000000001d0d8     BaseLib:String.obj
 0005:000000d8       $unwind$CopyMem            000000000001d0d8     BaseMemoryLib:CopyMemWrapper.obj
 0005:000000e0       $unwind$DebugAssert        000000000001d0e0     PeiDxeDebugLibReportStatusCode:DebugLib.obj
 0005:000000f0       $unwind$DebugPrintLevelEnabled 000000000001d0f0     PeiDxeDebugLibReportStatusCode:DebugLib.obj
 0005:000000f8       $unwind$IsListEmpty        000000000001d0f8     BaseLib:LinkedList.obj
 0005:000000f8       $unwind$AsciiStrLen        000000000001d0f8     BaseLib:String.obj
 0005:000000f8       $unwind$StrLen             000000000001d0f8     BaseLib:String.obj
 0005:000000f8       $unwind$_DriverUnloadHandler 000000000001d0f8     UefiDriverEntryPoint:DriverEntryPoint.obj
 0005:000000f8       $unwind$FreeUnicodeStringTable 000000000001d0f8     UefiLib:UefiLib.obj
 0005:000000f8       $unwind$FreePool           000000000001d0f8     UefiMemoryAllocationLib:MemoryAllocationLib.obj
 0005:00000100       $unwind$AsciiStrnLenS      000000000001d100     BaseLib:SafeString.obj
 0005:00000108       $unwind$AsciiStrnCpyS      000000000001d108     BaseLib:SafeString.obj
 0005:00000108       $unwind$EfiLibInstallDriverBindingComponentName2 000000000001d108     UefiLib:UefiDriverModel.obj
 0005:00000110       $unwind$InternalMemSetMem  000000000001d110     BaseMemoryLib:SetMem.obj
 0005:00000118       $unwind$InternalAllocatePool 000000000001d118     UefiMemoryAllocationLib:MemoryAllocationLib.obj
 0005:00000118       $unwind$InternalAllocateZeroPool 000000000001d118     UefiMemoryAllocationLib:MemoryAllocationLib.obj
 0005:00000120       $unwind$InternalAllocateCopyPool 000000000001d120     UefiMemoryAllocationLib:MemoryAllocationLib.obj
 0005:00000128       $unwind$AddUnicodeString   000000000001d128     UefiLib:UefiLib.obj
 0005:00000128       $unwind$LookupUnicodeString2 000000000001d128     UefiLib:UefiLib.obj
