 EmuTimer

 Timestamp is 68f5fe9a (Mon Oct 20 17:19:22 2025)

 Preferred load address is 0000000000010000

 Start         Length     Name                   Class
 0001:00000000 00000014H .text                   CODE
 0001:00000014 00002de7H .text$mn                CODE
 0002:00000000 00000af4H .rdata                  DATA
 0002:00000af4 00000018H .rdata$voltmd           DATA
 0002:00000b0c 00000144H .rdata$zzzdbg           DATA
 0003:00000000 000000b8H .data                   DATA
 0003:000000b8 00000060H .bss                    DATA
 0004:00000000 00000228H .pdata                  DATA
 0005:00000000 000000c0H .xdata                  DATA

  Address         Publics by Value              Rva+Base               Lib:Object

 0000:00000000       __guard_fids_count         0000000000000000     <absolute>
 0000:00000000       __guard_longjmp_table      0000000000000000     <absolute>
 0000:00000000       __arm64x_extra_rfe_table   0000000000000000     <absolute>
 0000:00000000       __hybrid_code_map          0000000000000000     <absolute>
 0000:00000000       __arm64x_extra_rfe_table_size 0000000000000000     <absolute>
 0000:00000000       __x64_code_ranges_to_entry_points_count 0000000000000000     <absolute>
 0000:00000000       __arm64x_redirection_metadata 0000000000000000     <absolute>
 0000:00000000       __guard_iat_table          0000000000000000     <absolute>
 0000:00000000       __x64_code_ranges_to_entry_points 0000000000000000     <absolute>
 0000:00000000       __guard_flags              0000000000000000     <absolute>
 0000:00000000       __guard_eh_cont_count      0000000000000000     <absolute>
 0000:00000000       __guard_iat_count          0000000000000000     <absolute>
 0000:00000000       __guard_longjmp_count      0000000000000000     <absolute>
 0000:00000000       __dynamic_value_reloc_table 0000000000000000     <absolute>
 0000:00000000       __hybrid_auxiliary_iat     0000000000000000     <absolute>
 0000:00000000       __hybrid_auxiliary_iat_copy 0000000000000000     <absolute>
 0000:00000000       __AbsoluteZero             0000000000000000     <absolute>
 0000:00000000       __guard_check_icall_a64n_fptr 0000000000000000     <absolute>
 0000:00000000       __hybrid_code_map_count    0000000000000000     <absolute>
 0000:00000000       __guard_fids_table         0000000000000000     <absolute>
 0000:00000000       __arm64x_redirection_metadata_count 0000000000000000     <absolute>
 0000:00000000       __enclave_config           0000000000000000     <absolute>
 0000:00000000       __guard_eh_cont_table      0000000000000000     <absolute>
 0000:00000000       __arm64x_native_entrypoint 0000000000000000     <absolute>
 0001:00000000       __report_rangecheckfailure 0000000000011000     StackCheckLibNull:StackCheckFunctionsMsvc.obj
 0001:00000001       __GSHandlerCheck           0000000000011001     StackCheckLibNull:StackCheckFunctionsMsvc.obj
 0001:00000002       __security_check_cookie    0000000000011002     StackCheckLibNull:StackCheckFunctionsMsvc.obj
 0001:00000010       CpuPause                   0000000000011010     BaseLib:CpuPause.obj
 0001:00000014       _DriverUnloadHandler       0000000000011014 f   UefiDriverEntryPoint:DriverEntryPoint.obj
 0001:00000058       _ModuleEntryPoint          0000000000011058 f   UefiDriverEntryPoint:DriverEntryPoint.obj
 0001:00000198       ProcessLibraryConstructorList 0000000000011198 f   EmuTimer:AutoGen.obj
 0001:00000474       ProcessLibraryDestructorList 0000000000011474 f   EmuTimer:AutoGen.obj
 0001:00000480       ProcessModuleEntryPointList 0000000000011480 f   EmuTimer:AutoGen.obj
 0001:000004a4       ProcessModuleUnloadList    00000000000114a4 f   EmuTimer:AutoGen.obj
 0001:000004ac       TimerCallback              00000000000114ac f   EmuTimer:Timer.obj
 0001:00000510       EmuTimerDriverRegisterHandler 0000000000011510 f   EmuTimer:Timer.obj
 0001:000005b4       EmuTimerDriverSetTimerPeriod 00000000000115b4 f   EmuTimer:Timer.obj
 0001:00000620       EmuTimerDriverGetTimerPeriod 0000000000011620 f   EmuTimer:Timer.obj
 0001:00000664       EmuTimerDriverGenerateSoftInterrupt 0000000000011664 f   EmuTimer:Timer.obj
 0001:00000674       EmuTimerDriverInitialize   0000000000011674 f   EmuTimer:Timer.obj
 0001:0000087c       DivU64x32                  000000000001187c f   BaseLib:DivU64x32.obj
 0001:000008d0       MultU64x32                 00000000000118d0 f   BaseLib:MultU64x32.obj
 0001:000008fc       InternalMathMultU64x32     00000000000118fc f   BaseLib:Math64.obj
 0001:00000918       InternalMathDivU64x32      0000000000011918 f   BaseLib:Math64.obj
 0001:00000940       DebugPrint                 0000000000011940 f   PeiDxeDebugLibReportStatusCode:DebugLib.obj
 0001:00000984       DebugPrintMarker           0000000000011984 f   PeiDxeDebugLibReportStatusCode:DebugLib.obj
 0001:0000112c       DebugVPrint                000000000001212c f   PeiDxeDebugLibReportStatusCode:DebugLib.obj
 0001:0000115c       DebugAssert                000000000001215c f   PeiDxeDebugLibReportStatusCode:DebugLib.obj
 0001:000014f8       DebugAssertEnabled         00000000000124f8 f   PeiDxeDebugLibReportStatusCode:DebugLib.obj
 0001:0000151c       DebugPrintEnabled          000000000001251c f   PeiDxeDebugLibReportStatusCode:DebugLib.obj
 0001:00001540       DebugPrintLevelEnabled     0000000000012540 f   PeiDxeDebugLibReportStatusCode:DebugLib.obj
 0001:00001574       UefiBootServicesTableLibConstructor 0000000000012574 f   UefiBootServicesTableLib:UefiBootServicesTableLib.obj
 0001:00001650       UefiRuntimeServicesTableLibConstructor 0000000000012650 f   UefiRuntimeServicesTableLib:UefiRuntimeServicesTableLib.obj
 0001:000016ac       UefiLibConstructor         00000000000126ac f   UefiLib:UefiLib.obj
 0001:000016bc       EfiGetSystemConfigurationTable 00000000000126bc f   UefiLib:UefiLib.obj
 0001:000017c8       GetHobList                 00000000000127c8 f   DxeHobLib:HobLib.obj
 0001:000018ac       HobLibConstructor          00000000000128ac f   DxeHobLib:HobLib.obj
 0001:000018c8       GetNextHob                 00000000000128c8 f   DxeHobLib:HobLib.obj
 0001:0000195c       GetNextGuidHob             000000000001295c f   DxeHobLib:HobLib.obj
 0001:000019d4       GetFirstGuidHob            00000000000129d4 f   DxeHobLib:HobLib.obj
 0001:000019fc       DxeEmuLibConstructor       00000000000129fc f   DxeEmuLib:DxeEmuLib.obj
 0001:00001a98       GetDebugPrintErrorLevel    0000000000012a98 f   BaseDebugPrintErrorLevelLib:BaseDebugPrintErrorLevelLib.obj
 0001:00001aa0       InternalGetReportStatusCode 0000000000012aa0 f   DxeReportStatusCodeLib:ReportStatusCodeLib.obj
 0001:00001b10       InternalReportStatusCode   0000000000012b10 f   DxeReportStatusCodeLib:ReportStatusCodeLib.obj
 0001:00001bc8       ReportStatusCodeEx         0000000000012bc8 f   DxeReportStatusCodeLib:ReportStatusCodeLib.obj
 0001:00001e44       ReportProgressCodeEnabled  0000000000012e44 f   DxeReportStatusCodeLib:ReportStatusCodeLib.obj
 0001:00001e68       ReportErrorCodeEnabled     0000000000012e68 f   DxeReportStatusCodeLib:ReportStatusCodeLib.obj
 0001:00001e8c       ReportDebugCodeEnabled     0000000000012e8c f   DxeReportStatusCodeLib:ReportStatusCodeLib.obj
 0001:00001eb0       CopyMem                    0000000000012eb0 f   BaseMemoryLib:CopyMemWrapper.obj
 0001:00001f88       CopyGuid                   0000000000012f88 f   BaseMemoryLib:MemLibGuid.obj
 0001:00001fdc       CompareGuid                0000000000012fdc f   BaseMemoryLib:MemLibGuid.obj
 0001:00002064       InternalMemCopyMem         0000000000013064 f   BaseMemoryLib:CopyMem.obj
 0001:00002640       AsciiStrLen                0000000000013640 f   BaseLib:String.obj
 0001:000026f8       AsciiStrSize               00000000000136f8 f   BaseLib:String.obj
 0001:00002714       InternalSafeStringIsOverlap 0000000000013714 f   BaseLib:SafeString.obj
 0001:00002778       InternalSafeStringNoAsciiStrOverlap 0000000000013778 f   BaseLib:SafeString.obj
 0001:000027cc       AsciiStrnLenS              00000000000137cc f   BaseLib:SafeString.obj
 0001:00002838       AsciiStrnCpyS              0000000000013838 f   BaseLib:SafeString.obj
 0001:00002d28       CpuBreakpoint              0000000000013d28 f   BaseLib:CpuBreakpoint.obj
 0001:00002d2c       CpuDeadLoop                0000000000013d2c f   BaseLib:CpuDeadLoop.obj
 0001:00002d5c       ReadUnaligned64            0000000000013d5c f   BaseLib:Unaligned.obj
 0001:00002da4       WriteUnaligned64           0000000000013da4 f   BaseLib:Unaligned.obj
 0002:00000000       ??_C@_0CB@DMEJJJHA@?6ASSERT_EFI_ERROR?5?$CIStatus?5?$DN?5?$CFr?$CJ@ 0000000000014000     UefiDriverEntryPoint:DriverEntryPoint.obj
 0002:00000028       ??_C@_0DG@FLPEIDFK@?$CB?$CI?$CI?$CIRETURN_STATUS?$CJ?$CIStatus?$CJ?$CJ?5?$DO?$DN?5@ 0000000000014028     UefiDriverEntryPoint:DriverEntryPoint.obj
 0002:00000060       ??_C@_0FE@KBEJNINE@D?3?2develop?2Self_develop?2edk2?2Md@ 0000000000014060     UefiDriverEntryPoint:DriverEntryPoint.obj
 0002:000000b4       _gDriverUnloadImageCount   00000000000140b4     EmuTimer:AutoGen.obj
 0002:000000b8       _gUefiDriverRevision       00000000000140b8     EmuTimer:AutoGen.obj
 0002:000000c0       ??_C@_08OBCJIFED@EmuTimer@ 00000000000140c0     EmuTimer:AutoGen.obj
 0002:000000d0       ??_C@_0GL@HLEDMJK@D?3?2develop?2Self_develop?2edk2?2Bu@ 00000000000140d0     EmuTimer:AutoGen.obj
 0002:0000013b       _gPcd_FixedAtBuild_PcdReportStatusCodePropertyMask 000000000001413b     EmuTimer:AutoGen.obj
 0002:0000013c       _gPcd_FixedAtBuild_PcdDebugPrintErrorLevel 000000000001413c     EmuTimer:AutoGen.obj
 0002:00000140       _gPcd_FixedAtBuild_PcdFixedDebugPrintErrorLevel 0000000000014140     EmuTimer:AutoGen.obj
 0002:00000144       _gPcd_FixedAtBuild_PcdMaximumAsciiStringLength 0000000000014144     EmuTimer:AutoGen.obj
 0002:00000148       _gPcd_FixedAtBuild_PcdDebugPropertyMask 0000000000014148     EmuTimer:AutoGen.obj
 0002:00000150       ??_C@_0CL@PIPCGMCN@?$CGgEfiTimerArchProtocolGuid?5?$CB?$DN?5?$CI@ 0000000000014150     EmuTimer:Timer.obj
 0002:00000180       ??_C@_0DK@MEMMOCLG@D?3?2develop?2Self_develop?2edk2?2Em@ 0000000000014180     EmuTimer:Timer.obj
 0002:000001c0       ??_C@_0DJ@DOGKFEC@?$CGgEfiTimerArchProtocolGuid?5alre@ 00000000000141c0     EmuTimer:Timer.obj
 0002:00000200       ??_C@_0DN@MKACAMFA@?$CGgEfiTimerArchProtocolGuid?5alre@ 0000000000014200     EmuTimer:Timer.obj
 0002:00000240       ??_C@_0N@KGHEHMDL@Divisor?5?$CB?$DN?50@ 0000000000014240     BaseLib:DivU64x32.obj
 0002:00000250       ??_C@_0EA@LBPPPCLG@D?3?2develop?2Self_develop?2edk2?2Md@ 0000000000014250     BaseLib:DivU64x32.obj
 0002:00000290       ??_C@_0BH@LKMBFCBF@Format?5?$CB?$DN?5?$CI?$CIvoid?5?$CK?$CJ?50?$CJ@ 0000000000014290     PeiDxeDebugLibReportStatusCode:DebugLib.obj
 0002:000002b0       ??_C@_0FM@HDIIFGPN@D?3?2develop?2Self_develop?2edk2?2Md@ 00000000000142b0     PeiDxeDebugLibReportStatusCode:DebugLib.obj
 0002:00000310       ??_C@_0CP@EFCGCEBK@?$CICHAR8?5?$CK?$CJBaseListMarkerPointer?5@ 0000000000014310     PeiDxeDebugLibReportStatusCode:DebugLib.obj
 0002:00000340       ??_C@_01OHGJGJJP@?$FL@     0000000000014340     PeiDxeDebugLibReportStatusCode:DebugLib.obj
 0002:00000344       ??_C@_02PBFOLPKM@?$FN?5@   0000000000014344     PeiDxeDebugLibReportStatusCode:DebugLib.obj
 0002:00000348       ??_C@_0BH@IACGKAP@Buffer?5?$CB?$DN?5?$CI?$CIvoid?5?$CK?$CJ?50?$CJ@ 0000000000014348     PeiDxeDebugLibReportStatusCode:DebugLib.obj
 0002:00000360       ??_C@_0BN@COECPDCC@gImageHandle?5?$CB?$DN?5?$CI?$CIvoid?5?$CK?$CJ?50?$CJ@ 0000000000014360     UefiBootServicesTableLib:UefiBootServicesTableLib.obj
 0002:00000380       ??_C@_0GA@INMEIGJE@D?3?2develop?2Self_develop?2edk2?2Md@ 0000000000014380     UefiBootServicesTableLib:UefiBootServicesTableLib.obj
 0002:000003e0       ??_C@_0BE@DGNHAHIL@gST?5?$CB?$DN?5?$CI?$CIvoid?5?$CK?$CJ?50?$CJ@ 00000000000143e0     UefiBootServicesTableLib:UefiBootServicesTableLib.obj
 0002:000003f8       ??_C@_0BE@BDFJLGLN@gBS?5?$CB?$DN?5?$CI?$CIvoid?5?$CK?$CJ?50?$CJ@ 00000000000143f8     UefiBootServicesTableLib:UefiBootServicesTableLib.obj
 0002:00000410       ??_C@_0BE@OBDFIHND@gRT?5?$CB?$DN?5?$CI?$CIvoid?5?$CK?$CJ?50?$CJ@ 0000000000014410     UefiRuntimeServicesTableLib:UefiRuntimeServicesTableLib.obj
 0002:00000430       ??_C@_0GG@OBDIBKMM@D?3?2develop?2Self_develop?2edk2?2Md@ 0000000000014430     UefiRuntimeServicesTableLib:UefiRuntimeServicesTableLib.obj
 0002:00000498       ??_C@_0BK@PPOBBAMB@TableGuid?5?$CB?$DN?5?$CI?$CIvoid?5?$CK?$CJ?50?$CJ@ 0000000000014498     UefiLib:UefiLib.obj
 0002:000004b8       ??_C@_0DO@KJBPHFLK@D?3?2develop?2Self_develop?2edk2?2Md@ 00000000000144b8     UefiLib:UefiLib.obj
 0002:000004f8       ??_C@_0BG@JDKEGFNB@Table?5?$CB?$DN?5?$CI?$CIvoid?5?$CK?$CJ?50?$CJ@ 00000000000144f8     UefiLib:UefiLib.obj
 0002:00000510       ??_C@_0DP@IKGCDEIJ@D?3?2develop?2Self_develop?2edk2?2Md@ 0000000000014510     DxeHobLib:HobLib.obj
 0002:00000550       ??_C@_0BJ@OBFMLLDO@mHobList?5?$CB?$DN?5?$CI?$CIvoid?5?$CK?$CJ?50?$CJ@ 0000000000014550     DxeHobLib:HobLib.obj
 0002:00000570       ??_C@_0BJ@NOLLDKJB@HobStart?5?$CB?$DN?5?$CI?$CIvoid?5?$CK?$CJ?50?$CJ@ 0000000000014570     DxeHobLib:HobLib.obj
 0002:00000590       ??_C@_0BI@EDOKPJOP@GuidHob?5?$CB?$DN?5?$CI?$CIvoid?5?$CK?$CJ?50?$CJ@ 0000000000014590     DxeEmuLib:DxeEmuLib.obj
 0002:000005b0       ??_C@_0EH@KBCCEBL@D?3?2develop?2Self_develop?2edk2?2Em@ 00000000000145b0     DxeEmuLib:DxeEmuLib.obj
 0002:000005f8       ??_C@_0BK@ELNDAPDH@gEmuThunk?5?$CB?$DN?5?$CI?$CIvoid?5?$CK?$CJ?50?$CJ@ 00000000000145f8     DxeEmuLib:DxeEmuLib.obj
 0002:00000620       ??_C@_0FP@CCJIJCDG@D?3?2develop?2Self_develop?2edk2?2Md@ 0000000000014620     DxeReportStatusCodeLib:ReportStatusCodeLib.obj
 0002:00000680       ??_C@_0DN@HHIHPHHB@?$CB?$CI?$CIExtendedData?5?$DN?$DN?5?$CI?$CIvoid?5?$CK?$CJ?50?$CJ@ 0000000000014680     DxeReportStatusCodeLib:ReportStatusCodeLib.obj
 0002:000006c0       ??_C@_0DN@BBBIFINB@?$CB?$CI?$CIExtendedData?5?$CB?$DN?5?$CI?$CIvoid?5?$CK?$CJ?50?$CJ@ 00000000000146c0     DxeReportStatusCodeLib:ReportStatusCodeLib.obj
 0002:00000700       ??_C@_0ED@MKGCMJG@?$CILength?5?9?51?$CJ?5?$DM?$DN?5?$CI0xFFFFFFFFFFFF@ 0000000000014700     BaseMemoryLib:CopyMemWrapper.obj
 0002:00000750       ??_C@_0EL@NNLJGCCH@D?3?2develop?2Self_develop?2edk2?2Md@ 0000000000014750     BaseMemoryLib:CopyMemWrapper.obj
 0002:000007a0       ??_C@_0DO@MAOBOFEG@?$CILength?5?9?51?$CJ?5?$DM?$DN?5?$CI0xFFFFFFFFFFFF@ 00000000000147a0     BaseMemoryLib:CopyMemWrapper.obj
 0002:000007e0       ??_C@_0BH@MAAHKCPC@String?5?$CB?$DN?5?$CI?$CIvoid?5?$CK?$CJ?50?$CJ@ 00000000000147e0     BaseLib:String.obj
 0002:000007f8       ??_C@_0DN@POJBHOAP@D?3?2develop?2Self_develop?2edk2?2Md@ 00000000000147f8     BaseLib:String.obj
 0002:00000838       ??_C@_0DI@MDIKFADO@Length?5?$DM?5_gPcd_FixedAtBuild_Pcd@ 0000000000014838     BaseLib:String.obj
 0002:00000870       ??_C@_0EB@DAKPBIJH@D?3?2develop?2Self_develop?2edk2?2Md@ 0000000000014870     BaseLib:SafeString.obj
 0002:000008b8       ??_C@_0BO@ECNIOIHG@?$CIDestination?5?$CB?$DN?5?$CI?$CIvoid?5?$CK?$CJ?50?$CJ?$CJ@ 00000000000148b8     BaseLib:SafeString.obj
 0002:000008e0       ??_C@_0EA@PDPDJJNN@?$CFa?$CI?$CFd?$CJ?5?$CFa?3?5SAFE_STRING_CONSTRAI@ 00000000000148e0     BaseLib:SafeString.obj
 0002:00000920       ??_C@_0BJ@EAEEJIP@?$CISource?5?$CB?$DN?5?$CI?$CIvoid?5?$CK?$CJ?50?$CJ?$CJ@ 0000000000014920     BaseLib:SafeString.obj
 0002:00000940       ??_C@_0P@PMIMLIHM@?$CIDestMax?5?$CB?$DN?50?$CJ@ 0000000000014940     BaseLib:SafeString.obj
 0002:00000950       ??_C@_0BG@EEGIIOKH@?$CIDestMax?5?$DO?5SourceLen?$CJ@ 0000000000014950     BaseLib:SafeString.obj
 0002:00000968       ??_C@_0DO@LJFOOPII@?$CIDestMax?5?$DM?$DN?5?$CI_gPcd_FixedAtBuild@ 0000000000014968     BaseLib:SafeString.obj
 0002:000009b0       ??_C@_0FL@CDANCHFO@InternalSafeStringNoAsciiStrOve@ 00000000000149b0     BaseLib:SafeString.obj
 0002:00000a10       ??_C@_0O@DIHNCLLG@AsciiStrnCpyS@ 0000000000014a10     BaseLib:SafeString.obj
 0002:00000a20       ??_C@_0DN@DLAADCJE@?$CILength?5?$DM?$DN?5?$CI_gPcd_FixedAtBuild_@ 0000000000014a20     BaseLib:SafeString.obj
 0002:00000a60       ??_C@_0EA@FKBIDDGN@D?3?2develop?2Self_develop?2edk2?2Md@ 0000000000014a60     BaseLib:Unaligned.obj
 0002:00000af4       __volatile_metadata        0000000000014af4     <linker-defined>
 0003:00000000       gEfiLoadedImageProtocolGuid 0000000000015000     EmuTimer:AutoGen.obj
 0003:00000010       gEfiStatusCodeSpecificDataGuid 0000000000015010     EmuTimer:AutoGen.obj
 0003:00000020       gEfiStatusCodeRuntimeProtocolGuid 0000000000015020     EmuTimer:AutoGen.obj
 0003:00000030       gEfiCallerBaseName         0000000000015030     EmuTimer:AutoGen.obj
 0003:00000038       gEfiStatusCodeDataTypeDebugGuid 0000000000015038     EmuTimer:AutoGen.obj
 0003:00000048       gEfiCpuArchProtocolGuid    0000000000015048     EmuTimer:AutoGen.obj
 0003:00000058       gEfiTimerArchProtocolGuid  0000000000015058     EmuTimer:AutoGen.obj
 0003:00000068       gEfiHobListGuid            0000000000015068     EmuTimer:AutoGen.obj
 0003:00000078       gEfiCallerIdGuid           0000000000015078     EmuTimer:AutoGen.obj
 0003:00000088       gEmuThunkProtocolGuid      0000000000015088     EmuTimer:AutoGen.obj
 0003:00000098       mTimer                     0000000000015098     EmuTimer:Timer.obj
 0003:000000b8       mTimerNotifyFunction       00000000000150b8     EmuTimer:Timer.obj
 0003:000000c0       gST                        00000000000150c0     UefiBootServicesTableLib:UefiBootServicesTableLib.obj
 0003:000000c8       gBS                        00000000000150c8     UefiBootServicesTableLib:UefiBootServicesTableLib.obj
 0003:000000d0       gImageHandle               00000000000150d0     UefiBootServicesTableLib:UefiBootServicesTableLib.obj
 0003:000000d8       gRT                        00000000000150d8     UefiRuntimeServicesTableLib:UefiRuntimeServicesTableLib.obj
 0003:000000e0       mHobList                   00000000000150e0     DxeHobLib:HobLib.obj
 0003:000000e8       gEmuThunk                  00000000000150e8     DxeEmuLib:DxeEmuLib.obj
 0003:000000f0       mReportStatusCodeLibStatusCodeProtocol 00000000000150f0     DxeReportStatusCodeLib:ReportStatusCodeLib.obj
 0003:00000100       __security_cookie          0000000000015100     StackCheckLibNull:StackCheckLibNullMsvc.obj
 0003:00000108       mTimerPeriodMs             0000000000015108     <common>
 0003:00000110       mCpu                       0000000000015110     <common>

 entry point at        0001:00000058

 Static symbols

 0003:000000f8       mDeadLoopComparator        00000000000150f8     BaseLib:CpuDeadLoop.obj
 0005:00000000       $unwind$TimerCallback      0000000000017000     EmuTimer:Timer.obj
 0005:00000000       $unwind$AsciiStrLen        0000000000017000     BaseLib:String.obj
 0005:00000000       $unwind$GetFirstGuidHob    0000000000017000     DxeHobLib:HobLib.obj
 0005:00000000       $unwind$_DriverUnloadHandler 0000000000017000     UefiDriverEntryPoint:DriverEntryPoint.obj
 0005:00000008       $unwind$DxeEmuLibConstructor 0000000000017008     DxeEmuLib:DxeEmuLib.obj
 0005:00000008       $unwind$ProcessLibraryConstructorList 0000000000017008     EmuTimer:AutoGen.obj
 0005:00000008       $unwind$GetNextGuidHob     0000000000017008     DxeHobLib:HobLib.obj
 0005:00000008       $unwind$GetNextHob         0000000000017008     DxeHobLib:HobLib.obj
 0005:00000008       $unwind$_ModuleEntryPoint  0000000000017008     UefiDriverEntryPoint:DriverEntryPoint.obj
 0005:00000008       $unwind$EfiGetSystemConfigurationTable 0000000000017008     UefiLib:UefiLib.obj
 0005:00000010       $unwind$ProcessModuleEntryPointList 0000000000017010     EmuTimer:AutoGen.obj
 0005:00000010       $unwind$EmuTimerDriverGetTimerPeriod 0000000000017010     EmuTimer:Timer.obj
 0005:00000010       $unwind$EmuTimerDriverRegisterHandler 0000000000017010     EmuTimer:Timer.obj
 0005:00000010       $unwind$EmuTimerDriverSetTimerPeriod 0000000000017010     EmuTimer:Timer.obj
 0005:00000010       $unwind$WriteUnaligned64   0000000000017010     BaseLib:Unaligned.obj
 0005:00000010       $unwind$CopyGuid           0000000000017010     BaseMemoryLib:MemLibGuid.obj
 0005:00000010       $unwind$HobLibConstructor  0000000000017010     DxeHobLib:HobLib.obj
 0005:00000010       $unwind$UefiBootServicesTableLibConstructor 0000000000017010     UefiBootServicesTableLib:UefiBootServicesTableLib.obj
 0005:00000010       $unwind$UefiRuntimeServicesTableLibConstructor 0000000000017010     UefiRuntimeServicesTableLib:UefiRuntimeServicesTableLib.obj
 0005:00000018       $unwind$EmuTimerDriverInitialize 0000000000017018     EmuTimer:Timer.obj
 0005:00000020       $unwind$DivU64x32          0000000000017020     BaseLib:DivU64x32.obj
 0005:00000028       $unwind$MultU64x32         0000000000017028     BaseLib:MultU64x32.obj
 0005:00000030       $unwind$InternalMathDivU64x32 0000000000017030     BaseLib:Math64.obj
 0005:00000038       $unwind$DebugPrint         0000000000017038     PeiDxeDebugLibReportStatusCode:DebugLib.obj
 0005:00000038       $unwind$InternalSafeStringNoAsciiStrOverlap 0000000000017038     BaseLib:SafeString.obj
 0005:00000040       $unwind$DebugPrintMarker   0000000000017040     PeiDxeDebugLibReportStatusCode:DebugLib.obj
 0005:00000050       $unwind$DebugVPrint        0000000000017050     PeiDxeDebugLibReportStatusCode:DebugLib.obj
 0005:00000050       $unwind$CopyMem            0000000000017050     BaseMemoryLib:CopyMemWrapper.obj
 0005:00000058       $unwind$DebugAssert        0000000000017058     PeiDxeDebugLibReportStatusCode:DebugLib.obj
 0005:00000068       $unwind$ReportDebugCodeEnabled 0000000000017068     DxeReportStatusCodeLib:ReportStatusCodeLib.obj
 0005:00000068       $unwind$ReportErrorCodeEnabled 0000000000017068     DxeReportStatusCodeLib:ReportStatusCodeLib.obj
 0005:00000068       $unwind$ReportProgressCodeEnabled 0000000000017068     DxeReportStatusCodeLib:ReportStatusCodeLib.obj
 0005:00000068       $unwind$DebugAssertEnabled 0000000000017068     PeiDxeDebugLibReportStatusCode:DebugLib.obj
 0005:00000068       $unwind$DebugPrintEnabled  0000000000017068     PeiDxeDebugLibReportStatusCode:DebugLib.obj
 0005:00000070       $unwind$DebugPrintLevelEnabled 0000000000017070     PeiDxeDebugLibReportStatusCode:DebugLib.obj
 0005:00000078       $unwind$InternalGetReportStatusCode 0000000000017078     DxeReportStatusCodeLib:ReportStatusCodeLib.obj
 0005:00000078       $unwind$CpuDeadLoop        0000000000017078     BaseLib:CpuDeadLoop.obj
 0005:00000078       $unwind$GetHobList         0000000000017078     DxeHobLib:HobLib.obj
 0005:00000080       $unwind$InternalReportStatusCode 0000000000017080     DxeReportStatusCodeLib:ReportStatusCodeLib.obj
 0005:00000088       $unwind$ReportStatusCodeEx 0000000000017088     DxeReportStatusCodeLib:ReportStatusCodeLib.obj
 0005:00000098       $unwind$CompareGuid        0000000000017098     BaseMemoryLib:MemLibGuid.obj
 0005:000000a0       $unwind$InternalMemCopyMem 00000000000170a0     BaseMemoryLib:CopyMem.obj
 0005:000000a8       $unwind$AsciiStrSize       00000000000170a8     BaseLib:String.obj
 0005:000000a8       $unwind$ReadUnaligned64    00000000000170a8     BaseLib:Unaligned.obj
 0005:000000b0       $unwind$AsciiStrnLenS      00000000000170b0     BaseLib:SafeString.obj
 0005:000000b8       $unwind$AsciiStrnCpyS      00000000000170b8     BaseLib:SafeString.obj
