 CapsuleRuntimeDxe

 Timestamp is 68f5fe9c (Mon Oct 20 17:19:24 2025)

 Preferred load address is 0000000000010000

 Start         Length     Name                   Class
 0001:00000000 00000074H .text                   CODE
 0001:00000074 00004c51H .text$mn                CODE
 0002:00000000 000010d4H .rdata                  DATA
 0002:000010d4 00000018H .rdata$voltmd           DATA
 0002:000010ec 0000016cH .rdata$zzzdbg           DATA
 0003:00000000 00000098H .data                   DATA
 0003:00000098 00000070H .bss                    DATA
 0004:00000000 000002f4H .pdata                  DATA
 0005:00000000 00000120H .xdata                  DATA

  Address         Publics by Value              Rva+Base               Lib:Object

 0000:00000000       __guard_longjmp_table      0000000000000000     <absolute>
 0000:00000000       __guard_fids_count         0000000000000000     <absolute>
 0000:00000000       __x64_code_ranges_to_entry_points_count 0000000000000000     <absolute>
 0000:00000000       __arm64x_extra_rfe_table   0000000000000000     <absolute>
 0000:00000000       __arm64x_redirection_metadata 0000000000000000     <absolute>
 0000:00000000       __hybrid_code_map          0000000000000000     <absolute>
 0000:00000000       __guard_iat_table          0000000000000000     <absolute>
 0000:00000000       __arm64x_extra_rfe_table_size 0000000000000000     <absolute>
 0000:00000000       __guard_iat_count          0000000000000000     <absolute>
 0000:00000000       __x64_code_ranges_to_entry_points 0000000000000000     <absolute>
 0000:00000000       __guard_longjmp_count      0000000000000000     <absolute>
 0000:00000000       __dynamic_value_reloc_table 0000000000000000     <absolute>
 0000:00000000       __hybrid_auxiliary_iat     0000000000000000     <absolute>
 0000:00000000       __hybrid_auxiliary_iat_copy 0000000000000000     <absolute>
 0000:00000000       __guard_flags              0000000000000000     <absolute>
 0000:00000000       __guard_eh_cont_count      0000000000000000     <absolute>
 0000:00000000       __AbsoluteZero             0000000000000000     <absolute>
 0000:00000000       __guard_check_icall_a64n_fptr 0000000000000000     <absolute>
 0000:00000000       __hybrid_code_map_count    0000000000000000     <absolute>
 0000:00000000       __guard_fids_table         0000000000000000     <absolute>
 0000:00000000       __arm64x_redirection_metadata_count 0000000000000000     <absolute>
 0000:00000000       __enclave_config           0000000000000000     <absolute>
 0000:00000000       __guard_eh_cont_table      0000000000000000     <absolute>
 0000:00000000       __arm64x_native_entrypoint 0000000000000000     <absolute>
 0001:00000000       AsmCpuid                   0000000000011000     BaseLib:CpuId.obj
 0001:00000030       __report_rangecheckfailure 0000000000011030     StackCheckLibNull:StackCheckFunctionsMsvc.obj
 0001:00000031       __GSHandlerCheck           0000000000011031     StackCheckLibNull:StackCheckFunctionsMsvc.obj
 0001:00000032       __security_check_cookie    0000000000011032     StackCheckLibNull:StackCheckFunctionsMsvc.obj
 0001:00000040       AsmWbinvd                  0000000000011040     BaseLib:Wbinvd.obj
 0001:00000050       AsmFlushCacheLine          0000000000011050     BaseLib:FlushCacheLine.obj
 0001:00000060       AsmInvd                    0000000000011060     BaseLib:Invd.obj
 0001:00000070       CpuPause                   0000000000011070     BaseLib:CpuPause.obj
 0001:00000074       _DriverUnloadHandler       0000000000011074 f   UefiDriverEntryPoint:DriverEntryPoint.obj
 0001:000000b8       _ModuleEntryPoint          00000000000110b8 f   UefiDriverEntryPoint:DriverEntryPoint.obj
 0001:000001f8       ProcessLibraryConstructorList 00000000000111f8 f   CapsuleRuntimeDxe:AutoGen.obj
 0001:00000444       ProcessLibraryDestructorList 0000000000011444 f   CapsuleRuntimeDxe:AutoGen.obj
 0001:000004e8       ProcessModuleEntryPointList 00000000000114e8 f   CapsuleRuntimeDxe:AutoGen.obj
 0001:0000050c       ProcessModuleUnloadList    000000000001150c f   CapsuleRuntimeDxe:AutoGen.obj
 0001:00000514       UpdateCapsule              0000000000011514 f   CapsuleRuntimeDxe:CapsuleService.obj
 0001:000008c0       QueryCapsuleCapabilities   00000000000118c0 f   CapsuleRuntimeDxe:CapsuleService.obj
 0001:00000ac8       CapsuleServiceInitialize   0000000000011ac8 f   CapsuleRuntimeDxe:CapsuleService.obj
 0001:00000bc4       IsPersistAcrossResetCapsuleSupported 0000000000011bc4 f   CapsuleRuntimeDxe:CapsuleReset.obj
 0001:00000bcc       AllocateReservedMemoryBelow4G 0000000000011bcc f   CapsuleRuntimeDxe:SaveLongModeContext.obj
 0001:00000cd4       VariableLockCapsuleLongModeBufferVariable 0000000000011cd4 f   CapsuleRuntimeDxe:SaveLongModeContext.obj
 0001:00000db8       PrepareContextForCapsulePei 0000000000011db8 f   CapsuleRuntimeDxe:SaveLongModeContext.obj
 0001:000010b8       SaveLongModeContext        00000000000120b8 f   CapsuleRuntimeDxe:SaveLongModeContext.obj
 0001:000010dc       CapsuleCacheWriteBack      00000000000120dc f   CapsuleRuntimeDxe:CapsuleCache.obj
 0001:00001184       CopyGuid                   0000000000012184 f   BaseMemoryLib:MemLibGuid.obj
 0001:000011d8       CompareGuid                00000000000121d8 f   BaseMemoryLib:MemLibGuid.obj
 0001:00001260       ZeroMem                    0000000000012260 f   BaseMemoryLib:ZeroMemWrapper.obj
 0001:00001308       InternalMemZeroMem         0000000000012308 f   BaseMemoryLib:MemLibGeneric.obj
 0001:00001330       InternalMemSetMem          0000000000012330 f   BaseMemoryLib:SetMem.obj
 0001:000014c4       UnicodeValueToStringS      00000000000124c4 f   BasePrintLib:PrintLib.obj
 0001:00001548       BasePrintLibFillBuffer     0000000000012548 f   BasePrintLib:PrintLibInternal.obj
 0001:000015d4       BasePrintLibValueToString  00000000000125d4 f   BasePrintLib:PrintLibInternal.obj
 0001:0000163c       BasePrintLibConvertValueToStringS 000000000001263c f   BasePrintLib:PrintLibInternal.obj
 0001:00001d90       StrLen                     0000000000012d90 f   BaseLib:String.obj
 0001:00001e84       AsciiStrLen                0000000000012e84 f   BaseLib:String.obj
 0001:00001f3c       AsciiStrSize               0000000000012f3c f   BaseLib:String.obj
 0001:00001f58       InternalSafeStringIsOverlap 0000000000012f58 f   BaseLib:SafeString.obj
 0001:00001fbc       InternalSafeStringNoStrOverlap 0000000000012fbc f   BaseLib:SafeString.obj
 0001:0000201c       InternalSafeStringNoAsciiStrOverlap 000000000001301c f   BaseLib:SafeString.obj
 0001:00002070       StrnLenS                   0000000000013070 f   BaseLib:SafeString.obj
 0001:00002114       StrCpyS                    0000000000013114 f   BaseLib:SafeString.obj
 0001:00002584       AsciiStrnLenS              0000000000013584 f   BaseLib:SafeString.obj
 0001:000025f0       AsciiStrnCpyS              00000000000135f0 f   BaseLib:SafeString.obj
 0001:00002ae0       LShiftU64                  0000000000013ae0 f   BaseLib:LShiftU64.obj
 0001:00002b34       ReadUnaligned64            0000000000013b34 f   BaseLib:Unaligned.obj
 0001:00002b7c       WriteUnaligned64           0000000000013b7c f   BaseLib:Unaligned.obj
 0001:00002bd4       DivU64x32Remainder         0000000000013bd4 f   BaseLib:DivU64x32Remainder.obj
 0001:00002c30       InternalMathLShiftU64      0000000000013c30 f   BaseLib:Math64.obj
 0001:00002c4c       InternalMathDivRemU64x32   0000000000013c4c f   BaseLib:Math64.obj
 0001:00002ca4       DebugPrint                 0000000000013ca4 f   PeiDxeDebugLibReportStatusCode:DebugLib.obj
 0001:00002ce8       DebugPrintMarker           0000000000013ce8 f   PeiDxeDebugLibReportStatusCode:DebugLib.obj
 0001:00003490       DebugVPrint                0000000000014490 f   PeiDxeDebugLibReportStatusCode:DebugLib.obj
 0001:000034c0       DebugAssert                00000000000144c0 f   PeiDxeDebugLibReportStatusCode:DebugLib.obj
 0001:0000385c       DebugAssertEnabled         000000000001485c f   PeiDxeDebugLibReportStatusCode:DebugLib.obj
 0001:00003880       DebugPrintEnabled          0000000000014880 f   PeiDxeDebugLibReportStatusCode:DebugLib.obj
 0001:000038a4       DebugPrintLevelEnabled     00000000000148a4 f   PeiDxeDebugLibReportStatusCode:DebugLib.obj
 0001:000038d8       UefiBootServicesTableLibConstructor 00000000000148d8 f   UefiBootServicesTableLib:UefiBootServicesTableLib.obj
 0001:000039b4       UefiRuntimeServicesTableLibConstructor 00000000000149b4 f   UefiRuntimeServicesTableLib:UefiRuntimeServicesTableLib.obj
 0001:00003a10       SupportCapsuleImage        0000000000014a10 f   DxeCapsuleLibNull:DxeCapsuleLibNull.obj
 0001:00003a10       ProcessCapsuleImage        0000000000014a10 f   DxeCapsuleLibNull:DxeCapsuleLibNull.obj
 0001:00003a20       RuntimeLibExitBootServicesEvent 0000000000014a20 f   UefiRuntimeLib:RuntimeLib.obj
 0001:00003a34       RuntimeLibVirtualNotifyEvent 0000000000014a34 f   UefiRuntimeLib:RuntimeLib.obj
 0001:00003a5c       RuntimeDriverLibConstruct  0000000000014a5c f   UefiRuntimeLib:RuntimeLib.obj
 0001:00003c3c       RuntimeDriverLibDeconstruct 0000000000014c3c f   UefiRuntimeLib:RuntimeLib.obj
 0001:00003da8       EfiAtRuntime               0000000000014da8 f   UefiRuntimeLib:RuntimeLib.obj
 0001:00003db0       EfiResetSystem             0000000000014db0 f   UefiRuntimeLib:RuntimeLib.obj
 0001:00003dec       EfiSetVariable             0000000000014dec f   UefiRuntimeLib:RuntimeLib.obj
 0001:00003e34       EfiConvertPointer          0000000000014e34 f   UefiRuntimeLib:RuntimeLib.obj
 0001:00003e5c       WriteBackInvalidateDataCacheRange 0000000000014e5c f   BaseCacheMaintenanceLib:X86Cache.obj
 0001:00003f88       WriteBackDataCacheRange    0000000000014f88 f   BaseCacheMaintenanceLib:X86Cache.obj
 0001:00003fac       UefiLibConstructor         0000000000014fac f   UefiLib:UefiLib.obj
 0001:00003fbc       EfiCreateProtocolNotifyEvent 0000000000014fbc f   UefiLib:UefiLib.obj
 0001:000041c8       GetDebugPrintErrorLevel    00000000000151c8 f   BaseDebugPrintErrorLevelLib:BaseDebugPrintErrorLevelLib.obj
 0001:000041d0       InternalGetReportStatusCode 00000000000151d0 f   DxeReportStatusCodeLib:ReportStatusCodeLib.obj
 0001:00004240       InternalReportStatusCode   0000000000015240 f   DxeReportStatusCodeLib:ReportStatusCodeLib.obj
 0001:000042f8       ReportStatusCodeEx         00000000000152f8 f   DxeReportStatusCodeLib:ReportStatusCodeLib.obj
 0001:00004574       ReportProgressCodeEnabled  0000000000015574 f   DxeReportStatusCodeLib:ReportStatusCodeLib.obj
 0001:00004598       ReportErrorCodeEnabled     0000000000015598 f   DxeReportStatusCodeLib:ReportStatusCodeLib.obj
 0001:000045bc       ReportDebugCodeEnabled     00000000000155bc f   DxeReportStatusCodeLib:ReportStatusCodeLib.obj
 0001:000045e0       CopyMem                    00000000000155e0 f   BaseMemoryLib:CopyMemWrapper.obj
 0001:000046b8       InternalMemCopyMem         00000000000156b8 f   BaseMemoryLib:CopyMem.obj
 0001:00004c94       CpuBreakpoint              0000000000015c94 f   BaseLib:CpuBreakpoint.obj
 0001:00004c98       CpuDeadLoop                0000000000015c98 f   BaseLib:CpuDeadLoop.obj
 0002:00000000       ??_C@_0CB@DMEJJJHA@?6ASSERT_EFI_ERROR?5?$CIStatus?5?$DN?5?$CFr?$CJ@ 0000000000016000     UefiDriverEntryPoint:DriverEntryPoint.obj
 0002:00000028       ??_C@_0DG@FLPEIDFK@?$CB?$CI?$CI?$CIRETURN_STATUS?$CJ?$CIStatus?$CJ?$CJ?5?$DO?$DN?5@ 0000000000016028     UefiDriverEntryPoint:DriverEntryPoint.obj
 0002:00000060       ??_C@_0FE@KBEJNINE@D?3?2develop?2Self_develop?2edk2?2Md@ 0000000000016060     UefiDriverEntryPoint:DriverEntryPoint.obj
 0002:000000b4       _gPcd_FixedAtBuild_PcdUse1GPageTable 00000000000160b4     CapsuleRuntimeDxe:AutoGen.obj
 0002:000000b4       _gPcd_FixedAtBuild_PcdSupportProcessCapsuleAtRuntime 00000000000160b4     CapsuleRuntimeDxe:AutoGen.obj
 0002:000000b4       _gPcd_FixedAtBuild_PcdDxeIplSwitchToLongMode 00000000000160b4     CapsuleRuntimeDxe:AutoGen.obj
 0002:000000b4       _gPcd_FixedAtBuild_PcdSupportUpdateCapsuleReset 00000000000160b4     CapsuleRuntimeDxe:AutoGen.obj
 0002:000000b4       _gDriverUnloadImageCount   00000000000160b4     CapsuleRuntimeDxe:AutoGen.obj
 0002:000000b8       _gPcd_FixedAtBuild_PcdMaxSizePopulateCapsule 00000000000160b8     CapsuleRuntimeDxe:AutoGen.obj
 0002:000000b8       _gUefiDriverRevision       00000000000160b8     CapsuleRuntimeDxe:AutoGen.obj
 0002:000000b8       _gPcd_FixedAtBuild_PcdMaxSizeNonPopulateCapsule 00000000000160b8     CapsuleRuntimeDxe:AutoGen.obj
 0002:000000c0       ??_C@_0BC@JPBOMMCO@CapsuleRuntimeDxe@ 00000000000160c0     CapsuleRuntimeDxe:AutoGen.obj
 0002:000000e0       ??_C@_0IL@CGCLEDPK@D?3?2develop?2Self_develop?2edk2?2Bu@ 00000000000160e0     CapsuleRuntimeDxe:AutoGen.obj
 0002:0000016c       _gPcd_FixedAtBuild_PcdMaximumAsciiStringLength 000000000001616c     CapsuleRuntimeDxe:AutoGen.obj
 0002:0000016c       _gPcd_FixedAtBuild_PcdMaximumUnicodeStringLength 000000000001616c     CapsuleRuntimeDxe:AutoGen.obj
 0002:00000170       _gPcd_FixedAtBuild_PcdReportStatusCodePropertyMask 0000000000016170     CapsuleRuntimeDxe:AutoGen.obj
 0002:00000171       _gPcd_FixedAtBuild_PcdCapsuleInRamSupport 0000000000016171     CapsuleRuntimeDxe:AutoGen.obj
 0002:00000174       _gPcd_FixedAtBuild_PcdDebugPrintErrorLevel 0000000000016174     CapsuleRuntimeDxe:AutoGen.obj
 0002:00000178       _gPcd_FixedAtBuild_PcdFixedDebugPrintErrorLevel 0000000000016178     CapsuleRuntimeDxe:AutoGen.obj
 0002:0000017c       _gPcd_FixedAtBuild_PcdCapsulePeiLongModeStackSize 000000000001617c     CapsuleRuntimeDxe:AutoGen.obj
 0002:00000180       _gPcd_FixedAtBuild_PcdDebugPropertyMask 0000000000016180     CapsuleRuntimeDxe:AutoGen.obj
 0002:00000188       ??_C@_1CE@KAHHLODK@?$AAC?$AAa?$AAp?$AAs?$AAu?$AAl?$AAe?$AAU?$AAp?$AAd?$AAa?$AAt?$AAe?$AAD?$AAa@ 0000000000016188     CapsuleRuntimeDxe:CapsuleService.obj
 0002:000001b0       ??_C@_0FH@BAODBMDA@D?3?2develop?2Self_develop?2edk2?2Md@ 00000000000161b0     CapsuleRuntimeDxe:CapsuleService.obj
 0002:00000210       ??_C@_0GA@GOHAMMND@D?3?2develop?2Self_develop?2edk2?2Md@ 0000000000016210     CapsuleRuntimeDxe:SaveLongModeContext.obj
 0002:00000270       ??_C@_1CM@MKADNKPL@?$AAC?$AAa?$AAp?$AAs?$AAu?$AAl?$AAe?$AAL?$AAo?$AAn?$AAg?$AAM?$AAo?$AAd?$AAe@ 0000000000016270     CapsuleRuntimeDxe:SaveLongModeContext.obj
 0002:000002a0       ??_C@_0DC@PAPHKGOG@CapsuleRuntimeDxe?5X64?5TotalPage@ 00000000000162a0     CapsuleRuntimeDxe:SaveLongModeContext.obj
 0002:000002d8       ??_C@_0CF@LFNJPAKD@LongModeBuffer?4PageTableAddress@ 00000000000162d8     CapsuleRuntimeDxe:SaveLongModeContext.obj
 0002:00000300       ??_C@_0CF@JCBIJPPC@LongModeBuffer?4StackBaseAddress@ 0000000000016300     CapsuleRuntimeDxe:SaveLongModeContext.obj
 0002:00000330       ??_C@_0FC@FGPOLDCG@FATAL?5ERROR?3?5CapsuleLongModeBuf@ 0000000000016330     CapsuleRuntimeDxe:SaveLongModeContext.obj
 0002:00000388       ??_C@_0DG@EEENIGGL@Length?5?$DM?$DN?5?$CI0xFFFFFFFFFFFFFFFFUL@ 0000000000016388     BaseMemoryLib:MemLibGuid.obj
 0002:000003c0       ??_C@_0BH@IACGKAP@Buffer?5?$CB?$DN?5?$CI?$CIvoid?5?$CK?$CJ?50?$CJ@ 00000000000163c0     BaseMemoryLib:ZeroMemWrapper.obj
 0002:000003e0       ??_C@_0EL@GJBLADOA@D?3?2develop?2Self_develop?2edk2?2Md@ 00000000000163e0     BaseMemoryLib:ZeroMemWrapper.obj
 0002:00000430       ??_C@_0EE@ODNPLEBG@D?3?2develop?2Self_develop?2edk2?2Md@ 0000000000016430     BasePrintLib:PrintLib.obj
 0002:00000478       ??_C@_0CB@LDBAOPMG@?$CI?$CI?$CIUINTN?$CJ?5?$CIBuffer?$CJ?$CJ?5?$CG?50x01?$CJ?5?$DN?$DN?5@ 0000000000016478     BasePrintLib:PrintLib.obj
 0002:000004a0       ??_C@_0EM@LLAPJOAH@D?3?2develop?2Self_develop?2edk2?2Md@ 00000000000164a0     BasePrintLib:PrintLibInternal.obj
 0002:000004f0       ??_C@_0BJ@CNKJJNE@?$CIBuffer?5?$CB?$DN?5?$CI?$CIvoid?5?$CK?$CJ?50?$CJ?$CJ@ 00000000000164f0     BasePrintLib:PrintLibInternal.obj
 0002:00000510       ??_C@_0EB@HDGIDCIO@?$CIBufferSize?5?$DM?$DN?5?$CI_gPcd_FixedAtBu@ 0000000000016510     BasePrintLib:PrintLibInternal.obj
 0002:00000560       ??_C@_0FJ@HAEMOBLP@?$CIBufferSize?5?$DM?$DN?5?$CI_gPcd_FixedAtBu@ 0000000000016560     BasePrintLib:PrintLibInternal.obj
 0002:000005c0       ??_C@_0CO@OJNGHNJG@?$CI?$CIFlags?5?$CG?5?$HO?$CI0x01?5?$HM?50x08?5?$HM?50x20?5@ 00000000000165c0     BasePrintLib:PrintLibInternal.obj
 0002:000005f0       ??_C@_0DB@HIDPIAGP@?$CI?$CI?$CIFlags?5?$CG?50x08?$CJ?5?$DN?$DN?50?$CJ?5?$HM?$HM?5?$CI?$CIFla@ 00000000000165f0     BasePrintLib:PrintLibInternal.obj
 0002:00000628       ??_C@_0N@PNKFBKME@?$CIWidth?5?$DM?538?$CJ@ 0000000000016628     BasePrintLib:PrintLibInternal.obj
 0002:00000638       ??_C@_0CI@HPJOGFNE@?$CIBufferSize?5?$DO?$DN?5?$CIWidth?5?$CL?51?$CJ?5?$CK?5In@ 0000000000016638     BasePrintLib:PrintLibInternal.obj
 0002:00000660       mHexStr                    0000000000016660     BasePrintLib:PrintLibInternal.obj
 0002:00000670       ??_C@_0BH@MAAHKCPC@String?5?$CB?$DN?5?$CI?$CIvoid?5?$CK?$CJ?50?$CJ@ 0000000000016670     BaseLib:String.obj
 0002:00000688       ??_C@_0DN@POJBHOAP@D?3?2develop?2Self_develop?2edk2?2Md@ 0000000000016688     BaseLib:String.obj
 0002:000006c8       ??_C@_0CC@GFNLNIOC@?$CI?$CIUINTN?$CJString?5?$CG?50x00000001?$CJ?5?$DN?$DN@ 00000000000166c8     BaseLib:String.obj
 0002:000006f0       ??_C@_0DK@EOJCOAME@Length?5?$DM?5_gPcd_FixedAtBuild_Pcd@ 00000000000166f0     BaseLib:String.obj
 0002:00000730       ??_C@_0DI@MDIKFADO@Length?5?$DM?5_gPcd_FixedAtBuild_Pcd@ 0000000000016730     BaseLib:String.obj
 0002:00000770       ??_C@_0EB@DAKPBIJH@D?3?2develop?2Self_develop?2edk2?2Md@ 0000000000016770     BaseLib:SafeString.obj
 0002:000007b8       ??_C@_0CH@LALFPBMC@?$CI?$CIUINTN?$CJDestination?5?$CG?50x0000000@ 00000000000167b8     BaseLib:SafeString.obj
 0002:000007e0       ??_C@_0CC@HEBCMBPF@?$CI?$CIUINTN?$CJSource?5?$CG?50x00000001?$CJ?5?$DN?$DN@ 00000000000167e0     BaseLib:SafeString.obj
 0002:00000808       ??_C@_0BO@ECNIOIHG@?$CIDestination?5?$CB?$DN?5?$CI?$CIvoid?5?$CK?$CJ?50?$CJ?$CJ@ 0000000000016808     BaseLib:SafeString.obj
 0002:00000828       ??_C@_07KBGDFDAM@StrCpyS@  0000000000016828     BaseLib:SafeString.obj
 0002:00000830       ??_C@_0EA@PDPDJJNN@?$CFa?$CI?$CFd?$CJ?5?$CFa?3?5SAFE_STRING_CONSTRAI@ 0000000000016830     BaseLib:SafeString.obj
 0002:00000870       ??_C@_0BJ@EAEEJIP@?$CISource?5?$CB?$DN?5?$CI?$CIvoid?5?$CK?$CJ?50?$CJ?$CJ@ 0000000000016870     BaseLib:SafeString.obj
 0002:00000890       ??_C@_0EA@BBALOHPI@?$CIDestMax?5?$DM?$DN?5?$CI_gPcd_FixedAtBuild@ 0000000000016890     BaseLib:SafeString.obj
 0002:000008d0       ??_C@_0P@PMIMLIHM@?$CIDestMax?5?$CB?$DN?50?$CJ@ 00000000000168d0     BaseLib:SafeString.obj
 0002:000008e0       ??_C@_0BG@EEGIIOKH@?$CIDestMax?5?$DO?5SourceLen?$CJ@ 00000000000168e0     BaseLib:SafeString.obj
 0002:00000900       ??_C@_0FH@PPBLBDBJ@InternalSafeStringNoStrOverlap?5@ 0000000000016900     BaseLib:SafeString.obj
 0002:00000958       ??_C@_0DO@LJFOOPII@?$CIDestMax?5?$DM?$DN?5?$CI_gPcd_FixedAtBuild@ 0000000000016958     BaseLib:SafeString.obj
 0002:000009a0       ??_C@_0FL@CDANCHFO@InternalSafeStringNoAsciiStrOve@ 00000000000169a0     BaseLib:SafeString.obj
 0002:00000a00       ??_C@_0O@DIHNCLLG@AsciiStrnCpyS@ 0000000000016a00     BaseLib:SafeString.obj
 0002:00000a10       ??_C@_0DN@DLAADCJE@?$CILength?5?$DM?$DN?5?$CI_gPcd_FixedAtBuild_@ 0000000000016a10     BaseLib:SafeString.obj
 0002:00000a50       ??_C@_0L@MEMPDLHB@Count?5?$DM?564@ 0000000000016a50     BaseLib:LShiftU64.obj
 0002:00000a60       ??_C@_0EA@MLMAFFLG@D?3?2develop?2Self_develop?2edk2?2Md@ 0000000000016a60     BaseLib:LShiftU64.obj
 0002:00000aa0       ??_C@_0EA@FKBIDDGN@D?3?2develop?2Self_develop?2edk2?2Md@ 0000000000016aa0     BaseLib:Unaligned.obj
 0002:00000ae0       ??_C@_0N@KGHEHMDL@Divisor?5?$CB?$DN?50@ 0000000000016ae0     BaseLib:DivU64x32Remainder.obj
 0002:00000af0       ??_C@_0EJ@IMLDOBB@D?3?2develop?2Self_develop?2edk2?2Md@ 0000000000016af0     BaseLib:DivU64x32Remainder.obj
 0002:00000b40       ??_C@_0BH@LKMBFCBF@Format?5?$CB?$DN?5?$CI?$CIvoid?5?$CK?$CJ?50?$CJ@ 0000000000016b40     PeiDxeDebugLibReportStatusCode:DebugLib.obj
 0002:00000b60       ??_C@_0FM@HDIIFGPN@D?3?2develop?2Self_develop?2edk2?2Md@ 0000000000016b60     PeiDxeDebugLibReportStatusCode:DebugLib.obj
 0002:00000bc0       ??_C@_0CP@EFCGCEBK@?$CICHAR8?5?$CK?$CJBaseListMarkerPointer?5@ 0000000000016bc0     PeiDxeDebugLibReportStatusCode:DebugLib.obj
 0002:00000bf0       ??_C@_01OHGJGJJP@?$FL@     0000000000016bf0     PeiDxeDebugLibReportStatusCode:DebugLib.obj
 0002:00000bf4       ??_C@_02PBFOLPKM@?$FN?5@   0000000000016bf4     PeiDxeDebugLibReportStatusCode:DebugLib.obj
 0002:00000bf8       ??_C@_0BN@COECPDCC@gImageHandle?5?$CB?$DN?5?$CI?$CIvoid?5?$CK?$CJ?50?$CJ@ 0000000000016bf8     UefiBootServicesTableLib:UefiBootServicesTableLib.obj
 0002:00000c20       ??_C@_0GA@INMEIGJE@D?3?2develop?2Self_develop?2edk2?2Md@ 0000000000016c20     UefiBootServicesTableLib:UefiBootServicesTableLib.obj
 0002:00000c80       ??_C@_0BE@DGNHAHIL@gST?5?$CB?$DN?5?$CI?$CIvoid?5?$CK?$CJ?50?$CJ@ 0000000000016c80     UefiBootServicesTableLib:UefiBootServicesTableLib.obj
 0002:00000c98       ??_C@_0BE@BDFJLGLN@gBS?5?$CB?$DN?5?$CI?$CIvoid?5?$CK?$CJ?50?$CJ@ 0000000000016c98     UefiBootServicesTableLib:UefiBootServicesTableLib.obj
 0002:00000cb0       ??_C@_0BE@OBDFIHND@gRT?5?$CB?$DN?5?$CI?$CIvoid?5?$CK?$CJ?50?$CJ@ 0000000000016cb0     UefiRuntimeServicesTableLib:UefiRuntimeServicesTableLib.obj
 0002:00000cd0       ??_C@_0GG@OBDIBKMM@D?3?2develop?2Self_develop?2edk2?2Md@ 0000000000016cd0     UefiRuntimeServicesTableLib:UefiRuntimeServicesTableLib.obj
 0002:00000d40       ??_C@_0EI@IBPKEKGE@D?3?2develop?2Self_develop?2edk2?2Md@ 0000000000016d40     UefiRuntimeLib:RuntimeLib.obj
 0002:00000d88       ??_C@_0DJ@EPHLDLOO@?$CILength?5?9?51?$CJ?5?$DM?$DN?5?$CI0xFFFFFFFFFFFF@ 0000000000016d88     BaseCacheMaintenanceLib:X86Cache.obj
 0002:00000dd0       ??_C@_0EP@IHKJJPAG@D?3?2develop?2Self_develop?2edk2?2Md@ 0000000000016dd0     BaseCacheMaintenanceLib:X86Cache.obj
 0002:00000e20       ??_C@_0DO@KJBPHFLK@D?3?2develop?2Self_develop?2edk2?2Md@ 0000000000016e20     UefiLib:UefiLib.obj
 0002:00000e60       ??_C@_0BN@HHGHCLME@ProtocolGuid?5?$CB?$DN?5?$CI?$CIvoid?5?$CK?$CJ?50?$CJ@ 0000000000016e60     UefiLib:UefiLib.obj
 0002:00000e80       ??_C@_0BP@DEIEJICI@NotifyFunction?5?$CB?$DN?5?$CI?$CIvoid?5?$CK?$CJ?50?$CJ@ 0000000000016e80     UefiLib:UefiLib.obj
 0002:00000ea0       ??_C@_0BN@OMCJCPAI@Registration?5?$CB?$DN?5?$CI?$CIvoid?5?$CK?$CJ?50?$CJ@ 0000000000016ea0     UefiLib:UefiLib.obj
 0002:00000ec0       ??_C@_0FP@CCJIJCDG@D?3?2develop?2Self_develop?2edk2?2Md@ 0000000000016ec0     DxeReportStatusCodeLib:ReportStatusCodeLib.obj
 0002:00000f20       ??_C@_0DN@HHIHPHHB@?$CB?$CI?$CIExtendedData?5?$DN?$DN?5?$CI?$CIvoid?5?$CK?$CJ?50?$CJ@ 0000000000016f20     DxeReportStatusCodeLib:ReportStatusCodeLib.obj
 0002:00000f60       ??_C@_0DN@BBBIFINB@?$CB?$CI?$CIExtendedData?5?$CB?$DN?5?$CI?$CIvoid?5?$CK?$CJ?50?$CJ@ 0000000000016f60     DxeReportStatusCodeLib:ReportStatusCodeLib.obj
 0002:00000fa0       ??_C@_0ED@MKGCMJG@?$CILength?5?9?51?$CJ?5?$DM?$DN?5?$CI0xFFFFFFFFFFFF@ 0000000000016fa0     BaseMemoryLib:CopyMemWrapper.obj
 0002:00000ff0       ??_C@_0EL@NNLJGCCH@D?3?2develop?2Self_develop?2edk2?2Md@ 0000000000016ff0     BaseMemoryLib:CopyMemWrapper.obj
 0002:00001040       ??_C@_0DO@MAOBOFEG@?$CILength?5?9?51?$CJ?5?$DM?$DN?5?$CI0xFFFFFFFFFFFF@ 0000000000017040     BaseMemoryLib:CopyMemWrapper.obj
 0002:000010d4       __volatile_metadata        00000000000170d4     <linker-defined>
 0003:00000000       gEfiLoadedImageProtocolGuid 0000000000018000     CapsuleRuntimeDxe:AutoGen.obj
 0003:00000010       gEfiStatusCodeSpecificDataGuid 0000000000018010     CapsuleRuntimeDxe:AutoGen.obj
 0003:00000020       gEfiStatusCodeRuntimeProtocolGuid 0000000000018020     CapsuleRuntimeDxe:AutoGen.obj
 0003:00000030       gEdkiiVariableLockProtocolGuid 0000000000018030     CapsuleRuntimeDxe:AutoGen.obj
 0003:00000040       gEfiCapsuleArchProtocolGuid 0000000000018040     CapsuleRuntimeDxe:AutoGen.obj
 0003:00000050       gEfiFmpCapsuleGuid         0000000000018050     CapsuleRuntimeDxe:AutoGen.obj
 0003:00000060       gEfiCallerBaseName         0000000000018060     CapsuleRuntimeDxe:AutoGen.obj
 0003:00000068       gEfiStatusCodeDataTypeDebugGuid 0000000000018068     CapsuleRuntimeDxe:AutoGen.obj
 0003:00000078       gEfiCapsuleVendorGuid      0000000000018078     CapsuleRuntimeDxe:AutoGen.obj
 0003:00000088       gEfiCallerIdGuid           0000000000018088     CapsuleRuntimeDxe:AutoGen.obj
 0003:00000098       mNewHandle                 0000000000018098     CapsuleRuntimeDxe:CapsuleService.obj
 0003:000000a0       mTimes                     00000000000180a0     CapsuleRuntimeDxe:CapsuleService.obj
 0003:000000a8       mMaxSizeNonPopulateCapsule 00000000000180a8     CapsuleRuntimeDxe:CapsuleService.obj
 0003:000000ac       mMaxSizePopulateCapsule    00000000000180ac     CapsuleRuntimeDxe:CapsuleService.obj
 0003:000000b0       gST                        00000000000180b0     UefiBootServicesTableLib:UefiBootServicesTableLib.obj
 0003:000000b8       gBS                        00000000000180b8     UefiBootServicesTableLib:UefiBootServicesTableLib.obj
 0003:000000c0       gImageHandle               00000000000180c0     UefiBootServicesTableLib:UefiBootServicesTableLib.obj
 0003:000000c8       gRT                        00000000000180c8     UefiRuntimeServicesTableLib:UefiRuntimeServicesTableLib.obj
 0003:000000d0       mEfiAtRuntime              00000000000180d0     UefiRuntimeLib:RuntimeLib.obj
 0003:000000d1       mEfiGoneVirtual            00000000000180d1     UefiRuntimeLib:RuntimeLib.obj
 0003:000000d8       mReportStatusCodeLibStatusCodeProtocol 00000000000180d8     DxeReportStatusCodeLib:ReportStatusCodeLib.obj
 0003:000000e8       __security_cookie          00000000000180e8     StackCheckLibNull:StackCheckLibNullMsvc.obj
 0003:000000f0       mEfiVirtualNotifyEvent     00000000000180f0     <common>
 0003:000000f8       mInternalRT                00000000000180f8     <common>
 0003:00000100       mEfiExitBootServicesEvent  0000000000018100     <common>

 entry point at        0001:000000b8

 Static symbols

 0001:0000000f       AsmCpuid.0                 000000000001100f     BaseLib:CpuId.obj
 0001:00000014       AsmCpuid.1                 0000000000011014     BaseLib:CpuId.obj
 0001:0000001b       AsmCpuid.2                 000000000001101b     BaseLib:CpuId.obj
 0001:00000024       AsmCpuid.3                 0000000000011024     BaseLib:CpuId.obj
 0003:000000e0       mDeadLoopComparator        00000000000180e0     BaseLib:CpuDeadLoop.obj
 0005:00000000       $unwind$CapsuleCacheWriteBack 000000000001a000     CapsuleRuntimeDxe:CapsuleCache.obj
 0005:00000000       $unwind$AsciiStrLen        000000000001a000     BaseLib:String.obj
 0005:00000000       $unwind$StrLen             000000000001a000     BaseLib:String.obj
 0005:00000000       $unwind$_DriverUnloadHandler 000000000001a000     UefiDriverEntryPoint:DriverEntryPoint.obj
 0005:00000008       $unwind$ProcessLibraryConstructorList 000000000001a008     CapsuleRuntimeDxe:AutoGen.obj
 0005:00000008       $unwind$ProcessLibraryDestructorList 000000000001a008     CapsuleRuntimeDxe:AutoGen.obj
 0005:00000008       $unwind$CapsuleServiceInitialize 000000000001a008     CapsuleRuntimeDxe:CapsuleService.obj
 0005:00000008       $unwind$VariableLockCapsuleLongModeBufferVariable 000000000001a008     CapsuleRuntimeDxe:SaveLongModeContext.obj
 0005:00000008       $unwind$StrnLenS           000000000001a008     BaseLib:SafeString.obj
 0005:00000008       $unwind$_ModuleEntryPoint  000000000001a008     UefiDriverEntryPoint:DriverEntryPoint.obj
 0005:00000008       $unwind$RuntimeDriverLibDeconstruct 000000000001a008     UefiRuntimeLib:RuntimeLib.obj
 0005:00000010       $unwind$ProcessModuleEntryPointList 000000000001a010     CapsuleRuntimeDxe:AutoGen.obj
 0005:00000010       $unwind$WriteBackDataCacheRange 000000000001a010     BaseCacheMaintenanceLib:X86Cache.obj
 0005:00000010       $unwind$LShiftU64          000000000001a010     BaseLib:LShiftU64.obj
 0005:00000010       $unwind$WriteUnaligned64   000000000001a010     BaseLib:Unaligned.obj
 0005:00000010       $unwind$InternalMemZeroMem 000000000001a010     BaseMemoryLib:MemLibGeneric.obj
 0005:00000010       $unwind$CopyGuid           000000000001a010     BaseMemoryLib:MemLibGuid.obj
 0005:00000010       $unwind$ZeroMem            000000000001a010     BaseMemoryLib:ZeroMemWrapper.obj
 0005:00000010       $unwind$UefiBootServicesTableLibConstructor 000000000001a010     UefiBootServicesTableLib:UefiBootServicesTableLib.obj
 0005:00000010       $unwind$EfiConvertPointer  000000000001a010     UefiRuntimeLib:RuntimeLib.obj
 0005:00000010       $unwind$RuntimeLibVirtualNotifyEvent 000000000001a010     UefiRuntimeLib:RuntimeLib.obj
 0005:00000010       $unwind$UefiRuntimeServicesTableLibConstructor 000000000001a010     UefiRuntimeServicesTableLib:UefiRuntimeServicesTableLib.obj
 0005:00000018       $unwind$UpdateCapsule      000000000001a018     CapsuleRuntimeDxe:CapsuleService.obj
 0005:00000028       $unwind$QueryCapsuleCapabilities 000000000001a028     CapsuleRuntimeDxe:CapsuleService.obj
 0005:00000028       $unwind$EfiCreateProtocolNotifyEvent 000000000001a028     UefiLib:UefiLib.obj
 0005:00000030       $unwind$AllocateReservedMemoryBelow4G 000000000001a030     CapsuleRuntimeDxe:SaveLongModeContext.obj
 0005:00000038       $unwind$PrepareContextForCapsulePei 000000000001a038     CapsuleRuntimeDxe:SaveLongModeContext.obj
 0005:00000048       $unwind$SaveLongModeContext 000000000001a048     CapsuleRuntimeDxe:SaveLongModeContext.obj
 0005:00000050       $unwind$WriteBackInvalidateDataCacheRange 000000000001a050     BaseCacheMaintenanceLib:X86Cache.obj
 0005:00000050       $unwind$CompareGuid        000000000001a050     BaseMemoryLib:MemLibGuid.obj
 0005:00000058       $unwind$StrCpyS            000000000001a058     BaseLib:SafeString.obj
 0005:00000058       $unwind$InternalMemSetMem  000000000001a058     BaseMemoryLib:SetMem.obj
 0005:00000060       $unwind$DebugPrint         000000000001a060     PeiDxeDebugLibReportStatusCode:DebugLib.obj
 0005:00000060       $unwind$InternalSafeStringNoAsciiStrOverlap 000000000001a060     BaseLib:SafeString.obj
 0005:00000060       $unwind$InternalSafeStringNoStrOverlap 000000000001a060     BaseLib:SafeString.obj
 0005:00000060       $unwind$UnicodeValueToStringS 000000000001a060     BasePrintLib:PrintLib.obj
 0005:00000060       $unwind$EfiSetVariable     000000000001a060     UefiRuntimeLib:RuntimeLib.obj
 0005:00000068       $unwind$BasePrintLibFillBuffer 000000000001a068     BasePrintLib:PrintLibInternal.obj
 0005:00000070       $unwind$BasePrintLibValueToString 000000000001a070     BasePrintLib:PrintLibInternal.obj
 0005:00000078       $unwind$BasePrintLibConvertValueToStringS 000000000001a078     BasePrintLib:PrintLibInternal.obj
 0005:00000088       $unwind$AsciiStrSize       000000000001a088     BaseLib:String.obj
 0005:00000088       $unwind$ReadUnaligned64    000000000001a088     BaseLib:Unaligned.obj
 0005:00000090       $unwind$AsciiStrnLenS      000000000001a090     BaseLib:SafeString.obj
 0005:00000098       $unwind$AsciiStrnCpyS      000000000001a098     BaseLib:SafeString.obj
 0005:000000a0       $unwind$DivU64x32Remainder 000000000001a0a0     BaseLib:DivU64x32Remainder.obj
 0005:000000a8       $unwind$InternalMathDivRemU64x32 000000000001a0a8     BaseLib:Math64.obj
 0005:000000b0       $unwind$DebugPrintMarker   000000000001a0b0     PeiDxeDebugLibReportStatusCode:DebugLib.obj
 0005:000000c0       $unwind$DebugVPrint        000000000001a0c0     PeiDxeDebugLibReportStatusCode:DebugLib.obj
 0005:000000c0       $unwind$CopyMem            000000000001a0c0     BaseMemoryLib:CopyMemWrapper.obj
 0005:000000c8       $unwind$DebugAssert        000000000001a0c8     PeiDxeDebugLibReportStatusCode:DebugLib.obj
 0005:000000d8       $unwind$ReportDebugCodeEnabled 000000000001a0d8     DxeReportStatusCodeLib:ReportStatusCodeLib.obj
 0005:000000d8       $unwind$ReportErrorCodeEnabled 000000000001a0d8     DxeReportStatusCodeLib:ReportStatusCodeLib.obj
 0005:000000d8       $unwind$ReportProgressCodeEnabled 000000000001a0d8     DxeReportStatusCodeLib:ReportStatusCodeLib.obj
 0005:000000d8       $unwind$DebugAssertEnabled 000000000001a0d8     PeiDxeDebugLibReportStatusCode:DebugLib.obj
 0005:000000d8       $unwind$DebugPrintEnabled  000000000001a0d8     PeiDxeDebugLibReportStatusCode:DebugLib.obj
 0005:000000e0       $unwind$DebugPrintLevelEnabled 000000000001a0e0     PeiDxeDebugLibReportStatusCode:DebugLib.obj
 0005:000000e8       $unwind$RuntimeDriverLibConstruct 000000000001a0e8     UefiRuntimeLib:RuntimeLib.obj
 0005:000000f0       $unwind$EfiResetSystem     000000000001a0f0     UefiRuntimeLib:RuntimeLib.obj
 0005:000000f8       $unwind$InternalGetReportStatusCode 000000000001a0f8     DxeReportStatusCodeLib:ReportStatusCodeLib.obj
 0005:000000f8       $unwind$CpuDeadLoop        000000000001a0f8     BaseLib:CpuDeadLoop.obj
 0005:00000100       $unwind$InternalReportStatusCode 000000000001a100     DxeReportStatusCodeLib:ReportStatusCodeLib.obj
 0005:00000108       $unwind$ReportStatusCodeEx 000000000001a108     DxeReportStatusCodeLib:ReportStatusCodeLib.obj
 0005:00000118       $unwind$InternalMemCopyMem 000000000001a118     BaseMemoryLib:CopyMem.obj
