 EmuGopDxe

 Timestamp is 68f5fe99 (Mon Oct 20 17:19:21 2025)

 Preferred load address is 0000000000010000

 Start         Length     Name                   Class
 0001:00000000 00000014H .text                   CODE
 0001:00000014 0000667bH .text$mn                CODE
 0002:00000000 00000f24H .rdata                  DATA
 0002:00000f24 00000018H .rdata$voltmd           DATA
 0002:00000f3c 00000148H .rdata$zzzdbg           DATA
 0003:00000000 000001d0H .data                   DATA
 0003:000001d0 00000048H .bss                    DATA
 0004:00000000 00000468H .pdata                  DATA
 0005:00000000 00000130H .xdata                  DATA

  Address         Publics by Value              Rva+Base               Lib:Object

 0000:00000000       __guard_longjmp_table      0000000000000000     <absolute>
 0000:00000000       __x64_code_ranges_to_entry_points 0000000000000000     <absolute>
 0000:00000000       __guard_fids_count         0000000000000000     <absolute>
 0000:00000000       __arm64x_extra_rfe_table   0000000000000000     <absolute>
 0000:00000000       __arm64x_redirection_metadata 0000000000000000     <absolute>
 0000:00000000       __guard_iat_table          0000000000000000     <absolute>
 0000:00000000       __hybrid_code_map          0000000000000000     <absolute>
 0000:00000000       __arm64x_extra_rfe_table_size 0000000000000000     <absolute>
 0000:00000000       __guard_iat_count          0000000000000000     <absolute>
 0000:00000000       __guard_longjmp_count      0000000000000000     <absolute>
 0000:00000000       __x64_code_ranges_to_entry_points_count 0000000000000000     <absolute>
 0000:00000000       __dynamic_value_reloc_table 0000000000000000     <absolute>
 0000:00000000       __hybrid_auxiliary_iat     0000000000000000     <absolute>
 0000:00000000       __hybrid_auxiliary_iat_copy 0000000000000000     <absolute>
 0000:00000000       __guard_flags              0000000000000000     <absolute>
 0000:00000000       __guard_eh_cont_count      0000000000000000     <absolute>
 0000:00000000       __AbsoluteZero             0000000000000000     <absolute>
 0000:00000000       __guard_check_icall_a64n_fptr 0000000000000000     <absolute>
 0000:00000000       __guard_fids_table         0000000000000000     <absolute>
 0000:00000000       __arm64x_redirection_metadata_count 0000000000000000     <absolute>
 0000:00000000       __enclave_config           0000000000000000     <absolute>
 0000:00000000       __guard_eh_cont_table      0000000000000000     <absolute>
 0000:00000000       __arm64x_native_entrypoint 0000000000000000     <absolute>
 0000:00000000       __hybrid_code_map_count    0000000000000000     <absolute>
 0001:00000000       CpuPause                   0000000000011000     BaseLib:CpuPause.obj
 0001:00000010       __report_rangecheckfailure 0000000000011010     StackCheckLibNull:StackCheckFunctionsMsvc.obj
 0001:00000011       __GSHandlerCheck           0000000000011011     StackCheckLibNull:StackCheckFunctionsMsvc.obj
 0001:00000012       __security_check_cookie    0000000000011012     StackCheckLibNull:StackCheckFunctionsMsvc.obj
 0001:00000014       _DriverUnloadHandler       0000000000011014 f   UefiDriverEntryPoint:DriverEntryPoint.obj
 0001:00000058       _ModuleEntryPoint          0000000000011058 f   UefiDriverEntryPoint:DriverEntryPoint.obj
 0001:00000198       ProcessLibraryConstructorList 0000000000011198 f   EmuGopDxe:AutoGen.obj
 0001:000003e4       ProcessLibraryDestructorList 00000000000113e4 f   EmuGopDxe:AutoGen.obj
 0001:000003f0       ProcessModuleEntryPointList 00000000000113f0 f   EmuGopDxe:AutoGen.obj
 0001:00000414       KeyMapBreak                0000000000011414 f   KeyMapLibNull:KeyMapLibNull.obj
 0001:00000414       KeyMapMake                 0000000000011414 f   KeyMapLibNull:KeyMapLibNull.obj
 0001:00000414       ProcessModuleUnloadList    0000000000011414 f   EmuGopDxe:AutoGen.obj
 0001:0000041c       FreeNotifyList             000000000001141c f   EmuGopDxe:GopDriver.obj
 0001:00000500       EmuGopDriverBindingSupported 0000000000011500 f   EmuGopDxe:GopDriver.obj
 0001:000005ac       EmuGopDriverBindingStart   00000000000115ac f   EmuGopDxe:GopDriver.obj
 0001:00000894       EmuGopDriverBindingStop    0000000000011894 f   EmuGopDxe:GopDriver.obj
 0001:00000be8       InitializeEmuGop           0000000000011be8 f   EmuGopDxe:GopDriver.obj
 0001:00000cb4       EmuGopComponentNameGetDriverName 0000000000011cb4 f   EmuGopDxe:ComponentName.obj
 0001:00000d10       EmuGopComponentNameGetControllerName 0000000000011d10 f   EmuGopDxe:ComponentName.obj
 0001:00000ea4       EmuGopQuerytMode           0000000000011ea4 f   EmuGopDxe:GopScreen.obj
 0001:00001020       EmuGopSetMode              0000000000012020 f   EmuGopDxe:GopScreen.obj
 0001:0000126c       EmuGopBlt                  000000000001226c f   EmuGopDxe:GopScreen.obj
 0001:00001448       EmuGopSupported            0000000000012448 f   EmuGopDxe:GopScreen.obj
 0001:00001480       EmuGopStartWindow          0000000000012480 f   EmuGopDxe:GopScreen.obj
 0001:000015c0       EmuGopConstructor          00000000000125c0 f   EmuGopDxe:GopScreen.obj
 0001:00001748       EmuGopDestructor           0000000000012748 f   EmuGopDxe:GopScreen.obj
 0001:000017c8       ShutdownGopEvent           00000000000127c8 f   EmuGopDxe:GopScreen.obj
 0001:000017e8       GopPrivateIsKeyRegistered  00000000000127e8 f   EmuGopDxe:GopInput.obj
 0001:000018b0       GopPrivateMakeCallbackFunction 00000000000128b0 f   EmuGopDxe:GopInput.obj
 0001:000019c0       GopPrivateBreakCallbackFunction 00000000000129c0 f   EmuGopDxe:GopInput.obj
 0001:000019e0       EmuGopSimpleTextInReset    00000000000129e0 f   EmuGopDxe:GopInput.obj
 0001:00001ae0       EmuGopSimpleTextInReadKeyStroke 0000000000012ae0 f   EmuGopDxe:GopInput.obj
 0001:00001c38       EmuGopSimpleTextInWaitForKey 0000000000012c38 f   EmuGopDxe:GopInput.obj
 0001:00001cc0       EmuGopSimpleTextInExResetEx 0000000000012cc0 f   EmuGopDxe:GopInput.obj
 0001:00001ccc       EmuGopSimpleTextInExReadKeyStrokeEx 0000000000012ccc f   EmuGopDxe:GopInput.obj
 0001:00001dd8       EmuGopSimpleTextInExSetState 0000000000012dd8 f   EmuGopDxe:GopInput.obj
 0001:00001f1c       EmuGopRegisterKeyCallback  0000000000012f1c f   EmuGopDxe:GopInput.obj
 0001:00001f50       EmuGopSimpleTextInExRegisterKeyNotify 0000000000012f50 f   EmuGopDxe:GopInput.obj
 0001:00002288       EmuGopSimpleTextInExUnregisterKeyNotify 0000000000013288 f   EmuGopDxe:GopInput.obj
 0001:0000245c       EmuGopInitializeSimpleTextInForWindow 000000000001345c f   EmuGopDxe:GopInput.obj
 0001:00002678       EmuGopSimplePointerReset   0000000000013678 f   EmuGopDxe:GopInput.obj
 0001:00002778       EmuGopSimplePointerGetState 0000000000013778 f   EmuGopDxe:GopInput.obj
 0001:00002868       EmuGopSimplePointerWaitForInput 0000000000013868 f   EmuGopDxe:GopInput.obj
 0001:000028f0       EmuGopInitializeSimplePointerForWindow 00000000000138f0 f   EmuGopDxe:GopInput.obj
 0001:000029b4       DebugPrint                 00000000000139b4 f   PeiDxeDebugLibReportStatusCode:DebugLib.obj
 0001:000029f8       DebugPrintMarker           00000000000139f8 f   PeiDxeDebugLibReportStatusCode:DebugLib.obj
 0001:000031a0       DebugVPrint                00000000000141a0 f   PeiDxeDebugLibReportStatusCode:DebugLib.obj
 0001:000031d0       DebugAssert                00000000000141d0 f   PeiDxeDebugLibReportStatusCode:DebugLib.obj
 0001:0000356c       DebugAssertEnabled         000000000001456c f   PeiDxeDebugLibReportStatusCode:DebugLib.obj
 0001:00003590       DebugPrintEnabled          0000000000014590 f   PeiDxeDebugLibReportStatusCode:DebugLib.obj
 0001:000035b4       DebugPrintLevelEnabled     00000000000145b4 f   PeiDxeDebugLibReportStatusCode:DebugLib.obj
 0001:000035e8       InternalBaseLibIsListValid 00000000000145e8 f   BaseLib:LinkedList.obj
 0001:00003704       IsNodeInList               0000000000014704 f   BaseLib:LinkedList.obj
 0001:00003804       InitializeListHead         0000000000014804 f   BaseLib:LinkedList.obj
 0001:00003864       InsertTailList             0000000000014864 f   BaseLib:LinkedList.obj
 0001:0000394c       IsListEmpty                000000000001494c f   BaseLib:LinkedList.obj
 0001:000039b4       RemoveEntryList            00000000000149b4 f   BaseLib:LinkedList.obj
 0001:00003a30       StrLen                     0000000000014a30 f   BaseLib:String.obj
 0001:00003b24       StrSize                    0000000000014b24 f   BaseLib:String.obj
 0001:00003b44       AsciiStrLen                0000000000014b44 f   BaseLib:String.obj
 0001:00003bfc       AsciiStrSize               0000000000014bfc f   BaseLib:String.obj
 0001:00003c18       AsciiStrnCmp               0000000000014c18 f   BaseLib:String.obj
 0001:00003d64       InternalSafeStringIsOverlap 0000000000014d64 f   BaseLib:SafeString.obj
 0001:00003dc8       InternalSafeStringNoAsciiStrOverlap 0000000000014dc8 f   BaseLib:SafeString.obj
 0001:00003e1c       AsciiStrnLenS              0000000000014e1c f   BaseLib:SafeString.obj
 0001:00003e88       AsciiStrnCpyS              0000000000014e88 f   BaseLib:SafeString.obj
 0001:00004378       CpuBreakpoint              0000000000015378 f   BaseLib:CpuBreakpoint.obj
 0001:0000437c       CpuDeadLoop                000000000001537c f   BaseLib:CpuDeadLoop.obj
 0001:000043ac       LShiftU64                  00000000000153ac f   BaseLib:LShiftU64.obj
 0001:00004400       InternalMathLShiftU64      0000000000015400 f   BaseLib:Math64.obj
 0001:0000441c       CopyGuid                   000000000001541c f   BaseMemoryLib:MemLibGuid.obj
 0001:00004470       CompareGuid                0000000000015470 f   BaseMemoryLib:MemLibGuid.obj
 0001:000044f8       CopyMem                    00000000000154f8 f   BaseMemoryLib:CopyMemWrapper.obj
 0001:000045d0       ZeroMem                    00000000000155d0 f   BaseMemoryLib:ZeroMemWrapper.obj
 0001:00004678       InternalMemCopyMem         0000000000015678 f   BaseMemoryLib:CopyMem.obj
 0001:00004c54       InternalMemSetMem          0000000000015c54 f   BaseMemoryLib:SetMem.obj
 0001:00004de8       InternalMemZeroMem         0000000000015de8 f   BaseMemoryLib:MemLibGeneric.obj
 0001:00004e10       InternalAllocatePool       0000000000015e10 f   UefiMemoryAllocationLib:MemoryAllocationLib.obj
 0001:00004e60       AllocatePool               0000000000015e60 f   UefiMemoryAllocationLib:MemoryAllocationLib.obj
 0001:00004e80       InternalAllocateZeroPool   0000000000015e80 f   UefiMemoryAllocationLib:MemoryAllocationLib.obj
 0001:00004ec8       AllocateZeroPool           0000000000015ec8 f   UefiMemoryAllocationLib:MemoryAllocationLib.obj
 0001:00004ee8       InternalAllocateCopyPool   0000000000015ee8 f   UefiMemoryAllocationLib:MemoryAllocationLib.obj
 0001:00004fac       AllocateCopyPool           0000000000015fac f   UefiMemoryAllocationLib:MemoryAllocationLib.obj
 0001:00004fd4       FreePool                   0000000000015fd4 f   UefiMemoryAllocationLib:MemoryAllocationLib.obj
 0001:00005070       UefiBootServicesTableLibConstructor 0000000000016070 f   UefiBootServicesTableLib:UefiBootServicesTableLib.obj
 0001:0000514c       UefiRuntimeServicesTableLibConstructor 000000000001614c f   UefiRuntimeServicesTableLib:UefiRuntimeServicesTableLib.obj
 0001:000051a8       UefiLibConstructor         00000000000161a8 f   UefiLib:UefiLib.obj
 0001:000051b8       CompareIso639LanguageCode  00000000000161b8 f   UefiLib:UefiLib.obj
 0001:00005204       EfiGetSystemConfigurationTable 0000000000016204 f   UefiLib:UefiLib.obj
 0001:00005310       EfiTestManagedDevice       0000000000016310 f   UefiLib:UefiLib.obj
 0001:000053f0       IsLanguageSupported        00000000000163f0 f   UefiLib:UefiLib.obj
 0001:000054e0       LookupUnicodeString2       00000000000164e0 f   UefiLib:UefiLib.obj
 0001:000056f0       AddUnicodeString           00000000000166f0 f   UefiLib:UefiLib.obj
 0001:000059b4       AddUnicodeString2          00000000000169b4 f   UefiLib:UefiLib.obj
 0001:00005da8       FreeUnicodeStringTable     0000000000016da8 f   UefiLib:UefiLib.obj
 0001:00005e38       EfiLibInstallDriverBindingComponentName2 0000000000016e38 f   UefiLib:UefiDriverModel.obj
 0001:0000608c       GetHobList                 000000000001708c f   DxeHobLib:HobLib.obj
 0001:00006170       HobLibConstructor          0000000000017170 f   DxeHobLib:HobLib.obj
 0001:0000618c       GetDebugPrintErrorLevel    000000000001718c f   BaseDebugPrintErrorLevelLib:BaseDebugPrintErrorLevelLib.obj
 0001:00006194       InternalGetReportStatusCode 0000000000017194 f   DxeReportStatusCodeLib:ReportStatusCodeLib.obj
 0001:00006204       InternalReportStatusCode   0000000000017204 f   DxeReportStatusCodeLib:ReportStatusCodeLib.obj
 0001:000062bc       ReportStatusCodeEx         00000000000172bc f   DxeReportStatusCodeLib:ReportStatusCodeLib.obj
 0001:00006538       ReportProgressCodeEnabled  0000000000017538 f   DxeReportStatusCodeLib:ReportStatusCodeLib.obj
 0001:0000655c       ReportErrorCodeEnabled     000000000001755c f   DxeReportStatusCodeLib:ReportStatusCodeLib.obj
 0001:00006580       ReportDebugCodeEnabled     0000000000017580 f   DxeReportStatusCodeLib:ReportStatusCodeLib.obj
 0001:000065a4       ReadUnaligned24            00000000000175a4 f   BaseLib:Unaligned.obj
 0001:000065f0       ReadUnaligned64            00000000000175f0 f   BaseLib:Unaligned.obj
 0001:00006638       WriteUnaligned64           0000000000017638 f   BaseLib:Unaligned.obj
 0002:00000000       ??_C@_0CB@DMEJJJHA@?6ASSERT_EFI_ERROR?5?$CIStatus?5?$DN?5?$CFr?$CJ@ 0000000000018000     UefiDriverEntryPoint:DriverEntryPoint.obj
 0002:00000028       ??_C@_0DG@FLPEIDFK@?$CB?$CI?$CI?$CIRETURN_STATUS?$CJ?$CIStatus?$CJ?$CJ?5?$DO?$DN?5@ 0000000000018028     UefiDriverEntryPoint:DriverEntryPoint.obj
 0002:00000060       ??_C@_0FE@KBEJNINE@D?3?2develop?2Self_develop?2edk2?2Md@ 0000000000018060     UefiDriverEntryPoint:DriverEntryPoint.obj
 0002:000000b4       _gPcd_FixedAtBuild_PcdVerifyNodeInList 00000000000180b4     EmuGopDxe:AutoGen.obj
 0002:000000b4       _gPcd_FixedAtBuild_PcdComponentName2Disable 00000000000180b4     EmuGopDxe:AutoGen.obj
 0002:000000b4       _gPcd_FixedAtBuild_PcdComponentNameDisable 00000000000180b4     EmuGopDxe:AutoGen.obj
 0002:000000b4       _gDriverUnloadImageCount   00000000000180b4     EmuGopDxe:AutoGen.obj
 0002:000000b8       _gUefiDriverRevision       00000000000180b8     EmuGopDxe:AutoGen.obj
 0002:000000c0       ??_C@_09PKLINNLN@EmuGopDxe@ 00000000000180c0     EmuGopDxe:AutoGen.obj
 0002:000000d0       ??_C@_0HA@BKCAECGM@D?3?2develop?2Self_develop?2edk2?2Bu@ 00000000000180d0     EmuGopDxe:AutoGen.obj
 0002:00000140       _gPcd_FixedAtBuild_PcdMaximumAsciiStringLength 0000000000018140     EmuGopDxe:AutoGen.obj
 0002:00000140       _gPcd_FixedAtBuild_PcdMaximumUnicodeStringLength 0000000000018140     EmuGopDxe:AutoGen.obj
 0002:00000140       _gPcd_FixedAtBuild_PcdMaximumLinkedListLength 0000000000018140     EmuGopDxe:AutoGen.obj
 0002:00000144       _gPcd_FixedAtBuild_PcdReportStatusCodePropertyMask 0000000000018144     EmuGopDxe:AutoGen.obj
 0002:00000148       _gPcd_FixedAtBuild_PcdDebugPrintErrorLevel 0000000000018148     EmuGopDxe:AutoGen.obj
 0002:0000014c       _gPcd_FixedAtBuild_PcdFixedDebugPrintErrorLevel 000000000001814c     EmuGopDxe:AutoGen.obj
 0002:00000150       _gPcd_FixedAtBuild_PcdDebugPropertyMask 0000000000018150     EmuGopDxe:AutoGen.obj
 0002:00000158       ??_C@_0BF@NDBIKIKC@CR?5has?5Bad?5Signature@ 0000000000018158     EmuGopDxe:GopDriver.obj
 0002:00000170       ??_C@_0DP@NDFLPEAH@D?3?2develop?2Self_develop?2edk2?2Em@ 0000000000018170     EmuGopDxe:GopDriver.obj
 0002:000001b0       ??_C@_03LKLGDMJI@eng@      00000000000181b0     EmuGopDxe:GopDriver.obj
 0002:000001b4       ??_C@_02LFNMGJAP@en@       00000000000181b4     EmuGopDxe:GopDriver.obj
 0002:000001b8       ??_C@_1CI@FINNNLJ@?$AAE?$AAm?$AAu?$AAl?$AAa?$AAt?$AAo?$AAr?$AA?5?$AAG?$AAO?$AAP?$AA?5?$AAD?$AAr@ 00000000000181b8     EmuGopDxe:ComponentName.obj
 0002:000001e0       ??_C@_0ED@EPDODNMA@D?3?2develop?2Self_develop?2edk2?2Em@ 00000000000181e0     EmuGopDxe:ComponentName.obj
 0002:00000228       ??_C@_0DP@FBLPLKCM@D?3?2develop?2Self_develop?2edk2?2Em@ 0000000000018228     EmuGopDxe:GopScreen.obj
 0002:00000268       ??_C@_0DM@CHNNECGH@RegsiteredData?5?$CB?$DN?5?$CI?$CIvoid?5?$CK?$CJ?50?$CJ?5@ 0000000000018268     EmuGopDxe:GopInput.obj
 0002:000002a8       ??_C@_0DO@MJGNNAAL@D?3?2develop?2Self_develop?2edk2?2Em@ 00000000000182a8     EmuGopDxe:GopInput.obj
 0002:000002e8       ??_C@_0BH@LKMBFCBF@Format?5?$CB?$DN?5?$CI?$CIvoid?5?$CK?$CJ?50?$CJ@ 00000000000182e8     PeiDxeDebugLibReportStatusCode:DebugLib.obj
 0002:00000300       ??_C@_0FM@HDIIFGPN@D?3?2develop?2Self_develop?2edk2?2Md@ 0000000000018300     PeiDxeDebugLibReportStatusCode:DebugLib.obj
 0002:00000360       ??_C@_0CP@EFCGCEBK@?$CICHAR8?5?$CK?$CJBaseListMarkerPointer?5@ 0000000000018360     PeiDxeDebugLibReportStatusCode:DebugLib.obj
 0002:00000390       ??_C@_01OHGJGJJP@?$FL@     0000000000018390     PeiDxeDebugLibReportStatusCode:DebugLib.obj
 0002:00000394       ??_C@_02PBFOLPKM@?$FN?5@   0000000000018394     PeiDxeDebugLibReportStatusCode:DebugLib.obj
 0002:00000398       ??_C@_0BH@IACGKAP@Buffer?5?$CB?$DN?5?$CI?$CIvoid?5?$CK?$CJ?50?$CJ@ 0000000000018398     PeiDxeDebugLibReportStatusCode:DebugLib.obj
 0002:000003b0       ??_C@_0BF@NJNGJMPC@List?5?$CB?$DN?5?$CI?$CIvoid?5?$CK?$CJ?50?$CJ@ 00000000000183b0     BaseLib:LinkedList.obj
 0002:000003d0       ??_C@_0EB@CMODBEO@D?3?2develop?2Self_develop?2edk2?2Md@ 00000000000183d0     BaseLib:LinkedList.obj
 0002:00000418       ??_C@_0CC@KDLPLAED@List?9?$DOForwardLink?5?$CB?$DN?5?$CI?$CIvoid?5?$CK?$CJ?5@ 0000000000018418     BaseLib:LinkedList.obj
 0002:00000440       ??_C@_0BP@IJJCCMAK@List?9?$DOBackLink?5?$CB?$DN?5?$CI?$CIvoid?5?$CK?$CJ?50?$CJ@ 0000000000018440     BaseLib:LinkedList.obj
 0002:00000460       ??_C@_0CI@BMHOPIIO@InternalBaseLibIsListValid?5?$CIFir@ 0000000000018460     BaseLib:LinkedList.obj
 0002:00000488       ??_C@_0BM@BAIHHOEP@SecondEntry?5?$CB?$DN?5?$CI?$CIvoid?5?$CK?$CJ?50?$CJ@ 0000000000018488     BaseLib:LinkedList.obj
 0002:000004a8       ??_C@_0BJ@NJABNCDK@ListHead?5?$CB?$DN?5?$CI?$CIvoid?5?$CK?$CJ?50?$CJ@ 00000000000184a8     BaseLib:LinkedList.obj
 0002:000004c8       ??_C@_0DI@HOMAKAJD@?$CI?$CIBOOLEAN?$CJ?$CI0?$DN?$DN1?$CJ?$CJ?5?$DN?$DN?5IsNodeInLi@ 00000000000184c8     BaseLib:LinkedList.obj
 0002:00000500       ??_C@_0CG@LGIALJFK@InternalBaseLibIsListValid?5?$CILis@ 0000000000018500     BaseLib:LinkedList.obj
 0002:00000528       ??_C@_0BF@NMBJJECB@?$CBIsListEmpty?5?$CIEntry?$CJ@ 0000000000018528     BaseLib:LinkedList.obj
 0002:00000540       ??_C@_0BH@MAAHKCPC@String?5?$CB?$DN?5?$CI?$CIvoid?5?$CK?$CJ?50?$CJ@ 0000000000018540     BaseLib:String.obj
 0002:00000558       ??_C@_0DN@POJBHOAP@D?3?2develop?2Self_develop?2edk2?2Md@ 0000000000018558     BaseLib:String.obj
 0002:00000598       ??_C@_0CC@GFNLNIOC@?$CI?$CIUINTN?$CJString?5?$CG?50x00000001?$CJ?5?$DN?$DN@ 0000000000018598     BaseLib:String.obj
 0002:000005c0       ??_C@_0DK@EOJCOAME@Length?5?$DM?5_gPcd_FixedAtBuild_Pcd@ 00000000000185c0     BaseLib:String.obj
 0002:00000600       ??_C@_0DI@MDIKFADO@Length?5?$DM?5_gPcd_FixedAtBuild_Pcd@ 0000000000018600     BaseLib:String.obj
 0002:00000638       ??_C@_0BL@IKFBNFIL@AsciiStrSize?5?$CIFirstString?$CJ@ 0000000000018638     BaseLib:String.obj
 0002:00000658       ??_C@_0BM@EDNOKLLE@AsciiStrSize?5?$CISecondString?$CJ@ 0000000000018658     BaseLib:String.obj
 0002:00000678       ??_C@_0DJ@JJHGIFMP@Length?5?$DM?$DN?5_gPcd_FixedAtBuild_Pc@ 0000000000018678     BaseLib:String.obj
 0002:000006c0       ??_C@_0EB@DAKPBIJH@D?3?2develop?2Self_develop?2edk2?2Md@ 00000000000186c0     BaseLib:SafeString.obj
 0002:00000708       ??_C@_0BO@ECNIOIHG@?$CIDestination?5?$CB?$DN?5?$CI?$CIvoid?5?$CK?$CJ?50?$CJ?$CJ@ 0000000000018708     BaseLib:SafeString.obj
 0002:00000730       ??_C@_0EA@PDPDJJNN@?$CFa?$CI?$CFd?$CJ?5?$CFa?3?5SAFE_STRING_CONSTRAI@ 0000000000018730     BaseLib:SafeString.obj
 0002:00000770       ??_C@_0BJ@EAEEJIP@?$CISource?5?$CB?$DN?5?$CI?$CIvoid?5?$CK?$CJ?50?$CJ?$CJ@ 0000000000018770     BaseLib:SafeString.obj
 0002:00000790       ??_C@_0P@PMIMLIHM@?$CIDestMax?5?$CB?$DN?50?$CJ@ 0000000000018790     BaseLib:SafeString.obj
 0002:000007a0       ??_C@_0BG@EEGIIOKH@?$CIDestMax?5?$DO?5SourceLen?$CJ@ 00000000000187a0     BaseLib:SafeString.obj
 0002:000007b8       ??_C@_0DO@LJFOOPII@?$CIDestMax?5?$DM?$DN?5?$CI_gPcd_FixedAtBuild@ 00000000000187b8     BaseLib:SafeString.obj
 0002:00000800       ??_C@_0FL@CDANCHFO@InternalSafeStringNoAsciiStrOve@ 0000000000018800     BaseLib:SafeString.obj
 0002:00000860       ??_C@_0O@DIHNCLLG@AsciiStrnCpyS@ 0000000000018860     BaseLib:SafeString.obj
 0002:00000870       ??_C@_0DN@DLAADCJE@?$CILength?5?$DM?$DN?5?$CI_gPcd_FixedAtBuild_@ 0000000000018870     BaseLib:SafeString.obj
 0002:000008b0       ??_C@_0L@MEMPDLHB@Count?5?$DM?564@ 00000000000188b0     BaseLib:LShiftU64.obj
 0002:000008c0       ??_C@_0EA@MLMAFFLG@D?3?2develop?2Self_develop?2edk2?2Md@ 00000000000188c0     BaseLib:LShiftU64.obj
 0002:00000900       ??_C@_0DG@EEENIGGL@Length?5?$DM?$DN?5?$CI0xFFFFFFFFFFFFFFFFUL@ 0000000000018900     BaseMemoryLib:MemLibGuid.obj
 0002:00000940       ??_C@_0ED@MKGCMJG@?$CILength?5?9?51?$CJ?5?$DM?$DN?5?$CI0xFFFFFFFFFFFF@ 0000000000018940     BaseMemoryLib:CopyMemWrapper.obj
 0002:00000990       ??_C@_0EL@NNLJGCCH@D?3?2develop?2Self_develop?2edk2?2Md@ 0000000000018990     BaseMemoryLib:CopyMemWrapper.obj
 0002:000009e0       ??_C@_0DO@MAOBOFEG@?$CILength?5?9?51?$CJ?5?$DM?$DN?5?$CI0xFFFFFFFFFFFF@ 00000000000189e0     BaseMemoryLib:CopyMemWrapper.obj
 0002:00000a20       ??_C@_0EL@GJBLADOA@D?3?2develop?2Self_develop?2edk2?2Md@ 0000000000018a20     BaseMemoryLib:ZeroMemWrapper.obj
 0002:00000a70       ??_C@_0FK@KCDEFJBC@D?3?2develop?2Self_develop?2edk2?2Md@ 0000000000018a70     UefiMemoryAllocationLib:MemoryAllocationLib.obj
 0002:00000ad0       ??_C@_0DO@GEEICOOO@AllocationSize?5?$DM?$DN?5?$CI0xFFFFFFFFFF@ 0000000000018ad0     UefiMemoryAllocationLib:MemoryAllocationLib.obj
 0002:00000b10       ??_C@_0BN@COECPDCC@gImageHandle?5?$CB?$DN?5?$CI?$CIvoid?5?$CK?$CJ?50?$CJ@ 0000000000018b10     UefiBootServicesTableLib:UefiBootServicesTableLib.obj
 0002:00000b30       ??_C@_0GA@INMEIGJE@D?3?2develop?2Self_develop?2edk2?2Md@ 0000000000018b30     UefiBootServicesTableLib:UefiBootServicesTableLib.obj
 0002:00000b90       ??_C@_0BE@DGNHAHIL@gST?5?$CB?$DN?5?$CI?$CIvoid?5?$CK?$CJ?50?$CJ@ 0000000000018b90     UefiBootServicesTableLib:UefiBootServicesTableLib.obj
 0002:00000ba8       ??_C@_0BE@BDFJLGLN@gBS?5?$CB?$DN?5?$CI?$CIvoid?5?$CK?$CJ?50?$CJ@ 0000000000018ba8     UefiBootServicesTableLib:UefiBootServicesTableLib.obj
 0002:00000bc0       ??_C@_0BE@OBDFIHND@gRT?5?$CB?$DN?5?$CI?$CIvoid?5?$CK?$CJ?50?$CJ@ 0000000000018bc0     UefiRuntimeServicesTableLib:UefiRuntimeServicesTableLib.obj
 0002:00000be0       ??_C@_0GG@OBDIBKMM@D?3?2develop?2Self_develop?2edk2?2Md@ 0000000000018be0     UefiRuntimeServicesTableLib:UefiRuntimeServicesTableLib.obj
 0002:00000c48       ??_C@_0BK@PPOBBAMB@TableGuid?5?$CB?$DN?5?$CI?$CIvoid?5?$CK?$CJ?50?$CJ@ 0000000000018c48     UefiLib:UefiLib.obj
 0002:00000c68       ??_C@_0DO@KJBPHFLK@D?3?2develop?2Self_develop?2edk2?2Md@ 0000000000018c68     UefiLib:UefiLib.obj
 0002:00000ca8       ??_C@_0BG@JDKEGFNB@Table?5?$CB?$DN?5?$CI?$CIvoid?5?$CK?$CJ?50?$CJ@ 0000000000018ca8     UefiLib:UefiLib.obj
 0002:00000cc0       ??_C@_0BN@HHGHCLME@ProtocolGuid?5?$CB?$DN?5?$CI?$CIvoid?5?$CK?$CJ?50?$CJ@ 0000000000018cc0     UefiLib:UefiLib.obj
 0002:00000ce0       ??_C@_0BO@MHFMIIAE@DriverBinding?5?$CB?$DN?5?$CI?$CIvoid?5?$CK?$CJ?50?$CJ@ 0000000000018ce0     UefiLib:UefiDriverModel.obj
 0002:00000d00       ??_C@_0EG@HGMADJAK@D?3?2develop?2Self_develop?2edk2?2Md@ 0000000000018d00     UefiLib:UefiDriverModel.obj
 0002:00000d48       ??_C@_0DP@IKGCDEIJ@D?3?2develop?2Self_develop?2edk2?2Md@ 0000000000018d48     DxeHobLib:HobLib.obj
 0002:00000d88       ??_C@_0BJ@OBFMLLDO@mHobList?5?$CB?$DN?5?$CI?$CIvoid?5?$CK?$CJ?50?$CJ@ 0000000000018d88     DxeHobLib:HobLib.obj
 0002:00000db0       ??_C@_0FP@CCJIJCDG@D?3?2develop?2Self_develop?2edk2?2Md@ 0000000000018db0     DxeReportStatusCodeLib:ReportStatusCodeLib.obj
 0002:00000e10       ??_C@_0DN@HHIHPHHB@?$CB?$CI?$CIExtendedData?5?$DN?$DN?5?$CI?$CIvoid?5?$CK?$CJ?50?$CJ@ 0000000000018e10     DxeReportStatusCodeLib:ReportStatusCodeLib.obj
 0002:00000e50       ??_C@_0DN@BBBIFINB@?$CB?$CI?$CIExtendedData?5?$CB?$DN?5?$CI?$CIvoid?5?$CK?$CJ?50?$CJ@ 0000000000018e50     DxeReportStatusCodeLib:ReportStatusCodeLib.obj
 0002:00000e90       ??_C@_0EA@FKBIDDGN@D?3?2develop?2Self_develop?2edk2?2Md@ 0000000000018e90     BaseLib:Unaligned.obj
 0002:00000f24       __volatile_metadata        0000000000018f24     <linker-defined>
 0003:00000000       gEfiLoadedImageProtocolGuid 000000000001a000     EmuGopDxe:AutoGen.obj
 0003:00000010       gEfiStatusCodeSpecificDataGuid 000000000001a010     EmuGopDxe:AutoGen.obj
 0003:00000020       gEfiStatusCodeRuntimeProtocolGuid 000000000001a020     EmuGopDxe:AutoGen.obj
 0003:00000030       gEfiComponentName2ProtocolGuid 000000000001a030     EmuGopDxe:AutoGen.obj
 0003:00000040       gEfiSimplePointerProtocolGuid 000000000001a040     EmuGopDxe:AutoGen.obj
 0003:00000050       gEmuGraphicsWindowProtocolGuid 000000000001a050     EmuGopDxe:AutoGen.obj
 0003:00000060       gEfiCallerBaseName         000000000001a060     EmuGopDxe:AutoGen.obj
 0003:00000068       gEfiSimpleTextInputExProtocolGuid 000000000001a068     EmuGopDxe:AutoGen.obj
 0003:00000078       gEfiSimpleTextInProtocolGuid 000000000001a078     EmuGopDxe:AutoGen.obj
 0003:00000088       gEfiStatusCodeDataTypeDebugGuid 000000000001a088     EmuGopDxe:AutoGen.obj
 0003:00000098       gEfiGraphicsOutputProtocolGuid 000000000001a098     EmuGopDxe:AutoGen.obj
 0003:000000a8       gEfiHobListGuid            000000000001a0a8     EmuGopDxe:AutoGen.obj
 0003:000000b8       gEfiDriverBindingProtocolGuid 000000000001a0b8     EmuGopDxe:AutoGen.obj
 0003:000000c8       gEfiComponentNameProtocolGuid 000000000001a0c8     EmuGopDxe:AutoGen.obj
 0003:000000d8       gEfiCallerIdGuid           000000000001a0d8     EmuGopDxe:AutoGen.obj
 0003:000000e8       gEmuIoThunkProtocolGuid    000000000001a0e8     EmuGopDxe:AutoGen.obj
 0003:000000f8       gEmuGopDriverBinding       000000000001a0f8     EmuGopDxe:GopDriver.obj
 0003:00000128       gEmuGopComponentName       000000000001a128     EmuGopDxe:ComponentName.obj
 0003:00000140       gEmuGopComponentName2      000000000001a140     EmuGopDxe:ComponentName.obj
 0003:00000158       mEmuGopDriverNameTable     000000000001a158     EmuGopDxe:ComponentName.obj
 0003:00000180       mGopModeData               000000000001a180     EmuGopDxe:GopScreen.obj
 0003:000001d8       gST                        000000000001a1d8     UefiBootServicesTableLib:UefiBootServicesTableLib.obj
 0003:000001e0       gBS                        000000000001a1e0     UefiBootServicesTableLib:UefiBootServicesTableLib.obj
 0003:000001e8       gImageHandle               000000000001a1e8     UefiBootServicesTableLib:UefiBootServicesTableLib.obj
 0003:000001f0       gRT                        000000000001a1f0     UefiRuntimeServicesTableLib:UefiRuntimeServicesTableLib.obj
 0003:000001f8       mHobList                   000000000001a1f8     DxeHobLib:HobLib.obj
 0003:00000200       mReportStatusCodeLibStatusCodeProtocol 000000000001a200     DxeReportStatusCodeLib:ReportStatusCodeLib.obj
 0003:00000208       __security_cookie          000000000001a208     StackCheckLibNull:StackCheckLibNullMsvc.obj
 0003:00000210       mGopScreenExitBootServicesEvent 000000000001a210     <common>

 entry point at        0001:00000058

 Static symbols

 0003:000001d0       mDeadLoopComparator        000000000001a1d0     BaseLib:CpuDeadLoop.obj
 0005:00000000       $unwind$IsListEmpty        000000000001c000     BaseLib:LinkedList.obj
 0005:00000000       $unwind$AsciiStrLen        000000000001c000     BaseLib:String.obj
 0005:00000000       $unwind$StrLen             000000000001c000     BaseLib:String.obj
 0005:00000000       $unwind$_DriverUnloadHandler 000000000001c000     UefiDriverEntryPoint:DriverEntryPoint.obj
 0005:00000000       $unwind$FreeUnicodeStringTable 000000000001c000     UefiLib:UefiLib.obj
 0005:00000000       $unwind$FreePool           000000000001c000     UefiMemoryAllocationLib:MemoryAllocationLib.obj
 0005:00000008       $unwind$ProcessLibraryConstructorList 000000000001c008     EmuGopDxe:AutoGen.obj
 0005:00000008       $unwind$EmuGopRegisterKeyCallback 000000000001c008     EmuGopDxe:GopInput.obj
 0005:00000008       $unwind$_ModuleEntryPoint  000000000001c008     UefiDriverEntryPoint:DriverEntryPoint.obj
 0005:00000008       $unwind$CompareIso639LanguageCode 000000000001c008     UefiLib:UefiLib.obj
 0005:00000008       $unwind$EfiGetSystemConfigurationTable 000000000001c008     UefiLib:UefiLib.obj
 0005:00000008       $unwind$IsLanguageSupported 000000000001c008     UefiLib:UefiLib.obj
 0005:00000010       $unwind$ProcessModuleEntryPointList 000000000001c010     EmuGopDxe:AutoGen.obj
 0005:00000010       $unwind$GopPrivateBreakCallbackFunction 000000000001c010     EmuGopDxe:GopInput.obj
 0005:00000010       $unwind$GopPrivateIsKeyRegistered 000000000001c010     EmuGopDxe:GopInput.obj
 0005:00000010       $unwind$ShutdownGopEvent   000000000001c010     EmuGopDxe:GopScreen.obj
 0005:00000010       $unwind$LShiftU64          000000000001c010     BaseLib:LShiftU64.obj
 0005:00000010       $unwind$InsertTailList     000000000001c010     BaseLib:LinkedList.obj
 0005:00000010       $unwind$WriteUnaligned64   000000000001c010     BaseLib:Unaligned.obj
 0005:00000010       $unwind$InternalMemZeroMem 000000000001c010     BaseMemoryLib:MemLibGeneric.obj
 0005:00000010       $unwind$CopyGuid           000000000001c010     BaseMemoryLib:MemLibGuid.obj
 0005:00000010       $unwind$ZeroMem            000000000001c010     BaseMemoryLib:ZeroMemWrapper.obj
 0005:00000010       $unwind$HobLibConstructor  000000000001c010     DxeHobLib:HobLib.obj
 0005:00000010       $unwind$UefiBootServicesTableLibConstructor 000000000001c010     UefiBootServicesTableLib:UefiBootServicesTableLib.obj
 0005:00000010       $unwind$AllocateCopyPool   000000000001c010     UefiMemoryAllocationLib:MemoryAllocationLib.obj
 0005:00000010       $unwind$UefiRuntimeServicesTableLibConstructor 000000000001c010     UefiRuntimeServicesTableLib:UefiRuntimeServicesTableLib.obj
 0005:00000018       $unwind$FreeNotifyList     000000000001c018     EmuGopDxe:GopDriver.obj
 0005:00000018       $unwind$EmuGopInitializeSimplePointerForWindow 000000000001c018     EmuGopDxe:GopInput.obj
 0005:00000018       $unwind$EmuGopInitializeSimpleTextInForWindow 000000000001c018     EmuGopDxe:GopInput.obj
 0005:00000018       $unwind$InternalBaseLibIsListValid 000000000001c018     BaseLib:LinkedList.obj
 0005:00000020       $unwind$EmuGopComponentNameGetDriverName 000000000001c020     EmuGopDxe:ComponentName.obj
 0005:00000020       $unwind$EmuGopDriverBindingSupported 000000000001c020     EmuGopDxe:GopDriver.obj
 0005:00000020       $unwind$EfiTestManagedDevice 000000000001c020     UefiLib:UefiLib.obj
 0005:00000028       $unwind$EmuGopDriverBindingStart 000000000001c028     EmuGopDxe:GopDriver.obj
 0005:00000028       $unwind$InternalMemCopyMem 000000000001c028     BaseMemoryLib:CopyMem.obj
 0005:00000030       $unwind$EmuGopDriverBindingStop 000000000001c030     EmuGopDxe:GopDriver.obj
 0005:00000030       $unwind$EmuGopSimpleTextInExRegisterKeyNotify 000000000001c030     EmuGopDxe:GopInput.obj
 0005:00000038       $unwind$InitializeEmuGop   000000000001c038     EmuGopDxe:GopDriver.obj
 0005:00000038       $unwind$EmuGopSimplePointerWaitForInput 000000000001c038     EmuGopDxe:GopInput.obj
 0005:00000038       $unwind$EmuGopSimpleTextInWaitForKey 000000000001c038     EmuGopDxe:GopInput.obj
 0005:00000038       $unwind$IsNodeInList       000000000001c038     BaseLib:LinkedList.obj
 0005:00000040       $unwind$EmuGopComponentNameGetControllerName 000000000001c040     EmuGopDxe:ComponentName.obj
 0005:00000040       $unwind$AddUnicodeString2  000000000001c040     UefiLib:UefiLib.obj
 0005:00000048       $unwind$EmuGopQuerytMode   000000000001c048     EmuGopDxe:GopScreen.obj
 0005:00000048       $unwind$EmuGopStartWindow  000000000001c048     EmuGopDxe:GopScreen.obj
 0005:00000050       $unwind$EmuGopSetMode      000000000001c050     EmuGopDxe:GopScreen.obj
 0005:00000058       $unwind$EmuGopBlt          000000000001c058     EmuGopDxe:GopScreen.obj
 0005:00000068       $unwind$EmuGopConstructor  000000000001c068     EmuGopDxe:GopScreen.obj
 0005:00000068       $unwind$EmuGopDestructor   000000000001c068     EmuGopDxe:GopScreen.obj
 0005:00000068       $unwind$EmuGopSupported    000000000001c068     EmuGopDxe:GopScreen.obj
 0005:00000068       $unwind$InitializeListHead 000000000001c068     BaseLib:LinkedList.obj
 0005:00000068       $unwind$RemoveEntryList    000000000001c068     BaseLib:LinkedList.obj
 0005:00000068       $unwind$AsciiStrSize       000000000001c068     BaseLib:String.obj
 0005:00000068       $unwind$StrSize            000000000001c068     BaseLib:String.obj
 0005:00000068       $unwind$ReadUnaligned24    000000000001c068     BaseLib:Unaligned.obj
 0005:00000068       $unwind$ReadUnaligned64    000000000001c068     BaseLib:Unaligned.obj
 0005:00000068       $unwind$AllocatePool       000000000001c068     UefiMemoryAllocationLib:MemoryAllocationLib.obj
 0005:00000068       $unwind$AllocateZeroPool   000000000001c068     UefiMemoryAllocationLib:MemoryAllocationLib.obj
 0005:00000070       $unwind$EmuGopSimplePointerGetState 000000000001c070     EmuGopDxe:GopInput.obj
 0005:00000070       $unwind$EmuGopSimpleTextInExReadKeyStrokeEx 000000000001c070     EmuGopDxe:GopInput.obj
 0005:00000070       $unwind$EmuGopSimpleTextInExSetState 000000000001c070     EmuGopDxe:GopInput.obj
 0005:00000070       $unwind$GopPrivateMakeCallbackFunction 000000000001c070     EmuGopDxe:GopInput.obj
 0005:00000070       $unwind$CompareGuid        000000000001c070     BaseMemoryLib:MemLibGuid.obj
 0005:00000078       $unwind$EmuGopSimplePointerReset 000000000001c078     EmuGopDxe:GopInput.obj
 0005:00000078       $unwind$EmuGopSimpleTextInReset 000000000001c078     EmuGopDxe:GopInput.obj
 0005:00000088       $unwind$EmuGopSimpleTextInReadKeyStroke 000000000001c088     EmuGopDxe:GopInput.obj
 0005:00000098       $unwind$EmuGopSimpleTextInExUnregisterKeyNotify 000000000001c098     EmuGopDxe:GopInput.obj
 0005:000000a0       $unwind$DebugPrint         000000000001c0a0     PeiDxeDebugLibReportStatusCode:DebugLib.obj
 0005:000000a0       $unwind$InternalSafeStringNoAsciiStrOverlap 000000000001c0a0     BaseLib:SafeString.obj
 0005:000000a8       $unwind$DebugPrintMarker   000000000001c0a8     PeiDxeDebugLibReportStatusCode:DebugLib.obj
 0005:000000b8       $unwind$DebugVPrint        000000000001c0b8     PeiDxeDebugLibReportStatusCode:DebugLib.obj
 0005:000000b8       $unwind$AsciiStrnCmp       000000000001c0b8     BaseLib:String.obj
 0005:000000b8       $unwind$CopyMem            000000000001c0b8     BaseMemoryLib:CopyMemWrapper.obj
 0005:000000c0       $unwind$DebugAssert        000000000001c0c0     PeiDxeDebugLibReportStatusCode:DebugLib.obj
 0005:000000d0       $unwind$ReportDebugCodeEnabled 000000000001c0d0     DxeReportStatusCodeLib:ReportStatusCodeLib.obj
 0005:000000d0       $unwind$ReportErrorCodeEnabled 000000000001c0d0     DxeReportStatusCodeLib:ReportStatusCodeLib.obj
 0005:000000d0       $unwind$ReportProgressCodeEnabled 000000000001c0d0     DxeReportStatusCodeLib:ReportStatusCodeLib.obj
 0005:000000d0       $unwind$DebugAssertEnabled 000000000001c0d0     PeiDxeDebugLibReportStatusCode:DebugLib.obj
 0005:000000d0       $unwind$DebugPrintEnabled  000000000001c0d0     PeiDxeDebugLibReportStatusCode:DebugLib.obj
 0005:000000d8       $unwind$DebugPrintLevelEnabled 000000000001c0d8     PeiDxeDebugLibReportStatusCode:DebugLib.obj
 0005:000000e0       $unwind$AsciiStrnLenS      000000000001c0e0     BaseLib:SafeString.obj
 0005:000000e8       $unwind$AsciiStrnCpyS      000000000001c0e8     BaseLib:SafeString.obj
 0005:000000e8       $unwind$EfiLibInstallDriverBindingComponentName2 000000000001c0e8     UefiLib:UefiDriverModel.obj
 0005:000000f0       $unwind$InternalGetReportStatusCode 000000000001c0f0     DxeReportStatusCodeLib:ReportStatusCodeLib.obj
 0005:000000f0       $unwind$CpuDeadLoop        000000000001c0f0     BaseLib:CpuDeadLoop.obj
 0005:000000f0       $unwind$GetHobList         000000000001c0f0     DxeHobLib:HobLib.obj
 0005:000000f8       $unwind$InternalMemSetMem  000000000001c0f8     BaseMemoryLib:SetMem.obj
 0005:00000100       $unwind$InternalAllocatePool 000000000001c100     UefiMemoryAllocationLib:MemoryAllocationLib.obj
 0005:00000100       $unwind$InternalAllocateZeroPool 000000000001c100     UefiMemoryAllocationLib:MemoryAllocationLib.obj
 0005:00000108       $unwind$InternalAllocateCopyPool 000000000001c108     UefiMemoryAllocationLib:MemoryAllocationLib.obj
 0005:00000110       $unwind$AddUnicodeString   000000000001c110     UefiLib:UefiLib.obj
 0005:00000110       $unwind$LookupUnicodeString2 000000000001c110     UefiLib:UefiLib.obj
 0005:00000118       $unwind$InternalReportStatusCode 000000000001c118     DxeReportStatusCodeLib:ReportStatusCodeLib.obj
 0005:00000120       $unwind$ReportStatusCodeEx 000000000001c120     DxeReportStatusCodeLib:ReportStatusCodeLib.obj
