 Shell.dll

 Timestamp is 68f5fe9a (Mon Oct 20 17:19:22 2025)

 Preferred load address is 0000000000010000

 Start         Length     Name                   Class
 0001:00000000 00000ae4H .text                   CODE
 0001:00000ae4 000b5e5fH .text$mn                CODE
 0002:00000000 00020228H .rdata                  DATA
 0002:00020228 00000018H .rdata$voltmd           DATA
 0002:00020240 0000014cH .rdata$zzzdbg           DATA
 0003:00000000 00064be0H .data                   DATA
 0003:00064be0 00002e28H .bss                    DATA
 0004:00000000 000040e0H .pdata                  DATA
 0005:00000000 00000814H .xdata                  DATA

  Address         Publics by Value              Rva+Base               Lib:Object

 0000:00000000       __x64_code_ranges_to_entry_points_count 0000000000000000     <absolute>
 0000:00000000       __arm64x_extra_rfe_table   0000000000000000     <absolute>
 0000:00000000       __hybrid_code_map          0000000000000000     <absolute>
 0000:00000000       __arm64x_extra_rfe_table_size 0000000000000000     <absolute>
 0000:00000000       __AbsoluteZero             0000000000000000     <absolute>
 0000:00000000       __arm64x_redirection_metadata 0000000000000000     <absolute>
 0000:00000000       __x64_code_ranges_to_entry_points 0000000000000000     <absolute>
 0000:00000000       __arm64x_redirection_metadata_count 0000000000000000     <absolute>
 0000:00000000       __dynamic_value_reloc_table 0000000000000000     <absolute>
 0000:00000000       __enclave_config           0000000000000000     <absolute>
 0000:00000000       __guard_longjmp_table      0000000000000000     <absolute>
 0000:00000000       __guard_fids_table         0000000000000000     <absolute>
 0000:00000000       __guard_fids_count         0000000000000000     <absolute>
 0000:00000000       __guard_iat_table          0000000000000000     <absolute>
 0000:00000000       __guard_eh_cont_table      0000000000000000     <absolute>
 0000:00000000       __hybrid_auxiliary_iat_copy 0000000000000000     <absolute>
 0000:00000000       __arm64x_native_entrypoint 0000000000000000     <absolute>
 0000:00000000       __guard_flags              0000000000000000     <absolute>
 0000:00000000       __guard_eh_cont_count      0000000000000000     <absolute>
 0000:00000000       __hybrid_code_map_count    0000000000000000     <absolute>
 0000:00000000       __hybrid_auxiliary_iat     0000000000000000     <absolute>
 0000:00000000       __guard_iat_count          0000000000000000     <absolute>
 0000:00000000       __guard_check_icall_a64n_fptr 0000000000000000     <absolute>
 0000:00000000       __guard_longjmp_count      0000000000000000     <absolute>
 0000:00000000       __ImageBase                0000000000010000     <linker-defined>
 0001:00000000       AsmVmgExitSvsm             0000000000011000     BaseLib:VmgExitSvsm.obj
 0001:00000060       AsmVmgExit                 0000000000011060     BaseLib:VmgExit.obj
 0001:00000070       AsmXSetBv                  0000000000011070     BaseLib:XSetBv.obj
 0001:00000080       AsmXGetBv                  0000000000011080     BaseLib:XGetBv.obj
 0001:00000090       AsmRmpAdjust               0000000000011090     BaseLib:RmpAdjust.obj
 0001:000000a0       InternalX86RdRand16        00000000000110a0     BaseLib:RdRand.obj
 0001:000000b2       InternalX86RdRand32        00000000000110b2     BaseLib:RdRand.obj
 0001:000000c3       InternalX86RdRand64        00000000000110c3     BaseLib:RdRand.obj
 0001:000000e0       AsmPvalidate               00000000000110e0     BaseLib:Pvalidate.obj
 0001:00000100       InternalX86DisablePaging64 0000000000011100     BaseLib:DisablePaging64.obj
 0001:00000170       EnableDisableInterrupts    0000000000011170     BaseLib:EnableDisableInterrupts.obj
 0001:00000180       TdVmCall                   0000000000011180     BaseLib:TdVmcall.obj
 0001:00000200       TdCall                     0000000000011200     BaseLib:TdCall.obj
 0001:00000260       AsmReadEflags              0000000000011260     BaseLib:ReadEflags.obj
 0001:00000270       AsmReadCr0                 0000000000011270     BaseLib:ReadCr0.obj
 0001:00000280       AsmReadCr2                 0000000000011280     BaseLib:ReadCr2.obj
 0001:00000290       AsmReadCr3                 0000000000011290     BaseLib:ReadCr3.obj
 0001:000002a0       AsmReadCr4                 00000000000112a0     BaseLib:ReadCr4.obj
 0001:000002b0       AsmWriteCr0                00000000000112b0     BaseLib:WriteCr0.obj
 0001:000002c0       AsmWriteCr2                00000000000112c0     BaseLib:WriteCr2.obj
 0001:000002d0       AsmWriteCr3                00000000000112d0     BaseLib:WriteCr3.obj
 0001:000002e0       AsmWriteCr4                00000000000112e0     BaseLib:WriteCr4.obj
 0001:000002f0       AsmReadDr0                 00000000000112f0     BaseLib:ReadDr0.obj
 0001:00000300       AsmReadDr1                 0000000000011300     BaseLib:ReadDr1.obj
 0001:00000310       AsmReadDr2                 0000000000011310     BaseLib:ReadDr2.obj
 0001:00000320       AsmReadDr3                 0000000000011320     BaseLib:ReadDr3.obj
 0001:00000330       AsmReadDr4                 0000000000011330     BaseLib:ReadDr4.obj
 0001:00000340       AsmReadDr5                 0000000000011340     BaseLib:ReadDr5.obj
 0001:00000350       AsmReadDr6                 0000000000011350     BaseLib:ReadDr6.obj
 0001:00000360       AsmReadDr7                 0000000000011360     BaseLib:ReadDr7.obj
 0001:00000370       AsmWriteDr0                0000000000011370     BaseLib:WriteDr0.obj
 0001:00000380       AsmWriteDr1                0000000000011380     BaseLib:WriteDr1.obj
 0001:00000390       AsmWriteDr2                0000000000011390     BaseLib:WriteDr2.obj
 0001:000003a0       AsmWriteDr3                00000000000113a0     BaseLib:WriteDr3.obj
 0001:000003b0       AsmWriteDr4                00000000000113b0     BaseLib:WriteDr4.obj
 0001:000003c0       AsmWriteDr5                00000000000113c0     BaseLib:WriteDr5.obj
 0001:000003d0       AsmWriteDr6                00000000000113d0     BaseLib:WriteDr6.obj
 0001:000003e0       AsmWriteDr7                00000000000113e0     BaseLib:WriteDr7.obj
 0001:000003f0       AsmReadCs                  00000000000113f0     BaseLib:ReadCs.obj
 0001:00000400       AsmReadDs                  0000000000011400     BaseLib:ReadDs.obj
 0001:00000410       AsmReadEs                  0000000000011410     BaseLib:ReadEs.obj
 0001:00000420       AsmReadFs                  0000000000011420     BaseLib:ReadFs.obj
 0001:00000430       AsmReadGs                  0000000000011430     BaseLib:ReadGs.obj
 0001:00000440       AsmReadSs                  0000000000011440     BaseLib:ReadSs.obj
 0001:00000450       AsmReadTr                  0000000000011450     BaseLib:ReadTr.obj
 0001:00000460       InternalX86ReadGdtr        0000000000011460     BaseLib:ReadGdtr.obj
 0001:00000470       InternalX86WriteGdtr       0000000000011470     BaseLib:WriteGdtr.obj
 0001:00000480       InternalX86ReadIdtr        0000000000011480     BaseLib:ReadIdtr.obj
 0001:00000490       InternalX86WriteIdtr       0000000000011490     BaseLib:WriteIdtr.obj
 0001:000004a0       AsmReadLdtr                00000000000114a0     BaseLib:ReadLdtr.obj
 0001:000004b0       AsmWriteLdtr               00000000000114b0     BaseLib:WriteLdtr.obj
 0001:000004c0       InternalX86FxSave          00000000000114c0     BaseLib:FxSave.obj
 0001:000004d0       InternalX86FxRestore       00000000000114d0     BaseLib:FxRestore.obj
 0001:000004e0       AsmReadMm0                 00000000000114e0     BaseLib:ReadMm0.obj
 0001:000004f0       AsmReadMm1                 00000000000114f0     BaseLib:ReadMm1.obj
 0001:00000500       AsmReadMm2                 0000000000011500     BaseLib:ReadMm2.obj
 0001:00000510       AsmReadMm3                 0000000000011510     BaseLib:ReadMm3.obj
 0001:00000520       AsmReadMm4                 0000000000011520     BaseLib:ReadMm4.obj
 0001:00000530       AsmReadMm5                 0000000000011530     BaseLib:ReadMm5.obj
 0001:00000540       AsmReadMm6                 0000000000011540     BaseLib:ReadMm6.obj
 0001:00000550       AsmReadMm7                 0000000000011550     BaseLib:ReadMm7.obj
 0001:00000560       AsmWriteMm0                0000000000011560     BaseLib:WriteMm0.obj
 0001:00000570       AsmWriteMm1                0000000000011570     BaseLib:WriteMm1.obj
 0001:00000580       AsmWriteMm2                0000000000011580     BaseLib:WriteMm2.obj
 0001:00000590       AsmWriteMm3                0000000000011590     BaseLib:WriteMm3.obj
 0001:000005a0       AsmWriteMm4                00000000000115a0     BaseLib:WriteMm4.obj
 0001:000005b0       AsmWriteMm5                00000000000115b0     BaseLib:WriteMm5.obj
 0001:000005c0       AsmWriteMm6                00000000000115c0     BaseLib:WriteMm6.obj
 0001:000005d0       AsmWriteMm7                00000000000115d0     BaseLib:WriteMm7.obj
 0001:000005e0       AsmReadTsc                 00000000000115e0     BaseLib:ReadTsc.obj
 0001:000005f0       AsmReadPmc                 00000000000115f0     BaseLib:ReadPmc.obj
 0001:00000600       AsmMonitor                 0000000000011600     BaseLib:Monitor.obj
 0001:00000610       AsmMwait                   0000000000011610     BaseLib:Mwait.obj
 0001:00000620       AsmWbinvd                  0000000000011620     BaseLib:Wbinvd.obj
 0001:00000630       AsmInvd                    0000000000011630     BaseLib:Invd.obj
 0001:00000640       AsmFlushCacheLine          0000000000011640     BaseLib:FlushCacheLine.obj
 0001:00000650       EnableInterrupts           0000000000011650     BaseLib:EnableInterrupts.obj
 0001:00000660       DisableInterrupts          0000000000011660     BaseLib:DisableInterrupts.obj
 0001:00000670       CpuPause                   0000000000011670     BaseLib:CpuPause.obj
 0001:00000680       AsmLfence                  0000000000011680     BaseLib:Lfence.obj
 0001:00000690       AsmWriteTr                 0000000000011690     BaseLib:WriteTr.obj
 0001:000006a0       AsmDisableCache            00000000000116a0     BaseLib:DisableCache.obj
 0001:000006c0       AsmEnableCache             00000000000116c0     BaseLib:EnableCache.obj
 0001:000006e0       InternalSwitchStack        00000000000116e0     BaseLib:SwitchStack.obj
 0001:000006f0       SetJump                    00000000000116f0     BaseLib:SetJump.obj
 0001:000007c0       InternalLongJump           00000000000117c0     BaseLib:LongJump.obj
 0001:00000870       AsmCpuid                   0000000000011870     BaseLib:CpuId.obj
 0001:000008a0       AsmCpuidEx                 00000000000118a0     BaseLib:CpuIdEx.obj
 0001:000008d0       m16Start                   00000000000118d0     BaseLib:Thunk16.obj
 0001:00000a00       InternalAsmThunk16         0000000000011a00     BaseLib:Thunk16.obj
 0001:00000ae0       __report_rangecheckfailure 0000000000011ae0     StackCheckLibNull:StackCheckFunctionsMsvc.obj
 0001:00000ae1       __GSHandlerCheck           0000000000011ae1     StackCheckLibNull:StackCheckFunctionsMsvc.obj
 0001:00000ae2       __security_check_cookie    0000000000011ae2     StackCheckLibNull:StackCheckFunctionsMsvc.obj
 0001:00000ae4       ProcessLibraryConstructorList 0000000000011ae4 f   Shell:AutoGen.obj
 0001:000013d8       ProcessLibraryDestructorList 00000000000123d8 f   Shell:AutoGen.obj
 0001:00001978       ProcessModuleEntryPointList 0000000000012978 f   Shell:AutoGen.obj
 0001:0000199c       ConInWaitForKey            000000000001299c f   Shell:ConsoleWrappers.obj
 0001:000019c0       FileBasedSimpleTextOutReset 00000000000129c0 f   Shell:ConsoleWrappers.obj
 0001:000019c0       FileBasedSimpleTextOutEnableCursor 00000000000129c0 f   Shell:ConsoleWrappers.obj
 0001:000019c0       FileBasedSimpleTextInReset 00000000000129c0 f   Shell:ConsoleWrappers.obj
 0001:000019cc       FileBasedSimpleTextInReadKeyStroke 00000000000129cc f   Shell:ConsoleWrappers.obj
 0001:00001aac       CreateSimpleTextInOnFile   0000000000012aac f   Shell:ConsoleWrappers.obj
 0001:00001c14       CloseSimpleTextInOnFile    0000000000012c14 f   Shell:ConsoleWrappers.obj
 0001:00001ca4       FileBasedSimpleTextOutTestString 0000000000012ca4 f   Shell:ConsoleWrappers.obj
 0001:00001ca4       FileBasedSimpleTextOutSetAttribute 0000000000012ca4 f   Shell:ConsoleWrappers.obj
 0001:00001ca4       UefiLibConstructor         0000000000012ca4 f   UefiLib:UefiLib.obj
 0001:00001cb4       FileBasedSimpleTextOutQueryMode 0000000000012cb4 f   Shell:ConsoleWrappers.obj
 0001:00001cfc       FileInterfaceNopGetPosition 0000000000012cfc f   Shell:FileHandleWrappers.obj
 0001:00001cfc       FileInterfaceNopSetPosition 0000000000012cfc f   Shell:FileHandleWrappers.obj
 0001:00001cfc       FileBasedSimpleTextOutSetMode 0000000000012cfc f   Shell:ConsoleWrappers.obj
 0001:00001d14       FileInterfaceNopGeneric    0000000000012d14 f   Shell:FileHandleWrappers.obj
 0001:00001d14       FileBasedSimpleTextOutClearScreen 0000000000012d14 f   Shell:ConsoleWrappers.obj
 0001:00001d1c       FileInterfaceNulWrite      0000000000012d1c f   Shell:FileHandleWrappers.obj
 0001:00001d1c       DevPathSerialDefault       0000000000012d1c f   UefiShellCommandLib:ConsistMapping.obj
 0001:00001d1c       FileBasedSimpleTextOutSetCursorPosition 0000000000012d1c f   Shell:ConsoleWrappers.obj
 0001:00001d30       FileBasedSimpleTextOutOutputString 0000000000012d30 f   Shell:ConsoleWrappers.obj
 0001:00001d78       CreateSimpleTextOutOnFile  0000000000012d78 f   Shell:ConsoleWrappers.obj
 0001:00001fd8       CloseSimpleTextOutOnFile   0000000000012fd8 f   Shell:ConsoleWrappers.obj
 0001:00002044       ConsoleLoggerInstall       0000000000013044 f   Shell:ConsoleLogger.obj
 0001:000024a8       ConsoleLoggerUninstall     00000000000134a8 f   Shell:ConsoleLogger.obj
 0001:0000268c       ConsoleLoggerDisplayHistory 000000000001368c f   Shell:ConsoleLogger.obj
 0001:00002810       ConsoleLoggerStopHistory   0000000000013810 f   Shell:ConsoleLogger.obj
 0001:000028a8       UpdateDisplayFromHistory   00000000000138a8 f   Shell:ConsoleLogger.obj
 0001:00002dd0       ConsoleLoggerReset         0000000000013dd0 f   Shell:ConsoleLogger.obj
 0001:00002ec4       AppendStringToHistory      0000000000013ec4 f   Shell:ConsoleLogger.obj
 0001:00003498       ConsoleLoggerOutputStringSplit 0000000000014498 f   Shell:ConsoleLogger.obj
 0001:000034f4       ConsoleLoggerDoPageBreak   00000000000144f4 f   Shell:ConsoleLogger.obj
 0001:00003688       ConsoleLoggerPrintWithPageBreak 0000000000014688 f   Shell:ConsoleLogger.obj
 0001:00003978       ConsoleLoggerOutputString  0000000000014978 f   Shell:ConsoleLogger.obj
 0001:00003c28       ConsoleLoggerTestString    0000000000014c28 f   Shell:ConsoleLogger.obj
 0001:00003cd0       ConsoleLoggerQueryMode     0000000000014cd0 f   Shell:ConsoleLogger.obj
 0001:00003d8c       ConsoleLoggerSetMode       0000000000014d8c f   Shell:ConsoleLogger.obj
 0001:00003ea4       ConsoleLoggerSetAttribute  0000000000014ea4 f   Shell:ConsoleLogger.obj
 0001:00003f78       ConsoleLoggerClearScreen   0000000000014f78 f   Shell:ConsoleLogger.obj
 0001:00004190       ConsoleLoggerSetCursorPosition 0000000000015190 f   Shell:ConsoleLogger.obj
 0001:000042a8       ConsoleLoggerEnableCursor  00000000000152a8 f   Shell:ConsoleLogger.obj
 0001:00004378       ConsoleLoggerResetBuffers  0000000000015378 f   Shell:ConsoleLogger.obj
 0001:0000457c       GetExecuatableFileName     000000000001557c f   Shell:ShellManParser.obj
 0001:0000484c       GetManFileName             000000000001584c f   Shell:ShellManParser.obj
 0001:00004954       SearchPathForFile          0000000000015954 f   Shell:ShellManParser.obj
 0001:000049e0       ManFileFindSections        00000000000159e0 f   Shell:ShellManParser.obj
 0001:00004cd4       IsTitleHeader              0000000000015cd4 f   Shell:ShellManParser.obj
 0001:00004f88       ManFileFindTitleSection    0000000000015f88 f   Shell:ShellManParser.obj
 0001:00005174       ProcessManFile             0000000000016174 f   Shell:ShellManParser.obj
 0001:000059fc       IsVolatileEnv              00000000000169fc f   Shell:ShellEnvVar.obj
 0001:00005b68       FreeEnvironmentVariableList 0000000000016b68 f   Shell:ShellEnvVar.obj
 0001:00005c6c       GetEnvironmentVariableList 0000000000016c6c f   Shell:ShellEnvVar.obj
 0001:00006180       SetEnvironmentVariableList 0000000000017180 f   Shell:ShellEnvVar.obj
 0001:000064e8       SetEnvironmentVariables    00000000000174e8 f   Shell:ShellEnvVar.obj
 0001:00006850       ShellFindEnvVarInList      0000000000017850 f   Shell:ShellEnvVar.obj
 0001:00006974       ShellAddEnvVarToList       0000000000017974 f   Shell:ShellEnvVar.obj
 0001:00006b50       ShellRemvoeEnvVarFromList  0000000000017b50 f   Shell:ShellEnvVar.obj
 0001:00006c88       ShellInitEnvVarList        0000000000017c88 f   Shell:ShellEnvVar.obj
 0001:00006cb4       ShellFreeEnvVarList        0000000000017cb4 f   Shell:ShellEnvVar.obj
 0001:00006cd8       FileInterfaceOpenNotFound  0000000000017cd8 f   Shell:FileHandleWrappers.obj
 0001:00006cf8       FileInterfaceNopGetInfo    0000000000017cf8 f   Shell:FileHandleWrappers.obj
 0001:00006cf8       FileInterfaceNopSetInfo    0000000000017cf8 f   Shell:FileHandleWrappers.obj
 0001:00006d18       FileInterfaceStdOutWrite   0000000000017d18 f   Shell:FileHandleWrappers.obj
 0001:00006db0       FileInterfaceStdOutRead    0000000000017db0 f   Shell:FileHandleWrappers.obj
 0001:00006db0       FileInterfaceStdErrRead    0000000000017db0 f   Shell:FileHandleWrappers.obj
 0001:00006db0       FileInterfaceStdInWrite    0000000000017db0 f   Shell:FileHandleWrappers.obj
 0001:00006dcc       FileInterfaceStdErrWrite   0000000000017dcc f   Shell:FileHandleWrappers.obj
 0001:00006e04       FileInterfaceNulRead       0000000000017e04 f   Shell:FileHandleWrappers.obj
 0001:00006e24       CreateTabCompletionList    0000000000017e24 f   Shell:FileHandleWrappers.obj
 0001:00007310       FileInterfaceStdInRead     0000000000018310 f   Shell:FileHandleWrappers.obj
 0001:00008448       FileInterfaceEnvClose      0000000000019448 f   Shell:FileHandleWrappers.obj
 0001:00008714       FileInterfaceEnvDelete     0000000000019714 f   Shell:FileHandleWrappers.obj
 0001:00008758       FileInterfaceEnvRead       0000000000019758 f   Shell:FileHandleWrappers.obj
 0001:00008838       FileInterfaceEnvVolWrite   0000000000019838 f   Shell:FileHandleWrappers.obj
 0001:00008a74       FileInterfaceEnvNonVolWrite 0000000000019a74 f   Shell:FileHandleWrappers.obj
 0001:00008cb0       CreateFileInterfaceEnv     0000000000019cb0 f   Shell:FileHandleWrappers.obj
 0001:00008e14       MoveCursorBackward         0000000000019e14 f   Shell:FileHandleWrappers.obj
 0001:00008e74       MoveCursorForward          0000000000019e74 f   Shell:FileHandleWrappers.obj
 0001:00008edc       PrintCommandHistory        0000000000019edc f   Shell:FileHandleWrappers.obj
 0001:00009018       FileInterfaceMemSetPosition 000000000001a018 f   Shell:FileHandleWrappers.obj
 0001:00009054       FileInterfaceMemGetPosition 000000000001a054 f   Shell:FileHandleWrappers.obj
 0001:00009074       FileInterfaceMemGetInfo    000000000001a074 f   Shell:FileHandleWrappers.obj
 0001:0000913c       FileInterfaceMemWrite      000000000001a13c f   Shell:FileHandleWrappers.obj
 0001:000093c0       FileInterfaceMemRead       000000000001a3c0 f   Shell:FileHandleWrappers.obj
 0001:00009464       FileInterfaceMemClose      000000000001a464 f   Shell:FileHandleWrappers.obj
 0001:000094c4       CreateFileInterfaceMem     000000000001a4c4 f   Shell:FileHandleWrappers.obj
 0001:000096b0       FileInterfaceFileSetPosition 000000000001a6b0 f   Shell:FileHandleWrappers.obj
 0001:000096e0       FileInterfaceFileGetPosition 000000000001a6e0 f   Shell:FileHandleWrappers.obj
 0001:00009710       FileInterfaceFileGetInfo   000000000001a710 f   Shell:FileHandleWrappers.obj
 0001:00009754       FileInterfaceFileSetInfo   000000000001a754 f   Shell:FileHandleWrappers.obj
 0001:00009798       FileInterfaceFileFlush     000000000001a798 f   Shell:FileHandleWrappers.obj
 0001:000097bc       FileInterfaceFileRead      000000000001a7bc f   Shell:FileHandleWrappers.obj
 0001:00009a04       FileInterfaceFileOpen      000000000001aa04 f   Shell:FileHandleWrappers.obj
 0001:00009a50       FileInterfaceFileDelete    000000000001aa50 f   Shell:FileHandleWrappers.obj
 0001:00009a88       FileInterfaceFileClose     000000000001aa88 f   Shell:FileHandleWrappers.obj
 0001:00009ac0       FileInterfaceFileWrite     000000000001aac0 f   Shell:FileHandleWrappers.obj
 0001:00009b98       CreateFileInterfaceFile    000000000001ab98 f   Shell:FileHandleWrappers.obj
 0001:00009c9c       EfiShellClose              000000000001ac9c f   Shell:ShellProtocol.obj
 0001:00009cc8       InternalShellProtocolIsBlockIoPresent 000000000001acc8 f   Shell:ShellProtocol.obj
 0001:00009d2c       InternalShellProtocolIsSimpleFileSystemPresent 000000000001ad2c f   Shell:ShellProtocol.obj
 0001:00009d90       EfiShellSetMap             000000000001ad90 f   Shell:ShellProtocol.obj
 0001:00009fb0       EfiShellGetDevicePathFromMap 000000000001afb0 f   Shell:ShellProtocol.obj
 0001:0000a048       EfiShellGetMapFromDevicePath 000000000001b048 f   Shell:ShellProtocol.obj
 0001:0000a1d8       EfiShellGetFilePathFromDevicePath 000000000001b1d8 f   Shell:ShellProtocol.obj
 0001:0000a548       EfiShellGetDevicePathFromFilePath 000000000001b548 f   Shell:ShellProtocol.obj
 0001:0000a8b8       EfiShellGetDeviceName      000000000001b8b8 f   Shell:ShellProtocol.obj
 0001:0000ae7c       EfiShellOpenRootByHandle   000000000001be7c f   Shell:ShellProtocol.obj
 0001:0000af94       EfiShellOpenRoot           000000000001bf94 f   Shell:ShellProtocol.obj
 0001:0000b00c       EfiShellBatchIsActive      000000000001c00c f   Shell:ShellProtocol.obj
 0001:0000b028       InternalOpenFileDevicePath 000000000001c028 f   Shell:ShellProtocol.obj
 0001:0000b398       EfiShellCreateFile         000000000001c398 f   Shell:ShellProtocol.obj
 0001:0000b488       EfiShellRegisterGuidName   000000000001c488 f   Shell:ShellProtocol.obj
 0001:0000b4b0       EfiShellOpenFileByName     000000000001c4b0 f   Shell:ShellProtocol.obj
 0001:0000b71c       EfiShellDeleteFileByName   000000000001c71c f   Shell:ShellProtocol.obj
 0001:0000b780       EfiShellDisablePageBreak   000000000001c780 f   Shell:ShellProtocol.obj
 0001:0000b788       EfiShellEnablePageBreak    000000000001c788 f   Shell:ShellProtocol.obj
 0001:0000b790       InternalShellExecuteDevicePath 000000000001c790 f   Shell:ShellProtocol.obj
 0001:0000bdf0       InternalShellExecute       000000000001cdf0 f   Shell:ShellProtocol.obj
 0001:0000c06c       EfiShellExecute            000000000001d06c f   Shell:ShellProtocol.obj
 0001:0000c26c       InternalFreeShellFileInfoNode 000000000001d26c f   Shell:ShellProtocol.obj
 0001:0000c2f4       EfiShellFreeFileList       000000000001d2f4 f   Shell:ShellProtocol.obj
 0001:0000c398       EfiShellRemoveDupInFileList 000000000001d398 f   Shell:ShellProtocol.obj
 0001:0000c518       InternalDuplicateShellFileInfo 000000000001d518 f   Shell:ShellProtocol.obj
 0001:0000c700       CreateAndPopulateShellFileInfo 000000000001d700 f   Shell:ShellProtocol.obj
 0001:0000ca00       EfiShellFindFilesInDir     000000000001da00 f   Shell:ShellProtocol.obj
 0001:0000cd1c       EfiShellGetGuidFromName    000000000001dd1c f   Shell:ShellProtocol.obj
 0001:0000cd88       EfiShellGetGuidName        000000000001dd88 f   Shell:ShellProtocol.obj
 0001:0000ce20       ShellSearchHandle          000000000001de20 f   Shell:ShellProtocol.obj
 0001:0000d4a8       EfiShellFindFiles          000000000001e4a8 f   Shell:ShellProtocol.obj
 0001:0000d75c       EfiShellOpenFileList       000000000001e75c f   Shell:ShellProtocol.obj
 0001:0000da4c       EfiShellGetEnvEx           000000000001ea4c f   Shell:ShellProtocol.obj
 0001:0000dd70       EfiShellGetEnv             000000000001ed70 f   Shell:ShellProtocol.obj
 0001:0000dd8c       InternalEfiShellSetEnv     000000000001ed8c f   Shell:ShellProtocol.obj
 0001:0000df3c       EfiShellSetEnv             000000000001ef3c f   Shell:ShellProtocol.obj
 0001:0000e048       EfiShellGetCurDir          000000000001f048 f   Shell:ShellProtocol.obj
 0001:0000e14c       EfiShellSetCurDir          000000000001f14c f   Shell:ShellProtocol.obj
 0001:0000e894       EfiShellGetHelpText        000000000001f894 f   Shell:ShellProtocol.obj
 0001:0000ead0       EfiShellGetPageBreak       000000000001fad0 f   Shell:ShellProtocol.obj
 0001:0000ead8       EfiShellIsRootShell        000000000001fad8 f   Shell:ShellProtocol.obj
 0001:0000eae0       InternalEfiShellGetListAlias 000000000001fae0 f   Shell:ShellProtocol.obj
 0001:0000ed84       ToLower                    000000000001fd84 f   Shell:ShellProtocol.obj
 0001:0000ee04       EfiShellGetAlias           000000000001fe04 f   Shell:ShellProtocol.obj
 0001:0000efb0       InternalSetAlias           000000000001ffb0 f   Shell:ShellProtocol.obj
 0001:0000f0f0       EfiShellSetAlias           00000000000200f0 f   Shell:ShellProtocol.obj
 0001:0000f1b8       CreatePopulateInstallShellProtocol 00000000000201b8 f   Shell:ShellProtocol.obj
 0001:0000f504       CleanUpShellProtocol       0000000000020504 f   Shell:ShellProtocol.obj
 0001:0000f5c4       CleanUpShellEnvironment    00000000000205c4 f   Shell:ShellProtocol.obj
 0001:0000f72c       NotificationFunction       000000000002072c f   Shell:ShellProtocol.obj
 0001:0000f7e0       InernalEfiShellStartMonitor 00000000000207e0 f   Shell:ShellProtocol.obj
 0001:0000f9b0       FindEndOfParameter         00000000000209b0 f   Shell:ShellParametersProtocol.obj
 0001:0000fa44       GetNextParameter           0000000000020a44 f   Shell:ShellParametersProtocol.obj
 0001:0000fcc4       ParseCommandLineToArgs     0000000000020cc4 f   Shell:ShellParametersProtocol.obj
 0001:0001003c       CreatePopulateInstallShellParametersProtocol 000000000002103c f   Shell:ShellParametersProtocol.obj
 0001:00010528       CleanUpShellParametersProtocol 0000000000021528 f   Shell:ShellParametersProtocol.obj
 0001:00010620       IsUnicodeFile              0000000000021620 f   Shell:ShellParametersProtocol.obj
 0001:00010720       StripQuotes                0000000000021720 f   Shell:ShellParametersProtocol.obj
 0001:000107c8       CalculateEfiHdrCrc         00000000000217c8 f   Shell:ShellParametersProtocol.obj
 0001:00010818       FixFileName                0000000000021818 f   Shell:ShellParametersProtocol.obj
 0001:00010910       FixVarName                 0000000000021910 f   Shell:ShellParametersProtocol.obj
 0001:0001098c       WriteFileTag               000000000002198c f   Shell:ShellParametersProtocol.obj
 0001:00010a18       UpdateStdInStdOutStdErr    0000000000021a18 f   Shell:ShellParametersProtocol.obj
 0001:00012c2c       RestoreStdInStdOutStdErr   0000000000023c2c f   Shell:ShellParametersProtocol.obj
 0001:00012ea0       UpdateArgcArgv             0000000000023ea0 f   Shell:ShellParametersProtocol.obj
 0001:00012f54       RestoreArgcArgv            0000000000023f54 f   Shell:ShellParametersProtocol.obj
 0001:00013094       TrimSpaces                 0000000000024094 f   Shell:Shell.obj
 0001:000131e0       FindNextInstance           00000000000241e0 f   Shell:Shell.obj
 0001:0001326c       IsValidEnvironmentVariableName 000000000002426c f   Shell:Shell.obj
 0001:00013404       ContainsSplit              0000000000024404 f   Shell:Shell.obj
 0001:000135a0       InternalEfiShellStartCtrlSMonitor 00000000000245a0 f   Shell:Shell.obj
 0001:00013750       UefiMain                   0000000000024750 f   Shell:Shell.obj
 0001:000148ac       SetBuiltInAlias            00000000000258ac f   Shell:Shell.obj
 0001:000149a8       IsCommand                  00000000000259a8 f   Shell:Shell.obj
 0001:000149d8       IsScriptOnlyCommand        00000000000259d8 f   Shell:Shell.obj
 0001:00014a7c       GetDevicePathsForImageAndFile 0000000000025a7c f   Shell:Shell.obj
 0001:00014c10       ProcessCommandLine         0000000000025c10 f   Shell:Shell.obj
 0001:00015390       LocateStartupScript        0000000000026390 f   Shell:Shell.obj
 0001:00015504       DoStartupScript            0000000000026504 f   Shell:Shell.obj
 0001:00015904       DoShellPrompt              0000000000026904 f   Shell:Shell.obj
 0001:00015af8       AddBufferToFreeList        0000000000026af8 f   Shell:Shell.obj
 0001:00015b54       SaveBufferList             0000000000026b54 f   Shell:Shell.obj
 0001:00015b88       RestoreBufferList          0000000000026b88 f   Shell:Shell.obj
 0001:00015bbc       AddLineToCommandHistory    0000000000026bbc f   Shell:Shell.obj
 0001:00015d14       ShellConvertAlias          0000000000026d14 f   Shell:Shell.obj
 0001:00015d8c       StripUnreplacedEnvironmentVariables 0000000000026d8c f   Shell:Shell.obj
 0001:00015f10       ShellConvertVariables      0000000000026f10 f   Shell:Shell.obj
 0001:00016500       RunSplitCommand            0000000000027500 f   Shell:Shell.obj
 0001:00016a08       ShellSubstituteVariables   0000000000027a08 f   Shell:Shell.obj
 0001:00016a78       ShellSubstituteAliases     0000000000027a78 f   Shell:Shell.obj
 0001:00016d34       GetOperationType           0000000000027d34 f   Shell:Shell.obj
 0001:00016ea8       IsValidSplit               0000000000027ea8 f   Shell:Shell.obj
 0001:00017068       VerifySplit                0000000000028068 f   Shell:Shell.obj
 0001:00017114       ProcessNewSplitCommandLine 0000000000028114 f   Shell:Shell.obj
 0001:000171fc       ChangeMappedDrive          00000000000281fc f   Shell:Shell.obj
 0001:000172c8       DoHelpUpdate               00000000000282c8 f   Shell:Shell.obj
 0001:000174dc       SetLastError               00000000000284dc f   Shell:Shell.obj
 0001:00017588       ProcessCommandLineToFinal  0000000000028588 f   Shell:Shell.obj
 0001:00017670       RunInternalCommand         0000000000028670 f   Shell:Shell.obj
 0001:000178ac       RunCommandOrFile           00000000000288ac f   Shell:Shell.obj
 0001:00017c34       SetupAndRunCommandOrFile   0000000000028c34 f   Shell:Shell.obj
 0001:00017db0       RunShellCommand            0000000000028db0 f   Shell:Shell.obj
 0001:000181a0       RunCommand                 00000000000291a0 f   Shell:Shell.obj
 0001:000181bc       RunScriptFileHandle        00000000000291bc f   Shell:Shell.obj
 0001:00019668       RunScriptFile              000000000002a668 f   Shell:Shell.obj
 0001:00019760       FindFirstCharacter         000000000002a760 f   Shell:Shell.obj
 0001:00019840       GetDebugPrintErrorLevel    000000000002a840 f   BaseDebugPrintErrorLevelLib:BaseDebugPrintErrorLevelLib.obj
 0001:00019848       FilterBeforeMmIoRead       000000000002a848 f   FilterLibNull:RegisterFilterLibNull.obj
 0001:00019848       FilterBeforeIoRead         000000000002a848 f   FilterLibNull:RegisterFilterLibNull.obj
 0001:00019848       FilterBeforeMmIoWrite      000000000002a848 f   FilterLibNull:RegisterFilterLibNull.obj
 0001:00019848       FilterBeforeIoWrite        000000000002a848 f   FilterLibNull:RegisterFilterLibNull.obj
 0001:0001985c       FilterAfterMmIoWrite       000000000002a85c f   FilterLibNull:RegisterFilterLibNull.obj
 0001:0001985c       FilterAfterIoRead          000000000002a85c f   FilterLibNull:RegisterFilterLibNull.obj
 0001:0001985c       FilterAfterIoWrite         000000000002a85c f   FilterLibNull:RegisterFilterLibNull.obj
 0001:0001985c       FilterAfterMmIoRead        000000000002a85c f   FilterLibNull:RegisterFilterLibNull.obj
 0001:0001986c       InternalGetReportStatusCode 000000000002a86c f   DxeReportStatusCodeLib:ReportStatusCodeLib.obj
 0001:000198dc       InternalReportStatusCode   000000000002a8dc f   DxeReportStatusCodeLib:ReportStatusCodeLib.obj
 0001:00019994       ReportStatusCodeEx         000000000002a994 f   DxeReportStatusCodeLib:ReportStatusCodeLib.obj
 0001:00019c10       ReportProgressCodeEnabled  000000000002ac10 f   DxeReportStatusCodeLib:ReportStatusCodeLib.obj
 0001:00019c34       ReportErrorCodeEnabled     000000000002ac34 f   DxeReportStatusCodeLib:ReportStatusCodeLib.obj
 0001:00019c58       ReportDebugCodeEnabled     000000000002ac58 f   DxeReportStatusCodeLib:ReportStatusCodeLib.obj
 0001:00019c7c       UnicodeVSPrint             000000000002ac7c f   BasePrintLib:PrintLib.obj
 0001:00019d3c       UnicodeSPrint              000000000002ad3c f   BasePrintLib:PrintLib.obj
 0001:00019d90       UnicodeValueToStringS      000000000002ad90 f   BasePrintLib:PrintLib.obj
 0001:00019e14       AsciiVSPrint               000000000002ae14 f   BasePrintLib:PrintLib.obj
 0001:00019e5c       AsciiSPrint                000000000002ae5c f   BasePrintLib:PrintLib.obj
 0001:00019eb0       SPrintLength               000000000002aeb0 f   BasePrintLib:PrintLib.obj
 0001:00019f24       BasePrintLibFillBuffer     000000000002af24 f   BasePrintLib:PrintLibInternal.obj
 0001:00019fb0       BasePrintLibValueToString  000000000002afb0 f   BasePrintLib:PrintLibInternal.obj
 0001:0001a018       BasePrintLibConvertValueToStringS 000000000002b018 f   BasePrintLib:PrintLibInternal.obj
 0001:0001a76c       BasePrintLibSPrintMarker   000000000002b76c f   BasePrintLib:PrintLibInternal.obj
 0001:0001c888       BasePrintLibSPrint         000000000002d888 f   BasePrintLib:PrintLibInternal.obj
 0001:0001c8f0       InternalMemCopyMem         000000000002d8f0 f   BaseMemoryLib:CopyMem.obj
 0001:0001cecc       CopyGuid                   000000000002decc f   BaseMemoryLib:MemLibGuid.obj
 0001:0001cf20       CompareGuid                000000000002df20 f   BaseMemoryLib:MemLibGuid.obj
 0001:0001cfa8       InternalMemSetMem16        000000000002dfa8 f   BaseMemoryLib:MemLibGeneric.obj
 0001:0001cfec       InternalMemZeroMem         000000000002dfec f   BaseMemoryLib:MemLibGeneric.obj
 0001:0001d014       InternalMemCompareMem      000000000002e014 f   BaseMemoryLib:MemLibGeneric.obj
 0001:0001d07c       CopyMem                    000000000002e07c f   BaseMemoryLib:CopyMemWrapper.obj
 0001:0001d154       SetMem                     000000000002e154 f   BaseMemoryLib:SetMemWrapper.obj
 0001:0001d1d4       SetMem16                   000000000002e1d4 f   BaseMemoryLib:SetMem16Wrapper.obj
 0001:0001d308       CompareMem                 000000000002e308 f   BaseMemoryLib:CompareMemWrapper.obj
 0001:0001d43c       ZeroMem                    000000000002e43c f   BaseMemoryLib:ZeroMemWrapper.obj
 0001:0001d4e4       InternalMemSetMem          000000000002e4e4 f   BaseMemoryLib:SetMem.obj
 0001:0001d678       GetDevicePathSize          000000000002e678 f   UefiDevicePathLib:UefiDevicePathLib.obj
 0001:0001d690       DuplicateDevicePath        000000000002e690 f   UefiDevicePathLib:UefiDevicePathLib.obj
 0001:0001d6a8       AppendDevicePath           000000000002e6a8 f   UefiDevicePathLib:UefiDevicePathLib.obj
 0001:0001d6cc       AppendDevicePathNode       000000000002e6cc f   UefiDevicePathLib:UefiDevicePathLib.obj
 0001:0001d6f0       GetNextDevicePathInstance  000000000002e6f0 f   UefiDevicePathLib:UefiDevicePathLib.obj
 0001:0001d714       CreateDeviceNode           000000000002e714 f   UefiDevicePathLib:UefiDevicePathLib.obj
 0001:0001d740       ConvertDevicePathToText    000000000002e740 f   UefiDevicePathLib:UefiDevicePathLib.obj
 0001:0001d76c       ConvertTextToDevicePath    000000000002e76c f   UefiDevicePathLib:UefiDevicePathLib.obj
 0001:0001d784       UefiDevicePathLibStrDuplicate 000000000002e784 f   UefiDevicePathLib:DevicePathFromText.obj
 0001:0001d7ac       GetParamByNodeName         000000000002e7ac f   UefiDevicePathLib:DevicePathFromText.obj
 0001:0001d8bc       SplitStr                   000000000002e8bc f   UefiDevicePathLib:DevicePathFromText.obj
 0001:0001d958       GetNextParamStr            000000000002e958 f   UefiDevicePathLib:DevicePathFromText.obj
 0001:0001d974       GetNextDeviceNodeStr       000000000002e974 f   UefiDevicePathLib:DevicePathFromText.obj
 0001:0001dae4       IsHexStr                   000000000002eae4 f   UefiDevicePathLib:DevicePathFromText.obj
 0001:0001db54       Strtoi                     000000000002eb54 f   UefiDevicePathLib:DevicePathFromText.obj
 0001:0001db8c       Strtoi64                   000000000002eb8c f   UefiDevicePathLib:DevicePathFromText.obj
 0001:0001dbd8       StrToAscii                 000000000002ebd8 f   UefiDevicePathLib:DevicePathFromText.obj
 0001:0001dc44       DevPathFromTextGenericPath 000000000002ec44 f   UefiDevicePathLib:DevicePathFromText.obj
 0001:0001dd04       DevPathFromTextPath        000000000002ed04 f   UefiDevicePathLib:DevicePathFromText.obj
 0001:0001dd38       DevPathFromTextHardwarePath 000000000002ed38 f   UefiDevicePathLib:DevicePathFromText.obj
 0001:0001dd54       DevPathFromTextPci         000000000002ed54 f   UefiDevicePathLib:DevicePathFromText.obj
 0001:0001ddc4       DevPathFromTextPcCard      000000000002edc4 f   UefiDevicePathLib:DevicePathFromText.obj
 0001:0001de14       DevPathFromTextMemoryMapped 000000000002ee14 f   UefiDevicePathLib:DevicePathFromText.obj
 0001:0001deb0       ConvertFromTextVendor      000000000002eeb0 f   UefiDevicePathLib:DevicePathFromText.obj
 0001:0001df74       DevPathFromTextVenHw       000000000002ef74 f   UefiDevicePathLib:DevicePathFromText.obj
 0001:0001df94       DevPathFromTextCtrl        000000000002ef94 f   UefiDevicePathLib:DevicePathFromText.obj
 0001:0001dfe4       DevPathFromTextBmc         000000000002efe4 f   UefiDevicePathLib:DevicePathFromText.obj
 0001:0001e060       DevPathFromTextAcpiPath    000000000002f060 f   UefiDevicePathLib:DevicePathFromText.obj
 0001:0001e07c       EisaIdFromText             000000000002f07c f   UefiDevicePathLib:DevicePathFromText.obj
 0001:0001e108       DevPathFromTextAcpi        000000000002f108 f   UefiDevicePathLib:DevicePathFromText.obj
 0001:0001e178       ConvertFromTextAcpi        000000000002f178 f   UefiDevicePathLib:DevicePathFromText.obj
 0001:0001e1e0       DevPathFromTextPciRoot     000000000002f1e0 f   UefiDevicePathLib:DevicePathFromText.obj
 0001:0001e200       DevPathFromTextPcieRoot    000000000002f200 f   UefiDevicePathLib:DevicePathFromText.obj
 0001:0001e220       DevPathFromTextFloppy      000000000002f220 f   UefiDevicePathLib:DevicePathFromText.obj
 0001:0001e240       DevPathFromTextKeyboard    000000000002f240 f   UefiDevicePathLib:DevicePathFromText.obj
 0001:0001e260       DevPathFromTextSerial      000000000002f260 f   UefiDevicePathLib:DevicePathFromText.obj
 0001:0001e280       DevPathFromTextParallelPort 000000000002f280 f   UefiDevicePathLib:DevicePathFromText.obj
 0001:0001e2a0       DevPathFromTextAcpiEx      000000000002f2a0 f   UefiDevicePathLib:DevicePathFromText.obj
 0001:0001e40c       DevPathFromTextAcpiExp     000000000002f40c f   UefiDevicePathLib:DevicePathFromText.obj
 0001:0001e518       DevPathFromTextAcpiAdr     000000000002f518 f   UefiDevicePathLib:DevicePathFromText.obj
 0001:0001e66c       DevPathFromTextMsg         000000000002f66c f   UefiDevicePathLib:DevicePathFromText.obj
 0001:0001e688       DevPathFromTextAta         000000000002f688 f   UefiDevicePathLib:DevicePathFromText.obj
 0001:0001e7a8       DevPathFromTextScsi        000000000002f7a8 f   UefiDevicePathLib:DevicePathFromText.obj
 0001:0001e81c       DevPathFromTextFibre       000000000002f81c f   UefiDevicePathLib:DevicePathFromText.obj
 0001:0001e8a0       DevPathFromTextFibreEx     000000000002f8a0 f   UefiDevicePathLib:DevicePathFromText.obj
 0001:0001e954       DevPathFromText1394        000000000002f954 f   UefiDevicePathLib:DevicePathFromText.obj
 0001:0001e9b0       DevPathFromTextUsb         000000000002f9b0 f   UefiDevicePathLib:DevicePathFromText.obj
 0001:0001ea20       DevPathFromTextI2O         000000000002fa20 f   UefiDevicePathLib:DevicePathFromText.obj
 0001:0001ea70       DevPathFromTextInfiniband  000000000002fa70 f   UefiDevicePathLib:DevicePathFromText.obj
 0001:0001eb54       DevPathFromTextVenMsg      000000000002fb54 f   UefiDevicePathLib:DevicePathFromText.obj
 0001:0001eb74       DevPathFromTextVenPcAnsi   000000000002fb74 f   UefiDevicePathLib:DevicePathFromText.obj
 0001:0001ebbc       DevPathFromTextVenVt100    000000000002fbbc f   UefiDevicePathLib:DevicePathFromText.obj
 0001:0001ec04       DevPathFromTextVenVt100Plus 000000000002fc04 f   UefiDevicePathLib:DevicePathFromText.obj
 0001:0001ec4c       DevPathFromTextVenUtf8     000000000002fc4c f   UefiDevicePathLib:DevicePathFromText.obj
 0001:0001ec94       DevPathFromTextUartFlowCtrl 000000000002fc94 f   UefiDevicePathLib:DevicePathFromText.obj
 0001:0001ed40       DevPathFromTextSAS         000000000002fd40 f   UefiDevicePathLib:DevicePathFromText.obj
 0001:0001f014       DevPathFromTextSasEx       0000000000030014 f   UefiDevicePathLib:DevicePathFromText.obj
 0001:0001f2dc       DevPathFromTextNVMe        00000000000302dc f   UefiDevicePathLib:DevicePathFromText.obj
 0001:0001f39c       DevPathFromTextUfs         000000000003039c f   UefiDevicePathLib:DevicePathFromText.obj
 0001:0001f40c       DevPathFromTextSd          000000000003040c f   UefiDevicePathLib:DevicePathFromText.obj
 0001:0001f45c       DevPathFromTextEmmc        000000000003045c f   UefiDevicePathLib:DevicePathFromText.obj
 0001:0001f4ac       DevPathFromTextDebugPort   00000000000304ac f   UefiDevicePathLib:DevicePathFromText.obj
 0001:0001f4f4       DevPathFromTextMAC         00000000000304f4 f   UefiDevicePathLib:DevicePathFromText.obj
 0001:0001f5a8       NetworkProtocolFromText    00000000000305a8 f   UefiDevicePathLib:DevicePathFromText.obj
 0001:0001f5fc       DevPathFromTextIPv4        00000000000305fc f   UefiDevicePathLib:DevicePathFromText.obj
 0001:0001f794       DevPathFromTextIPv6        0000000000030794 f   UefiDevicePathLib:DevicePathFromText.obj
 0001:0001f938       DevPathFromTextUart        0000000000030938 f   UefiDevicePathLib:DevicePathFromText.obj
 0001:0001fb48       ConvertFromTextUsbClass    0000000000030b48 f   UefiDevicePathLib:DevicePathFromText.obj
 0001:0001fce8       DevPathFromTextUsbClass    0000000000030ce8 f   UefiDevicePathLib:DevicePathFromText.obj
 0001:0001fd10       DevPathFromTextUsbAudio    0000000000030d10 f   UefiDevicePathLib:DevicePathFromText.obj
 0001:0001fd3c       DevPathFromTextUsbCDCControl 0000000000030d3c f   UefiDevicePathLib:DevicePathFromText.obj
 0001:0001fd68       DevPathFromTextUsbHID      0000000000030d68 f   UefiDevicePathLib:DevicePathFromText.obj
 0001:0001fd94       DevPathFromTextUsbImage    0000000000030d94 f   UefiDevicePathLib:DevicePathFromText.obj
 0001:0001fdc0       DevPathFromTextUsbPrinter  0000000000030dc0 f   UefiDevicePathLib:DevicePathFromText.obj
 0001:0001fdec       DevPathFromTextUsbMassStorage 0000000000030dec f   UefiDevicePathLib:DevicePathFromText.obj
 0001:0001fe18       DevPathFromTextUsbHub      0000000000030e18 f   UefiDevicePathLib:DevicePathFromText.obj
 0001:0001fe44       DevPathFromTextUsbCDCData  0000000000030e44 f   UefiDevicePathLib:DevicePathFromText.obj
 0001:0001fe70       DevPathFromTextUsbSmartCard 0000000000030e70 f   UefiDevicePathLib:DevicePathFromText.obj
 0001:0001fe9c       DevPathFromTextUsbVideo    0000000000030e9c f   UefiDevicePathLib:DevicePathFromText.obj
 0001:0001fec8       DevPathFromTextUsbDiagnostic 0000000000030ec8 f   UefiDevicePathLib:DevicePathFromText.obj
 0001:0001fef4       DevPathFromTextUsbWireless 0000000000030ef4 f   UefiDevicePathLib:DevicePathFromText.obj
 0001:0001ff20       DevPathFromTextUsbDeviceFirmwareUpdate 0000000000030f20 f   UefiDevicePathLib:DevicePathFromText.obj
 0001:0001ff54       DevPathFromTextUsbIrdaBridge 0000000000030f54 f   UefiDevicePathLib:DevicePathFromText.obj
 0001:0001ff88       DevPathFromTextUsbTestAndMeasurement 0000000000030f88 f   UefiDevicePathLib:DevicePathFromText.obj
 0001:0001ffbc       DevPathFromTextUsbWwid     0000000000030fbc f   UefiDevicePathLib:DevicePathFromText.obj
 0001:000200f8       DevPathFromTextUnit        00000000000310f8 f   UefiDevicePathLib:DevicePathFromText.obj
 0001:00020148       DevPathFromTextiSCSI       0000000000031148 f   UefiDevicePathLib:DevicePathFromText.obj
 0001:0002034c       DevPathFromTextVlan        000000000003134c f   UefiDevicePathLib:DevicePathFromText.obj
 0001:0002039c       DevPathFromTextBluetooth   000000000003139c f   UefiDevicePathLib:DevicePathFromText.obj
 0001:000203fc       DevPathFromTextWiFi        00000000000313fc f   UefiDevicePathLib:DevicePathFromText.obj
 0001:000204cc       DevPathFromTextBluetoothLE 00000000000314cc f   UefiDevicePathLib:DevicePathFromText.obj
 0001:0002054c       DevPathFromTextDns         000000000003154c f   UefiDevicePathLib:DevicePathFromText.obj
 0001:000206ec       DevPathFromTextUri         00000000000316ec f   UefiDevicePathLib:DevicePathFromText.obj
 0001:00020788       DevPathFromTextMediaPath   0000000000031788 f   UefiDevicePathLib:DevicePathFromText.obj
 0001:000207a4       DevPathFromTextHD          00000000000317a4 f   UefiDevicePathLib:DevicePathFromText.obj
 0001:0002092c       DevPathFromTextCDROM       000000000003192c f   UefiDevicePathLib:DevicePathFromText.obj
 0001:000209c8       DevPathFromTextVenMedia    00000000000319c8 f   UefiDevicePathLib:DevicePathFromText.obj
 0001:000209e8       DevPathFromTextFilePath    00000000000319e8 f   UefiDevicePathLib:DevicePathFromText.obj
 0001:00020a48       DevPathFromTextMedia       0000000000031a48 f   UefiDevicePathLib:DevicePathFromText.obj
 0001:00020a9c       DevPathFromTextFv          0000000000031a9c f   UefiDevicePathLib:DevicePathFromText.obj
 0001:00020af0       DevPathFromTextFvFile      0000000000031af0 f   UefiDevicePathLib:DevicePathFromText.obj
 0001:00020b44       DevPathFromTextRelativeOffsetRange 0000000000031b44 f   UefiDevicePathLib:DevicePathFromText.obj
 0001:00020bbc       DevPathFromTextRamDisk     0000000000031bbc f   UefiDevicePathLib:DevicePathFromText.obj
 0001:00020cb4       DevPathFromTextVirtualDisk 0000000000031cb4 f   UefiDevicePathLib:DevicePathFromText.obj
 0001:00020d9c       DevPathFromTextVirtualCd   0000000000031d9c f   UefiDevicePathLib:DevicePathFromText.obj
 0001:00020e84       DevPathFromTextPersistentVirtualDisk 0000000000031e84 f   UefiDevicePathLib:DevicePathFromText.obj
 0001:00020f6c       DevPathFromTextPersistentVirtualCd 0000000000031f6c f   UefiDevicePathLib:DevicePathFromText.obj
 0001:00021054       DevPathFromTextBbsPath     0000000000032054 f   UefiDevicePathLib:DevicePathFromText.obj
 0001:00021070       DevPathFromTextBBS         0000000000032070 f   UefiDevicePathLib:DevicePathFromText.obj
 0001:00021214       DevPathFromTextSata        0000000000032214 f   UefiDevicePathLib:DevicePathFromText.obj
 0001:000212cc       UefiDevicePathLibConvertTextToDeviceNode 00000000000322cc f   UefiDevicePathLib:DevicePathFromText.obj
 0001:00021404       UefiDevicePathLibConvertTextToDevicePath 0000000000032404 f   UefiDevicePathLib:DevicePathFromText.obj
 0001:000215e4       UefiDevicePathLibCatPrint  00000000000325e4 f   UefiDevicePathLib:DevicePathToText.obj
 0001:00021744       DevPathToTextPci           0000000000032744 f   UefiDevicePathLib:DevicePathToText.obj
 0001:00021794       DevPathToTextPccard        0000000000032794 f   UefiDevicePathLib:DevicePathToText.obj
 0001:000217d8       DevPathToTextMemMap        00000000000327d8 f   UefiDevicePathLib:DevicePathToText.obj
 0001:00021830       DevPathToTextVendor        0000000000032830 f   UefiDevicePathLib:DevicePathToText.obj
 0001:00021d50       DevPathToTextController    0000000000032d50 f   UefiDevicePathLib:DevicePathToText.obj
 0001:00021d94       DevPathToTextBmc           0000000000032d94 f   UefiDevicePathLib:DevicePathToText.obj
 0001:00021dec       DevPathToTextAcpi          0000000000032dec f   UefiDevicePathLib:DevicePathToText.obj
 0001:00021f84       DevPathToTextAcpiEx        0000000000032f84 f   UefiDevicePathLib:DevicePathToText.obj
 0001:00022568       DevPathToTextAcpiAdr       0000000000033568 f   UefiDevicePathLib:DevicePathToText.obj
 0001:0002262c       DevPathToTextAtapi         000000000003362c f   UefiDevicePathLib:DevicePathToText.obj
 0001:000226f4       DevPathToTextScsi          00000000000336f4 f   UefiDevicePathLib:DevicePathToText.obj
 0001:00022744       DevPathToTextFibre         0000000000033744 f   UefiDevicePathLib:DevicePathToText.obj
 0001:00022790       DevPathToTextFibreEx       0000000000033790 f   UefiDevicePathLib:DevicePathToText.obj
 0001:00022880       DevPathToTextSasEx         0000000000033880 f   UefiDevicePathLib:DevicePathToText.obj
 0001:00022afc       DevPathToTextNVMe          0000000000033afc f   UefiDevicePathLib:DevicePathToText.obj
 0001:00022c14       DevPathToTextUfs           0000000000033c14 f   UefiDevicePathLib:DevicePathToText.obj
 0001:00022c64       DevPathToTextSd            0000000000033c64 f   UefiDevicePathLib:DevicePathToText.obj
 0001:00022ca8       DevPathToTextEmmc          0000000000033ca8 f   UefiDevicePathLib:DevicePathToText.obj
 0001:00022cec       DevPathToText1394          0000000000033cec f   UefiDevicePathLib:DevicePathToText.obj
 0001:00022d30       DevPathToTextUsb           0000000000033d30 f   UefiDevicePathLib:DevicePathToText.obj
 0001:00022d80       DevPathToTextUsbWWID       0000000000033d80 f   UefiDevicePathLib:DevicePathToText.obj
 0001:00022eb8       DevPathToTextLogicalUnit   0000000000033eb8 f   UefiDevicePathLib:DevicePathToText.obj
 0001:00022efc       DevPathToTextUsbClass      0000000000033efc f   UefiDevicePathLib:DevicePathToText.obj
 0001:00023264       DevPathToTextSata          0000000000034264 f   UefiDevicePathLib:DevicePathToText.obj
 0001:000232c4       DevPathToTextI2O           00000000000342c4 f   UefiDevicePathLib:DevicePathToText.obj
 0001:00023308       DevPathToTextMacAddr       0000000000034308 f   UefiDevicePathLib:DevicePathToText.obj
 0001:000233d8       CatNetworkProtocol         00000000000343d8 f   UefiDevicePathLib:DevicePathToText.obj
 0001:00023440       CatIPv4Address             0000000000034440 f   UefiDevicePathLib:DevicePathToText.obj
 0001:000234bc       CatIPv6Address             00000000000344bc f   UefiDevicePathLib:DevicePathToText.obj
 0001:000236d4       DevPathToTextIPv4          00000000000346d4 f   UefiDevicePathLib:DevicePathToText.obj
 0001:00023828       DevPathToTextIPv6          0000000000034828 f   UefiDevicePathLib:DevicePathToText.obj
 0001:00023978       DevPathToTextInfiniBand    0000000000034978 f   UefiDevicePathLib:DevicePathToText.obj
 0001:000239f0       DevPathToTextUart          00000000000349f0 f   UefiDevicePathLib:DevicePathToText.obj
 0001:00023b94       DevPathToTextiSCSI         0000000000034b94 f   UefiDevicePathLib:DevicePathToText.obj
 0001:00023d60       DevPathToTextVlan          0000000000034d60 f   UefiDevicePathLib:DevicePathToText.obj
 0001:00023da4       DevPathToTextBluetooth     0000000000034da4 f   UefiDevicePathLib:DevicePathToText.obj
 0001:00023e6c       DevPathToTextWiFi          0000000000034e6c f   UefiDevicePathLib:DevicePathToText.obj
 0001:00023f08       DevPathToTextBluetoothLE   0000000000034f08 f   UefiDevicePathLib:DevicePathToText.obj
 0001:00023fe4       DevPathToTextDns           0000000000034fe4 f   UefiDevicePathLib:DevicePathToText.obj
 0001:000240d8       DevPathToTextUri           00000000000350d8 f   UefiDevicePathLib:DevicePathToText.obj
 0001:000241b4       DevPathToTextHardDrive     00000000000351b4 f   UefiDevicePathLib:DevicePathToText.obj
 0001:000242d0       DevPathToTextCDROM         00000000000352d0 f   UefiDevicePathLib:DevicePathToText.obj
 0001:00024350       DevPathToTextFilePath      0000000000035350 f   UefiDevicePathLib:DevicePathToText.obj
 0001:00024394       DevPathToTextMediaProtocol 0000000000035394 f   UefiDevicePathLib:DevicePathToText.obj
 0001:000243d8       DevPathToTextFv            00000000000353d8 f   UefiDevicePathLib:DevicePathToText.obj
 0001:0002441c       DevPathToTextFvFile        000000000003541c f   UefiDevicePathLib:DevicePathToText.obj
 0001:00024460       DevPathRelativeOffsetRange 0000000000035460 f   UefiDevicePathLib:DevicePathToText.obj
 0001:000244ac       DevPathToTextRamDisk       00000000000354ac f   UefiDevicePathLib:DevicePathToText.obj
 0001:000248b0       DevPathToTextBBS           00000000000358b0 f   UefiDevicePathLib:DevicePathToText.obj
 0001:000249fc       DevPathToTextEndInstance   00000000000359fc f   UefiDevicePathLib:DevicePathToText.obj
 0001:00024a2c       DevPathToTextNodeGeneric   0000000000035a2c f   UefiDevicePathLib:DevicePathToText.obj
 0001:00024bb0       UefiDevicePathLibConvertDevicePathToText 0000000000035bb0 f   UefiDevicePathLib:DevicePathToText.obj
 0001:00024d4c       DevicePathFromHandle       0000000000035d4c f   UefiDevicePathLib:DevicePathUtilitiesDxeSmm.obj
 0001:00024d9c       IsDevicePathValid          0000000000035d9c f   UefiDevicePathLib:DevicePathUtilities.obj
 0001:00024f08       DevicePathType             0000000000035f08 f   UefiDevicePathLib:DevicePathUtilities.obj
 0001:00024f50       DevicePathSubType          0000000000035f50 f   UefiDevicePathLib:DevicePathUtilities.obj
 0001:00024f98       DevicePathNodeLength       0000000000035f98 f   UefiDevicePathLib:DevicePathUtilities.obj
 0001:00024ff8       NextDevicePathNode         0000000000035ff8 f   UefiDevicePathLib:DevicePathUtilities.obj
 0001:00025050       IsDevicePathEndType        0000000000036050 f   UefiDevicePathLib:DevicePathUtilities.obj
 0001:000250b4       IsDevicePathEnd            00000000000360b4 f   UefiDevicePathLib:DevicePathUtilities.obj
 0001:0002512c       SetDevicePathNodeLength    000000000003612c f   UefiDevicePathLib:DevicePathUtilities.obj
 0001:000251d0       SetDevicePathEndNode       00000000000361d0 f   UefiDevicePathLib:DevicePathUtilities.obj
 0001:00025228       UefiDevicePathLibGetDevicePathSize 0000000000036228 f   UefiDevicePathLib:DevicePathUtilities.obj
 0001:000252b0       UefiDevicePathLibDuplicateDevicePath 00000000000362b0 f   UefiDevicePathLib:DevicePathUtilities.obj
 0001:000252e8       UefiDevicePathLibAppendDevicePath 00000000000362e8 f   UefiDevicePathLib:DevicePathUtilities.obj
 0001:00025408       UefiDevicePathLibAppendDevicePathNode 0000000000036408 f   UefiDevicePathLib:DevicePathUtilities.obj
 0001:000254d8       UefiDevicePathLibGetNextDevicePathInstance 00000000000364d8 f   UefiDevicePathLib:DevicePathUtilities.obj
 0001:0002561c       UefiDevicePathLibCreateDeviceNode 000000000003661c f   UefiDevicePathLib:DevicePathUtilities.obj
 0001:00025688       FileDevicePath             0000000000036688 f   UefiDevicePathLib:DevicePathUtilities.obj
 0001:00025770       InternalAllocatePool       0000000000036770 f   UefiMemoryAllocationLib:MemoryAllocationLib.obj
 0001:000257c0       AllocatePool               00000000000367c0 f   UefiMemoryAllocationLib:MemoryAllocationLib.obj
 0001:000257e0       InternalAllocateZeroPool   00000000000367e0 f   UefiMemoryAllocationLib:MemoryAllocationLib.obj
 0001:00025828       AllocateZeroPool           0000000000036828 f   UefiMemoryAllocationLib:MemoryAllocationLib.obj
 0001:00025848       InternalAllocateCopyPool   0000000000036848 f   UefiMemoryAllocationLib:MemoryAllocationLib.obj
 0001:0002590c       AllocateCopyPool           000000000003690c f   UefiMemoryAllocationLib:MemoryAllocationLib.obj
 0001:00025934       InternalReallocatePool     0000000000036934 f   UefiMemoryAllocationLib:MemoryAllocationLib.obj
 0001:000259b8       ReallocatePool             00000000000369b8 f   UefiMemoryAllocationLib:MemoryAllocationLib.obj
 0001:000259ec       FreePool                   00000000000369ec f   UefiMemoryAllocationLib:MemoryAllocationLib.obj
 0001:00025a88       DebugPrint                 0000000000036a88 f   PeiDxeDebugLibReportStatusCode:DebugLib.obj
 0001:00025acc       DebugPrintMarker           0000000000036acc f   PeiDxeDebugLibReportStatusCode:DebugLib.obj
 0001:00026274       DebugVPrint                0000000000037274 f   PeiDxeDebugLibReportStatusCode:DebugLib.obj
 0001:000262a4       DebugAssert                00000000000372a4 f   PeiDxeDebugLibReportStatusCode:DebugLib.obj
 0001:00026640       DebugAssertEnabled         0000000000037640 f   PeiDxeDebugLibReportStatusCode:DebugLib.obj
 0001:00026664       DebugPrintEnabled          0000000000037664 f   PeiDxeDebugLibReportStatusCode:DebugLib.obj
 0001:00026688       DebugCodeEnabled           0000000000037688 f   PeiDxeDebugLibReportStatusCode:DebugLib.obj
 0001:000266ac       DebugPrintLevelEnabled     00000000000376ac f   PeiDxeDebugLibReportStatusCode:DebugLib.obj
 0001:000266e0       MemoryFence                00000000000376e0 f   BaseLib:X86MemoryFence.obj
 0001:000266e4       ReadUnaligned16            00000000000376e4 f   BaseLib:Unaligned.obj
 0001:0002672c       WriteUnaligned16           000000000003772c f   BaseLib:Unaligned.obj
 0001:00026784       ReadUnaligned32            0000000000037784 f   BaseLib:Unaligned.obj
 0001:000267cc       WriteUnaligned32           00000000000377cc f   BaseLib:Unaligned.obj
 0001:00026820       ReadUnaligned64            0000000000037820 f   BaseLib:Unaligned.obj
 0001:00026868       WriteUnaligned64           0000000000037868 f   BaseLib:Unaligned.obj
 0001:000268c0       InternalMathLShiftU64      00000000000378c0 f   BaseLib:Math64.obj
 0001:000268dc       InternalMathRShiftU64      00000000000378dc f   BaseLib:Math64.obj
 0001:000268f8       InternalMathSwapBytes64    00000000000378f8 f   BaseLib:Math64.obj
 0001:0002693c       InternalMathMultU64x32     000000000003793c f   BaseLib:Math64.obj
 0001:00026958       InternalMathMultU64x64     0000000000037958 f   BaseLib:Math64.obj
 0001:00026970       InternalMathDivU64x32      0000000000037970 f   BaseLib:Math64.obj
 0001:00026998       InternalMathModU64x32      0000000000037998 f   BaseLib:Math64.obj
 0001:000269c4       InternalMathDivRemU64x32   00000000000379c4 f   BaseLib:Math64.obj
 0001:00026a1c       InternalMathDivRemU64x64   0000000000037a1c f   BaseLib:Math64.obj
 0001:00026a58       CpuBreakpoint              0000000000037a58 f   BaseLib:CpuBreakpoint.obj
 0001:00026a5c       PathRemoveLastItem         0000000000037a5c f   BaseLib:FilePaths.obj
 0001:00026b10       PathCleanUpDirectories     0000000000037b10 f   BaseLib:FilePaths.obj
 0001:00026d0c       StrLen                     0000000000037d0c f   BaseLib:String.obj
 0001:00026e00       StrSize                    0000000000037e00 f   BaseLib:String.obj
 0001:00026e20       StrCmp                     0000000000037e20 f   BaseLib:String.obj
 0001:00026ef8       StrnCmp                    0000000000037ef8 f   BaseLib:String.obj
 0001:00027044       StrStr                     0000000000038044 f   BaseLib:String.obj
 0001:0002717c       ShellIsDecimalDigitCharacter 000000000003817c f   UefiShellLib:UefiShellLib.obj
 0001:0002717c       InternalIsDecimalDigitCharacter 000000000003817c f   BaseLib:String.obj
 0001:000271ac       CharToUpper                00000000000381ac f   BaseLib:String.obj
 0001:000271d8       InternalShellHexCharToUintn 00000000000381d8 f   UefiShellLib:UefiShellLib.obj
 0001:000271d8       InternalHexCharToUintn     00000000000381d8 f   BaseLib:String.obj
 0001:00027218       InternalIsHexaDecimalDigitCharacter 0000000000038218 f   BaseLib:String.obj
 0001:00027270       StrDecimalToUintn          0000000000038270 f   BaseLib:String.obj
 0001:000272b4       StrDecimalToUint64         00000000000382b4 f   BaseLib:String.obj
 0001:000272f8       StrHexToUintn              00000000000382f8 f   BaseLib:String.obj
 0001:0002733c       StrHexToUint64             000000000003833c f   BaseLib:String.obj
 0001:00027380       AsciiStrLen                0000000000038380 f   BaseLib:String.obj
 0001:00027438       AsciiStrSize               0000000000038438 f   BaseLib:String.obj
 0001:00027454       AsciiStrnCmp               0000000000038454 f   BaseLib:String.obj
 0001:000275a0       InternalSafeStringIsOverlap 00000000000385a0 f   BaseLib:SafeString.obj
 0001:00027604       InternalSafeStringNoStrOverlap 0000000000038604 f   BaseLib:SafeString.obj
 0001:00027664       InternalSafeStringNoAsciiStrOverlap 0000000000038664 f   BaseLib:SafeString.obj
 0001:000276b8       StrnLenS                   00000000000386b8 f   BaseLib:SafeString.obj
 0001:0002775c       StrnSizeS                  000000000003875c f   BaseLib:SafeString.obj
 0001:00027790       StrCpyS                    0000000000038790 f   BaseLib:SafeString.obj
 0001:00027c00       StrnCpyS                   0000000000038c00 f   BaseLib:SafeString.obj
 0001:00028164       StrCatS                    0000000000039164 f   BaseLib:SafeString.obj
 0001:000286b4       StrnCatS                   00000000000396b4 f   BaseLib:SafeString.obj
 0001:00028d10       StrDecimalToUintnS         0000000000039d10 f   BaseLib:SafeString.obj
 0001:0002905c       StrDecimalToUint64S        000000000003a05c f   BaseLib:SafeString.obj
 0001:000293b4       StrHexToUintnS             000000000003a3b4 f   BaseLib:SafeString.obj
 0001:00029774       StrHexToUint64S            000000000003a774 f   BaseLib:SafeString.obj
 0001:00029b44       StrToIpv6Address           000000000003ab44 f   BaseLib:SafeString.obj
 0001:0002a0b4       StrToIpv4Address           000000000003b0b4 f   BaseLib:SafeString.obj
 0001:0002a3c8       StrToGuid                  000000000003b3c8 f   BaseLib:SafeString.obj
 0001:0002a76c       StrHexToBytes              000000000003b76c f   BaseLib:SafeString.obj
 0001:0002abf0       AsciiStrnLenS              000000000003bbf0 f   BaseLib:SafeString.obj
 0001:0002ac5c       AsciiStrnCpyS              000000000003bc5c f   BaseLib:SafeString.obj
 0001:0002b14c       UnicodeStrToAsciiStrS      000000000003c14c f   BaseLib:SafeString.obj
 0001:0002b65c       AsciiStrToUnicodeStrS      000000000003c65c f   BaseLib:SafeString.obj
 0001:0002bb38       InternalBaseLibIsListValid 000000000003cb38 f   BaseLib:LinkedList.obj
 0001:0002bc54       IsNodeInList               000000000003cc54 f   BaseLib:LinkedList.obj
 0001:0002bd54       InitializeListHead         000000000003cd54 f   BaseLib:LinkedList.obj
 0001:0002bdb4       InsertHeadList             000000000003cdb4 f   BaseLib:LinkedList.obj
 0001:0002be9c       InsertTailList             000000000003ce9c f   BaseLib:LinkedList.obj
 0001:0002bf84       GetFirstNode               000000000003cf84 f   BaseLib:LinkedList.obj
 0001:0002bfd8       GetNextNode                000000000003cfd8 f   BaseLib:LinkedList.obj
 0001:0002c088       GetPreviousNode            000000000003d088 f   BaseLib:LinkedList.obj
 0001:0002c138       IsListEmpty                000000000003d138 f   BaseLib:LinkedList.obj
 0001:0002c1a0       IsNull                     000000000003d1a0 f   BaseLib:LinkedList.obj
 0001:0002c264       IsNodeAtEnd                000000000003d264 f   BaseLib:LinkedList.obj
 0001:0002c340       SwapListEntries            000000000003d340 f   BaseLib:LinkedList.obj
 0001:0002c468       RemoveEntryList            000000000003d468 f   BaseLib:LinkedList.obj
 0001:0002c4e4       CpuDeadLoop                000000000003d4e4 f   BaseLib:CpuDeadLoop.obj
 0001:0002c514       DivU64x32                  000000000003d514 f   BaseLib:DivU64x32.obj
 0001:0002c568       DivU64x32Remainder         000000000003d568 f   BaseLib:DivU64x32Remainder.obj
 0001:0002c5c4       DivU64x64Remainder         000000000003d5c4 f   BaseLib:DivU64x64Remainder.obj
 0001:0002c624       LShiftU64                  000000000003d624 f   BaseLib:LShiftU64.obj
 0001:0002c678       ModU64x32                  000000000003d678 f   BaseLib:ModU64x32.obj
 0001:0002c6cc       MultU64x32                 000000000003d6cc f   BaseLib:MultU64x32.obj
 0001:0002c6f8       MultU64x64                 000000000003d6f8 f   BaseLib:MultU64x64.obj
 0001:0002c724       RShiftU64                  000000000003d724 f   BaseLib:RShiftU64.obj
 0001:0002c778       QuickSort                  000000000003d778 f   BaseLib:QuickSort.obj
 0001:0002ca88       InternalAssertJumpBuffer   000000000003da88 f   BaseLib:SetJump.obj
 0001:0002cb00       SwapBytes16                000000000003db00 f   BaseLib:SwapBytes16.obj
 0001:0002cb18       SwapBytes32                000000000003db18 f   BaseLib:SwapBytes32.obj
 0001:0002cb58       SwapBytes64                000000000003db58 f   BaseLib:SwapBytes64.obj
 0001:0002cb70       UefiBootServicesTableLibConstructor 000000000003db70 f   UefiBootServicesTableLib:UefiBootServicesTableLib.obj
 0001:0002cc4c       UefiRuntimeServicesTableLibConstructor 000000000003dc4c f   UefiRuntimeServicesTableLib:UefiRuntimeServicesTableLib.obj
 0001:0002cca8       EfiGetSystemConfigurationTable 000000000003dca8 f   UefiLib:UefiLib.obj
 0001:0002cdb4       GetVariable2               000000000003ddb4 f   UefiLib:UefiLib.obj
 0001:0002cf58       GetEfiGlobalVariable2      000000000003df58 f   UefiLib:UefiLib.obj
 0001:0002cf8c       GetBestLanguage            000000000003df8c f   UefiLib:UefiLib.obj
 0001:0002d234       EfiOpenFileByDevicePath    000000000003e234 f   UefiLib:UefiLib.obj
 0001:0002d548       EfiGetNameGuidFromFwVolDevicePathNode 000000000003e548 f   UefiLib:UefiNotTiano.obj
 0001:0002d5c0       InternalPrint              000000000003e5c0 f   UefiLib:UefiLibPrint.obj
 0001:0002d744       Print                      000000000003e744 f   UefiLib:UefiLibPrint.obj
 0001:0002d798       CatVSPrint                 000000000003e798 f   UefiLib:UefiLibPrint.obj
 0001:0002d8e4       CatSPrint                  000000000003e8e4 f   UefiLib:UefiLibPrint.obj
 0001:0002d934       UefiHiiServicesLibConstructor 000000000003e934 f   UefiHiiServicesLib:UefiHiiServicesLib.obj
 0001:0002db58       GetHobList                 000000000003eb58 f   DxeHobLib:HobLib.obj
 0001:0002dc3c       HobLibConstructor          000000000003ec3c f   DxeHobLib:HobLib.obj
 0001:0002dc58       PerformQuickSort           000000000003ec58 f   UefiSortLib:UefiSortLib.obj
 0001:0002dd48       DevicePathCompare          000000000003ed48 f   UefiSortLib:UefiSortLib.obj
 0001:0002defc       StringNoCaseCompare        000000000003eefc f   UefiSortLib:UefiSortLib.obj
 0001:0002dfdc       StringCompare              000000000003efdc f   UefiSortLib:UefiSortLib.obj
 0001:0002e004       HiiGetSupportedLanguages   000000000003f004 f   UefiHiiLib:HiiLanguage.obj
 0001:0002e0ec       HiiSetString               000000000003f0ec f   UefiHiiLib:HiiString.obj
 0001:0002e338       HiiGetString               000000000003f338 f   UefiHiiLib:HiiString.obj
 0001:0002e368       HiiGetStringEx             000000000003f368 f   UefiHiiLib:HiiString.obj
 0001:0002e658       HiiAddPackages             000000000003f658 f   UefiHiiLib:HiiLib.obj
 0001:0002e850       HiiRemovePackages          000000000003f850 f   UefiHiiLib:HiiLib.obj
 0001:0002e928       FileHandleGetInfo          000000000003f928 f   UefiFileHandleLib:UefiFileHandleLib.obj
 0001:0002e9ec       FileHandleSetInfo          000000000003f9ec f   UefiFileHandleLib:UefiFileHandleLib.obj
 0001:0002ea3c       FileHandleRead             000000000003fa3c f   UefiFileHandleLib:UefiFileHandleLib.obj
 0001:0002ea80       FileHandleWrite            000000000003fa80 f   UefiFileHandleLib:UefiFileHandleLib.obj
 0001:0002eac4       FileHandleClose            000000000003fac4 f   UefiFileHandleLib:UefiFileHandleLib.obj
 0001:0002eb00       FileHandleDelete           000000000003fb00 f   UefiFileHandleLib:UefiFileHandleLib.obj
 0001:0002eb3c       FileHandleSetPosition      000000000003fb3c f   UefiFileHandleLib:UefiFileHandleLib.obj
 0001:0002eb78       FileHandleGetPosition      000000000003fb78 f   UefiFileHandleLib:UefiFileHandleLib.obj
 0001:0002ebbc       FileHandleFlush            000000000003fbbc f   UefiFileHandleLib:UefiFileHandleLib.obj
 0001:0002ebec       FileHandleIsDirectory      000000000003fbec f   UefiFileHandleLib:UefiFileHandleLib.obj
 0001:0002ec68       FileHandleFindFirstFile    000000000003fc68 f   UefiFileHandleLib:UefiFileHandleLib.obj
 0001:0002ede4       FileHandleFindNextFile     000000000003fde4 f   UefiFileHandleLib:UefiFileHandleLib.obj
 0001:0002eeb4       FileHandleGetSize          000000000003feb4 f   UefiFileHandleLib:UefiFileHandleLib.obj
 0001:0002ef24       FileHandleSetSize          000000000003ff24 f   UefiFileHandleLib:UefiFileHandleLib.obj
 0001:0002efa0       StrnCatGrowLeft            000000000003ffa0 f   UefiFileHandleLib:UefiFileHandleLib.obj
 0001:0002f194       FileHandleGetFileName      0000000000040194 f   UefiFileHandleLib:UefiFileHandleLib.obj
 0001:0002f5a4       PeCoffLoaderGetPdbPointer  00000000000405a4 f   BasePeCoffGetEntryPointLib:PeCoffGetEntryPoint.obj
 0001:0002f968       CreateBasicVariablePolicy  0000000000040968 f   VariablePolicyHelperLib:VariablePolicyHelperLib.obj
 0001:0002fb44       RegisterBasicVariablePolicy 0000000000040b44 f   VariablePolicyHelperLib:VariablePolicyHelperLib.obj
 0001:0002fc08       DxeServicesTableLibConstructor 0000000000040c08 f   DxeServicesTableLib:DxeServicesTableLib.obj
 0001:0002fce8       OrderedCollectionUserStruct 0000000000040ce8 f   BaseOrderedCollectionRedBlackTreeLib:BaseOrderedCollectionRedBlackTreeLib.obj
 0001:0002fcf8       OrderedCollectionInit      0000000000040cf8 f   BaseOrderedCollectionRedBlackTreeLib:BaseOrderedCollectionRedBlackTreeLib.obj
 0001:0002fd68       OrderedCollectionIsEmpty   0000000000040d68 f   BaseOrderedCollectionRedBlackTreeLib:BaseOrderedCollectionRedBlackTreeLib.obj
 0001:0002fd90       OrderedCollectionUninit    0000000000040d90 f   BaseOrderedCollectionRedBlackTreeLib:BaseOrderedCollectionRedBlackTreeLib.obj
 0001:0002fde4       OrderedCollectionFind      0000000000040de4 f   BaseOrderedCollectionRedBlackTreeLib:BaseOrderedCollectionRedBlackTreeLib.obj
 0001:0002fe68       OrderedCollectionMin       0000000000040e68 f   BaseOrderedCollectionRedBlackTreeLib:BaseOrderedCollectionRedBlackTreeLib.obj
 0001:0002feac       OrderedCollectionMax       0000000000040eac f   BaseOrderedCollectionRedBlackTreeLib:BaseOrderedCollectionRedBlackTreeLib.obj
 0001:0002fef0       OrderedCollectionNext      0000000000040ef0 f   BaseOrderedCollectionRedBlackTreeLib:BaseOrderedCollectionRedBlackTreeLib.obj
 0001:0002ff88       OrderedCollectionPrev      0000000000040f88 f   BaseOrderedCollectionRedBlackTreeLib:BaseOrderedCollectionRedBlackTreeLib.obj
 0001:00030020       RedBlackTreeRotateRight    0000000000041020 f   BaseOrderedCollectionRedBlackTreeLib:BaseOrderedCollectionRedBlackTreeLib.obj
 0001:000300e8       RedBlackTreeRotateLeft     00000000000410e8 f   BaseOrderedCollectionRedBlackTreeLib:BaseOrderedCollectionRedBlackTreeLib.obj
 0001:000301b0       OrderedCollectionInsert    00000000000411b0 f   BaseOrderedCollectionRedBlackTreeLib:BaseOrderedCollectionRedBlackTreeLib.obj
 0001:000305e4       NodeIsNullOrBlack          00000000000415e4 f   BaseOrderedCollectionRedBlackTreeLib:BaseOrderedCollectionRedBlackTreeLib.obj
 0001:00030614       OrderedCollectionDelete    0000000000041614 f   BaseOrderedCollectionRedBlackTreeLib:BaseOrderedCollectionRedBlackTreeLib.obj
 0001:00030e78       RedBlackTreeRecursiveCheck 0000000000041e78 f   BaseOrderedCollectionRedBlackTreeLib:BaseOrderedCollectionRedBlackTreeLib.obj
 0001:00030fe4       RedBlackTreeValidate       0000000000041fe4 f   BaseOrderedCollectionRedBlackTreeLib:BaseOrderedCollectionRedBlackTreeLib.obj
 0001:00031284       FullyQualifyPath           0000000000042284 f   UefiShellLib:UefiShellLib.obj
 0001:00031514       ShellIsHexaDecimalDigitCharacter 0000000000042514 f   UefiShellLib:UefiShellLib.obj
 0001:0003156c       ShellFindSE2               000000000004256c f   UefiShellLib:UefiShellLib.obj
 0001:00031798       ShellLibConstructorWorker  0000000000042798 f   UefiShellLib:UefiShellLib.obj
 0001:00031b14       ShellLibConstructor        0000000000042b14 f   UefiShellLib:UefiShellLib.obj
 0001:00031b88       ShellLibDestructor         0000000000042b88 f   UefiShellLib:UefiShellLib.obj
 0001:00031cfc       ShellInitialize            0000000000042cfc f   UefiShellLib:UefiShellLib.obj
 0001:00031dbc       ShellGetFileInfo           0000000000042dbc f   UefiShellLib:UefiShellLib.obj
 0001:00031dd8       ShellSetFileInfo           0000000000042dd8 f   UefiShellLib:UefiShellLib.obj
 0001:00031dfc       ShellOpenFileByDevicePath  0000000000042dfc f   UefiShellLib:UefiShellLib.obj
 0001:00031ee4       ShellOpenFileByName        0000000000042ee4 f   UefiShellLib:UefiShellLib.obj
 0001:00032274       ShellCreateDirectory       0000000000043274 f   UefiShellLib:UefiShellLib.obj
 0001:000322d0       ShellReadFile              00000000000432d0 f   UefiShellLib:UefiShellLib.obj
 0001:00032300       ShellWriteFile             0000000000043300 f   UefiShellLib:UefiShellLib.obj
 0001:00032330       ShellCloseFile             0000000000043330 f   UefiShellLib:UefiShellLib.obj
 0001:0003234c       ShellDeleteFile            000000000004334c f   UefiShellLib:UefiShellLib.obj
 0001:00032368       ShellSetFilePosition       0000000000043368 f   UefiShellLib:UefiShellLib.obj
 0001:0003238c       ShellGetFilePosition       000000000004338c f   UefiShellLib:UefiShellLib.obj
 0001:000323b0       ShellGetFileSize           00000000000433b0 f   UefiShellLib:UefiShellLib.obj
 0001:000323d4       ShellGetExecutionBreakFlag 00000000000433d4 f   UefiShellLib:UefiShellLib.obj
 0001:00032428       ShellGetEnvironmentVariable 0000000000043428 f   UefiShellLib:UefiShellLib.obj
 0001:00032470       ShellSetEnvironmentVariable 0000000000043470 f   UefiShellLib:UefiShellLib.obj
 0001:000324b8       ShellGetCurrentDir         00000000000434b8 f   UefiShellLib:UefiShellLib.obj
 0001:00032500       ShellSetPageBreakMode      0000000000043500 f   UefiShellLib:UefiShellLib.obj
 0001:00032584       InternalShellConvertFileListType 0000000000043584 f   UefiShellLib:UefiShellLib.obj
 0001:0003295c       ShellOpenFileMetaArg       000000000004395c f   UefiShellLib:UefiShellLib.obj
 0001:00032c80       ShellCloseFileMetaArg      0000000000043c80 f   UefiShellLib:UefiShellLib.obj
 0001:00032dd0       ShellFindFilePath          0000000000043dd0 f   UefiShellLib:UefiShellLib.obj
 0001:0003326c       ShellFindFilePathEx        000000000004426c f   UefiShellLib:UefiShellLib.obj
 0001:00033448       InternalIsOnCheckList      0000000000044448 f   UefiShellLib:UefiShellLib.obj
 0001:00033654       InternalIsFlag             0000000000044654 f   UefiShellLib:UefiShellLib.obj
 0001:00033748       InternalCommandLineParse   0000000000044748 f   UefiShellLib:UefiShellLib.obj
 0001:00033f04       ShellCommandLineParseEx    0000000000044f04 f   UefiShellLib:UefiShellLib.obj
 0001:00034048       ShellCommandLineFreeVarList 0000000000045048 f   UefiShellLib:UefiShellLib.obj
 0001:000340e8       ShellCommandLineGetFlag    00000000000450e8 f   UefiShellLib:UefiShellLib.obj
 0001:00034230       ShellCommandLineGetValue   0000000000045230 f   UefiShellLib:UefiShellLib.obj
 0001:000343a8       ShellCommandLineGetRawValue 00000000000453a8 f   UefiShellLib:UefiShellLib.obj
 0001:00034424       ShellCommandLineGetCount   0000000000045424 f   UefiShellLib:UefiShellLib.obj
 0001:000344a4       ShellCommandLineCheckDuplicate 00000000000454a4 f   UefiShellLib:UefiShellLib.obj
 0001:000345e8       ShellCopySearchAndReplace  00000000000455e8 f   UefiShellLib:UefiShellLib.obj
 0001:0003485c       InternalPrintTo            000000000004585c f   UefiShellLib:UefiShellLib.obj
 0001:0003494c       InternalShellPrintWorker   000000000004594c f   UefiShellLib:UefiShellLib.obj
 0001:0003514c       ShellPrintEx               000000000004614c f   UefiShellLib:UefiShellLib.obj
 0001:000351b0       ShellPrintHiiEx            00000000000461b0 f   UefiShellLib:UefiShellLib.obj
 0001:00035254       ShellIsDirectory           0000000000046254 f   UefiShellLib:UefiShellLib.obj
 0001:00035400       ShellIsFile                0000000000046400 f   UefiShellLib:UefiShellLib.obj
 0001:000354b0       ShellIsFileInPath          00000000000464b0 f   UefiShellLib:UefiShellLib.obj
 0001:0003551c       ShellStrToUintn            000000000004651c f   UefiShellLib:UefiShellLib.obj
 0001:00035584       StrnCatGrow                0000000000046584 f   UefiShellLib:UefiShellLib.obj
 0001:000357a0       ShellPromptForResponse     00000000000467a0 f   UefiShellLib:UefiShellLib.obj
 0001:000360c8       ShellPromptForResponseHii  00000000000470c8 f   UefiShellLib:UefiShellLib.obj
 0001:0003612c       InternalShellIsHexOrDecimalNumber 000000000004712c f   UefiShellLib:UefiShellLib.obj
 0001:000362b4       ShellFileExists            00000000000472b4 f   UefiShellLib:UefiShellLib.obj
 0001:0003633c       InternalShellStrHexToUint64 000000000004733c f   UefiShellLib:UefiShellLib.obj
 0001:000364e8       InternalShellStrDecimalToUint64 00000000000474e8 f   UefiShellLib:UefiShellLib.obj
 0001:00036658       ShellConvertStringToUint64 0000000000047658 f   UefiShellLib:UefiShellLib.obj
 0001:00036818       ShellIsHexOrDecimalNumber  0000000000047818 f   UefiShellLib:UefiShellLib.obj
 0001:0003685c       ShellFileHandleReturnLine  000000000004785c f   UefiShellLib:UefiShellLib.obj
 0001:0003695c       ShellFileHandleReadLine    000000000004795c f   UefiShellLib:UefiShellLib.obj
 0001:00036cfc       ShellPrintHelp             0000000000047cfc f   UefiShellLib:UefiShellLib.obj
 0001:00036e50       ShellDeleteFileByName      0000000000047e50 f   UefiShellLib:UefiShellLib.obj
 0001:00036eb4       InternalShellStripQuotes   0000000000047eb4 f   UefiShellLib:UefiShellLib.obj
 0001:00036f88       FindLoadedImageFileName    0000000000047f88 f   UefiHandleParsingLib:UefiHandleParsingLib.obj
 0001:0003707c       ConvertMemoryType          000000000004807c f   UefiHandleParsingLib:UefiHandleParsingLib.obj
 0001:00037310       ConvertPixelFormat         0000000000048310 f   UefiHandleParsingLib:UefiHandleParsingLib.obj
 0001:00037404       HandleParsingLibConstructor 0000000000048404 f   UefiHandleParsingLib:UefiHandleParsingLib.obj
 0001:00037428       HandleParsingHiiInit       0000000000048428 f   UefiHandleParsingLib:UefiHandleParsingLib.obj
 0001:00037494       HandleParsingLibDestructor 0000000000048494 f   UefiHandleParsingLib:UefiHandleParsingLib.obj
 0001:00037560       LoadedImageProtocolDumpInformation 0000000000048560 f   UefiHandleParsingLib:UefiHandleParsingLib.obj
 0001:00037974       GraphicsOutputProtocolDumpInformation 0000000000048974 f   UefiHandleParsingLib:UefiHandleParsingLib.obj
 0001:00037f78       EdidDiscoveredProtocolDumpInformation 0000000000048f78 f   UefiHandleParsingLib:UefiHandleParsingLib.obj
 0001:00038138       EdidActiveProtocolDumpInformation 0000000000049138 f   UefiHandleParsingLib:UefiHandleParsingLib.obj
 0001:000382f8       PciRootBridgeIoDumpInformation 00000000000492f8 f   UefiHandleParsingLib:UefiHandleParsingLib.obj
 0001:000387d8       TxtOutProtocolDumpInformation 00000000000497d8 f   UefiHandleParsingLib:UefiHandleParsingLib.obj
 0001:00038b68       DriverEfiVersionProtocolDumpInformation 0000000000049b68 f   UefiHandleParsingLib:UefiHandleParsingLib.obj
 0001:00038c58       ConvertDevicePathToShortText 0000000000049c58 f   UefiHandleParsingLib:UefiHandleParsingLib.obj
 0001:00038e98       DevicePathProtocolDumpInformation 0000000000049e98 f   UefiHandleParsingLib:UefiHandleParsingLib.obj
 0001:00038ec0       LoadedImageDevicePathProtocolDumpInformation 0000000000049ec0 f   UefiHandleParsingLib:UefiHandleParsingLib.obj
 0001:00038ee8       BusSpecificDriverOverrideProtocolDumpInformation 0000000000049ee8 f   UefiHandleParsingLib:UefiHandleParsingLib.obj
 0001:000390e4       BlockIoProtocolDumpInformation 000000000004a0e4 f   UefiHandleParsingLib:UefiHandleParsingLib.obj
 0001:00039378       DebugSupportProtocolDumpInformation 000000000004a378 f   UefiHandleParsingLib:UefiHandleParsingLib.obj
 0001:0003954c       PciIoProtocolDumpInformation 000000000004a54c f   UefiHandleParsingLib:UefiHandleParsingLib.obj
 0001:00039854       UsbIoProtocolDumpInformation 000000000004a854 f   UefiHandleParsingLib:UefiHandleParsingLib.obj
 0001:00039978       AdapterInformationDumpInformation 000000000004a978 f   UefiHandleParsingLib:UefiHandleParsingLib.obj
 0001:0003a494       FirmwareManagementDumpInformation 000000000004b494 f   UefiHandleParsingLib:UefiHandleParsingLib.obj
 0001:0003b9b4       PartitionInfoProtocolDumpInformation 000000000004c9b4 f   UefiHandleParsingLib:UefiHandleParsingLib.obj
 0001:0003bb88       InternalShellGetNodeFromGuid 000000000004cb88 f   UefiHandleParsingLib:UefiHandleParsingLib.obj
 0001:0003bcec       InsertNewGuidNameMapping   000000000004ccec f   UefiHandleParsingLib:UefiHandleParsingLib.obj
 0001:0003be5c       AddNewGuidNameMapping      000000000004ce5c f   UefiHandleParsingLib:UefiHandleParsingLib.obj
 0001:0003bef4       GetStringNameFromGuid      000000000004cef4 f   UefiHandleParsingLib:UefiHandleParsingLib.obj
 0001:0003bf40       GetProtocolInformationDump 000000000004cf40 f   UefiHandleParsingLib:UefiHandleParsingLib.obj
 0001:0003c008       GetGuidFromStringName      000000000004d008 f   UefiHandleParsingLib:UefiHandleParsingLib.obj
 0001:0003c2f4       GetBestLanguageForDriver   000000000004d2f4 f   UefiHandleParsingLib:UefiHandleParsingLib.obj
 0001:0003c3d8       GetStringNameFromHandle    000000000004d3d8 f   UefiHandleParsingLib:UefiHandleParsingLib.obj
 0001:0003c578       InternalShellInitHandleList 000000000004d578 f   UefiHandleParsingLib:UefiHandleParsingLib.obj
 0001:0003c6f8       ConvertHandleToHandleIndex 000000000004d6f8 f   UefiHandleParsingLib:UefiHandleParsingLib.obj
 0001:0003c87c       ConvertHandleIndexToHandle 000000000004d87c f   UefiHandleParsingLib:UefiHandleParsingLib.obj
 0001:0003c968       ParseHandleDatabaseByRelationshipWithType 000000000004d968 f   UefiHandleParsingLib:UefiHandleParsingLib.obj
 0001:0003d700       ParseHandleDatabaseByRelationship 000000000004e700 f   UefiHandleParsingLib:UefiHandleParsingLib.obj
 0001:0003da90       ParseHandleDatabaseForChildControllers 000000000004ea90 f   UefiHandleParsingLib:UefiHandleParsingLib.obj
 0001:0003dd50       BuffernCatGrow             000000000004ed50 f   UefiHandleParsingLib:UefiHandleParsingLib.obj
 0001:0003de98       ParseHandleDatabaseForChildDevices 000000000004ee98 f   UefiHandleParsingLib:UefiHandleParsingLib.obj
 0001:0003e040       GetHandleListByProtocol    000000000004f040 f   UefiHandleParsingLib:UefiHandleParsingLib.obj
 0001:0003e1ec       GetHandleListByProtocolList 000000000004f1ec f   UefiHandleParsingLib:UefiHandleParsingLib.obj
 0001:0003e4a8       GetAllMappingGuids         000000000004f4a8 f   UefiHandleParsingLib:UefiHandleParsingLib.obj
 0001:0003e670       EfiBootManagerLoadOptionToVariable 000000000004f670 f   UefiBootManagerLib:BmLoadOption.obj
 0001:0003ea20       EfiBootManagerInitializeLoadOption 000000000004fa20 f   UefiBootManagerLib:BmLoadOption.obj
 0001:0003eb40       BmGetDevicePathSizeEx      000000000004fb40 f   UefiBootManagerLib:BmLoadOption.obj
 0001:0003ebfc       BmStrSizeEx                000000000004fbfc f   UefiBootManagerLib:BmLoadOption.obj
 0001:0003ece8       BmValidateOption           000000000004fce8 f   UefiBootManagerLib:BmLoadOption.obj
 0001:0003edc4       EfiBootManagerIsValidLoadOptionVariableName 000000000004fdc4 f   UefiBootManagerLib:BmLoadOption.obj
 0001:0003ef3c       EfiBootManagerVariableToLoadOptionEx 000000000004ff3c f   UefiBootManagerLib:BmLoadOption.obj
 0001:0003f1cc       EfiBootManagerVariableToLoadOption 00000000000501cc f   UefiBootManagerLib:BmLoadOption.obj
 0001:0003f1f8       EfiBootManagerFreeLoadOption 00000000000501f8 f   UefiBootManagerLib:BmLoadOption.obj
 0001:0003f26c       BmCharToUint               000000000005026c f   UefiBootManagerLib:BmMisc.obj
 0001:0003f2bc       CatPrint                   00000000000502bc f   UefiShellCommandLib:ConsistMapping.obj
 0001:0003f414       AppendCSDNum2              0000000000050414 f   UefiShellCommandLib:ConsistMapping.obj
 0001:0003f4c4       AppendCSDNum               00000000000504c4 f   UefiShellCommandLib:ConsistMapping.obj
 0001:0003f590       AppendCSDStr               0000000000050590 f   UefiShellCommandLib:ConsistMapping.obj
 0001:0003f91c       AppendCSDGuid              000000000005091c f   UefiShellCommandLib:ConsistMapping.obj
 0001:0003f9c4       DevPathCompareAcpi         00000000000509c4 f   UefiShellCommandLib:ConsistMapping.obj
 0001:0003fa6c       DevPathComparePci          0000000000050a6c f   UefiShellCommandLib:ConsistMapping.obj
 0001:0003fb78       DevPathCompareDefault      0000000000050b78 f   UefiShellCommandLib:ConsistMapping.obj
 0001:0003fc50       DevPathSerialHardDrive     0000000000050c50 f   UefiShellCommandLib:ConsistMapping.obj
 0001:0003fd04       DevPathSerialAtapi         0000000000050d04 f   UefiShellCommandLib:ConsistMapping.obj
 0001:0003fdb0       DevPathSerialCdRom         0000000000050db0 f   UefiShellCommandLib:ConsistMapping.obj
 0001:0003fe58       DevPathSerialFibre         0000000000050e58 f   UefiShellCommandLib:ConsistMapping.obj
 0001:0003ff24       DevPathSerialUart          0000000000050f24 f   UefiShellCommandLib:ConsistMapping.obj
 0001:00040048       DevPathSerialUsb           0000000000051048 f   UefiShellCommandLib:ConsistMapping.obj
 0001:000402c8       DevPathSerialVendor        00000000000512c8 f   UefiShellCommandLib:ConsistMapping.obj
 0001:00040578       DevPathSerialLun           0000000000051578 f   UefiShellCommandLib:ConsistMapping.obj
 0001:00040614       DevPathSerialSata          0000000000051614 f   UefiShellCommandLib:ConsistMapping.obj
 0001:00040710       DevPathSerialIScsi         0000000000051710 f   UefiShellCommandLib:ConsistMapping.obj
 0001:0004092c       DevPathSerialI2O           000000000005192c f   UefiShellCommandLib:ConsistMapping.obj
 0001:000409c8       DevPathSerialMacAddr       00000000000519c8 f   UefiShellCommandLib:ConsistMapping.obj
 0001:00040b28       DevPathSerialInfiniBand    0000000000051b28 f   UefiShellCommandLib:ConsistMapping.obj
 0001:00040ce4       DevPathSerialIPv4          0000000000051ce4 f   UefiShellCommandLib:ConsistMapping.obj
 0001:00040f1c       DevPathSerialIPv6          0000000000051f1c f   UefiShellCommandLib:ConsistMapping.obj
 0001:0004113c       DevPathSerialScsi          000000000005213c f   UefiShellCommandLib:ConsistMapping.obj
 0001:0004120c       DevPathSerial1394          000000000005220c f   UefiShellCommandLib:ConsistMapping.obj
 0001:000412dc       DevPathSerialAcpi          00000000000522dc f   UefiShellCommandLib:ConsistMapping.obj
 0001:000413ac       IsHIDevicePathNode         00000000000523ac f   UefiShellCommandLib:ConsistMapping.obj
 0001:00041458       GetHIDevicePath            0000000000052458 f   UefiShellCommandLib:ConsistMapping.obj
 0001:000415f0       GetDeviceConsistMappingInfo 00000000000525f0 f   UefiShellCommandLib:ConsistMapping.obj
 0001:000417b0       ShellCommandConsistMappingInitialize 00000000000527b0 f   UefiShellCommandLib:ConsistMapping.obj
 0001:00041a80       ShellCommandConsistMappingUnInitialize 0000000000052a80 f   UefiShellCommandLib:ConsistMapping.obj
 0001:00041b0c       ShellCommandConsistMappingGenMappingName 0000000000052b0c f   UefiShellCommandLib:ConsistMapping.obj
 0001:00041dd0       ShellCommandFindMapItem    0000000000052dd0 f   UefiShellCommandLib:ConsistMapping.obj
 0001:00041e54       CommandInit                0000000000052e54 f   UefiShellCommandLib:UefiShellCommandLib.obj
 0001:00042000       ShellCommandLibConstructor 0000000000053000 f   UefiShellCommandLib:UefiShellCommandLib.obj
 0001:000420a4       FreeFileHandleList         00000000000530a4 f   UefiShellCommandLib:UefiShellCommandLib.obj
 0001:000421cc       ShellCommandLibDestructor  00000000000531cc f   UefiShellCommandLib:UefiShellCommandLib.obj
 0001:00042504       ShellCommandFindDynamicCommand 0000000000053504 f   UefiShellCommandLib:UefiShellCommandLib.obj
 0001:000425d4       ShellCommandDynamicCommandExists 00000000000535d4 f   UefiShellCommandLib:UefiShellCommandLib.obj
 0001:00042604       ShellCommandIsCommandOnInternalList 0000000000053604 f   UefiShellCommandLib:UefiShellCommandLib.obj
 0001:000426f8       ShellCommandIsCommandOnList 00000000000536f8 f   UefiShellCommandLib:UefiShellCommandLib.obj
 0001:00042728       ShellCommandGetDynamicCommandHelp 0000000000053728 f   UefiShellCommandLib:UefiShellCommandLib.obj
 0001:00042768       ShellCommandGetInternalCommandHelp 0000000000053768 f   UefiShellCommandLib:UefiShellCommandLib.obj
 0001:00042878       ShellCommandGetCommandHelp 0000000000053878 f   UefiShellCommandLib:UefiShellCommandLib.obj
 0001:000428b4       ShellCommandRegisterCommandName 00000000000538b4 f   UefiShellCommandLib:UefiShellCommandLib.obj
 0001:00042c6c       ShellCommandGetProfileList 0000000000053c6c f   UefiShellCommandLib:UefiShellCommandLib.obj
 0001:00042c74       ShellCommandRunCommandHandler 0000000000053c74 f   UefiShellCommandLib:UefiShellCommandLib.obj
 0001:00042e38       ShellCommandGetManFileNameHandler 0000000000053e38 f   UefiShellCommandLib:UefiShellCommandLib.obj
 0001:00042f34       ShellCommandGetCommandList 0000000000053f34 f   UefiShellCommandLib:UefiShellCommandLib.obj
 0001:00042f40       ShellCommandRegisterAlias  0000000000053f40 f   UefiShellCommandLib:UefiShellCommandLib.obj
 0001:0004313c       ShellCommandGetInitAliasList 000000000005413c f   UefiShellCommandLib:UefiShellCommandLib.obj
 0001:00043144       ShellCommandIsOnAliasList  0000000000054144 f   UefiShellCommandLib:UefiShellCommandLib.obj
 0001:00043290       ShellCommandGetEchoState   0000000000054290 f   UefiShellCommandLib:UefiShellCommandLib.obj
 0001:00043298       ShellCommandSetEchoState   0000000000054298 f   UefiShellCommandLib:UefiShellCommandLib.obj
 0001:000432a8       ShellCommandRegisterExit   00000000000542a8 f   UefiShellCommandLib:UefiShellCommandLib.obj
 0001:00043304       ShellCommandGetExit        0000000000054304 f   UefiShellCommandLib:UefiShellCommandLib.obj
 0001:0004330c       ShellCommandGetExitCode    000000000005430c f   UefiShellCommandLib:UefiShellCommandLib.obj
 0001:00043314       ShellCommandGetScriptExit  0000000000054314 f   UefiShellCommandLib:UefiShellCommandLib.obj
 0001:0004331c       DeleteScriptFileStruct     000000000005431c f   UefiShellCommandLib:UefiShellCommandLib.obj
 0001:00043558       ShellCommandGetCurrentScriptFile 0000000000054558 f   UefiShellCommandLib:UefiShellCommandLib.obj
 0001:00043594       ShellCommandSetNewScript   0000000000054594 f   UefiShellCommandLib:UefiShellCommandLib.obj
 0001:0004363c       ShellCommandCreateNewMappingName 000000000005463c f   UefiShellCommandLib:UefiShellCommandLib.obj
 0001:00043734       ShellCommandAddMapItemAndUpdatePath 0000000000054734 f   UefiShellCommandLib:UefiShellCommandLib.obj
 0001:00043a4c       ShellCommandCreateInitialMappingsAndPaths 0000000000054a4c f   UefiShellCommandLib:UefiShellCommandLib.obj
 0001:00044360       ShellCommandUpdateMapping  0000000000055360 f   UefiShellCommandLib:UefiShellCommandLib.obj
 0001:00044648       ConvertShellHandleToEfiFileProtocol 0000000000055648 f   UefiShellCommandLib:UefiShellCommandLib.obj
 0001:00044654       ConvertEfiFileProtocolToShellHandle 0000000000055654 f   UefiShellCommandLib:UefiShellCommandLib.obj
 0001:0004477c       ShellFileHandleGetPath     000000000005577c f   UefiShellCommandLib:UefiShellCommandLib.obj
 0001:00044804       ShellFileHandleRemove      0000000000055804 f   UefiShellCommandLib:UefiShellCommandLib.obj
 0001:00044924       ShellFileHandleEof         0000000000055924 f   UefiShellCommandLib:UefiShellCommandLib.obj
 0001:000449e0       FreeBufferList             00000000000559e0 f   UefiShellCommandLib:UefiShellCommandLib.obj
 0001:00044a68       DumpHex                    0000000000055a68 f   UefiShellCommandLib:UefiShellCommandLib.obj
 0001:00044cbc       CatSDumpHex                0000000000055cbc f   UefiShellCommandLib:UefiShellCommandLib.obj
 0001:00044fe4       ShellSortFileList          0000000000055fe4 f   UefiShellCommandLib:UefiShellCommandLib.obj
 0001:000454f4       SafeUint64ToUint32         00000000000564f4 f   BaseSafeIntLib:SafeIntLib.obj
 0001:0004555c       IoRead64                   000000000005655c f   BaseIoLibIntrinsic:IoLib.obj
 0001:000455a0       IoWrite64                  00000000000565a0 f   BaseIoLibIntrinsic:IoLib.obj
 0001:000455e8       MmioRead8                  00000000000565e8 f   BaseIoLibIntrinsic:IoLib.obj
 0001:0004565c       MmioWrite8                 000000000005665c f   BaseIoLibIntrinsic:IoLib.obj
 0001:000456d4       MmioRead16                 00000000000566d4 f   BaseIoLibIntrinsic:IoLib.obj
 0001:00045788       MmioWrite16                0000000000056788 f   BaseIoLibIntrinsic:IoLib.obj
 0001:00045844       MmioRead32                 0000000000056844 f   BaseIoLibIntrinsic:IoLib.obj
 0001:000458f4       MmioWrite32                00000000000568f4 f   BaseIoLibIntrinsic:IoLib.obj
 0001:000459a8       MmioRead64                 00000000000569a8 f   BaseIoLibIntrinsic:IoLib.obj
 0001:00045a5c       MmioWrite64                0000000000056a5c f   BaseIoLibIntrinsic:IoLib.obj
 0001:00045b18       IoRead8                    0000000000056b18 f   BaseIoLibIntrinsic:IoLibMsc.obj
 0001:00045b80       IoWrite8                   0000000000056b80 f   BaseIoLibIntrinsic:IoLibMsc.obj
 0001:00045bec       IoRead16                   0000000000056bec f   BaseIoLibIntrinsic:IoLibMsc.obj
 0001:00045c98       IoWrite16                  0000000000056c98 f   BaseIoLibIntrinsic:IoLibMsc.obj
 0001:00045d48       IoRead32                   0000000000056d48 f   BaseIoLibIntrinsic:IoLibMsc.obj
 0001:00045df0       IoWrite32                  0000000000056df0 f   BaseIoLibIntrinsic:IoLibMsc.obj
 0001:00045e9c       IsTdxGuest                 0000000000056e9c f   BaseIoLibIntrinsic:IoLibInternalTdxNull.obj
 0001:00045ea0       TdIoRead8                  0000000000056ea0 f   BaseIoLibIntrinsic:IoLibInternalTdxNull.obj
 0001:00045ee4       TdIoRead16                 0000000000056ee4 f   BaseIoLibIntrinsic:IoLibInternalTdxNull.obj
 0001:00045f28       TdIoRead32                 0000000000056f28 f   BaseIoLibIntrinsic:IoLibInternalTdxNull.obj
 0001:00045f6c       TdIoWrite8                 0000000000056f6c f   BaseIoLibIntrinsic:IoLibInternalTdxNull.obj
 0001:00045fb4       TdIoWrite16                0000000000056fb4 f   BaseIoLibIntrinsic:IoLibInternalTdxNull.obj
 0001:00045ffc       TdIoWrite32                0000000000056ffc f   BaseIoLibIntrinsic:IoLibInternalTdxNull.obj
 0001:00046044       TdMmioRead8                0000000000057044 f   BaseIoLibIntrinsic:IoLibInternalTdxNull.obj
 0001:00046088       TdMmioWrite8               0000000000057088 f   BaseIoLibIntrinsic:IoLibInternalTdxNull.obj
 0001:000460d0       TdMmioRead16               00000000000570d0 f   BaseIoLibIntrinsic:IoLibInternalTdxNull.obj
 0001:00046114       TdMmioWrite16              0000000000057114 f   BaseIoLibIntrinsic:IoLibInternalTdxNull.obj
 0001:0004615c       TdMmioRead32               000000000005715c f   BaseIoLibIntrinsic:IoLibInternalTdxNull.obj
 0001:000461a0       TdMmioWrite32              00000000000571a0 f   BaseIoLibIntrinsic:IoLibInternalTdxNull.obj
 0001:000461e8       TdMmioRead64               00000000000571e8 f   BaseIoLibIntrinsic:IoLibInternalTdxNull.obj
 0001:0004622c       TdMmioWrite64              000000000005722c f   BaseIoLibIntrinsic:IoLibInternalTdxNull.obj
 0001:00046274       UpdateOptionalData         0000000000057274 f   UefiShellBcfgCommandLib:UefiShellBcfgCommandLib.obj
 0001:00046564       GetBootOptionCrc           0000000000057564 f   UefiShellBcfgCommandLib:UefiShellBcfgCommandLib.obj
 0001:000466b0       GetDevicePathForDriverHandle 00000000000576b0 f   UefiShellBcfgCommandLib:UefiShellBcfgCommandLib.obj
 0001:000467d0       GetDevicePathByHandle      00000000000577d0 f   UefiShellBcfgCommandLib:UefiShellBcfgCommandLib.obj
 0001:00046a1c       BcfgMod                    0000000000057a1c f   UefiShellBcfgCommandLib:UefiShellBcfgCommandLib.obj
 0001:000470b8       BcfgAdd                    00000000000580b8 f   UefiShellBcfgCommandLib:UefiShellBcfgCommandLib.obj
 0001:00047c64       BcfgRemove                 0000000000058c64 f   UefiShellBcfgCommandLib:UefiShellBcfgCommandLib.obj
 0001:00047f24       BcfgMove                   0000000000058f24 f   UefiShellBcfgCommandLib:UefiShellBcfgCommandLib.obj
 0001:00048170       BcfgAddOpt                 0000000000059170 f   UefiShellBcfgCommandLib:UefiShellBcfgCommandLib.obj
 0001:00048fcc       BcfgDisplayDump            0000000000059fcc f   UefiShellBcfgCommandLib:UefiShellBcfgCommandLib.obj
 0001:0004946c       InitBcfgStruct             000000000005a46c f   UefiShellBcfgCommandLib:UefiShellBcfgCommandLib.obj
 0001:0004951c       ShellCommandRunBcfg        000000000005a51c f   UefiShellBcfgCommandLib:UefiShellBcfgCommandLib.obj
 0001:0004b2a0       ShellCommandGetManFileNameBcfg 000000000005c2a0 f   UefiShellBcfgCommandLib:UefiShellBcfgCommandLib.obj
 0001:0004b2a8       BcfgLibraryRegisterBcfgCommand 000000000005c2a8 f   UefiShellBcfgCommandLib:UefiShellBcfgCommandLib.obj
 0001:0004b34c       BcfgLibraryUnregisterBcfgCommand 000000000005c34c f   UefiShellBcfgCommandLib:UefiShellBcfgCommandLib.obj
 0001:0004b384       NetAddChecksum             000000000005c384 f   DxeNetLib:NetBuffer.obj
 0001:0004b3c4       NetGetMaskLength           000000000005c3c4 f   DxeNetLib:DxeNetLib.obj
 0001:0004b40c       NetIp4IsUnicast            000000000005c40c f   DxeNetLib:DxeNetLib.obj
 0001:0004b4e4       NetIp6IsUnspecifiedAddr    000000000005c4e4 f   DxeNetLib:DxeNetLib.obj
 0001:0004b55c       NetIp6IsLinkLocalAddr      000000000005c55c f   DxeNetLib:DxeNetLib.obj
 0001:0004b60c       NetLibGetSnpHandle         000000000005c60c f   DxeNetLib:DxeNetLib.obj
 0001:0004b72c       NetLibDetectMedia          000000000005c72c f   DxeNetLib:DxeNetLib.obj
 0001:0004bad4       NetLibDetectMediaWaitTimeout 000000000005cad4 f   DxeNetLib:DxeNetLib.obj
 0001:0004bee8       NetLibStrToIp4             000000000005cee8 f   DxeNetLib:DxeNetLib.obj
 0001:0004bf44       NetLibStrToIp6             000000000005cf44 f   DxeNetLib:DxeNetLib.obj
 0001:0004bfa0       _ModuleEntryPoint          000000000005cfa0 f   UefiApplicationEntryPoint:ApplicationEntryPoint.obj
 0001:0004c010       HandleVol                  000000000005d010 f   UefiShellLevel2CommandsLib:Vol.obj
 0001:0004c7fc       ShellCommandRunVol         000000000005d7fc f   UefiShellLevel2CommandsLib:Vol.obj
 0001:0004cd98       ShellCommandRunAttrib      000000000005dd98 f   UefiShellLevel2CommandsLib:Attrib.obj
 0001:0004d900       IsBetweenFileSystem        000000000005e900 f   UefiShellLevel2CommandsLib:Mv.obj
 0001:0004d9f0       IsSoucePathValid           000000000005e9f0 f   UefiShellLevel2CommandsLib:Mv.obj
 0001:0004db94       IsValidMove                000000000005eb94 f   UefiShellLevel2CommandsLib:Mv.obj
 0001:0004dddc       GetDestinationLocation     000000000005eddc f   UefiShellLevel2CommandsLib:Mv.obj
 0001:0004e344       MoveBetweenFileSystems     000000000005f344 f   UefiShellLevel2CommandsLib:Mv.obj
 0001:0004e3f8       CreateFullDestPath         000000000005f3f8 f   UefiShellLevel2CommandsLib:Mv.obj
 0001:0004e544       MoveWithinFileSystems      000000000005f544 f   UefiShellLevel2CommandsLib:Mv.obj
 0001:0004e7ac       ValidateAndMoveFiles       000000000005f7ac f   UefiShellLevel2CommandsLib:Mv.obj
 0001:0004f1fc       ShellCommandRunMv          00000000000601fc f   UefiShellLevel2CommandsLib:Mv.obj
 0001:0004f8a4       IsDirectoryEmpty           00000000000608a4 f   UefiShellLevel2CommandsLib:Rm.obj
 0001:0004f964       CascadeDelete              0000000000060964 f   UefiShellLevel2CommandsLib:Rm.obj
 0001:0004ff30       IsValidDeleteTarget        0000000000060f30 f   UefiShellLevel2CommandsLib:Rm.obj
 0001:00050128       ShellCommandRunRm          0000000000061128 f   UefiShellLevel2CommandsLib:Rm.obj
 0001:000505c8       IsStdInDataAvailable       00000000000615c8 f   UefiShellLevel2CommandsLib:Parse.obj
 0001:00050690       HandleStringWithEscapeCharForParse 0000000000061690 f   UefiShellLevel2CommandsLib:Parse.obj
 0001:00050774       PerformParsing             0000000000061774 f   UefiShellLevel2CommandsLib:Parse.obj
 0001:00050cb4       ShellCommandRunParse       0000000000061cb4 f   UefiShellLevel2CommandsLib:Parse.obj
 0001:00051084       CopySingleFile             0000000000062084 f   UefiShellLevel2CommandsLib:Cp.obj
 0001:00051898       ValidateAndCopyFiles       0000000000062898 f   UefiShellLevel2CommandsLib:Cp.obj
 0001:000527f4       ProcessValidateAndCopyFiles 00000000000637f4 f   UefiShellLevel2CommandsLib:Cp.obj
 0001:00052a94       ShellCommandRunCp          0000000000063a94 f   UefiShellLevel2CommandsLib:Cp.obj
 0001:000531b4       ReplaceDriveWithCwd        00000000000641b4 f   UefiShellLevel2CommandsLib:Cd.obj
 0001:00053364       IsCurrentFileSystem        0000000000064364 f   UefiShellLevel2CommandsLib:Cd.obj
 0001:00053458       ExtractDriveAndPath        0000000000064458 f   UefiShellLevel2CommandsLib:Cd.obj
 0001:00053624       ShellCommandRunCd          0000000000064624 f   UefiShellLevel2CommandsLib:Cd.obj
 0001:00053e9c       ShellCommandRunMkDir       0000000000064e9c f   UefiShellLevel2CommandsLib:MkDir.obj
 0001:00054378       PrintAllShellEnvVars       0000000000065378 f   UefiShellLevel2CommandsLib:Set.obj
 0001:00054414       ShellCommandRunSet         0000000000065414 f   UefiShellLevel2CommandsLib:Set.obj
 0001:00054a00       ShellCommandRunReset       0000000000065a00 f   UefiShellLevel2CommandsLib:Reset.obj
 0001:00054fdc       IsNumberLetterOnly         0000000000065fdc f   UefiShellLevel2CommandsLib:Map.obj
 0001:0005508c       SearchList                 000000000006608c f   UefiShellLevel2CommandsLib:Map.obj
 0001:0005528c       GetDeviceMediaType         000000000006628c f   UefiShellLevel2CommandsLib:Map.obj
 0001:00055398       IsRemoveableDevice         0000000000066398 f   UefiShellLevel2CommandsLib:Map.obj
 0001:00055410       MappingListHasType         0000000000066410 f   UefiShellLevel2CommandsLib:Map.obj
 0001:000556cc       PerformSingleMappingDisplay 00000000000666cc f   UefiShellLevel2CommandsLib:Map.obj
 0001:00055d88       PerformSingleMappingDelete 0000000000066d88 f   UefiShellLevel2CommandsLib:Map.obj
 0001:00055e34       PerformMappingDisplay      0000000000066e34 f   UefiShellLevel2CommandsLib:Map.obj
 0001:00056408       PerformMappingDisplay2     0000000000067408 f   UefiShellLevel2CommandsLib:Map.obj
 0001:00056664       PerformMappingDelete       0000000000067664 f   UefiShellLevel2CommandsLib:Map.obj
 0001:00056988       AddMappingFromMapping      0000000000067988 f   UefiShellLevel2CommandsLib:Map.obj
 0001:00056b04       AddMappingFromHandle       0000000000067b04 f   UefiShellLevel2CommandsLib:Map.obj
 0001:00056cb0       ProbeForMediaChange        0000000000067cb0 f   UefiShellLevel2CommandsLib:Map.obj
 0001:00056d84       ShellCommandRunMap         0000000000067d84 f   UefiShellLevel2CommandsLib:Map.obj
 0001:00057884       PrintSfoVolumeInfoTableEntry 0000000000068884 f   UefiShellLevel2CommandsLib:Ls.obj
 0001:00057d70       PrintFileInformation       0000000000068d70 f   UefiShellLevel2CommandsLib:Ls.obj
 0001:000584cc       PrintNonSfoHeader          00000000000694cc f   UefiShellLevel2CommandsLib:Ls.obj
 0001:0005854c       PrintNonSfoFooter          000000000006954c f   UefiShellLevel2CommandsLib:Ls.obj
 0001:000585a8       FileTimeToLocalTime        00000000000695a8 f   UefiShellLevel2CommandsLib:Ls.obj
 0001:00058938       PrintLsOutput              0000000000069938 f   UefiShellLevel2CommandsLib:Ls.obj
 0001:000591f4       ShellCommandRunLs          000000000006a1f4 f   UefiShellLevel2CommandsLib:Ls.obj
 0001:00059d48       ConnectAllEfi              000000000006ad48 f   UefiShellLevel2CommandsLib:Load.obj
 0001:00059df4       LoadDriver                 000000000006adf4 f   UefiShellLevel2CommandsLib:Load.obj
 0001:0005a194       ShellCommandRunLoad        000000000006b194 f   UefiShellLevel2CommandsLib:Load.obj
 0001:0005a5a8       InternalIsTimeLikeString   000000000006b5a8 f   UefiShellLevel2CommandsLib:TimeDate.obj
 0001:0005a690       CheckAndSetDate            000000000006b690 f   UefiShellLevel2CommandsLib:TimeDate.obj
 0001:0005a99c       ShellCommandRunDate        000000000006b99c f   UefiShellLevel2CommandsLib:TimeDate.obj
 0001:0005ae08       CheckAndSetTime            000000000006be08 f   UefiShellLevel2CommandsLib:TimeDate.obj
 0001:0005b174       ShellCommandRunTime        000000000006c174 f   UefiShellLevel2CommandsLib:TimeDate.obj
 0001:0005bccc       CheckAndSetTimeZone        000000000006cccc f   UefiShellLevel2CommandsLib:TimeDate.obj
 0001:0005c064       ShellCommandRunTimeZone    000000000006d064 f   UefiShellLevel2CommandsLib:TimeDate.obj
 0001:0005c8f4       ShellCommandGetManFileNameLevel2 000000000006d8f4 f   UefiShellLevel2CommandsLib:UefiShellLevel2CommandsLib.obj
 0001:0005c8fc       ShellLevel2CommandsLibConstructor 000000000006d8fc f   UefiShellLevel2CommandsLib:UefiShellLevel2CommandsLib.obj
 0001:0005cf68       ShellLevel2CommandsLibDestructor 000000000006df68 f   UefiShellLevel2CommandsLib:UefiShellLevel2CommandsLib.obj
 0001:0005cf94       GetFullyQualifiedPath      000000000006df94 f   UefiShellLevel2CommandsLib:UefiShellLevel2CommandsLib.obj
 0001:0005d0cc       VerifyIntermediateDirectories 000000000006e0cc f   UefiShellLevel2CommandsLib:UefiShellLevel2CommandsLib.obj
 0001:0005d26c       StrniCmp                   000000000006e26c f   UefiShellLevel2CommandsLib:UefiShellLevel2CommandsLib.obj
 0001:0005d3d8       ShellLevel2StripQuotes     000000000006e3d8 f   UefiShellLevel2CommandsLib:UefiShellLevel2CommandsLib.obj
 0001:0005d4ac       ShellCommandRunStall       000000000006e4ac f   UefiShellLevel1CommandsLib:Stall.obj
 0001:0005d848       ShellCommandRunShift       000000000006e848 f   UefiShellLevel1CommandsLib:Shift.obj
 0001:0005daac       ShellIsValidForNumber      000000000006eaac f   UefiShellLevel1CommandsLib:For.obj
 0001:0005db7c       ShellCommandRunEndFor      000000000006eb7c f   UefiShellLevel1CommandsLib:For.obj
 0001:0005dd7c       InternalUpdateAliasOnList  000000000006ed7c f   UefiShellLevel1CommandsLib:For.obj
 0001:0005dfdc       InternalIsAliasOnList      000000000006efdc f   UefiShellLevel1CommandsLib:For.obj
 0001:0005e0f8       InternalRemoveAliasFromList 000000000006f0f8 f   UefiShellLevel1CommandsLib:For.obj
 0001:0005e244       ReturnUintn                000000000006f244 f   UefiShellLevel1CommandsLib:For.obj
 0001:0005e284       ShellCommandRunFor         000000000006f284 f   UefiShellLevel1CommandsLib:For.obj
 0001:0005fb44       IsNextFragment             0000000000070b44 f   UefiShellLevel1CommandsLib:If.obj
 0001:0005fc44       IsValidProfile             0000000000070c44 f   UefiShellLevel1CommandsLib:If.obj
 0001:0005fcec       TestOperation              0000000000070cec f   UefiShellLevel1CommandsLib:If.obj
 0001:000604b4       ProcessStatement           00000000000714b4 f   UefiShellLevel1CommandsLib:If.obj
 0001:00061bdc       BuildNextStatement         0000000000072bdc f   UefiShellLevel1CommandsLib:If.obj
 0001:00061d28       MoveToTagSpecial           0000000000072d28 f   UefiShellLevel1CommandsLib:If.obj
 0001:00061f50       PerformResultOperation     0000000000072f50 f   UefiShellLevel1CommandsLib:If.obj
 0001:00061f88       ShellCommandRunIf          0000000000072f88 f   UefiShellLevel1CommandsLib:If.obj
 0001:000626bc       ShellCommandRunElse        00000000000736bc f   UefiShellLevel1CommandsLib:If.obj
 0001:00062a48       ShellCommandRunEndIf       0000000000073a48 f   UefiShellLevel1CommandsLib:If.obj
 0001:00062c50       ShellCommandRunGoto        0000000000073c50 f   UefiShellLevel1CommandsLib:Goto.obj
 0001:000630d8       ShellCommandRunExit        00000000000740d8 f   UefiShellLevel1CommandsLib:Exit.obj
 0001:00063408       ShellCommandGetManFileNameLevel1 0000000000074408 f   UefiShellLevel1CommandsLib:UefiShellLevel1CommandsLib.obj
 0001:00063410       ShellLevel1CommandsLibConstructor 0000000000074410 f   UefiShellLevel1CommandsLib:UefiShellLevel1CommandsLib.obj
 0001:00063804       ShellLevel1CommandsLibDestructor 0000000000074804 f   UefiShellLevel1CommandsLib:UefiShellLevel1CommandsLib.obj
 0001:00063830       TestNodeForMove            0000000000074830 f   UefiShellLevel1CommandsLib:UefiShellLevel1CommandsLib.obj
 0001:00063a6c       MoveToTag                  0000000000074a6c f   UefiShellLevel1CommandsLib:UefiShellLevel1CommandsLib.obj
 0001:00063c78       LexicalInsertIntoList      0000000000074c78 f   UefiShellLevel3CommandsLib:Help.obj
 0001:00063e3c       CopyListOfCommandNames     0000000000074e3c f   UefiShellLevel3CommandsLib:Help.obj
 0001:00063fc4       PrintDynamicCommandHelp    0000000000074fc4 f   UefiShellLevel3CommandsLib:Help.obj
 0001:000641fc       ShellCommandRunHelp        00000000000751fc f   UefiShellLevel3CommandsLib:Help.obj
 0001:00064ac8       ShellCommandRunGetMtc      0000000000075ac8 f   UefiShellLevel3CommandsLib:GetMtc.obj
 0001:00064d90       ShellCommandRunPause       0000000000075d90 f   UefiShellLevel3CommandsLib:Pause.obj
 0001:0006512c       ShellCommandRunEcho        000000000007612c f   UefiShellLevel3CommandsLib:Echo.obj
 0001:00065490       PrintSingleShellAlias      0000000000076490 f   UefiShellLevel3CommandsLib:Alias.obj
 0001:0006559c       PrintAllShellAlias         000000000007659c f   UefiShellLevel3CommandsLib:Alias.obj
 0001:00065690       ShellLevel3CommandsLibSetAlias 0000000000076690 f   UefiShellLevel3CommandsLib:Alias.obj
 0001:000657d8       ShellCommandRunAlias       00000000000767d8 f   UefiShellLevel3CommandsLib:Alias.obj
 0001:00065dd8       ShellCommandRunCls         0000000000076dd8 f   UefiShellLevel3CommandsLib:Cls.obj
 0001:0006668c       ShellCommandGetManFileNameLevel3 000000000007768c f   UefiShellLevel3CommandsLib:UefiShellLevel3CommandsLib.obj
 0001:00066694       ShellLevel3CommandsLibConstructor 0000000000077694 f   UefiShellLevel3CommandsLib:UefiShellLevel3CommandsLib.obj
 0001:0006697c       ShellLevel3CommandsLibDestructor 000000000007797c f   UefiShellLevel3CommandsLib:UefiShellLevel3CommandsLib.obj
 0001:000669a8       ShellCommandRunVer         00000000000779a8 f   UefiShellLevel3CommandsLib:Ver.obj
 0001:00066ec0       TouchFileByHandle          0000000000077ec0 f   UefiShellLevel3CommandsLib:Touch.obj
 0001:00066fc0       DoTouchByHandle            0000000000077fc0 f   UefiShellLevel3CommandsLib:Touch.obj
 0001:000672e0       ShellCommandRunTouch       00000000000782e0 f   UefiShellLevel3CommandsLib:Touch.obj
 0001:000678f0       TypeFileByHandle           00000000000788f0 f   UefiShellLevel3CommandsLib:Type.obj
 0001:00067cbc       ShellCommandRunType        0000000000078cbc f   UefiShellLevel3CommandsLib:Type.obj
 0001:000683c0       ShellCommandGetManFileNameDriver1 00000000000793c0 f   UefiShellDriver1CommandsLib:UefiShellDriver1CommandsLib.obj
 0001:000683c8       UefiShellDriver1CommandsLibConstructor 00000000000793c8 f   UefiShellDriver1CommandsLib:UefiShellDriver1CommandsLib.obj
 0001:000686fc       UefiShellDriver1CommandsLibDestructor 00000000000796fc f   UefiShellDriver1CommandsLib:UefiShellDriver1CommandsLib.obj
 0001:00068728       FindHiiHandleViaDevPath    0000000000079728 f   UefiShellDriver1CommandsLib:DrvCfg.obj
 0001:00068b9c       ConvertHandleToHiiHandle   0000000000079b9c f   UefiShellDriver1CommandsLib:DrvCfg.obj
 0001:00068c68       ConfigToFile               0000000000079c68 f   UefiShellDriver1CommandsLib:DrvCfg.obj
 0001:0006932c       ConfigFromFile             000000000007a32c f   UefiShellDriver1CommandsLib:DrvCfg.obj
 0001:000697c8       ShellCmdDriverConfigurationProcessActionRequired 000000000007a7c8 f   UefiShellDriver1CommandsLib:DrvCfg.obj
 0001:00069a88       PreHiiDrvCfg               000000000007aa88 f   UefiShellDriver1CommandsLib:DrvCfg.obj
 0001:0006aa2c       PrintConfigInfoOnAll       000000000007ba2c f   UefiShellDriver1CommandsLib:DrvCfg.obj
 0001:0006abb4       ShellCommandRunDrvCfg      000000000007bbb4 f   UefiShellDriver1CommandsLib:DrvCfg.obj
 0001:0006ba94       DoDevTreeForHandle         000000000007ca94 f   UefiShellDriver1CommandsLib:DevTree.obj
 0001:0006bdec       ShellCommandRunDevTree     000000000007cdec f   UefiShellDriver1CommandsLib:DevTree.obj
 0001:0006c4bc       GetDevicePathTextForHandle 000000000007d4bc f   UefiShellDriver1CommandsLib:Drivers.obj
 0001:0006c620       ReturnDriverConfig         000000000007d620 f   UefiShellDriver1CommandsLib:Drivers.obj
 0001:0006c680       ReturnDriverDiag           000000000007d680 f   UefiShellDriver1CommandsLib:Drivers.obj
 0001:0006c728       ReturnDriverVersion        000000000007d728 f   UefiShellDriver1CommandsLib:Drivers.obj
 0001:0006c7c0       GetImageNameFromHandle     000000000007d7c0 f   UefiShellDriver1CommandsLib:Drivers.obj
 0001:0006c9b0       ShellCommandRunDrivers     000000000007d9b0 f   UefiShellDriver1CommandsLib:Drivers.obj
 0001:0006d490       IsValidGuidString          000000000007e490 f   UefiShellDriver1CommandsLib:Dh.obj
 0001:0006d5d0       HexCharToDecimal           000000000007e5d0 f   UefiShellDriver1CommandsLib:Dh.obj
 0001:0006d624       ConvertStrToGuid           000000000007e624 f   UefiShellDriver1CommandsLib:Dh.obj
 0001:0006d79c       GetDriverName              000000000007e79c f   UefiShellDriver1CommandsLib:Dh.obj
 0001:0006d8f0       GetProtocolInfoString      000000000007e8f0 f   UefiShellDriver1CommandsLib:Dh.obj
 0001:0006dd30       GetDriverImageName         000000000007ed30 f   UefiShellDriver1CommandsLib:Dh.obj
 0001:0006dddc       DisplayDriverModelHandle   000000000007eddc f   UefiShellDriver1CommandsLib:Dh.obj
 0001:0006eeb8       DoDhByHandle               000000000007feb8 f   UefiShellDriver1CommandsLib:Dh.obj
 0001:0006f1f8       DoDhForHandleList          00000000000801f8 f   UefiShellDriver1CommandsLib:Dh.obj
 0001:0006f290       DoDhByProtocolGuid         0000000000080290 f   UefiShellDriver1CommandsLib:Dh.obj
 0001:0006f3bc       DoDhByProtocol             00000000000803bc f   UefiShellDriver1CommandsLib:Dh.obj
 0001:0006f4e8       DoDecodeByProtocol         00000000000804e8 f   UefiShellDriver1CommandsLib:Dh.obj
 0001:0006f80c       ShellCommandRunDh          000000000008080c f   UefiShellDriver1CommandsLib:Dh.obj
 0001:0006ff94       DoDiagnostics              0000000000080f94 f   UefiShellDriver1CommandsLib:DrvDiag.obj
 0001:00070b78       ShellCommandRunDrvDiag     0000000000081b78 f   UefiShellDriver1CommandsLib:DrvDiag.obj
 0001:000712d0       DumpLoadedImageProtocolInfo 00000000000822d0 f   UefiShellDriver1CommandsLib:Unload.obj
 0001:0007134c       ShellCommandRunUnload      000000000008234c f   UefiShellDriver1CommandsLib:Unload.obj
 0001:00071810       ConnectAllConsoles         0000000000082810 f   UefiShellDriver1CommandsLib:Reconnect.obj
 0001:00071864       ShellCommandRunReconnect   0000000000082864 f   UefiShellDriver1CommandsLib:Reconnect.obj
 0001:00071ab8       DisconnectAll              0000000000082ab8 f   UefiShellDriver1CommandsLib:Disconnect.obj
 0001:00071b58       ShellCommandRunDisconnect  0000000000082b58 f   UefiShellDriver1CommandsLib:Disconnect.obj
 0001:000723d0       TraverseHandleDatabase     00000000000833d0 f   UefiShellDriver1CommandsLib:OpenInfo.obj
 0001:00072898       ShellCommandRunOpenInfo    0000000000083898 f   UefiShellDriver1CommandsLib:OpenInfo.obj
 0001:00072d04       GetDeviceHandleInfo        0000000000083d04 f   UefiShellDriver1CommandsLib:Devices.obj
 0001:00073058       ShellCommandRunDevices     0000000000084058 f   UefiShellDriver1CommandsLib:Devices.obj
 0001:00073878       ShellConnectDevicePath     0000000000084878 f   UefiShellDriver1CommandsLib:Connect.obj
 0001:00073960       ShellConnectPciRootBridge  0000000000084960 f   UefiShellDriver1CommandsLib:Connect.obj
 0001:00073a10       ConnectControllers         0000000000084a10 f   UefiShellDriver1CommandsLib:Connect.obj
 0001:00073ecc       ShellConnectFromDevPaths   0000000000084ecc f   UefiShellDriver1CommandsLib:Connect.obj
 0001:000741c0       ConvertAndConnectControllers 00000000000851c0 f   UefiShellDriver1CommandsLib:Connect.obj
 0001:00074368       ShellCommandRunConnect     0000000000085368 f   UefiShellDriver1CommandsLib:Connect.obj
 0001:00074a24       HLineFree                  0000000000085a24 f   UefiShellDebug1CommandsLib:Misc.obj
 0001:00074a60       HLineAdvance               0000000000085a60 f   UefiShellDebug1CommandsLib:Misc.obj
 0001:00074b68       HLineRetreat               0000000000085b68 f   UefiShellDebug1CommandsLib:Misc.obj
 0001:00074c70       HMoveLine                  0000000000085c70 f   UefiShellDebug1CommandsLib:Misc.obj
 0001:00074cd8       HMoveCurrentLine           0000000000085cd8 f   UefiShellDebug1CommandsLib:Misc.obj
 0001:00074d5c       HFreeLines                 0000000000085d5c f   UefiShellDebug1CommandsLib:Misc.obj
 0001:00074e54       HGetTextX                  0000000000085e54 f   UefiShellDebug1CommandsLib:Misc.obj
 0001:00074ed4       HGetTextY                  0000000000085ed4 f   UefiShellDebug1CommandsLib:Misc.obj
 0001:00074f54       HMemImageInit              0000000000085f54 f   UefiShellDebug1CommandsLib:MemImage.obj
 0001:00074fbc       HMemImageBackup            0000000000085fbc f   UefiShellDebug1CommandsLib:MemImage.obj
 0001:00074fdc       HMemImageSetMemOffsetSize  0000000000085fdc f   UefiShellDebug1CommandsLib:MemImage.obj
 0001:00075004       HMemImageRead              0000000000086004 f   UefiShellDebug1CommandsLib:MemImage.obj
 0001:000752ec       HMemImageSave              00000000000862ec f   UefiShellDebug1CommandsLib:MemImage.obj
 0001:000753d4       HMainCommandDisplayHelp    00000000000863d4 f   UefiShellDebug1CommandsLib:MainHexEditor.obj
 0001:00075598       HMainCommandGoToOffset     0000000000086598 f   UefiShellDebug1CommandsLib:MainHexEditor.obj
 0001:00075730       HMainCommandSaveBuffer     0000000000086730 f   UefiShellDebug1CommandsLib:MainHexEditor.obj
 0001:00075eb4       HMainCommandSelectStart    0000000000086eb4 f   UefiShellDebug1CommandsLib:MainHexEditor.obj
 0001:00075f74       HMainCommandSelectEnd      0000000000086f74 f   UefiShellDebug1CommandsLib:MainHexEditor.obj
 0001:0007602c       HMainCommandCut            000000000008702c f   UefiShellDebug1CommandsLib:MainHexEditor.obj
 0001:00076170       HMainCommandPaste          0000000000087170 f   UefiShellDebug1CommandsLib:MainHexEditor.obj
 0001:0007626c       HMainCommandExit           000000000008726c f   UefiShellDebug1CommandsLib:MainHexEditor.obj
 0001:00076430       HMainCommandOpenFile       0000000000087430 f   UefiShellDebug1CommandsLib:MainHexEditor.obj
 0001:00076be8       HMainCommandOpenDisk       0000000000087be8 f   UefiShellDebug1CommandsLib:MainHexEditor.obj
 0001:000772c4       HMainCommandOpenMemory     00000000000882c4 f   UefiShellDebug1CommandsLib:MainHexEditor.obj
 0001:000778fc       HMainEditorInit            00000000000888fc f   UefiShellDebug1CommandsLib:MainHexEditor.obj
 0001:00077dbc       HMainEditorCleanup         0000000000088dbc f   UefiShellDebug1CommandsLib:MainHexEditor.obj
 0001:00077ef0       HMainEditorRefresh         0000000000088ef0 f   UefiShellDebug1CommandsLib:MainHexEditor.obj
 0001:0007833c       HMainEditorHandleMouseInput 000000000008933c f   UefiShellDebug1CommandsLib:MainHexEditor.obj
 0001:000786a0       HMainEditorKeyInput        00000000000896a0 f   UefiShellDebug1CommandsLib:MainHexEditor.obj
 0001:00078cb8       HMainEditorBackup          0000000000089cb8 f   UefiShellDebug1CommandsLib:MainHexEditor.obj
 0001:00078ce4       ShellCommandRunHexEdit     0000000000089ce4 f   UefiShellDebug1CommandsLib:HexEdit.obj
 0001:00079808       HFileImageInit             000000000008a808 f   UefiShellDebug1CommandsLib:FileImage.obj
 0001:00079848       HFileImageBackup           000000000008a848 f   UefiShellDebug1CommandsLib:FileImage.obj
 0001:000798ac       HFileImageCleanup          000000000008a8ac f   UefiShellDebug1CommandsLib:FileImage.obj
 0001:00079908       HFileImageSetFileName      000000000008a908 f   UefiShellDebug1CommandsLib:FileImage.obj
 0001:00079988       HFileImageRead             000000000008a988 f   UefiShellDebug1CommandsLib:FileImage.obj
 0001:00079cc0       HFileImageSave             000000000008acc0 f   UefiShellDebug1CommandsLib:FileImage.obj
 0001:0007a184       HDiskImageInit             000000000008b184 f   UefiShellDebug1CommandsLib:DiskImage.obj
 0001:0007a1c4       HDiskImageBackup           000000000008b1c4 f   UefiShellDebug1CommandsLib:DiskImage.obj
 0001:0007a244       HDiskImageCleanup          000000000008b244 f   UefiShellDebug1CommandsLib:DiskImage.obj
 0001:0007a2a0       HDiskImageSetDiskNameOffsetSize 000000000008b2a0 f   UefiShellDebug1CommandsLib:DiskImage.obj
 0001:0007a340       HDiskImageRead             000000000008b340 f   UefiShellDebug1CommandsLib:DiskImage.obj
 0001:0007a810       HDiskImageSave             000000000008b810 f   UefiShellDebug1CommandsLib:DiskImage.obj
 0001:0007aa04       HClipBoardInit             000000000008ba04 f   UefiShellDebug1CommandsLib:Clipboard.obj
 0001:0007aa28       HClipBoardCleanup          000000000008ba28 f   UefiShellDebug1CommandsLib:Clipboard.obj
 0001:0007aa5c       HClipBoardSet              000000000008ba5c f   UefiShellDebug1CommandsLib:Clipboard.obj
 0001:0007aab0       HClipBoardGet              000000000008bab0 f   UefiShellDebug1CommandsLib:Clipboard.obj
 0001:0007aacc       HBufferImageInit           000000000008bacc f   UefiShellDebug1CommandsLib:BufferImage.obj
 0001:0007ac30       HBufferImageBackup         000000000008bc30 f   UefiShellDebug1CommandsLib:BufferImage.obj
 0001:0007acd4       HBufferImageFreeLines      000000000008bcd4 f   UefiShellDebug1CommandsLib:BufferImage.obj
 0001:0007ad14       HBufferImageCleanup        000000000008bd14 f   UefiShellDebug1CommandsLib:BufferImage.obj
 0001:0007ad68       HBufferImagePrintLine      000000000008bd68 f   UefiShellDebug1CommandsLib:BufferImage.obj
 0001:0007b50c       HBufferImageIsAtHighBits   000000000008c50c f   UefiShellDebug1CommandsLib:BufferImage.obj
 0001:0007b5b0       HBufferImageIsInSelectedArea 000000000008c5b0 f   UefiShellDebug1CommandsLib:BufferImage.obj
 0001:0007b720       HBufferImageRestoreMousePosition 000000000008c720 f   UefiShellDebug1CommandsLib:BufferImage.obj
 0001:0007bb70       HBufferImageRestorePosition 000000000008cb70 f   UefiShellDebug1CommandsLib:BufferImage.obj
 0001:0007bbb8       HBufferImageRefresh        000000000008cbb8 f   UefiShellDebug1CommandsLib:BufferImage.obj
 0001:0007c02c       HBufferImageRead           000000000008d02c f   UefiShellDebug1CommandsLib:BufferImage.obj
 0001:0007c104       HBufferImageSave           000000000008d104 f   UefiShellDebug1CommandsLib:BufferImage.obj
 0001:0007c1c8       HBufferImageCreateLine     000000000008d1c8 f   UefiShellDebug1CommandsLib:BufferImage.obj
 0001:0007c2d8       HBufferImageFree           000000000008d2d8 f   UefiShellDebug1CommandsLib:BufferImage.obj
 0001:0007c2e8       HBufferImageCharToHex      000000000008d2e8 f   UefiShellDebug1CommandsLib:BufferImage.obj
 0001:0007c358       HBufferImageAddChar        000000000008d358 f   UefiShellDebug1CommandsLib:BufferImage.obj
 0001:0007c52c       HBufferImageDoBackspace    000000000008d52c f   UefiShellDebug1CommandsLib:BufferImage.obj
 0001:0007c604       HBufferImageDoCharInput    000000000008d604 f   UefiShellDebug1CommandsLib:BufferImage.obj
 0001:0007c694       HAboveCurrentScreen        000000000008d694 f   UefiShellDebug1CommandsLib:BufferImage.obj
 0001:0007c6b0       HUnderCurrentScreen        000000000008d6b0 f   UefiShellDebug1CommandsLib:BufferImage.obj
 0001:0007c6d8       HBufferImageMovePosition   000000000008d6d8 f   UefiShellDebug1CommandsLib:BufferImage.obj
 0001:0007c87c       HBufferImageScrollRight    000000000008d87c f   UefiShellDebug1CommandsLib:BufferImage.obj
 0001:0007c924       HBufferImageScrollLeft     000000000008d924 f   UefiShellDebug1CommandsLib:BufferImage.obj
 0001:0007ca50       HBufferImageScrollDown     000000000008da50 f   UefiShellDebug1CommandsLib:BufferImage.obj
 0001:0007cb78       HBufferImageScrollUp       000000000008db78 f   UefiShellDebug1CommandsLib:BufferImage.obj
 0001:0007cbe4       HBufferImagePageDown       000000000008dbe4 f   UefiShellDebug1CommandsLib:BufferImage.obj
 0001:0007ccc8       HBufferImagePageUp         000000000008dcc8 f   UefiShellDebug1CommandsLib:BufferImage.obj
 0001:0007cd60       HBufferImageHome           000000000008dd60 f   UefiShellDebug1CommandsLib:BufferImage.obj
 0001:0007cd9c       HBufferImageEnd            000000000008dd9c f   UefiShellDebug1CommandsLib:BufferImage.obj
 0001:0007ce14       HBufferImageGetTotalSize   000000000008de14 f   UefiShellDebug1CommandsLib:BufferImage.obj
 0001:0007cee4       HBufferImageDeleteCharacterFromBuffer 000000000008dee4 f   UefiShellDebug1CommandsLib:BufferImage.obj
 0001:0007d2b0       HBufferImageAddCharacterToBuffer 000000000008e2b0 f   UefiShellDebug1CommandsLib:BufferImage.obj
 0001:0007d5e8       HBufferImageDoDelete       000000000008e5e8 f   UefiShellDebug1CommandsLib:BufferImage.obj
 0001:0007d6a8       HBufferImageBufferToList   000000000008e6a8 f   UefiShellDebug1CommandsLib:BufferImage.obj
 0001:0007d7dc       HBufferImageListToBuffer   000000000008e7dc f   UefiShellDebug1CommandsLib:BufferImage.obj
 0001:0007d968       HBufferImageAdjustMousePosition 000000000008e968 f   UefiShellDebug1CommandsLib:BufferImage.obj
 0001:0007db00       HBufferImageHandleInput    000000000008eb00 f   UefiShellDebug1CommandsLib:BufferImage.obj
 0001:0007dc1c       LineDup                    000000000008ec1c f   UefiShellDebug1CommandsLib:Misc.obj
 0001:0007dcdc       LineFree                   000000000008ecdc f   UefiShellDebug1CommandsLib:Misc.obj
 0001:0007dd44       MainCommandOpenFile        000000000008ed44 f   UefiShellDebug1CommandsLib:MainTextEditor.obj
 0001:0007e044       MainCommandSwitchFileType  000000000008f044 f   UefiShellDebug1CommandsLib:MainTextEditor.obj
 0001:0007e0a4       MainCommandCutLine         000000000008f0a4 f   UefiShellDebug1CommandsLib:MainTextEditor.obj
 0001:0007e100       MainCommandPasteLine       000000000008f100 f   UefiShellDebug1CommandsLib:MainTextEditor.obj
 0001:0007e134       MainCommandSearch          000000000008f134 f   UefiShellDebug1CommandsLib:MainTextEditor.obj
 0001:0007e388       MainCommandSearchReplace   000000000008f388 f   UefiShellDebug1CommandsLib:MainTextEditor.obj
 0001:0007e968       MainCommandExit            000000000008f968 f   UefiShellDebug1CommandsLib:MainTextEditor.obj
 0001:0007eaac       MainCommandGotoLine        000000000008faac f   UefiShellDebug1CommandsLib:MainTextEditor.obj
 0001:0007eba0       MainCommandSaveFile        000000000008fba0 f   UefiShellDebug1CommandsLib:MainTextEditor.obj
 0001:0007f054       MainCommandDisplayHelp     0000000000090054 f   UefiShellDebug1CommandsLib:MainTextEditor.obj
 0001:0007f1e4       MainEditorInit             00000000000901e4 f   UefiShellDebug1CommandsLib:MainTextEditor.obj
 0001:0007f614       MainEditorCleanup          0000000000090614 f   UefiShellDebug1CommandsLib:MainTextEditor.obj
 0001:0007f708       MainEditorRefresh          0000000000090708 f   UefiShellDebug1CommandsLib:MainTextEditor.obj
 0001:0007f884       GetTextX                   0000000000090884 f   UefiShellDebug1CommandsLib:MainTextEditor.obj
 0001:0007f904       GetTextY                   0000000000090904 f   UefiShellDebug1CommandsLib:MainTextEditor.obj
 0001:0007f984       MainEditorHandleMouseInput 0000000000090984 f   UefiShellDebug1CommandsLib:MainTextEditor.obj
 0001:0007fb98       MainEditorKeyInput         0000000000090b98 f   UefiShellDebug1CommandsLib:MainTextEditor.obj
 0001:0007fe18       MainEditorBackup           0000000000090e18 f   UefiShellDebug1CommandsLib:MainTextEditor.obj
 0001:0007fe28       FileBufferInit             0000000000090e28 f   UefiShellDebug1CommandsLib:FileBuffer.obj
 0001:0007ff04       FileBufferBackup           0000000000090f04 f   UefiShellDebug1CommandsLib:FileBuffer.obj
 0001:0007ffc0       InternalEditorMiscLineAdvance 0000000000090fc0 f   UefiShellDebug1CommandsLib:FileBuffer.obj
 0001:000800d0       InternalEditorMiscLineRetreat 00000000000910d0 f   UefiShellDebug1CommandsLib:FileBuffer.obj
 0001:000801e0       MoveLine                   00000000000911e0 f   UefiShellDebug1CommandsLib:FileBuffer.obj
 0001:00080274       FileBufferRestoreMousePosition 0000000000091274 f   UefiShellDebug1CommandsLib:FileBuffer.obj
 0001:0008059c       FileBufferFreeLines        000000000009159c f   UefiShellDebug1CommandsLib:FileBuffer.obj
 0001:000806b8       FileBufferCleanup          00000000000916b8 f   UefiShellDebug1CommandsLib:FileBuffer.obj
 0001:00080750       FileBufferPrintLine        0000000000091750 f   UefiShellDebug1CommandsLib:FileBuffer.obj
 0001:00080938       FileBufferRestorePosition  0000000000091938 f   UefiShellDebug1CommandsLib:FileBuffer.obj
 0001:00080980       FileBufferRefresh          0000000000091980 f   UefiShellDebug1CommandsLib:FileBuffer.obj
 0001:00080c28       FileBufferCreateLine       0000000000091c28 f   UefiShellDebug1CommandsLib:FileBuffer.obj
 0001:00080da8       FileBufferSetFileName      0000000000091da8 f   UefiShellDebug1CommandsLib:FileBuffer.obj
 0001:00080e2c       FileBufferFree             0000000000091e2c f   UefiShellDebug1CommandsLib:FileBuffer.obj
 0001:00080e44       FileBufferRead             0000000000091e44 f   UefiShellDebug1CommandsLib:FileBuffer.obj
 0001:000818a0       GetNewLine                 00000000000928a0 f   UefiShellDebug1CommandsLib:FileBuffer.obj
 0001:00081ae0       UnicodeToAscii             0000000000092ae0 f   UefiShellDebug1CommandsLib:FileBuffer.obj
 0001:00081b48       FileBufferSave             0000000000092b48 f   UefiShellDebug1CommandsLib:FileBuffer.obj
 0001:00082210       FileBufferScrollLeft       0000000000093210 f   UefiShellDebug1CommandsLib:FileBuffer.obj
 0001:00082330       LineDeleteAt               0000000000093330 f   UefiShellDebug1CommandsLib:FileBuffer.obj
 0001:000823a8       LineCat                    00000000000933a8 f   UefiShellDebug1CommandsLib:FileBuffer.obj
 0001:00082474       FileBufferDoBackspace      0000000000093474 f   UefiShellDebug1CommandsLib:FileBuffer.obj
 0001:000825e4       FileBufferDoReturn         00000000000935e4 f   UefiShellDebug1CommandsLib:FileBuffer.obj
 0001:0008285c       FileBufferDoDelete         000000000009385c f   UefiShellDebug1CommandsLib:FileBuffer.obj
 0001:000829c4       FileBufferScrollRight      00000000000939c4 f   UefiShellDebug1CommandsLib:FileBuffer.obj
 0001:00082a60       LineStrInsert              0000000000093a60 f   UefiShellDebug1CommandsLib:FileBuffer.obj
 0001:00082b80       FileBufferAddChar          0000000000093b80 f   UefiShellDebug1CommandsLib:FileBuffer.obj
 0001:00082c24       FileBufferDoCharInput      0000000000093c24 f   UefiShellDebug1CommandsLib:FileBuffer.obj
 0001:00082cc0       FileBufferScrollDown       0000000000093cc0 f   UefiShellDebug1CommandsLib:FileBuffer.obj
 0001:00082de8       FileBufferScrollUp         0000000000093de8 f   UefiShellDebug1CommandsLib:FileBuffer.obj
 0001:00082efc       FileBufferPageDown         0000000000093efc f   UefiShellDebug1CommandsLib:FileBuffer.obj
 0001:00082fcc       FileBufferPageUp           0000000000093fcc f   UefiShellDebug1CommandsLib:FileBuffer.obj
 0001:000830a0       FileBufferEnd              00000000000940a0 f   UefiShellDebug1CommandsLib:FileBuffer.obj
 0001:000830e4       FileBufferHandleInput      00000000000940e4 f   UefiShellDebug1CommandsLib:FileBuffer.obj
 0001:000832b4       AboveCurrentScreen         00000000000942b4 f   UefiShellDebug1CommandsLib:FileBuffer.obj
 0001:000832d0       UnderCurrentScreen         00000000000942d0 f   UefiShellDebug1CommandsLib:FileBuffer.obj
 0001:000832f8       LeftCurrentScreen          00000000000942f8 f   UefiShellDebug1CommandsLib:FileBuffer.obj
 0001:00083314       RightCurrentScreen         0000000000094314 f   UefiShellDebug1CommandsLib:FileBuffer.obj
 0001:0008333c       MoveCurrentLine            000000000009433c f   UefiShellDebug1CommandsLib:FileBuffer.obj
 0001:000833ec       FileBufferMovePosition     00000000000943ec f   UefiShellDebug1CommandsLib:FileBuffer.obj
 0001:00083628       FileBufferCutLine          0000000000094628 f   UefiShellDebug1CommandsLib:FileBuffer.obj
 0001:00083878       FileBufferPasteLine        0000000000094878 f   UefiShellDebug1CommandsLib:FileBuffer.obj
 0001:00083a18       FileBufferSearch           0000000000094a18 f   UefiShellDebug1CommandsLib:FileBuffer.obj
 0001:00083c90       FileBufferReplace          0000000000094c90 f   UefiShellDebug1CommandsLib:FileBuffer.obj
 0001:00084008       FileBufferAdjustMousePosition 0000000000095008 f   UefiShellDebug1CommandsLib:FileBuffer.obj
 0001:000841c0       FileBufferReplaceAll       00000000000951c0 f   UefiShellDebug1CommandsLib:FileBuffer.obj
 0001:000845f8       FileBufferSetModified      00000000000955f8 f   UefiShellDebug1CommandsLib:FileBuffer.obj
 0001:00084600       ShellCommandRunEdit        0000000000095600 f   UefiShellDebug1CommandsLib:Edit.obj
 0001:00084bf8       MenuBarCleanup             0000000000095bf8 f   UefiShellDebug1CommandsLib:EditMenuBar.obj
 0001:00084c28       MenuBarInit                0000000000095c28 f   UefiShellDebug1CommandsLib:EditMenuBar.obj
 0001:00084cdc       ControlHotKeyInit          0000000000095cdc f   UefiShellDebug1CommandsLib:EditMenuBar.obj
 0001:00084cf0       MenuBarDispatchFunctionKey 0000000000095cf0 f   UefiShellDebug1CommandsLib:EditMenuBar.obj
 0001:00084d44       MenuBarDispatchControlHotKey 0000000000095d44 f   UefiShellDebug1CommandsLib:EditMenuBar.obj
 0001:00084e58       StatusBarInit              0000000000095e58 f   UefiShellDebug1CommandsLib:EditStatusBar.obj
 0001:00084e88       StatusBarCleanup           0000000000095e88 f   UefiShellDebug1CommandsLib:EditStatusBar.obj
 0001:00084eb8       StatusBarRefresh           0000000000095eb8 f   UefiShellDebug1CommandsLib:EditStatusBar.obj
 0001:000850d4       StatusBarSetStatusString   00000000000960d4 f   UefiShellDebug1CommandsLib:EditStatusBar.obj
 0001:00085144       StatusBarGetString         0000000000096144 f   UefiShellDebug1CommandsLib:EditStatusBar.obj
 0001:0008514c       StatusBarSetRefresh        000000000009614c f   UefiShellDebug1CommandsLib:EditStatusBar.obj
 0001:00085154       StatusBarGetRefresh        0000000000096154 f   UefiShellDebug1CommandsLib:EditStatusBar.obj
 0001:0008515c       InputBarInit               000000000009615c f   UefiShellDebug1CommandsLib:EditInputBar.obj
 0001:00085190       InputBarCleanup            0000000000096190 f   UefiShellDebug1CommandsLib:EditInputBar.obj
 0001:00085200       InputBarPrintInput         0000000000096200 f   UefiShellDebug1CommandsLib:EditInputBar.obj
 0001:00085378       InputBarRefresh            0000000000096378 f   UefiShellDebug1CommandsLib:EditInputBar.obj
 0001:00085788       InputBarSetPrompt          0000000000096788 f   UefiShellDebug1CommandsLib:EditInputBar.obj
 0001:000857f0       InputBarSetStringSize      00000000000967f0 f   UefiShellDebug1CommandsLib:EditInputBar.obj
 0001:00085864       InputBarGetString          0000000000096864 f   UefiShellDebug1CommandsLib:EditInputBar.obj
 0001:0008586c       MainTitleBarInit           000000000009686c f   UefiShellDebug1CommandsLib:EditTitleBar.obj
 0001:000858f4       MainTitleBarCleanup        00000000000968f4 f   UefiShellDebug1CommandsLib:EditTitleBar.obj
 0001:00085930       MainTitleBarRefresh        0000000000096930 f   UefiShellDebug1CommandsLib:EditTitleBar.obj
 0001:00085c74       ShellCommandGetManFileNameDebug1 0000000000096c74 f   UefiShellDebug1CommandsLib:UefiShellDebug1CommandsLib.obj
 0001:00085c7c       UefiShellDebug1CommandsLibConstructor 0000000000096c7c f   UefiShellDebug1CommandsLib:UefiShellDebug1CommandsLib.obj
 0001:00086160       UefiShellDebug1CommandsLibDestructor 0000000000097160 f   UefiShellDebug1CommandsLib:UefiShellDebug1CommandsLib.obj
 0001:0008619c       GetSystemConfigurationTable 000000000009719c f   UefiShellDebug1CommandsLib:UefiShellDebug1CommandsLib.obj
 0001:00086264       EditorClearLine            0000000000097264 f   UefiShellDebug1CommandsLib:UefiShellDebug1CommandsLib.obj
 0001:000863f4       IsValidFileNameChar        00000000000973f4 f   UefiShellDebug1CommandsLib:UefiShellDebug1CommandsLib.obj
 0001:00086450       IsValidFileName            0000000000097450 f   UefiShellDebug1CommandsLib:UefiShellDebug1CommandsLib.obj
 0001:00086530       EditGetDefaultFileName     0000000000097530 f   UefiShellDebug1CommandsLib:UefiShellDebug1CommandsLib.obj
 0001:00086604       ReadFileIntoBuffer         0000000000097604 f   UefiShellDebug1CommandsLib:UefiShellDebug1CommandsLib.obj
 0001:000868d4       LibSmbiosInit              00000000000978d4 f   UefiShellDebug1CommandsLib:LibSmbiosView.obj
 0001:00086984       LibSmbios64BitInit         0000000000097984 f   UefiShellDebug1CommandsLib:LibSmbiosView.obj
 0001:00086a34       LibSmbiosCleanup           0000000000097a34 f   UefiShellDebug1CommandsLib:LibSmbiosView.obj
 0001:00086a54       LibSmbios64BitCleanup      0000000000097a54 f   UefiShellDebug1CommandsLib:LibSmbiosView.obj
 0001:00086a74       LibSmbiosGetEPS            0000000000097a74 f   UefiShellDebug1CommandsLib:LibSmbiosView.obj
 0001:00086a8c       LibSmbios64BitGetEPS       0000000000097a8c f   UefiShellDebug1CommandsLib:LibSmbiosView.obj
 0001:00086aa4       LibGetSmbiosString         0000000000097aa4 f   UefiShellDebug1CommandsLib:LibSmbiosView.obj
 0001:00086b9c       LibGetSmbiosStructure      0000000000097b9c f   UefiShellDebug1CommandsLib:LibSmbiosView.obj
 0001:00086d0c       LibGetSmbios64BitStructure 0000000000097d0c f   UefiShellDebug1CommandsLib:LibSmbiosView.obj
 0001:00086e78       ShellCommandRunSmbiosView  0000000000097e78 f   UefiShellDebug1CommandsLib:SmbiosView.obj
 0001:00087554       SMBiosView                 0000000000098554 f   UefiShellDebug1CommandsLib:SmbiosView.obj
 0001:0008794c       SMBios64View               000000000009894c f   UefiShellDebug1CommandsLib:SmbiosView.obj
 0001:00087d44       InitSmbiosTableStatistics  0000000000098d44 f   UefiShellDebug1CommandsLib:SmbiosView.obj
 0001:00087f78       CalculateSmbios64BitStructureCountAndLength 0000000000098f78 f   UefiShellDebug1CommandsLib:SmbiosView.obj
 0001:00088068       InitSmbios64BitTableStatistics 0000000000099068 f   UefiShellDebug1CommandsLib:SmbiosView.obj
 0001:000882e4       DisplayStatisticsTable     00000000000992e4 f   UefiShellDebug1CommandsLib:SmbiosView.obj
 0001:0008855c       DisplaySmbios64BitStatisticsTable 000000000009955c f   UefiShellDebug1CommandsLib:SmbiosView.obj
 0001:000887d4       GetShowTypeString          00000000000997d4 f   UefiShellDebug1CommandsLib:SmbiosView.obj
 0001:0008883c       QueryTable                 000000000009983c f   UefiShellDebug1CommandsLib:QueryTable.obj
 0001:0008897c       PrintBitsInfo              000000000009997c f   UefiShellDebug1CommandsLib:QueryTable.obj
 0001:00088acc       DisplaySystemWakeupType    0000000000099acc f   UefiShellDebug1CommandsLib:QueryTable.obj
 0001:00088bb4       DisplayBaseBoardFeatureFlags 0000000000099bb4 f   UefiShellDebug1CommandsLib:QueryTable.obj
 0001:00088c44       DisplayBaseBoardBoardType  0000000000099c44 f   UefiShellDebug1CommandsLib:QueryTable.obj
 0001:00088d2c       DisplaySystemEnclosureType 0000000000099d2c f   UefiShellDebug1CommandsLib:QueryTable.obj
 0001:00088e4c       DisplaySystemEnclosureStatus 0000000000099e4c f   UefiShellDebug1CommandsLib:QueryTable.obj
 0001:00088f34       DisplaySESecurityStatus    0000000000099f34 f   UefiShellDebug1CommandsLib:QueryTable.obj
 0001:0008901c       DisplayProcessorType       000000000009a01c f   UefiShellDebug1CommandsLib:QueryTable.obj
 0001:00089104       DisplayProcessorUpgrade    000000000009a104 f   UefiShellDebug1CommandsLib:QueryTable.obj
 0001:000891ec       DisplayProcessorCharacteristics 000000000009a1ec f   UefiShellDebug1CommandsLib:QueryTable.obj
 0001:0008927c       DisplayMcErrorDetectMethod 000000000009a27c f   UefiShellDebug1CommandsLib:QueryTable.obj
 0001:00089364       DisplayMcErrorCorrectCapability 000000000009a364 f   UefiShellDebug1CommandsLib:QueryTable.obj
 0001:000893f4       DisplayMcInterleaveSupport 000000000009a3f4 f   UefiShellDebug1CommandsLib:QueryTable.obj
 0001:000894dc       DisplayMcMemorySpeeds      000000000009a4dc f   UefiShellDebug1CommandsLib:QueryTable.obj
 0001:0008956c       DisplayMemoryModuleVoltage 000000000009a56c f   UefiShellDebug1CommandsLib:QueryTable.obj
 0001:000895fc       DisplayMmMemoryType        000000000009a5fc f   UefiShellDebug1CommandsLib:QueryTable.obj
 0001:0008968c       DisplayMmErrorStatus       000000000009a68c f   UefiShellDebug1CommandsLib:QueryTable.obj
 0001:0008971c       DisplayCacheSRAMType       000000000009a71c f   UefiShellDebug1CommandsLib:QueryTable.obj
 0001:000897ac       DisplayCacheErrCorrectingType 000000000009a7ac f   UefiShellDebug1CommandsLib:QueryTable.obj
 0001:00089894       DisplayCacheSystemCacheType 000000000009a894 f   UefiShellDebug1CommandsLib:QueryTable.obj
 0001:0008997c       DisplayCacheAssociativity  000000000009a97c f   UefiShellDebug1CommandsLib:QueryTable.obj
 0001:00089a64       DisplayPortConnectorType   000000000009aa64 f   UefiShellDebug1CommandsLib:QueryTable.obj
 0001:00089b4c       DisplayPortType            000000000009ab4c f   UefiShellDebug1CommandsLib:QueryTable.obj
 0001:00089c34       DisplaySystemSlotType      000000000009ac34 f   UefiShellDebug1CommandsLib:QueryTable.obj
 0001:00089d1c       DisplaySystemSlotDataBusWidth 000000000009ad1c f   UefiShellDebug1CommandsLib:QueryTable.obj
 0001:00089e04       DisplaySystemSlotCurrentUsage 000000000009ae04 f   UefiShellDebug1CommandsLib:QueryTable.obj
 0001:00089eec       DisplaySystemSlotLength    000000000009aeec f   UefiShellDebug1CommandsLib:QueryTable.obj
 0001:00089fd4       DisplaySlotCharacteristics1 000000000009afd4 f   UefiShellDebug1CommandsLib:QueryTable.obj
 0001:0008a064       DisplaySlotCharacteristics2 000000000009b064 f   UefiShellDebug1CommandsLib:QueryTable.obj
 0001:0008a0f4       DisplaySystemSlotInformation 000000000009b0f4 f   UefiShellDebug1CommandsLib:QueryTable.obj
 0001:0008a1dc       DisplaySystemSlotPhysicalWidth 000000000009b1dc f   UefiShellDebug1CommandsLib:QueryTable.obj
 0001:0008a2c4       DisplaySystemSlotHeight    000000000009b2c4 f   UefiShellDebug1CommandsLib:QueryTable.obj
 0001:0008a3ac       DisplayOnboardDeviceTypes  000000000009b3ac f   UefiShellDebug1CommandsLib:QueryTable.obj
 0001:0008a494       DisplaySELTypes            000000000009b494 f   UefiShellDebug1CommandsLib:QueryTable.obj
 0001:0008a57c       DisplaySELVarDataFormatType 000000000009b57c f   UefiShellDebug1CommandsLib:QueryTable.obj
 0001:0008a664       DisplayPostResultsBitmapDw1 000000000009b664 f   UefiShellDebug1CommandsLib:QueryTable.obj
 0001:0008a6ec       DisplayPostResultsBitmapDw2 000000000009b6ec f   UefiShellDebug1CommandsLib:QueryTable.obj
 0001:0008a774       DisplaySELSysManagementTypes 000000000009b774 f   UefiShellDebug1CommandsLib:QueryTable.obj
 0001:0008a93c       DisplayPMALocation         000000000009b93c f   UefiShellDebug1CommandsLib:QueryTable.obj
 0001:0008aa24       DisplayPMAUse              000000000009ba24 f   UefiShellDebug1CommandsLib:QueryTable.obj
 0001:0008ab0c       DisplayPMAErrorCorrectionTypes 000000000009bb0c f   UefiShellDebug1CommandsLib:QueryTable.obj
 0001:0008abf4       DisplayMemoryDeviceFormFactor 000000000009bbf4 f   UefiShellDebug1CommandsLib:QueryTable.obj
 0001:0008acdc       DisplayMemoryDeviceType    000000000009bcdc f   UefiShellDebug1CommandsLib:QueryTable.obj
 0001:0008adc4       DisplayMemoryDeviceTypeDetail 000000000009bdc4 f   UefiShellDebug1CommandsLib:QueryTable.obj
 0001:0008ae54       DisplayMemoryDeviceMemoryTechnology 000000000009be54 f   UefiShellDebug1CommandsLib:QueryTable.obj
 0001:0008af3c       DisplayMemoryDeviceMemoryOperatingModeCapability 000000000009bf3c f   UefiShellDebug1CommandsLib:QueryTable.obj
 0001:0008afcc       DisplayMemoryErrorType     000000000009bfcc f   UefiShellDebug1CommandsLib:QueryTable.obj
 0001:0008b0b4       DisplayMemoryErrorGranularity 000000000009c0b4 f   UefiShellDebug1CommandsLib:QueryTable.obj
 0001:0008b19c       DisplayMemoryErrorOperation 000000000009c19c f   UefiShellDebug1CommandsLib:QueryTable.obj
 0001:0008b284       DisplayPointingDeviceType  000000000009c284 f   UefiShellDebug1CommandsLib:QueryTable.obj
 0001:0008b36c       DisplayPointingDeviceInterface 000000000009c36c f   UefiShellDebug1CommandsLib:QueryTable.obj
 0001:0008b454       DisplayPBDeviceChemistry   000000000009c454 f   UefiShellDebug1CommandsLib:QueryTable.obj
 0001:0008b53c       DisplayVPLocation          000000000009c53c f   UefiShellDebug1CommandsLib:QueryTable.obj
 0001:0008b630       DisplayVPStatus            000000000009c630 f   UefiShellDebug1CommandsLib:QueryTable.obj
 0001:0008b720       DisplayCoolingDeviceStatus 000000000009c720 f   UefiShellDebug1CommandsLib:QueryTable.obj
 0001:0008b814       DisplayCoolingDeviceType   000000000009c814 f   UefiShellDebug1CommandsLib:QueryTable.obj
 0001:0008b904       DisplayTemperatureProbeStatus 000000000009c904 f   UefiShellDebug1CommandsLib:QueryTable.obj
 0001:0008b9f8       DisplayTemperatureProbeLoc 000000000009c9f8 f   UefiShellDebug1CommandsLib:QueryTable.obj
 0001:0008bae8       DisplayECPStatus           000000000009cae8 f   UefiShellDebug1CommandsLib:QueryTable.obj
 0001:0008bbdc       DisplayECPLoc              000000000009cbdc f   UefiShellDebug1CommandsLib:QueryTable.obj
 0001:0008bccc       DisplayMDType              000000000009cccc f   UefiShellDebug1CommandsLib:QueryTable.obj
 0001:0008bdb4       DisplayMDAddressType       000000000009cdb4 f   UefiShellDebug1CommandsLib:QueryTable.obj
 0001:0008be9c       DisplayMemoryChannelType   000000000009ce9c f   UefiShellDebug1CommandsLib:QueryTable.obj
 0001:0008bf84       DisplayIPMIDIBMCInterfaceType 000000000009cf84 f   UefiShellDebug1CommandsLib:QueryTable.obj
 0001:0008c06c       DisplayMCHostInterfaceType 000000000009d06c f   UefiShellDebug1CommandsLib:QueryTable.obj
 0001:0008c154       DisplayProcessorArchitectureType 000000000009d154 f   UefiShellDebug1CommandsLib:QueryTable.obj
 0001:0008c23c       DisplayFirmwareCharacteristics 000000000009d23c f   UefiShellDebug1CommandsLib:QueryTable.obj
 0001:0008c2cc       DisplayFirmwareState       000000000009d2cc f   UefiShellDebug1CommandsLib:QueryTable.obj
 0001:0008c3b4       DisplayStructureTypeInfo   000000000009d3b4 f   UefiShellDebug1CommandsLib:QueryTable.obj
 0001:0008c49c       MemToString                000000000009d49c f   UefiShellDebug1CommandsLib:PrintInfo.obj
 0001:0008c514       SmbiosPrintEPSInfo         000000000009d514 f   UefiShellDebug1CommandsLib:PrintInfo.obj
 0001:0008c898       Smbios64BitPrintEPSInfo    000000000009d898 f   UefiShellDebug1CommandsLib:PrintInfo.obj
 0001:0008caf8       SmbiosPrintStructure       000000000009daf8 f   UefiShellDebug1CommandsLib:PrintInfo.obj
 0001:00094bc4       DisplayBiosCharacteristics 00000000000a5bc4 f   UefiShellDebug1CommandsLib:PrintInfo.obj
 0001:000952f0       DisplayBiosCharacteristicsExt1 00000000000a62f0 f   UefiShellDebug1CommandsLib:PrintInfo.obj
 0001:000954f0       DisplayBiosCharacteristicsExt2 00000000000a64f0 f   UefiShellDebug1CommandsLib:PrintInfo.obj
 0001:0009579c       DisplayProcessorFamily     00000000000a679c f   UefiShellDebug1CommandsLib:PrintInfo.obj
 0001:00097578       DisplayProcessorFamily2    00000000000a8578 f   UefiShellDebug1CommandsLib:PrintInfo.obj
 0001:00097b2c       DisplayProcessorVoltage    00000000000a8b2c f   UefiShellDebug1CommandsLib:PrintInfo.obj
 0001:00097d3c       DisplayProcessorStatus     00000000000a8d3c f   UefiShellDebug1CommandsLib:PrintInfo.obj
 0001:0009802c       DisplayMaxMemoryModuleSize 00000000000a902c f   UefiShellDebug1CommandsLib:PrintInfo.obj
 0001:00098130       DisplayMemoryModuleConfigHandles 00000000000a9130 f   UefiShellDebug1CommandsLib:PrintInfo.obj
 0001:00098218       DisplayMmBankConnections   00000000000a9218 f   UefiShellDebug1CommandsLib:PrintInfo.obj
 0001:000983a4       DisplayMmMemorySize        00000000000a93a4 f   UefiShellDebug1CommandsLib:PrintInfo.obj
 0001:00098548       DisplayCacheConfiguration  00000000000a9548 f   UefiShellDebug1CommandsLib:PrintInfo.obj
 0001:000989a8       DisplaySystemSlotId        00000000000a99a8 f   UefiShellDebug1CommandsLib:PrintInfo.obj
 0001:00098c64       DisplaySystemBootStatus    00000000000a9c64 f   UefiShellDebug1CommandsLib:PrintInfo.obj
 0001:00098f6c       DisplaySBDSManufactureDate 00000000000a9f6c f   UefiShellDebug1CommandsLib:PrintInfo.obj
 0001:00099058       DisplaySystemResetCapabilities 00000000000aa058 f   UefiShellDebug1CommandsLib:PrintInfo.obj
 0001:00099368       DisplayHardwareSecuritySettings 00000000000aa368 f   UefiShellDebug1CommandsLib:PrintInfo.obj
 0001:000997c0       DisplayOBRAConnections     00000000000aa7c0 f   UefiShellDebug1CommandsLib:PrintInfo.obj
 0001:00099910       DisplaySPSCharacteristics  00000000000aa910 f   UefiShellDebug1CommandsLib:PrintInfo.obj
 0001:00099fac       DisplayTpmDeviceCharacteristics 00000000000aafac f   UefiShellDebug1CommandsLib:PrintInfo.obj
 0001:0009a168       DisplaySELAccessMethod     00000000000ab168 f   UefiShellDebug1CommandsLib:EventLogInfo.obj
 0001:0009a328       DisplaySELLogStatus        00000000000ab328 f   UefiShellDebug1CommandsLib:EventLogInfo.obj
 0001:0009a480       DisplaySysEventLogHeaderFormat 00000000000ab480 f   UefiShellDebug1CommandsLib:EventLogInfo.obj
 0001:0009a5a4       DisplaySELLogHeaderLen     00000000000ab5a4 f   UefiShellDebug1CommandsLib:EventLogInfo.obj
 0001:0009a698       DisplaySysEventLogHeaderType1 00000000000ab698 f   UefiShellDebug1CommandsLib:EventLogInfo.obj
 0001:0009a92c       DisplaySysEventLogHeader   00000000000ab92c f   UefiShellDebug1CommandsLib:EventLogInfo.obj
 0001:0009aa24       DisplayElVdfInfo           00000000000aba24 f   UefiShellDebug1CommandsLib:EventLogInfo.obj
 0001:0009ad10       DisplaySysEventLogData     00000000000abd10 f   UefiShellDebug1CommandsLib:EventLogInfo.obj
 0001:0009af80       DisplayTheBlocks           00000000000abf80 f   UefiShellDebug1CommandsLib:Dblk.obj
 0001:0009b244       ShellCommandRunDblk        00000000000ac244 f   UefiShellDebug1CommandsLib:Dblk.obj
 0001:0009b838       GetAttrType                00000000000ac838 f   UefiShellDebug1CommandsLib:DmpStore.obj
 0001:0009b9a8       BinaryToHexString          00000000000ac9a8 f   UefiShellDebug1CommandsLib:DmpStore.obj
 0001:0009bacc       LoadVariablesFromFile      00000000000acacc f   UefiShellDebug1CommandsLib:DmpStore.obj
 0001:0009c25c       AppendSingleVariableToFile 00000000000ad25c f   UefiShellDebug1CommandsLib:DmpStore.obj
 0001:0009c424       CascadeProcessVariables    00000000000ad424 f   UefiShellDebug1CommandsLib:DmpStore.obj
 0001:0009ccdc       ProcessVariables           00000000000adcdc f   UefiShellDebug1CommandsLib:DmpStore.obj
 0001:0009d078       ShellCommandRunDmpStore    00000000000ae078 f   UefiShellDebug1CommandsLib:DmpStore.obj
 0001:0009db0c       PciGetClassStrings         00000000000aeb0c f   UefiShellDebug1CommandsLib:Pci.obj
 0001:0009dce8       PciPrintClassCode          00000000000aece8 f   UefiShellDebug1CommandsLib:Pci.obj
 0001:0009ddd0       PciConfigSpaceDumpHex      00000000000aedd0 f   UefiShellDebug1CommandsLib:Pci.obj
 0001:0009de54       ShellCommandRunPci         00000000000aee54 f   UefiShellDebug1CommandsLib:Pci.obj
 0001:0009f250       PciFindProtocolInterface   00000000000b0250 f   UefiShellDebug1CommandsLib:Pci.obj
 0001:0009f394       PciGetProtocolAndResource  00000000000b0394 f   UefiShellDebug1CommandsLib:Pci.obj
 0001:0009f430       PciGetNextBusRange         00000000000b0430 f   UefiShellDebug1CommandsLib:Pci.obj
 0001:0009f508       PciExplainPci              00000000000b0508 f   UefiShellDebug1CommandsLib:Pci.obj
 0001:0009f91c       PciExplainStatus           00000000000b091c f   UefiShellDebug1CommandsLib:Pci.obj
 0001:0009feac       PciExplainCommand          00000000000b0eac f   UefiShellDebug1CommandsLib:Pci.obj
 0001:000a0230       LocatePciCapability        00000000000b1230 f   UefiShellDebug1CommandsLib:Pci.obj
 0001:000a030c       ExplainPcieCapReg          00000000000b130c f   UefiShellDebug1CommandsLib:Pci.obj
 0001:000a0438       ExplainPcieDeviceCap       00000000000b1438 f   UefiShellDebug1CommandsLib:Pci.obj
 0001:000a0760       ExplainPcieDeviceControl   00000000000b1760 f   UefiShellDebug1CommandsLib:Pci.obj
 0001:000a0a58       ExplainPcieDeviceStatus    00000000000b1a58 f   UefiShellDebug1CommandsLib:Pci.obj
 0001:000a0b74       ExplainPcieLinkCap         00000000000b1b74 f   UefiShellDebug1CommandsLib:Pci.obj
 0001:000a0e18       ExplainPcieLinkControl     00000000000b1e18 f   UefiShellDebug1CommandsLib:Pci.obj
 0001:000a1030       ExplainPcieLinkStatus      00000000000b2030 f   UefiShellDebug1CommandsLib:Pci.obj
 0001:000a120c       ExplainPcieSlotCap         00000000000b220c f   UefiShellDebug1CommandsLib:Pci.obj
 0001:000a13fc       ExplainPcieSlotControl     00000000000b23fc f   UefiShellDebug1CommandsLib:Pci.obj
 0001:000a1638       ExplainPcieSlotStatus      00000000000b2638 f   UefiShellDebug1CommandsLib:Pci.obj
 0001:000a1868       ExplainPcieRootControl     00000000000b2868 f   UefiShellDebug1CommandsLib:Pci.obj
 0001:000a1954       ExplainPcieRootCap         00000000000b2954 f   UefiShellDebug1CommandsLib:Pci.obj
 0001:000a1990       ExplainPcieRootStatus      00000000000b2990 f   UefiShellDebug1CommandsLib:Pci.obj
 0001:000a1a14       PrintInterpretedExtendedCompatibilityLinkControl 00000000000b2a14 f   UefiShellDebug1CommandsLib:Pci.obj
 0001:000a1aac       PrintInterpretedExtendedCompatibilityPowerBudgeting 00000000000b2aac f   UefiShellDebug1CommandsLib:Pci.obj
 0001:000a1b4c       PrintInterpretedExtendedCompatibilityAcs 00000000000b2b4c f   UefiShellDebug1CommandsLib:Pci.obj
 0001:000a1c9c       PrintInterpretedExtendedCompatibilityLatencyToleranceReporting 00000000000b2c9c f   UefiShellDebug1CommandsLib:Pci.obj
 0001:000a1d28       PrintInterpretedExtendedCompatibilitySerialNumber 00000000000b2d28 f   UefiShellDebug1CommandsLib:Pci.obj
 0001:000a1da8       PrintInterpretedExtendedCompatibilityRcrb 00000000000b2da8 f   UefiShellDebug1CommandsLib:Pci.obj
 0001:000a1e4c       PrintInterpretedExtendedCompatibilityVendorSpecific 00000000000b2e4c f   UefiShellDebug1CommandsLib:Pci.obj
 0001:000a1edc       PrintInterpretedExtendedCompatibilityECEA 00000000000b2edc f   UefiShellDebug1CommandsLib:Pci.obj
 0001:000a1f5c       PrintInterpretedExtendedCompatibilityAri 00000000000b2f5c f   UefiShellDebug1CommandsLib:Pci.obj
 0001:000a1fe8       PrintInterpretedExtendedCompatibilityDynamicPowerAllocation 00000000000b2fe8 f   UefiShellDebug1CommandsLib:Pci.obj
 0001:000a2104       PrintInterpretedExtendedCompatibilityLinkDeclaration 00000000000b3104 f   UefiShellDebug1CommandsLib:Pci.obj
 0001:000a2210       PrintInterpretedExtendedCompatibilityAer 00000000000b3210 f   UefiShellDebug1CommandsLib:Pci.obj
 0001:000a241c       PrintInterpretedExtendedCompatibilityMulticast 00000000000b341c f   UefiShellDebug1CommandsLib:Pci.obj
 0001:000a2500       PrintInterpretedExtendedCompatibilityVirtualChannel 00000000000b3500 f   UefiShellDebug1CommandsLib:Pci.obj
 0001:000a26bc       PrintInterpretedExtendedCompatibilityResizeableBar 00000000000b36bc f   UefiShellDebug1CommandsLib:Pci.obj
 0001:000a27ac       PrintInterpretedExtendedCompatibilityTph 00000000000b37ac f   UefiShellDebug1CommandsLib:Pci.obj
 0001:000a2890       PrintInterpretedExtendedCompatibilitySecondary 00000000000b3890 f   UefiShellDebug1CommandsLib:Pci.obj
 0001:000a2974       PrintInterpretedExtendedCompatibilityAts 00000000000b3974 f   UefiShellDebug1CommandsLib:Pci.obj
 0001:000a2a00       PrintInterpretedExtendedCompatibilitySriov 00000000000b3a00 f   UefiShellDebug1CommandsLib:Pci.obj
 0001:000a2c20       PrintInterpretedExtendedCompatibilityPri 00000000000b3c20 f   UefiShellDebug1CommandsLib:Pci.obj
 0001:000a2cb8       PrintInterpretedExtendedCompatibilityPasid 00000000000b3cb8 f   UefiShellDebug1CommandsLib:Pci.obj
 0001:000a2d44       PrintInterpretedExtendedCompatibilityL1PmSubstates 00000000000b3d44 f   UefiShellDebug1CommandsLib:Pci.obj
 0001:000a2ddc       PrintInterpretedExtendedCompatibilityDesignatedVendorSpecific 00000000000b3ddc f   UefiShellDebug1CommandsLib:Pci.obj
 0001:000a2ebc       PrintInterpretedExtendedCompatibilityVfResizableBar 00000000000b3ebc f   UefiShellDebug1CommandsLib:Pci.obj
 0001:000a312c       PrintInterpretedExtendedCompatibilityDataLinkFeature 00000000000b412c f   UefiShellDebug1CommandsLib:Pci.obj
 0001:000a31b8       PrintInterpretedExtendedCompatibilityPhysicalLayer16 00000000000b41b8 f   UefiShellDebug1CommandsLib:Pci.obj
 0001:000a3380       PrintInterpretedExtendedCompatibilityLaneMargining 00000000000b4380 f   UefiShellDebug1CommandsLib:Pci.obj
 0001:000a34f0       PrintInterpretedExtendedCompatibilityPhysicalLayer32 00000000000b44f0 f   UefiShellDebug1CommandsLib:Pci.obj
 0001:000a3870       PrintInterpretedExtendedCompatibilityAlternateProtocol 00000000000b4870 f   UefiShellDebug1CommandsLib:Pci.obj
 0001:000a3908       PrintInterpretedExtendedCompatibilityDataObjectExchange 00000000000b4908 f   UefiShellDebug1CommandsLib:Pci.obj
 0001:000a39a0       PrintInterpretedExtendedCompatibilityDevice3 00000000000b49a0 f   UefiShellDebug1CommandsLib:Pci.obj
 0001:000a3c08       PrintInterpretedExtendedCompatibilityIntegrityEncryption 00000000000b4c08 f   UefiShellDebug1CommandsLib:Pci.obj
 0001:000a3ca0       PrintInterpretedExtendedCompatibilityPhysicalLayer64 00000000000b4ca0 f   UefiShellDebug1CommandsLib:Pci.obj
 0001:000a3e78       PrintInterpretedExtendedCompatibilityFlitLogging 00000000000b4e78 f   UefiShellDebug1CommandsLib:Pci.obj
 0001:000a3f4c       PrintInterpretedExtendedCompatibilityPTM 00000000000b4f4c f   UefiShellDebug1CommandsLib:Pci.obj
 0001:000a3fd8       PrintPciExtendedCapabilityDetails 00000000000b4fd8 f   UefiShellDebug1CommandsLib:Pci.obj
 0001:000a4494       PciExplainPciExpress       00000000000b5494 f   UefiShellDebug1CommandsLib:Pci.obj
 0001:000a47c0       DisplaySettings            00000000000b57c0 f   UefiShellDebug1CommandsLib:SerMode.obj
 0001:000a4bb8       ShellCommandRunSerMode     00000000000b5bb8 f   UefiShellDebug1CommandsLib:SerMode.obj
 0001:000a5538       IsStringOfHexNibbles       00000000000b6538 f   UefiShellDebug1CommandsLib:SetVar.obj
 0001:000a5588       TestDataType               00000000000b6588 f   UefiShellDebug1CommandsLib:SetVar.obj
 0001:000a5744       ParseParameterData         00000000000b6744 f   UefiShellDebug1CommandsLib:SetVar.obj
 0001:000a5cbc       GetVariableDataFromParameter 00000000000b6cbc f   UefiShellDebug1CommandsLib:SetVar.obj
 0001:000a603c       ShellCommandRunSetVar      00000000000b703c f   UefiShellDebug1CommandsLib:SetVar.obj
 0001:000a6940       ShellMmDecodePciAddress    00000000000b7940 f   UefiShellDebug1CommandsLib:Mm.obj
 0001:000a6a4c       ShellMmAccess              00000000000b7a4c f   UefiShellDebug1CommandsLib:Mm.obj
 0001:000a7270       ShellMmLocateIoProtocol    00000000000b8270 f   UefiShellDebug1CommandsLib:Mm.obj
 0001:000a7594       ShellCommandRunMm          00000000000b8594 f   UefiShellDebug1CommandsLib:Mm.obj
 0001:000a831c       ShellCommandRunLoadPciRom  00000000000b931c f   UefiShellDebug1CommandsLib:LoadPciRom.obj
 0001:000a8870       LoadEfiDriversFromRomImage 00000000000b9870 f   UefiShellDebug1CommandsLib:LoadPciRom.obj
 0001:000a8f9c       LoadPciRomConnectAllDriversToAllControllers 00000000000b9f9c f   UefiShellDebug1CommandsLib:LoadPciRom.obj
 0001:000a9064       DisplayMmioMemory          00000000000ba064 f   UefiShellDebug1CommandsLib:Dmem.obj
 0001:000a9588       GetBaseName                00000000000ba588 f   UefiShellDebug1CommandsLib:Dmem.obj
 0001:000a9614       GetImageExecutionInfo      00000000000ba614 f   UefiShellDebug1CommandsLib:Dmem.obj
 0001:000a9ea8       ShellCommandRunDmem        00000000000baea8 f   UefiShellDebug1CommandsLib:Dmem.obj
 0001:000aa31c       ShellCommandRunEfiDecompress 00000000000bb31c f   UefiShellDebug1CommandsLib:EfiDecompress.obj
 0001:000aaeb0       ShellCommandRunEfiCompress 00000000000bbeb0 f   UefiShellDebug1CommandsLib:EfiCompress.obj
 0001:000ab84c       MakeCrcTable               00000000000bc84c f   UefiShellDebug1CommandsLib:Compress.obj
 0001:000ab8d0       PutDword                   00000000000bc8d0 f   UefiShellDebug1CommandsLib:Compress.obj
 0001:000ab9b4       AllocateMemory             00000000000bc9b4 f   UefiShellDebug1CommandsLib:Compress.obj
 0001:000abab8       FreeMemory                 00000000000bcab8 f   UefiShellDebug1CommandsLib:Compress.obj
 0001:000abbfc       InitSlide                  00000000000bcbfc f   UefiShellDebug1CommandsLib:Compress.obj
 0001:000abce0       Child                      00000000000bcce0 f   UefiShellDebug1CommandsLib:Compress.obj
 0001:000abd64       MakeChild                  00000000000bcd64 f   UefiShellDebug1CommandsLib:Compress.obj
 0001:000abe38       Split                      00000000000bce38 f   UefiShellDebug1CommandsLib:Compress.obj
 0001:000abfa4       InsertNode                 00000000000bcfa4 f   UefiShellDebug1CommandsLib:Compress.obj
 0001:000ac3c8       DeleteNode                 00000000000bd3c8 f   UefiShellDebug1CommandsLib:Compress.obj
 0001:000ac7a0       FreadCrc                   00000000000bd7a0 f   UefiShellDebug1CommandsLib:Compress.obj
 0001:000ac89c       GetNextMatch               00000000000bd89c f   UefiShellDebug1CommandsLib:Compress.obj
 0001:000ac9ac       DownHeap                   00000000000bd9ac f   UefiShellDebug1CommandsLib:Compress.obj
 0001:000acab4       CountLen                   00000000000bdab4 f   UefiShellDebug1CommandsLib:Compress.obj
 0001:000acb5c       MakeLen                    00000000000bdb5c f   UefiShellDebug1CommandsLib:Compress.obj
 0001:000acd4c       MakeCode                   00000000000bdd4c f   UefiShellDebug1CommandsLib:Compress.obj
 0001:000ace5c       MakeTree                   00000000000bde5c f   UefiShellDebug1CommandsLib:Compress.obj
 0001:000ad154       PutBits                    00000000000be154 f   UefiShellDebug1CommandsLib:Compress.obj
 0001:000ad2ac       EncodeC                    00000000000be2ac f   UefiShellDebug1CommandsLib:Compress.obj
 0001:000ad2e0       EncodeP                    00000000000be2e0 f   UefiShellDebug1CommandsLib:Compress.obj
 0001:000ad378       CountTFreq                 00000000000be378 f   UefiShellDebug1CommandsLib:Compress.obj
 0001:000ad5dc       WritePTLen                 00000000000be5dc f   UefiShellDebug1CommandsLib:Compress.obj
 0001:000ad6ec       WriteCLen                  00000000000be6ec f   UefiShellDebug1CommandsLib:Compress.obj
 0001:000ad980       SendBlock                  00000000000be980 f   UefiShellDebug1CommandsLib:Compress.obj
 0001:000adc14       HufEncodeStart             00000000000bec14 f   UefiShellDebug1CommandsLib:Compress.obj
 0001:000adc70       CompressOutput             00000000000bec70 f   UefiShellDebug1CommandsLib:Compress.obj
 0001:000addf4       HufEncodeEnd               00000000000bedf4 f   UefiShellDebug1CommandsLib:Compress.obj
 0001:000ade10       Encode                     00000000000bee10 f   UefiShellDebug1CommandsLib:Compress.obj
 0001:000adfc8       Compress                   00000000000befc8 f   UefiShellDebug1CommandsLib:Compress.obj
 0001:000ae190       AddMemoryLength            00000000000bf190 f   UefiShellDebug1CommandsLib:MemMap.obj
 0001:000aedcc       ShellCommandRunMemMap      00000000000bfdcc f   UefiShellDebug1CommandsLib:MemMap.obj
 0001:000af248       ShellCommandRunMode        00000000000c0248 f   UefiShellDebug1CommandsLib:Mode.obj
 0001:000af978       PrintDifferentPoint        00000000000c0978 f   UefiShellDebug1CommandsLib:Comp.obj
 0001:000afc88       ShellCommandRunComp        00000000000c0c88 f   UefiShellDebug1CommandsLib:Comp.obj
 0001:000b0f30       ShellCommandRunSetSize     00000000000c1f30 f   UefiShellDebug1CommandsLib:SetSize.obj
 0001:000b14c8       ShellInstall1CommandsLibConstructor 00000000000c24c8 f   UefiShellInstall1CommandsLib:UefiShellInstall1CommandsLib.obj
 0001:000b1504       ShellInstall1CommandsLibDestructor 00000000000c2504 f   UefiShellInstall1CommandsLib:UefiShellInstall1CommandsLib.obj
 0001:000b1528       FreeArgList                00000000000c2528 f   UefiShellNetwork1CommandsLib:Ifconfig.obj
 0001:000b1570       SplitStrToList             00000000000c2570 f   UefiShellNetwork1CommandsLib:Ifconfig.obj
 0001:000b16b4       IfConfigRetriveCheckListByName 00000000000c26b4 f   UefiShellNetwork1CommandsLib:Ifconfig.obj
 0001:000b17ec       IfConfigManualAddressNotify 00000000000c27ec f   UefiShellNetwork1CommandsLib:Ifconfig.obj
 0001:000b1800       IfConfigPrintMacAddr       00000000000c2800 f   UefiShellNetwork1CommandsLib:Ifconfig.obj
 0001:000b1900       IfConfigGetInterfaceInfo   00000000000c2900 f   UefiShellNetwork1CommandsLib:Ifconfig.obj
 0001:000b1cf0       IfConfigShowInterfaceInfo  00000000000c2cf0 f   UefiShellNetwork1CommandsLib:Ifconfig.obj
 0001:000b2698       IfConfigClearInterfaceInfo 00000000000c3698 f   UefiShellNetwork1CommandsLib:Ifconfig.obj
 0001:000b2870       IfConfigSetInterfaceInfo   00000000000c3870 f   UefiShellNetwork1CommandsLib:Ifconfig.obj
 0001:000b3450       IfConfig                   00000000000c4450 f   UefiShellNetwork1CommandsLib:Ifconfig.obj
 0001:000b3518       IfConfigCleanup            00000000000c4518 f   UefiShellNetwork1CommandsLib:Ifconfig.obj
 0001:000b361c       ShellCommandRunIfconfig    00000000000c461c f   UefiShellNetwork1CommandsLib:Ifconfig.obj
 0001:000b3bc8       NetChecksum                00000000000c4bc8 f   UefiShellNetwork1CommandsLib:Ping.obj
 0001:000b3c88       RttTimerTickRoutine        00000000000c4c88 f   UefiShellNetwork1CommandsLib:Ping.obj
 0001:000b3cb4       GetTimerPeriod             00000000000c4cb4 f   UefiShellNetwork1CommandsLib:Ping.obj
 0001:000b3dec       PingInitRttTimer           00000000000c4dec f   UefiShellNetwork1CommandsLib:Ping.obj
 0001:000b3ed0       PingFreeRttTimer           00000000000c4ed0 f   UefiShellNetwork1CommandsLib:Ping.obj
 0001:000b3f18       ReadTime                   00000000000c4f18 f   UefiShellNetwork1CommandsLib:Ping.obj
 0001:000b3f28       CalculateTick              00000000000c4f28 f   UefiShellNetwork1CommandsLib:Ping.obj
 0001:000b3f5c       PingDestroyTxInfo          00000000000c4f5c f   UefiShellNetwork1CommandsLib:Ping.obj
 0001:000b40fc       Ping6MatchEchoReply        00000000000c50fc f   UefiShellNetwork1CommandsLib:Ping.obj
 0001:000b41cc       Ping6OnEchoRequestSent     00000000000c51cc f   UefiShellNetwork1CommandsLib:Ping.obj
 0001:000b41d8       Ping6OnEchoReplyReceived   00000000000c51d8 f   UefiShellNetwork1CommandsLib:Ping.obj
 0001:000b4658       PingGenerateToken          00000000000c5658 f   UefiShellNetwork1CommandsLib:Ping.obj
 0001:000b4a1c       PingSendEchoRequest        00000000000c5a1c f   UefiShellNetwork1CommandsLib:Ping.obj
 0001:000b4b84       Ping6ReceiveEchoReply      00000000000c5b84 f   UefiShellNetwork1CommandsLib:Ping.obj
 0001:000b4c80       Ping6OnTimerRoutine        00000000000c5c80 f   UefiShellNetwork1CommandsLib:Ping.obj
 0001:000b4eb8       PingNetIp4IsLinkLocalAddr  00000000000c5eb8 f   UefiShellNetwork1CommandsLib:Ping.obj
 0001:000b4f38       PingNetIp4IsUnspecifiedAddr 00000000000c5f38 f   UefiShellNetwork1CommandsLib:Ping.obj
 0001:000b4f78       PingCreateIpInstance       00000000000c5f78 f   UefiShellNetwork1CommandsLib:Ping.obj
 0001:000b5b4c       Ping6DestroyIp6Instance    00000000000c6b4c f   UefiShellNetwork1CommandsLib:Ping.obj
 0001:000b5c1c       ShellPing                  00000000000c6c1c f   UefiShellNetwork1CommandsLib:Ping.obj
 0001:000b6320       ShellCommandRunPing        00000000000c7320 f   UefiShellNetwork1CommandsLib:Ping.obj
 0001:000b681c       ShellCommandGetManFileNameNetwork1 00000000000c781c f   UefiShellNetwork1CommandsLib:UefiShellNetwork1CommandsLib.obj
 0001:000b6824       ShellNetwork1CommandsLibConstructor 00000000000c7824 f   UefiShellNetwork1CommandsLib:UefiShellNetwork1CommandsLib.obj
 0001:000b6918       ShellNetwork1CommandsLibDestructor 00000000000c7918 f   UefiShellNetwork1CommandsLib:UefiShellNetwork1CommandsLib.obj
 0002:00000000       ??_C@_05OJBIAJFH@Shell@    00000000000c8000     Shell:AutoGen.obj
 0002:00000008       ??_C@_0CB@DMEJJJHA@?6ASSERT_EFI_ERROR?5?$CIStatus?5?$DN?5?$CFr?$CJ@ 00000000000c8008     Shell:AutoGen.obj
 0002:00000030       ??_C@_0DG@FLPEIDFK@?$CB?$CI?$CI?$CIRETURN_STATUS?$CJ?$CIStatus?$CJ?$CJ?5?$DO?$DN?5@ 00000000000c8030     Shell:AutoGen.obj
 0002:00000070       ??_C@_0HB@FHPCPHMK@D?3?2develop?2Self_develop?2edk2?2Bu@ 00000000000c8070     Shell:AutoGen.obj
 0002:000000e4       _gPcd_FixedAtBuild_PcdMaximumUnicodeStringLength 00000000000c80e4     Shell:AutoGen.obj
 0002:000000e4       _gPcd_FixedAtBuild_PcdMaximumAsciiStringLength 00000000000c80e4     Shell:AutoGen.obj
 0002:000000e4       _gPcd_FixedAtBuild_PcdMaximumLinkedListLength 00000000000c80e4     Shell:AutoGen.obj
 0002:000000e8       _gPcd_FixedAtBuild_PcdReportStatusCodePropertyMask 00000000000c80e8     Shell:AutoGen.obj
 0002:000000ec       _gPcd_FixedAtBuild_PcdShellMaxHistoryCommandCount 00000000000c80ec     Shell:AutoGen.obj
 0002:000000ee       _gPcd_FixedAtBuild_PcdShellSupportFrameworkHii 00000000000c80ee     Shell:AutoGen.obj
 0002:000000ee       _gPcd_FixedAtBuild_PcdShellDecodeIScsiMapNames 00000000000c80ee     Shell:AutoGen.obj
 0002:000000ee       _gPcd_FixedAtBuild_PcdValidateOrderedCollection 00000000000c80ee     Shell:AutoGen.obj
 0002:000000ee       _gPcd_FixedAtBuild_PcdShellForceConsole 00000000000c80ee     Shell:AutoGen.obj
 0002:000000ee       _gPcd_FixedAtBuild_PcdShellLibAutoInitialize 00000000000c80ee     Shell:AutoGen.obj
 0002:000000ee       _gPcd_FixedAtBuild_PcdVerifyNodeInList 00000000000c80ee     Shell:AutoGen.obj
 0002:000000ee       _gPcd_FixedAtBuild_PcdShellPageBreakDefault 00000000000c80ee     Shell:AutoGen.obj
 0002:000000f0       _gPcd_FixedAtBuild_PcdShellSupplier 00000000000c80f0     Shell:AutoGen.obj
 0002:00000100       _gPcd_FixedAtBuild_PcdShellFileOperationSize 00000000000c8100     Shell:AutoGen.obj
 0002:00000104       _gPcd_FixedAtBuild_PcdShellSupportLevel 00000000000c8104     Shell:AutoGen.obj
 0002:00000104       _gPcd_FixedAtBuild_PcdShellScreenLogCount 00000000000c8104     Shell:AutoGen.obj
 0002:00000108       _gPcd_FixedAtBuild_PcdShellVendorExtendedDecode 00000000000c8108     Shell:AutoGen.obj
 0002:00000108       _gUefiDriverRevision       00000000000c8108     Shell:AutoGen.obj
 0002:00000108       _gPcd_FixedAtBuild_PcdMaximumDevicePathNodeCount 00000000000c8108     Shell:AutoGen.obj
 0002:0000010c       _gPcd_FixedAtBuild_PcdDebugPrintErrorLevel 00000000000c810c     Shell:AutoGen.obj
 0002:00000110       _gPcd_FixedAtBuild_PcdShellMapNameLength 00000000000c8110     Shell:AutoGen.obj
 0002:00000114       _gPcd_FixedAtBuild_PcdUefiLibMaxPrintBufferSize 00000000000c8114     Shell:AutoGen.obj
 0002:00000118       _gPcd_FixedAtBuild_PcdFixedDebugPrintErrorLevel 00000000000c8118     Shell:AutoGen.obj
 0002:0000011c       _gPcd_FixedAtBuild_PcdShellDefaultDelay 00000000000c811c     Shell:AutoGen.obj
 0002:00000120       _gPcd_FixedAtBuild_PcdShellIncludeNtGuids 00000000000c8120     Shell:AutoGen.obj
 0002:00000120       _gPcd_FixedAtBuild_PcdShellInsertModeDefault 00000000000c8120     Shell:AutoGen.obj
 0002:00000120       _gPcd_FixedAtBuild_PcdUsbExtendedDecode 00000000000c8120     Shell:AutoGen.obj
 0002:00000120       _gPcd_FixedAtBuild_PcdShellRequireHiiPlatform 00000000000c8120     Shell:AutoGen.obj
 0002:00000121       _gPcd_FixedAtBuild_PcdDebugPropertyMask 00000000000c8121     Shell:AutoGen.obj
 0002:00000121       _gPcd_FixedAtBuild_PcdShellProfileMask 00000000000c8121     Shell:AutoGen.obj
 0002:00000124       _gPcd_FixedAtBuild_PcdShellPrintBufferSize 00000000000c8124     Shell:AutoGen.obj
 0002:00000128       _gPcd_FixedAtBuild_PcdControlFlowEnforcementPropertyMask 00000000000c8128     Shell:AutoGen.obj
 0002:00000130       ??_C@_0BM@JJEJGGGM@ConsoleInfo?5?$CB?$DN?5?$CI?$CIvoid?5?$CK?$CJ?50?$CJ@ 00000000000c8130     Shell:ConsoleLogger.obj
 0002:00000150       ??_C@_0EI@EEKBBNKG@D?3?2develop?2Self_develop?2edk2?2Sh@ 00000000000c8150     Shell:ConsoleLogger.obj
 0002:00000198       ??_C@_0CH@CKEDIBJ@ConsoleInfo?9?$DOOldConOut?5?$CB?$DN?5?$CI?$CIvoi@ 00000000000c8198     Shell:ConsoleLogger.obj
 0002:000001c0       ??_C@_0BC@FEDIJHFF@?$CI?$CIBOOLEAN?$CJ?$CI0?$DN?$DN1?$CJ?$CJ@ 00000000000c81c0     Shell:ConsoleLogger.obj
 0002:000001d8       ??_C@_0BF@NDBIKIKC@CR?5has?5Bad?5Signature@ 00000000000c81d8     Shell:ConsoleLogger.obj
 0002:000001f0       ??_C@_0GJ@MDFBOPCM@ConsoleInfo?9?$DOHistoryMode?4Cursor@ 00000000000c81f0     Shell:ConsoleLogger.obj
 0002:00000260       ??_C@_0CD@DPJJJNIG@CopySize?5?$DM?5ConsoleInfo?9?$DOAttribS@ 00000000000c8260     Shell:ConsoleLogger.obj
 0002:00000288       ??_C@_0CD@PHAIKNHA@CopySize?5?$DM?5ConsoleInfo?9?$DOBufferS@ 00000000000c8288     Shell:ConsoleLogger.obj
 0002:000002b0       ??_C@_0DO@NPBKMNEP@ConsoleInfo?9?$DOOriginalStartRow?5?$DN@ 00000000000c82b0     Shell:ConsoleLogger.obj
 0002:000002f0       ??_C@_0EK@BCAFEPBD@PrintIndex?5?$CL?5ConsoleInfo?9?$DOHisto@ 00000000000c82f0     Shell:ConsoleLogger.obj
 0002:00000340       ??_C@_0CF@EFFGCKGM@PrintIndex?5?$DM?5ConsoleInfo?9?$DOAttri@ 00000000000c8340     Shell:ConsoleLogger.obj
 0002:00000368       ??_C@_15JNBOKNOG@?$AA?$AN?$AA?6@ 00000000000c8368     Shell:ConsoleLogger.obj
 0002:00000370       ??_C@_0CB@IPIIKOIN@ShellInfoObject?4PageBreakEnable@ 00000000000c8370     Shell:ConsoleLogger.obj
 0002:00000398       ??_C@_0BF@JJGDGIED@Resp?5?$CB?$DN?5?$CI?$CIvoid?5?$CK?$CJ?50?$CJ@ 00000000000c8398     Shell:ConsoleLogger.obj
 0002:000003b0       ??_C@_0CL@KGMELDIO@ShellInfoObject?4ConsoleInfo?5?$DN?$DN?5@ 00000000000c83b0     Shell:ConsoleLogger.obj
 0002:000003e0       ??_C@_19ENGJFOPL@?$AA?4?$AAe?$AAf?$AAi@ 00000000000c83e0     Shell:ShellManParser.obj
 0002:000003f0       ??_C@_19BOFOENEP@?$AA?4?$AAm?$AAa?$AAn@ 00000000000c83f0     Shell:ShellManParser.obj
 0002:00000400       ??_C@_17LPJOGKMB@?$AA?4?$AAT?$AAH@ 00000000000c8400     Shell:ShellManParser.obj
 0002:00000408       ??_C@_17KCJLFKHJ@?$AA?4?$AAS?$AAH@ 00000000000c8408     Shell:ShellManParser.obj
 0002:00000410       ??_C@_0EN@MKJGMOL@?$CI?$CKHelpText?5?$DN?$DN?5?$CI?$CIvoid?5?$CK?$CJ?50?$CJ?5?$CG?$CG?5?$CK@ 00000000000c8410     Shell:ShellManParser.obj
 0002:00000460       ??_C@_0EJ@EMKDDKIO@D?3?2develop?2Self_develop?2edk2?2Sh@ 00000000000c8460     Shell:ShellManParser.obj
 0002:000004b0       ??_C@_19NPLEHOOJ@?$AA?4?$AAT?$AAH?$AA?5@ 00000000000c84b0     Shell:ShellManParser.obj
 0002:000004c0       ??_C@_19CIOJOFN@?$AA?4?$AAT?$AAH?$AA?7@ 00000000000c84c0     Shell:ShellManParser.obj
 0002:000004d0       ??_C@_0BJ@PICCNDGH@Volatile?5?$CB?$DN?5?$CI?$CIvoid?5?$CK?$CJ?50?$CJ@ 00000000000c84d0     Shell:ShellEnvVar.obj
 0002:000004f0       ??_C@_0EG@MBBDIIFE@D?3?2develop?2Self_develop?2edk2?2Sh@ 00000000000c84f0     Shell:ShellEnvVar.obj
 0002:00000538       ??_C@_0BF@NJNGJMPC@List?5?$CB?$DN?5?$CI?$CIvoid?5?$CK?$CJ?50?$CJ@ 00000000000c8538     Shell:ShellEnvVar.obj
 0002:00000550       ??_C@_0BF@CBLMFKOC@Node?5?$CB?$DN?5?$CI?$CIvoid?5?$CK?$CJ?50?$CJ@ 00000000000c8550     Shell:ShellEnvVar.obj
 0002:00000568       ??_C@_13NMPKAAJP@?$AA?$DN@ 00000000000c8568     Shell:ShellEnvVar.obj
 0002:00000570       ??_C@_0CN@DGOJNAKA@StrStr?5?$CICurrentString?0?5L?$CC?$DN?$CC?$CJ?5?$CB?$DN@ 00000000000c8570     Shell:ShellEnvVar.obj
 0002:000005a0       ??_C@_13EBCNDICG@?$AA?3@   00000000000c85a0     Shell:FileHandleWrappers.obj
 0002:000005a4       ??_C@_13FPGAJAPJ@?$AA?2@   00000000000c85a4     Shell:FileHandleWrappers.obj
 0002:000005a8       ??_C@_13BBDEGPLJ@?$AA?$CK@ 00000000000c85a8     Shell:FileHandleWrappers.obj
 0002:000005ac       ??_C@_13JOFGPIOO@?$AA?4@   00000000000c85ac     Shell:FileHandleWrappers.obj
 0002:000005b0       ??_C@_15DDHGOCBH@?$AA?4?$AA?4@ 00000000000c85b0     Shell:FileHandleWrappers.obj
 0002:000005b8       ??_C@_17HBKEMHNM@?$AA?$CF?$AAN?$AA?6@ 00000000000c85b8     Shell:FileHandleWrappers.obj
 0002:000005c0       ??_C@_0CA@EPIHLNMK@TabCompleteList?5?$CB?$DN?5?$CI?$CIvoid?5?$CK?$CJ?50?$CJ@ 00000000000c85c0     Shell:FileHandleWrappers.obj
 0002:000005e0       ??_C@_0EN@IKPOCDDD@D?3?2develop?2Self_develop?2edk2?2Sh@ 00000000000c85e0     Shell:FileHandleWrappers.obj
 0002:00000630       ??_C@_13HOIJIPNN@?$AA?5@   00000000000c8630     Shell:FileHandleWrappers.obj
 0002:00000634       ??_C@_11LOCGONAA@@         00000000000c8634     Shell:FileHandleWrappers.obj
 0002:00000638       ??_C@_1O@KOGCFCFL@?$AA?$CF?$AAs?$AA?$CF?$AA?4?$AA?$CK?$AAs@ 00000000000c8638     Shell:FileHandleWrappers.obj
 0002:00000648       ??_C@_0CA@OICFAJM@TabCompleteList?5?$DN?$DN?5?$CI?$CIvoid?5?$CK?$CJ?50?$CJ@ 00000000000c8648     Shell:FileHandleWrappers.obj
 0002:00000668       ??_C@_13LBAGMAIH@?$AA?6@   00000000000c8668     Shell:FileHandleWrappers.obj
 0002:00000670       ??_C@_1BC@CPFBHBNI@?$AA?$CF?$AA2?$AAd?$AA?4?$AA?5?$AA?$CF?$AAs?$AA?6@ 00000000000c8670     Shell:FileHandleWrappers.obj
 0002:00000684       ??_C@_02KPKOKMHB@?$CFS@    00000000000c8684     Shell:FileHandleWrappers.obj
 0002:00000688       ??_C@_0CG@LGHBJIPJ@FileInterface?9?$DOBuffer?5?$DN?$DN?5?$CI?$CIvoid@ 00000000000c8688     Shell:FileHandleWrappers.obj
 0002:000006b0       ??_C@_0BP@HJLEIBOC@FileInterface?9?$DOBufferSize?5?$DN?$DN?50@ 00000000000c86b0     Shell:FileHandleWrappers.obj
 0002:000006d0       ??_C@_0BN@IGDFKHEM@FileInterface?9?$DOPosition?5?$DN?$DN?50@ 00000000000c86d0     Shell:FileHandleWrappers.obj
 0002:000006f0       ??_C@_0FE@BCKIOHKK@?$CIPathForReturn?5?$DN?$DN?5?$CI?$CIvoid?5?$CK?$CJ?50?$CJ?5@ 00000000000c86f0     Shell:ShellProtocol.obj
 0002:00000750       ??_C@_0EI@LNPBFCPN@D?3?2develop?2Self_develop?2edk2?2Sh@ 00000000000c8750     Shell:ShellProtocol.obj
 0002:00000798       ??_C@_13PJJBFPED@?$AA?$DL@ 00000000000c8798     Shell:ShellProtocol.obj
 0002:000007a0       ??_C@_0BP@OFJBBFCN@DevicePathCopy?5?$CB?$DN?5?$CI?$CIvoid?5?$CK?$CJ?50?$CJ@ 00000000000c87a0     Shell:ShellProtocol.obj
 0002:000007c0       ??_C@_0BM@DBMGMBPA@MapPathCopy?5?$CB?$DN?5?$CI?$CIvoid?5?$CK?$CJ?50?$CJ@ 00000000000c87c0     Shell:ShellProtocol.obj
 0002:000007e0       ??_C@_0EE@BCOIFDNA@?$CIMapName?5?$DN?$DN?5?$CI?$CIvoid?5?$CK?$CJ?50?$CJ?5?$CG?$CG?5Siz@ 00000000000c87e0     Shell:ShellProtocol.obj
 0002:00000828       ??_C@_0BP@KDOFGGLG@BestDeviceName?5?$CB?$DN?5?$CI?$CIvoid?5?$CK?$CJ?50?$CJ@ 00000000000c8828     Shell:ShellProtocol.obj
 0002:00000848       ??_C@_15DOBJMHMB@?$AA?$DO?$AAv@ 00000000000c8848     Shell:ShellProtocol.obj
 0002:00000850       ??_C@_15DGGDIAAI@?$AA?$DO?$AAi@ 00000000000c8850     Shell:ShellProtocol.obj
 0002:00000858       ??_C@_0BM@CPHPCMLA@?$CKFileHandle?5?$CB?$DN?5?$CI?$CIvoid?5?$CK?$CJ?50?$CJ@ 00000000000c8858     Shell:ShellProtocol.obj
 0002:00000874       ??_C@_15BDAINPNE@?$AA?$DO?$AAo@ 00000000000c8874     Shell:ShellProtocol.obj
 0002:00000880       ??_C@_17CLELIOII@?$AAN?$AAU?$AAL@ 00000000000c8880     Shell:ShellProtocol.obj
 0002:00000888       ??_C@_19CIJIHAKK@?$AAN?$AAU?$AAL?$AAL@ 00000000000c8888     Shell:ShellProtocol.obj
 0002:00000894       ??_C@_15HMLFDPLA@?$AA?$DO?$AAe@ 00000000000c8894     Shell:ShellProtocol.obj
 0002:000008a0       ??_C@_0CC@JOLAKDKP@LoadedImage?9?$DOLoadOptionsSize?5?$DN?$DN@ 00000000000c88a0     Shell:ShellProtocol.obj
 0002:000008c8       ??_C@_0DN@LBLBDEGO@?$CB?$CI?$CI?$CIRETURN_STATUS?$CJ?$CICleanupStatu@ 00000000000c88c8     Shell:ShellProtocol.obj
 0002:00000908       ??_C@_0DO@OOPGJCPI@?$CITemp?5?$DN?$DN?5?$CI?$CIvoid?5?$CK?$CJ?50?$CJ?5?$CG?$CG?5Size?5?$DN@ 00000000000c8908     Shell:ShellProtocol.obj
 0002:00000948       ??_C@_1CC@HKOPKFLN@?$AAS?$AAh?$AAe?$AAl?$AAl?$AA?4?$AAe?$AAf?$AAi?$AA?5?$AA?9?$AAe?$AAx?$AAi?$AAt@ 00000000000c8948     Shell:ShellProtocol.obj
 0002:00000970       ??_C@_0EG@PEBCEDEH@sizeof?5?$CIEFI_SHELL_FILE_INFO_NO_@ 00000000000c8970     Shell:ShellProtocol.obj
 0002:000009b8       ??_C@_0BL@CMJHFCBI@TempString?5?$DN?$DN?5?$CI?$CIvoid?5?$CK?$CJ?50?$CJ@ 00000000000c89b8     Shell:ShellProtocol.obj
 0002:000009e0       ??_C@_0EK@KCBJNLOB@?$CITempString?5?$DN?$DN?5?$CI?$CIvoid?5?$CK?$CJ?50?$CJ?5?$CG?$CG?5@ 00000000000c89e0     Shell:ShellProtocol.obj
 0002:00000a30       ??_C@_0BO@OAECAICK@Count?5?$DM?$DN?5StrLen?5?$CIPatternCopy?$CJ@ 00000000000c8a30     Shell:ShellProtocol.obj
 0002:00000a50       ??_C@_0BI@COEPFHOP@MapName?5?$DN?$DN?5?$CI?$CIvoid?5?$CK?$CJ?50?$CJ@ 00000000000c8a50     Shell:ShellProtocol.obj
 0002:00000a70       ??_C@_0EF@BMFMOKDK@?$CIPath2?5?$DN?$DN?5?$CI?$CIvoid?5?$CK?$CJ?50?$CJ?5?$CG?$CG?5Path2@ 00000000000c8a70     Shell:ShellProtocol.obj
 0002:00000ab8       ??_C@_0BG@HGINAGIJ@Path2?5?$DN?$DN?5?$CI?$CIvoid?5?$CK?$CJ?50?$CJ@ 00000000000c8ab8     Shell:ShellProtocol.obj
 0002:00000ad0       ??_C@_0BK@EGBMOPOO@Node?9?$DOKey?5?$CB?$DN?5?$CI?$CIvoid?5?$CK?$CJ?50?$CJ@ 00000000000c8ad0     Shell:ShellProtocol.obj
 0002:00000af0       ??_C@_0BN@BDINJONM@Status?5?$DN?$DN?5?$CIRETURN_STATUS?$CJ?$CI0?$CJ@ 00000000000c8af0     Shell:ShellProtocol.obj
 0002:00000b10       ??_C@_17GGNKNKOD@?$AAc?$AAw?$AAd@ 00000000000c8b10     Shell:ShellProtocol.obj
 0002:00000b18       ??_C@_1BE@JFEAOBEI@?$AAl?$AAa?$AAs?$AAt?$AAe?$AAr?$AAr?$AAo?$AAr@ 00000000000c8b18     Shell:ShellProtocol.obj
 0002:00000b30       ??_C@_1BC@JPGJMLGC@?$AAp?$AAr?$AAo?$AAf?$AAi?$AAl?$AAe?$AAs@ 00000000000c8b30     Shell:ShellProtocol.obj
 0002:00000b48       ??_C@_1CC@OOEJBCHO@?$AAu?$AAe?$AAf?$AAi?$AAs?$AAh?$AAe?$AAl?$AAl?$AAs?$AAu?$AAp?$AAp?$AAo?$AAr@ 00000000000c8b48     Shell:ShellProtocol.obj
 0002:00000b70       ??_C@_1CC@LDCNHJKB@?$AAu?$AAe?$AAf?$AAi?$AAs?$AAh?$AAe?$AAl?$AAl?$AAv?$AAe?$AAr?$AAs?$AAi?$AAo@ 00000000000c8b70     Shell:ShellProtocol.obj
 0002:00000b98       ??_C@_1BI@BCLCNCIC@?$AAu?$AAe?$AAf?$AAi?$AAv?$AAe?$AAr?$AAs?$AAi?$AAo?$AAn@ 00000000000c8b98     Shell:ShellProtocol.obj
 0002:00000bb0       ??_C@_0EO@JEAAOEHO@?$CIPathToReturn?5?$DN?$DN?5?$CI?$CIvoid?5?$CK?$CJ?50?$CJ?5?$CG@ 00000000000c8bb0     Shell:ShellProtocol.obj
 0002:00000c00       ??_C@_0BO@PFNEAFPA@DirectoryName?5?$CB?$DN?5?$CI?$CIvoid?5?$CK?$CJ?50?$CJ@ 00000000000c8c00     Shell:ShellProtocol.obj
 0002:00000c20       ??_C@_0HI@CAPEDHNF@?$CIMapListItem?9?$DOCurrentDirectoryP@ 00000000000c8c20     Shell:ShellProtocol.obj
 0002:00000c98       ??_C@_0BJ@CNCJBBAK@HelpText?5?$CB?$DN?5?$CI?$CIvoid?5?$CK?$CJ?50?$CJ@ 00000000000c8c98     Shell:ShellProtocol.obj
 0002:00000cc0       ??_C@_0EF@GIBEAODI@?$CIRetVal?5?$DN?$DN?5?$CI?$CIvoid?5?$CK?$CJ?50?$CJ?5?$CG?$CG?5RetS@ 00000000000c8cc0     Shell:ShellProtocol.obj
 0002:00000d08       ??_C@_0BG@PMINLNNJ@Alias?5?$CB?$DN?5?$CI?$CIvoid?5?$CK?$CJ?50?$CJ@ 00000000000c8d08     Shell:ShellProtocol.obj
 0002:00000d20       ??_C@_0DB@GPEBFHNA@IsListEmpty?5?$CI?$CGShellInfoObject?4O@ 00000000000c8d20     Shell:ShellProtocol.obj
 0002:00000d54       ??_C@_15EDKKDMNP@?$AA?5?$AA?$CC@ 00000000000c8d54     Shell:ShellParametersProtocol.obj
 0002:00000d5c       ??_C@_13NEIAEHFG@?$AA?$CC@ 00000000000c8d5c     Shell:ShellParametersProtocol.obj
 0002:00000d60       ??_C@_15CPILICPA@?$AA?$CC?$AA?$FO@ 00000000000c8d60     Shell:ShellParametersProtocol.obj
 0002:00000d68       ??_C@_0BF@JGBEECGI@Argc?5?$CB?$DN?5?$CI?$CIvoid?5?$CK?$CJ?50?$CJ@ 00000000000c8d68     Shell:ShellParametersProtocol.obj
 0002:00000d80       ??_C@_0FC@ICKCJLCD@D?3?2develop?2Self_develop?2edk2?2Sh@ 00000000000c8d80     Shell:ShellParametersProtocol.obj
 0002:00000dd8       ??_C@_0BF@FMENHPJH@Argv?5?$CB?$DN?5?$CI?$CIvoid?5?$CK?$CJ?50?$CJ@ 00000000000c8dd8     Shell:ShellParametersProtocol.obj
 0002:00000df0       ??_C@_0BB@FEAIBCKF@Count?5?$DO?$DN?5?$CI?$CKArgc?$CJ@ 00000000000c8df0     Shell:ShellParametersProtocol.obj
 0002:00000e08       ??_C@_0CD@FIFEEFHJ@NewShellParameters?5?$CB?$DN?5?$CI?$CIvoid?5?$CK?$CJ@ 00000000000c8e08     Shell:ShellParametersProtocol.obj
 0002:00000e30       ??_C@_0CC@LCFPHEN@RootShellInstance?5?$CB?$DN?5?$CI?$CIvoid?5?$CK?$CJ?5@ 00000000000c8e30     Shell:ShellParametersProtocol.obj
 0002:00000e58       ??_C@_1BC@FNCBBNBI@?$AAS?$AAh?$AAe?$AAl?$AAl?$AAO?$AAp?$AAt@ 00000000000c8e58     Shell:ShellParametersProtocol.obj
 0002:00000e70       ??_C@_0CA@MFNMGLLM@FullCommandLine?5?$DN?$DN?5?$CI?$CIvoid?5?$CK?$CJ?50?$CJ@ 00000000000c8e70     Shell:ShellParametersProtocol.obj
 0002:00000e90       ??_C@_13EJFHHPOP@?$AA?$CF@ 00000000000c8e90     Shell:ShellParametersProtocol.obj
 0002:00000ea0       ??_C@_0EP@KEOCDACF@?$CI?$CI?$CIRETURN_STATUS?$CJ?$CIStatus?$CJ?$CJ?5?$DO?$DN?50@ 00000000000c8ea0     Shell:ShellParametersProtocol.obj
 0002:00000ef0       ??_C@_1O@IAAGOEFN@?$AA?5?$AA2?$AA?$DO?$AA?$DO?$AAv?$AA?5@ 00000000000c8ef0     Shell:ShellParametersProtocol.obj
 0002:00000f00       ??_C@_1O@PHJIDGKN@?$AA?5?$AA1?$AA?$DO?$AA?$DO?$AAv?$AA?5@ 00000000000c8f00     Shell:ShellParametersProtocol.obj
 0002:00000f10       ??_C@_1M@HCPFAEO@?$AA?5?$AA?$DO?$AA?$DO?$AAv?$AA?5@ 00000000000c8f10     Shell:ShellParametersProtocol.obj
 0002:00000f20       ??_C@_19LOCGJEPE@?$AA?5?$AA?$DO?$AAv?$AA?5@ 00000000000c8f20     Shell:ShellParametersProtocol.obj
 0002:00000f30       ??_C@_1O@OJELAEIO@?$AA?5?$AA1?$AA?$DO?$AA?$DO?$AAa?$AA?5@ 00000000000c8f30     Shell:ShellParametersProtocol.obj
 0002:00000f40       ??_C@_1M@BFCPIDMC@?$AA?5?$AA1?$AA?$DO?$AA?$DO?$AA?5@ 00000000000c8f40     Shell:ShellParametersProtocol.obj
 0002:00000f50       ??_C@_19FNCNBMPF@?$AA?5?$AA?$DO?$AA?$DO?$AA?5@ 00000000000c8f50     Shell:ShellParametersProtocol.obj
 0002:00000f60       ??_C@_1M@BJPMGCGN@?$AA?5?$AA?$DO?$AA?$DO?$AAa?$AA?5@ 00000000000c8f60     Shell:ShellParametersProtocol.obj
 0002:00000f70       ??_C@_1M@OIPHDJOA@?$AA?5?$AA1?$AA?$DO?$AAa?$AA?5@ 00000000000c8f70     Shell:ShellParametersProtocol.obj
 0002:00000f80       ??_C@_19KAPFKGNH@?$AA?5?$AA?$DO?$AAa?$AA?5@ 00000000000c8f80     Shell:ShellParametersProtocol.obj
 0002:00000f90       ??_C@_1M@POBIDIMB@?$AA?5?$AA2?$AA?$DO?$AA?$DO?$AA?5@ 00000000000c8f90     Shell:ShellParametersProtocol.obj
 0002:00000fa0       ??_C@_1M@BNBDLAMA@?$AA?5?$AA2?$AA?$DO?$AAv?$AA?5@ 00000000000c8fa0     Shell:ShellParametersProtocol.obj
 0002:00000fb0       ??_C@_1M@PGCEALMD@?$AA?5?$AA1?$AA?$DO?$AAv?$AA?5@ 00000000000c8fb0     Shell:ShellParametersProtocol.obj
 0002:00000fc0       ??_C@_1M@DMAICOD@?$AA?5?$AA2?$AA?$DO?$AAa?$AA?5@ 00000000000c8fc0     Shell:ShellParametersProtocol.obj
 0002:00000fd0       ??_C@_19KICAJLK@?$AA?5?$AA2?$AA?$DO?$AA?5@ 00000000000c8fd0     Shell:ShellParametersProtocol.obj
 0002:00000fe0       ??_C@_19IEANAOFJ@?$AA?5?$AA1?$AA?$DO?$AA?5@ 00000000000c8fe0     Shell:ShellParametersProtocol.obj
 0002:00000ff0       ??_C@_17PNOJILCD@?$AA?5?$AA?$DO?$AA?5@ 00000000000c8ff0     Shell:ShellParametersProtocol.obj
 0002:00000ff8       ??_C@_17LACBCKCI@?$AA?5?$AA?$DM?$AA?5@ 00000000000c8ff8     Shell:ShellParametersProtocol.obj
 0002:00001000       ??_C@_19OCNAKBKK@?$AA?5?$AA?$DM?$AAa?$AA?5@ 00000000000c9000     Shell:ShellParametersProtocol.obj
 0002:00001010       ??_C@_19PMADJDIJ@?$AA?5?$AA?$DM?$AAv?$AA?5@ 00000000000c9010     Shell:ShellParametersProtocol.obj
 0002:00001020       ??_C@_1BG@LDKDBFGF@?$AAc?$AAo?$AAn?$AAn?$AAe?$AAc?$AAt?$AA?5?$AA?9?$AAr@ 00000000000c9020     Shell:ShellParametersProtocol.obj
 0002:00001038       ??_C@_0BL@EDBMIKGG@TempHandle?5?$CB?$DN?5?$CI?$CIvoid?5?$CK?$CJ?50?$CJ@ 00000000000c9038     Shell:ShellParametersProtocol.obj
 0002:00001058       ??_C@_0CA@CBKMDJNI@ShellParameters?5?$CB?$DN?5?$CI?$CIvoid?5?$CK?$CJ?50?$CJ@ 00000000000c9058     Shell:ShellParametersProtocol.obj
 0002:00001078       ??_C@_0BI@GCPLFEFJ@OldArgv?5?$CB?$DN?5?$CI?$CIvoid?5?$CK?$CJ?50?$CJ@ 00000000000c9078     Shell:ShellParametersProtocol.obj
 0002:00001090       ??_C@_0BI@KIKCGJKG@OldArgc?5?$CB?$DN?5?$CI?$CIvoid?5?$CK?$CJ?50?$CJ@ 00000000000c9090     Shell:ShellParametersProtocol.obj
 0002:000010a8       mNoNestingEnvVarName       00000000000c90a8     Shell:Shell.obj
 0002:000010c0       mNoNestingTrue             00000000000c90c0     Shell:Shell.obj
 0002:000010d0       ??_C@_0BH@MAAHKCPC@String?5?$CB?$DN?5?$CI?$CIvoid?5?$CK?$CJ?50?$CJ@ 00000000000c90d0     Shell:Shell.obj
 0002:000010f0       ??_C@_0EA@KIOGDPDB@D?3?2develop?2Self_develop?2edk2?2Sh@ 00000000000c90f0     Shell:Shell.obj
 0002:00001130       ??_C@_0BI@OEIGECFN@?$CKString?5?$CB?$DN?5?$CI?$CIvoid?5?$CK?$CJ?50?$CJ@ 00000000000c9130     Shell:Shell.obj
 0002:00001148       ??_C@_0BN@CKKOOFHH@BeginPercent?5?$CB?$DN?5?$CI?$CIvoid?5?$CK?$CJ?50?$CJ@ 00000000000c9148     Shell:Shell.obj
 0002:00001168       ??_C@_0BL@NCMDLNBA@EndPercent?5?$CB?$DN?5?$CI?$CIvoid?5?$CK?$CJ?50?$CJ@ 00000000000c9168     Shell:Shell.obj
 0002:00001188       ??_C@_0BK@LACMFILE@BeginPercent?5?$DM?5EndPercent@ 00000000000c9188     Shell:Shell.obj
 0002:000011a4       ??_C@_13PPFCDPMH@?$AA?$HM@ 00000000000c91a4     Shell:Shell.obj
 0002:000011a8       ??_C@_0CE@PEJIEDGL@ShellInfoObject?4LogScreenCount?5@ 00000000000c91a8     Shell:Shell.obj
 0002:000011d0       ??_C@_0DL@HPCOOOPC@ShellInfoObject?4NewShellParamet@ 00000000000c91d0     Shell:Shell.obj
 0002:00001210       ??_C@_0DE@NALNPBBL@ShellInfoObject?4NewEfiShellProt@ 00000000000c9210     Shell:Shell.obj
 0002:00001248       ??_C@_1M@GDFLIJGE@?$AAF?$AAa?$AAl?$AAs?$AAe@ 00000000000c9248     Shell:Shell.obj
 0002:00001258       ??_C@_17HJKEOJJP@?$AAm?$AAa?$AAp@ 00000000000c9258     Shell:Shell.obj
 0002:00001260       ??_C@_0BL@GNJCLPEO@TempString?5?$CB?$DN?5?$CI?$CIvoid?5?$CK?$CJ?50?$CJ@ 00000000000c9260     Shell:Shell.obj
 0002:0000127c       ??_C@_15KNBIKKIN@?$AA?$CF?$AAd@ 00000000000c927c     Shell:Shell.obj
 0002:00001288       ??_C@_1M@NDGNLFMH@?$AA?$CF?$AAd?$AA?4?$AA?$CF?$AAd@ 00000000000c9288     Shell:Shell.obj
 0002:00001298       ??_C@_0CM@IAGDMIGD@ShellInfoObject?4ConsoleInfo?5?$CB?$DN?5@ 00000000000c9298     Shell:Shell.obj
 0002:000012c8       ??_C@_17LEMNFMDC@?$AAf?$AAo?$AAr@ 00000000000c92c8     Shell:Shell.obj
 0002:000012d0       ??_C@_1O@BBEFAAME@?$AAe?$AAn?$AAd?$AAf?$AAo?$AAr@ 00000000000c92d0     Shell:Shell.obj
 0002:000012e0       ??_C@_15HPILKIBB@?$AAi?$AAf@ 00000000000c92e0     Shell:Shell.obj
 0002:000012e8       ??_C@_19CNLBJFBH@?$AAe?$AAl?$AAs?$AAe@ 00000000000c92e8     Shell:Shell.obj
 0002:000012f8       ??_C@_1M@JOOCEOEH@?$AAe?$AAn?$AAd?$AAi?$AAf@ 00000000000c92f8     Shell:Shell.obj
 0002:00001308       ??_C@_19NFHDJCBF@?$AAg?$AAo?$AAt?$AAo@ 00000000000c9308     Shell:Shell.obj
 0002:00001318       ??_C@_0BI@OIEOGPFD@DevPath?5?$CB?$DN?5?$CI?$CIvoid?5?$CK?$CJ?50?$CJ@ 00000000000c9318     Shell:Shell.obj
 0002:00001330       ??_C@_0BJ@LNALCLOM@FilePath?5?$CB?$DN?5?$CI?$CIvoid?5?$CK?$CJ?50?$CJ@ 00000000000c9330     Shell:Shell.obj
 0002:00001350       ??_C@_1BC@GKOFKKJK@?$AA?9?$AAs?$AAt?$AAa?$AAr?$AAt?$AAu?$AAp@ 00000000000c9350     Shell:Shell.obj
 0002:00001368       ??_C@_1BG@FGCHDHKN@?$AA?9?$AAn?$AAo?$AAs?$AAt?$AAa?$AAr?$AAt?$AAu?$AAp@ 00000000000c9368     Shell:Shell.obj
 0002:00001380       ??_C@_1BM@PMGGPCI@?$AA?9?$AAn?$AAo?$AAc?$AAo?$AAn?$AAs?$AAo?$AAl?$AAe?$AAo?$AAu?$AAt@ 00000000000c9380     Shell:Shell.obj
 0002:000013a0       ??_C@_1BK@IANHHEEL@?$AA?9?$AAn?$AAo?$AAc?$AAo?$AAn?$AAs?$AAo?$AAl?$AAe?$AAi?$AAn@ 00000000000c93a0     Shell:Shell.obj
 0002:000013c0       ??_C@_1BK@HIGCBJDG@?$AA?9?$AAn?$AAo?$AAi?$AAn?$AAt?$AAe?$AAr?$AAr?$AAu?$AAp?$AAt@ 00000000000c93c0     Shell:Shell.obj
 0002:000013e0       ??_C@_1O@FGCMKHFJ@?$AA?9?$AAn?$AAo?$AAm?$AAa?$AAp@ 00000000000c93e0     Shell:Shell.obj
 0002:000013f0       ??_C@_1BG@LGLCEGDI@?$AA?9?$AAn?$AAo?$AAv?$AAe?$AAr?$AAs?$AAi?$AAo?$AAn@ 00000000000c93f0     Shell:Shell.obj
 0002:00001408       ??_C@_1BA@COHPHGOG@?$AA?9?$AAn?$AAo?$AAn?$AAe?$AAs?$AAt@ 00000000000c9408     Shell:Shell.obj
 0002:00001418       ??_C@_1O@BKJLJAOF@?$AA?9?$AAd?$AAe?$AAl?$AAa?$AAy@ 00000000000c9418     Shell:Shell.obj
 0002:00001428       ??_C@_1M@IBGJMPMO@?$AA?9?$AAe?$AAx?$AAi?$AAt@ 00000000000c9428     Shell:Shell.obj
 0002:00001434       ??_C@_13IMODFHAA@?$AA?9@   00000000000c9434     Shell:Shell.obj
 0002:00001440       ??_C@_0JA@FNLKFKGO@?$CIShellInfoObject?4ShellInitSetti@ 00000000000c9440     Shell:Shell.obj
 0002:000014d0       ??_C@_1BO@FLDKLBBG@?$AAh?$AAo?$AAm?$AAe?$AAf?$AAi?$AAl?$AAe?$AAs?$AAy?$AAs?$AAt?$AAe?$AAm@ 00000000000c94d0     Shell:Shell.obj
 0002:000014f0       ??_C@_0CE@LJCHIGCM@OriginalCommandLine?5?$CB?$DN?5?$CI?$CIvoid?5?$CK@ 00000000000c94f0     Shell:Shell.obj
 0002:00001514       ??_C@_15OPFFGINH@?$AA?$FO?$AA?$CF@ 00000000000c9514     Shell:Shell.obj
 0002:00001520       ??_C@_0BH@NPJELEAM@StdOut?5?$DN?$DN?5?$CI?$CIvoid?5?$CK?$CJ?50?$CJ@ 00000000000c9520     Shell:Shell.obj
 0002:00001538       ??_C@_0CH@EMNPLADO@StrStr?5?$CICmdLine?0?5L?$CC?$HM?$CC?$CJ?5?$CB?$DN?5?$CI?$CIvoi@ 00000000000c9538     Shell:Shell.obj
 0002:00001560       ??_C@_0CD@IEFOICLO@Split?9?$DOSplitStdOut?5?$CB?$DN?5?$CI?$CIvoid?5?$CK?$CJ@ 00000000000c9560     Shell:Shell.obj
 0002:00001590       ??_C@_0EG@BGEHLAMA@?$CISPLIT_LIST?5?$CK?$CJGetFirstNode?5?$CI?$CGSh@ 00000000000c9590     Shell:Shell.obj
 0002:000015d8       ??_C@_0BI@CCIALOMF@CmdLine?5?$CB?$DN?5?$CI?$CIvoid?5?$CK?$CJ?50?$CJ@ 00000000000c95d8     Shell:Shell.obj
 0002:000015f0       ??_C@_0BJ@GEMNIBFM@?$CKCmdLine?5?$CB?$DN?5?$CI?$CIvoid?5?$CK?$CJ?50?$CJ@ 00000000000c95f0     Shell:Shell.obj
 0002:00001610       ??_C@_0FA@ICMJJMLF@CmdLine?$FL?$CIStrLen?5?$CICmdLine?$CJ?91?$CJ?$FN?5?$DN@ 00000000000c9610     Shell:Shell.obj
 0002:00001660       ??_C@_15FNEHKAED@?$AA?9?$AA?$DP@ 00000000000c9660     Shell:Shell.obj
 0002:00001668       ??_C@_1M@LBOOPLFJ@?$AAh?$AAe?$AAl?$AAp?$AA?5@ 00000000000c9668     Shell:Shell.obj
 0002:00001678       ??_C@_1M@BCBKOEKO@?$AA0?$AAx?$AA?$CF?$AAL?$AAx@ 00000000000c9678     Shell:Shell.obj
 0002:00001688       ??_C@_19PCNJIDGC@?$AA0?$AAx?$AA?$CF?$AAx@ 00000000000c9688     Shell:Shell.obj
 0002:00001698       ??_C@_1BO@PIKGDIKH@?$AAd?$AAe?$AAb?$AAu?$AAg?$AAl?$AAa?$AAs?$AAt?$AAe?$AAr?$AAr?$AAo?$AAr@ 00000000000c9698     Shell:Shell.obj
 0002:000016b8       ??_C@_13HGPDMIBE@?$AA?$DP@ 00000000000c96b8     Shell:Shell.obj
 0002:000016c0       ??_C@_0CA@IECHPILJ@CommandWithPath?5?$DN?$DN?5?$CI?$CIvoid?5?$CK?$CJ?50?$CJ@ 00000000000c96c0     Shell:Shell.obj
 0002:000016e0       ??_C@_0CA@MFCCBFOP@CommandWithPath?5?$CB?$DN?5?$CI?$CIvoid?5?$CK?$CJ?50?$CJ@ 00000000000c96e0     Shell:Shell.obj
 0002:00001700       ??_C@_0BO@FIAKEDAD@?$CBShellCommandGetScriptExit?5?$CI?$CJ@ 00000000000c9700     Shell:Shell.obj
 0002:00001720       ??_C@_0CK@GPOFFFON@NewScriptFile?9?$DOScriptName?5?$DN?$DN?5?$CI?$CI@ 00000000000c9720     Shell:Shell.obj
 0002:00001750       ??_C@_0CN@MDCLIFIC@NewScriptFile?9?$DOArgv?$FLLoopVar?$FN?5?$DN?$DN@ 00000000000c9750     Shell:Shell.obj
 0002:00001780       ??_C@_0BN@OPFOFCIN@CommandLine2?5?$CB?$DN?5?$CI?$CIvoid?5?$CK?$CJ?50?$CJ@ 00000000000c9780     Shell:Shell.obj
 0002:000017a0       ??_C@_15JEHPHNPC@?$AA?$CF?$AA9@ 00000000000c97a0     Shell:Shell.obj
 0002:000017a8       ??_C@_15CMMDBKJH@?$AA?$CF?$AA8@ 00000000000c97a8     Shell:Shell.obj
 0002:000017b0       ??_C@_15HEKAAKMB@?$AA?$CF?$AA7@ 00000000000c97b0     Shell:Shell.obj
 0002:000017b8       ??_C@_15MMBMGNKE@?$AA?$CF?$AA6@ 00000000000c97b8     Shell:Shell.obj
 0002:000017c0       ??_C@_15NOKJMCEK@?$AA?$CF?$AA5@ 00000000000c97c0     Shell:Shell.obj
 0002:000017c8       ??_C@_15GGBFKFCP@?$AA?$CF?$AA4@ 00000000000c97c8     Shell:Shell.obj
 0002:000017d0       ??_C@_15PLMCJNJG@?$AA?$CF?$AA3@ 00000000000c97d0     Shell:Shell.obj
 0002:000017d8       ??_C@_15EDHOPKPD@?$AA?$CF?$AA2@ 00000000000c97d8     Shell:Shell.obj
 0002:000017e0       ??_C@_15FBMLFFBN@?$AA?$CF?$AA1@ 00000000000c97e0     Shell:Shell.obj
 0002:000017e8       ??_C@_15OJHHDCHI@?$AA?$CF?$AA0@ 00000000000c97e8     Shell:Shell.obj
 0002:000017f0       ??_C@_15OGCJNNE@?$AA?$CC?$AA?$CC@ 00000000000c97f0     Shell:Shell.obj
 0002:000017f8       ??_C@_1BG@GPPJNEOI@?$AA?$EA?$AAe?$AAc?$AAh?$AAo?$AA?5?$AA?9?$AAo?$AAf?$AAf@ 00000000000c97f8     Shell:Shell.obj
 0002:00001810       ??_C@_1BE@DMFNHPCI@?$AA?$EA?$AAe?$AAc?$AAh?$AAo?$AA?5?$AA?9?$AAo?$AAn@ 00000000000c9810     Shell:Shell.obj
 0002:00001828       ??_C@_19EEPNDKNE@?$AA?$CF?$AAs?$AA?$AN?$AA?6@ 00000000000c9828     Shell:Shell.obj
 0002:00001880       ??_C@_0FP@CCJIJCDG@D?3?2develop?2Self_develop?2edk2?2Md@ 00000000000c9880     DxeReportStatusCodeLib:ReportStatusCodeLib.obj
 0002:000018e0       ??_C@_0BH@LKMBFCBF@Format?5?$CB?$DN?5?$CI?$CIvoid?5?$CK?$CJ?50?$CJ@ 00000000000c98e0     DxeReportStatusCodeLib:ReportStatusCodeLib.obj
 0002:000018f8       ??_C@_0BL@JFODOCGB@DevicePath?5?$CB?$DN?5?$CI?$CIvoid?5?$CK?$CJ?50?$CJ@ 00000000000c98f8     DxeReportStatusCodeLib:ReportStatusCodeLib.obj
 0002:00001918       ??_C@_0DN@HHIHPHHB@?$CB?$CI?$CIExtendedData?5?$DN?$DN?5?$CI?$CIvoid?5?$CK?$CJ?50?$CJ@ 00000000000c9918     DxeReportStatusCodeLib:ReportStatusCodeLib.obj
 0002:00001958       ??_C@_0DN@BBBIFINB@?$CB?$CI?$CIExtendedData?5?$CB?$DN?5?$CI?$CIvoid?5?$CK?$CJ?50?$CJ@ 00000000000c9958     DxeReportStatusCodeLib:ReportStatusCodeLib.obj
 0002:00001998       ??_C@_0CI@BGLNHBLM@?$CI?$CI?$CIUINTN?$CJ?5?$CIStartOfBuffer?$CJ?$CJ?5?$CG?50x@ 00000000000c9998     BasePrintLib:PrintLib.obj
 0002:000019c0       ??_C@_0EE@ODNPLEBG@D?3?2develop?2Self_develop?2edk2?2Md@ 00000000000c99c0     BasePrintLib:PrintLib.obj
 0002:00001a08       ??_C@_0CH@KJLBGOBB@?$CI?$CI?$CIUINTN?$CJ?5?$CIFormatString?$CJ?$CJ?5?$CG?50x0@ 00000000000c9a08     BasePrintLib:PrintLib.obj
 0002:00001a30       ??_C@_0CB@LDBAOPMG@?$CI?$CI?$CIUINTN?$CJ?5?$CIBuffer?$CJ?$CJ?5?$CG?50x01?$CJ?5?$DN?$DN?5@ 00000000000c9a30     BasePrintLib:PrintLib.obj
 0002:00001a58       ??_C@_0BH@IACGKAP@Buffer?5?$CB?$DN?5?$CI?$CIvoid?5?$CK?$CJ?50?$CJ@ 00000000000c9a58     BasePrintLib:PrintLibInternal.obj
 0002:00001a70       ??_C@_0EM@LLAPJOAH@D?3?2develop?2Self_develop?2edk2?2Md@ 00000000000c9a70     BasePrintLib:PrintLibInternal.obj
 0002:00001ac0       ??_C@_0BJ@CNKJJNE@?$CIBuffer?5?$CB?$DN?5?$CI?$CIvoid?5?$CK?$CJ?50?$CJ?$CJ@ 00000000000c9ac0     BasePrintLib:PrintLibInternal.obj
 0002:00001ae0       ??_C@_0EB@HDGIDCIO@?$CIBufferSize?5?$DM?$DN?5?$CI_gPcd_FixedAtBu@ 00000000000c9ae0     BasePrintLib:PrintLibInternal.obj
 0002:00001b30       ??_C@_0FJ@HAEMOBLP@?$CIBufferSize?5?$DM?$DN?5?$CI_gPcd_FixedAtBu@ 00000000000c9b30     BasePrintLib:PrintLibInternal.obj
 0002:00001b90       ??_C@_0CO@OJNGHNJG@?$CI?$CIFlags?5?$CG?5?$HO?$CI0x01?5?$HM?50x08?5?$HM?50x20?5@ 00000000000c9b90     BasePrintLib:PrintLibInternal.obj
 0002:00001bc0       ??_C@_0DB@HIDPIAGP@?$CI?$CI?$CIFlags?5?$CG?50x08?$CJ?5?$DN?$DN?50?$CJ?5?$HM?$HM?5?$CI?$CIFla@ 00000000000c9bc0     BasePrintLib:PrintLibInternal.obj
 0002:00001bf8       ??_C@_0N@PNKFBKME@?$CIWidth?5?$DM?538?$CJ@ 00000000000c9bf8     BasePrintLib:PrintLibInternal.obj
 0002:00001c08       ??_C@_0CI@HPJOGFNE@?$CIBufferSize?5?$DO?$DN?5?$CIWidth?5?$CL?51?$CJ?5?$CK?5In@ 00000000000c9c08     BasePrintLib:PrintLibInternal.obj
 0002:00001c30       ??_C@_0BJ@PPAKKDJG@?$CIFormat?5?$CB?$DN?5?$CI?$CIvoid?5?$CK?$CJ?50?$CJ?$CJ@ 00000000000c9c30     BasePrintLib:PrintLibInternal.obj
 0002:00001c50       ??_C@_0ED@LPDDCECB@?$CIBufferSize?5?$DM?$DN?5?$CI_gPcd_FixedAtBu@ 00000000000c9c50     BasePrintLib:PrintLibInternal.obj
 0002:00001ca0       ??_C@_0IM@BFJJFLGB@?$CIStrnLenS?5?$CI?$CICHAR16?5?$CK?$CJFormat?0?5?$CI_@ 00000000000c9ca0     BasePrintLib:PrintLibInternal.obj
 0002:00001d30       ??_C@_0ID@PLGJGION@?$CIAsciiStrnLenS?5?$CIFormat?0?5?$CI_gPcd_@ 00000000000c9d30     BasePrintLib:PrintLibInternal.obj
 0002:00001db8       ??_C@_0O@MLOLIMFM@?$DMnull?5string?$DO@ 00000000000c9db8     BasePrintLib:PrintLibInternal.obj
 0002:00001dc8       ??_C@_0M@BJJDNPHK@?$DMnull?5guid?$DO@ 00000000000c9dc8     BasePrintLib:PrintLibInternal.obj
 0002:00001dd8       ??_C@_0DB@PMLHLBMO@?$CF08x?9?$CF04x?9?$CF04x?9?$CF02x?$CF02x?9?$CF02x?$CF02@ 00000000000c9dd8     BasePrintLib:PrintLibInternal.obj
 0002:00001e10       ??_C@_0M@LHGBCIKM@?$DMnull?5time?$DO@ 00000000000c9e10     BasePrintLib:PrintLibInternal.obj
 0002:00001e20       ??_C@_0BK@FCPKCIDD@?$CF02d?1?$CF02d?1?$CF04d?5?5?$CF02d?3?$CF02d@ 00000000000c9e20     BasePrintLib:PrintLibInternal.obj
 0002:00001e3c       ??_C@_04JIMNDDED@?$CF08X@  00000000000c9e3c     BasePrintLib:PrintLibInternal.obj
 0002:00001e44       ??_C@_02PCIJFNDE@?$AN?6@   00000000000c9e44     BasePrintLib:PrintLibInternal.obj
 0002:00001e48       ??_C@_01LIIJDEN@?$AN@      00000000000c9e48     BasePrintLib:PrintLibInternal.obj
 0002:00001e50       mWarningString             00000000000c9e50     BasePrintLib:PrintLibInternal.obj
 0002:00001f20       mErrorString               00000000000c9f20     BasePrintLib:PrintLibInternal.obj
 0002:00002200       mHexStr                    00000000000ca200     BasePrintLib:PrintLibInternal.obj
 0002:00002210       ??_C@_0BF@PEDOPNMP@Guid?5?$CB?$DN?5?$CI?$CIvoid?5?$CK?$CJ?50?$CJ@ 00000000000ca210     DxePcdLib:DxePcdLib.obj
 0002:00002228       ??_C@_0DG@EEENIGGL@Length?5?$DM?$DN?5?$CI0xFFFFFFFFFFFFFFFFUL@ 00000000000ca228     BaseMemoryLib:MemLibGuid.obj
 0002:00002260       ??_C@_0DI@DAGDPLPG@?$CILength?5?9?51?$CJ?5?$DM?$DN?5?$CI0xFFFFFFFFFFFF@ 00000000000ca260     BaseMemoryLib:IsZeroBufferWrapper.obj
 0002:000022a0       ??_C@_0ED@MKGCMJG@?$CILength?5?9?51?$CJ?5?$DM?$DN?5?$CI0xFFFFFFFFFFFF@ 00000000000ca2a0     BaseMemoryLib:CopyMemWrapper.obj
 0002:000022f0       ??_C@_0EL@NNLJGCCH@D?3?2develop?2Self_develop?2edk2?2Md@ 00000000000ca2f0     BaseMemoryLib:CopyMemWrapper.obj
 0002:00002340       ??_C@_0DO@MAOBOFEG@?$CILength?5?9?51?$CJ?5?$DM?$DN?5?$CI0xFFFFFFFFFFFF@ 00000000000ca340     BaseMemoryLib:CopyMemWrapper.obj
 0002:00002380       ??_C@_0EK@FKIKDMAD@D?3?2develop?2Self_develop?2edk2?2Md@ 00000000000ca380     BaseMemoryLib:SetMemWrapper.obj
 0002:000023d0       ??_C@_0EM@JNBNCFEJ@D?3?2develop?2Self_develop?2edk2?2Md@ 00000000000ca3d0     BaseMemoryLib:SetMem16Wrapper.obj
 0002:00002420       ??_C@_0CO@LECKNDNC@?$CI?$CI?$CIUINTN?$CJBuffer?$CJ?5?$CG?5?$CIsizeof?5?$CIVal@ 00000000000ca420     BaseMemoryLib:SetMem16Wrapper.obj
 0002:00002450       ??_C@_0CF@LEICOABD@?$CILength?5?$CG?5?$CIsizeof?5?$CIValue?$CJ?5?9?51?$CJ?$CJ@ 00000000000ca450     BaseMemoryLib:SetMem16Wrapper.obj
 0002:00002478       ??_C@_0CC@JOEHDGKB@DestinationBuffer?5?$CB?$DN?5?$CI?$CIvoid?5?$CK?$CJ?5@ 00000000000ca478     BaseMemoryLib:CompareMemWrapper.obj
 0002:000024a0       ??_C@_0EO@FAHMLNEH@D?3?2develop?2Self_develop?2edk2?2Md@ 00000000000ca4a0     BaseMemoryLib:CompareMemWrapper.obj
 0002:000024f0       ??_C@_0BN@MDMCNBCC@SourceBuffer?5?$CB?$DN?5?$CI?$CIvoid?5?$CK?$CJ?50?$CJ@ 00000000000ca4f0     BaseMemoryLib:CompareMemWrapper.obj
 0002:00002510       ??_C@_0EL@GJBLADOA@D?3?2develop?2Self_develop?2edk2?2Md@ 00000000000ca510     BaseMemoryLib:ZeroMemWrapper.obj
 0002:00002560       ??_C@_0BI@MMMKPDJL@AcpiAdr?5?$CB?$DN?5?$CI?$CIvoid?5?$CK?$CJ?50?$CJ@ 00000000000ca560     UefiDevicePathLib:DevicePathFromText.obj
 0002:00002580       ??_C@_0FD@MBIKOBIP@D?3?2develop?2Self_develop?2edk2?2Md@ 00000000000ca580     UefiDevicePathLib:DevicePathFromText.obj
 0002:000025d8       ??_C@_1BA@NGCDBIG@?$AAP?$AAr?$AAi?$AAm?$AAa?$AAr?$AAy@ 00000000000ca5d8     UefiDevicePathLib:DevicePathFromText.obj
 0002:000025e8       ??_C@_1BE@BGLPHBHD@?$AAS?$AAe?$AAc?$AAo?$AAn?$AAd?$AAa?$AAr?$AAy@ 00000000000ca5e8     UefiDevicePathLib:DevicePathFromText.obj
 0002:00002600       ??_C@_1O@MHJLHGPK@?$AAM?$AAa?$AAs?$AAt?$AAe?$AAr@ 00000000000ca600     UefiDevicePathLib:DevicePathFromText.obj
 0002:00002610       ??_C@_1M@MJNGBMFK@?$AAS?$AAl?$AAa?$AAv?$AAe@ 00000000000ca610     UefiDevicePathLib:DevicePathFromText.obj
 0002:00002620       ??_C@_1BA@NAMMFHHL@?$AAX?$AAo?$AAn?$AAX?$AAo?$AAf?$AAf@ 00000000000ca620     UefiDevicePathLib:DevicePathFromText.obj
 0002:00002630       ??_C@_1BC@MAICEHGI@?$AAH?$AAa?$AAr?$AAd?$AAw?$AAa?$AAr?$AAe@ 00000000000ca630     UefiDevicePathLib:DevicePathFromText.obj
 0002:00002648       ??_C@_1BG@FMODEGIG@?$AAN?$AAo?$AAT?$AAo?$AAp?$AAo?$AAl?$AAo?$AAg?$AAy@ 00000000000ca648     UefiDevicePathLib:DevicePathFromText.obj
 0002:00002660       ??_C@_19BPNGBNAI@?$AAS?$AAA?$AAT?$AAA@ 00000000000ca660     UefiDevicePathLib:DevicePathFromText.obj
 0002:00002670       ??_C@_17FMMIKNDG@?$AAS?$AAA?$AAS@ 00000000000ca670     UefiDevicePathLib:DevicePathFromText.obj
 0002:00002678       ??_C@_1BC@KMFBFJEN@?$AAE?$AAx?$AAt?$AAe?$AAr?$AAn?$AAa?$AAl@ 00000000000ca678     UefiDevicePathLib:DevicePathFromText.obj
 0002:00002690       ??_C@_1BC@FBOHHDN@?$AAI?$AAn?$AAt?$AAe?$AAr?$AAn?$AAa?$AAl@ 00000000000ca690     UefiDevicePathLib:DevicePathFromText.obj
 0002:000026a8       ??_C@_1BC@EEIMPKHO@?$AAE?$AAx?$AAp?$AAa?$AAn?$AAd?$AAe?$AAd@ 00000000000ca6a8     UefiDevicePathLib:DevicePathFromText.obj
 0002:000026c0       ??_C@_1O@MDCABJAO@?$AAD?$AAi?$AAr?$AAe?$AAc?$AAt@ 00000000000ca6c0     UefiDevicePathLib:DevicePathFromText.obj
 0002:000026d0       ??_C@_17NINPJKOM@?$AAU?$AAD?$AAP@ 00000000000ca6d0     UefiDevicePathLib:DevicePathFromText.obj
 0002:000026d8       ??_C@_17JHAKKMK@?$AAT?$AAC?$AAP@ 00000000000ca6d8     UefiDevicePathLib:DevicePathFromText.obj
 0002:000026e0       ??_C@_1O@ECDFCEKO@?$AAS?$AAt?$AAa?$AAt?$AAi?$AAc@ 00000000000ca6e0     UefiDevicePathLib:DevicePathFromText.obj
 0002:000026f0       ??_C@_1CO@IJAKNKHD@?$AAS?$AAt?$AAa?$AAt?$AAe?$AAl?$AAe?$AAs?$AAs?$AAA?$AAu?$AAt?$AAo?$AAC?$AAo@ 00000000000ca6f0     UefiDevicePathLib:DevicePathFromText.obj
 0002:00002720       ??_C@_1BA@KDAEEGIF@?$AAD?$AAE?$AAF?$AAA?$AAU?$AAL?$AAT@ 00000000000ca720     UefiDevicePathLib:DevicePathFromText.obj
 0002:00002730       ??_C@_13MKMNOPIJ@?$AAD@    00000000000ca730     UefiDevicePathLib:DevicePathFromText.obj
 0002:00002734       ??_C@_13JGCMLPCH@?$AA1@    00000000000ca734     UefiDevicePathLib:DevicePathFromText.obj
 0002:00002738       ??_C@_17CJOJBPKA@?$AA1?$AA?4?$AA5@ 00000000000ca738     UefiDevicePathLib:DevicePathFromText.obj
 0002:00002740       ??_C@_13IEJJBAMJ@?$AA2@    00000000000ca740     UefiDevicePathLib:DevicePathFromText.obj
 0002:00002748       ??_C@_1O@HNAACJMJ@?$AAC?$AAR?$AAC?$AA3?$AA2?$AAC@ 00000000000ca748     UefiDevicePathLib:DevicePathFromText.obj
 0002:00002758       ??_C@_19KLMLHLJG@?$AAN?$AAo?$AAn?$AAe@ 00000000000ca758     UefiDevicePathLib:DevicePathFromText.obj
 0002:00002768       ??_C@_1BC@PDNIOEEC@?$AAC?$AAH?$AAA?$AAP?$AA_?$AAU?$AAN?$AAI@ 00000000000ca768     UefiDevicePathLib:DevicePathFromText.obj
 0002:00002780       ??_C@_17LNBJLOE@?$AAM?$AAB?$AAR@ 00000000000ca780     UefiDevicePathLib:DevicePathFromText.obj
 0002:00002788       ??_C@_17PBGEHLGA@?$AAG?$AAP?$AAT@ 00000000000ca788     UefiDevicePathLib:DevicePathFromText.obj
 0002:00002790       ??_C@_1O@CLMODHEM@?$AAF?$AAl?$AAo?$AAp?$AAp?$AAy@ 00000000000ca790     UefiDevicePathLib:DevicePathFromText.obj
 0002:000027a0       ??_C@_15LJEABJDH@?$AAH?$AAD@ 00000000000ca7a0     UefiDevicePathLib:DevicePathFromText.obj
 0002:000027a8       ??_C@_1M@NEPFDHKI@?$AAC?$AAD?$AAR?$AAO?$AAM@ 00000000000ca7a8     UefiDevicePathLib:DevicePathFromText.obj
 0002:000027b8       ??_C@_1O@IJBLAFEH@?$AAP?$AAC?$AAM?$AAC?$AAI?$AAA@ 00000000000ca7b8     UefiDevicePathLib:DevicePathFromText.obj
 0002:000027c8       ??_C@_17DMBMDHNL@?$AAU?$AAS?$AAB@ 00000000000ca7c8     UefiDevicePathLib:DevicePathFromText.obj
 0002:000027d0       ??_C@_1BA@IFBJBPAK@?$AAN?$AAe?$AAt?$AAw?$AAo?$AAr?$AAk@ 00000000000ca7d0     UefiDevicePathLib:DevicePathFromText.obj
 0002:000027e0       ??_C@_19NHABCBNP@?$AAP?$AAa?$AAt?$AAh@ 00000000000ca7e0     UefiDevicePathLib:DevicePathFromText.obj
 0002:000027f0       ??_C@_1BK@PDLLBLKH@?$AAH?$AAa?$AAr?$AAd?$AAw?$AAa?$AAr?$AAe?$AAP?$AAa?$AAt?$AAh@ 00000000000ca7f0     UefiDevicePathLib:DevicePathFromText.obj
 0002:00002810       ??_C@_17HLFBGCN@?$AAP?$AAc?$AAi@ 00000000000ca810     UefiDevicePathLib:DevicePathFromText.obj
 0002:00002818       ??_C@_1O@MNOBCDEF@?$AAP?$AAc?$AAC?$AAa?$AAr?$AAd@ 00000000000ca818     UefiDevicePathLib:DevicePathFromText.obj
 0002:00002828       ??_C@_1BK@OCLBCLCA@?$AAM?$AAe?$AAm?$AAo?$AAr?$AAy?$AAM?$AAa?$AAp?$AAp?$AAe?$AAd@ 00000000000ca828     UefiDevicePathLib:DevicePathFromText.obj
 0002:00002848       ??_C@_1M@LACAKLOF@?$AAV?$AAe?$AAn?$AAH?$AAw@ 00000000000ca848     UefiDevicePathLib:DevicePathFromText.obj
 0002:00002858       ??_C@_19HGPIFADB@?$AAC?$AAt?$AAr?$AAl@ 00000000000ca858     UefiDevicePathLib:DevicePathFromText.obj
 0002:00002868       ??_C@_17MLACALGH@?$AAB?$AAM?$AAC@ 00000000000ca868     UefiDevicePathLib:DevicePathFromText.obj
 0002:00002870       ??_C@_1BC@EJFCJMMM@?$AAA?$AAc?$AAp?$AAi?$AAP?$AAa?$AAt?$AAh@ 00000000000ca870     UefiDevicePathLib:DevicePathFromText.obj
 0002:00002888       ??_C@_19HOGFOJAH@?$AAA?$AAc?$AAp?$AAi@ 00000000000ca888     UefiDevicePathLib:DevicePathFromText.obj
 0002:00002898       ??_C@_1BA@DHIPOOID@?$AAP?$AAc?$AAi?$AAR?$AAo?$AAo?$AAt@ 00000000000ca898     UefiDevicePathLib:DevicePathFromText.obj
 0002:000028a8       ??_C@_1BC@CHOMCAOI@?$AAP?$AAc?$AAi?$AAe?$AAR?$AAo?$AAo?$AAt@ 00000000000ca8a8     UefiDevicePathLib:DevicePathFromText.obj
 0002:000028c0       ??_C@_1BC@NCPFOOPJ@?$AAK?$AAe?$AAy?$AAb?$AAo?$AAa?$AAr?$AAd@ 00000000000ca8c0     UefiDevicePathLib:DevicePathFromText.obj
 0002:000028d8       ??_C@_1O@EKJPAJBH@?$AAS?$AAe?$AAr?$AAi?$AAa?$AAl@ 00000000000ca8d8     UefiDevicePathLib:DevicePathFromText.obj
 0002:000028e8       ??_C@_1BK@LKLOGFGG@?$AAP?$AAa?$AAr?$AAa?$AAl?$AAl?$AAe?$AAl?$AAP?$AAo?$AAr?$AAt@ 00000000000ca8e8     UefiDevicePathLib:DevicePathFromText.obj
 0002:00002908       ??_C@_1O@GFMNADOD@?$AAA?$AAc?$AAp?$AAi?$AAE?$AAx@ 00000000000ca908     UefiDevicePathLib:DevicePathFromText.obj
 0002:00002918       ??_C@_1BA@IHGFDEME@?$AAA?$AAc?$AAp?$AAi?$AAE?$AAx?$AAp@ 00000000000ca918     UefiDevicePathLib:DevicePathFromText.obj
 0002:00002928       ??_C@_1BA@NNDCDAFF@?$AAA?$AAc?$AAp?$AAi?$AAA?$AAd?$AAr@ 00000000000ca928     UefiDevicePathLib:DevicePathFromText.obj
 0002:00002938       ??_C@_17DACEHHP@?$AAM?$AAs?$AAg@ 00000000000ca938     UefiDevicePathLib:DevicePathFromText.obj
 0002:00002940       ??_C@_17GMMDDNFE@?$AAA?$AAt?$AAa@ 00000000000ca940     UefiDevicePathLib:DevicePathFromText.obj
 0002:00002948       ??_C@_19NLKKMKHM@?$AAS?$AAc?$AAs?$AAi@ 00000000000ca948     UefiDevicePathLib:DevicePathFromText.obj
 0002:00002958       ??_C@_1M@KOFKAIAH@?$AAF?$AAi?$AAb?$AAr?$AAe@ 00000000000ca958     UefiDevicePathLib:DevicePathFromText.obj
 0002:00002968       ??_C@_1BA@BDOAEBJM@?$AAF?$AAi?$AAb?$AAr?$AAe?$AAE?$AAx@ 00000000000ca968     UefiDevicePathLib:DevicePathFromText.obj
 0002:00002978       ??_C@_1M@PJKPDAPK@?$AAI?$AA1?$AA3?$AA9?$AA4@ 00000000000ca978     UefiDevicePathLib:DevicePathFromText.obj
 0002:00002988       ??_C@_17CGMKBHJN@?$AAI?$AA2?$AAO@ 00000000000ca988     UefiDevicePathLib:DevicePathFromText.obj
 0002:00002990       ??_C@_1BG@LFNGJFMI@?$AAI?$AAn?$AAf?$AAi?$AAn?$AAi?$AAb?$AAa?$AAn?$AAd@ 00000000000ca990     UefiDevicePathLib:DevicePathFromText.obj
 0002:000029a8       ??_C@_1O@BHINEOCB@?$AAV?$AAe?$AAn?$AAM?$AAs?$AAg@ 00000000000ca9a8     UefiDevicePathLib:DevicePathFromText.obj
 0002:000029b8       ??_C@_1BE@LMIDEMJL@?$AAV?$AAe?$AAn?$AAP?$AAc?$AAA?$AAn?$AAs?$AAi@ 00000000000ca9b8     UefiDevicePathLib:DevicePathFromText.obj
 0002:000029d0       ??_C@_1BC@JHDKFMJG@?$AAV?$AAe?$AAn?$AAV?$AAt?$AA1?$AA0?$AA0@ 00000000000ca9d0     UefiDevicePathLib:DevicePathFromText.obj
 0002:000029e8       ??_C@_1BK@NHGIEBMC@?$AAV?$AAe?$AAn?$AAV?$AAt?$AA1?$AA0?$AA0?$AAP?$AAl?$AAu?$AAs@ 00000000000ca9e8     UefiDevicePathLib:DevicePathFromText.obj
 0002:00002a08       ??_C@_1BA@NNIEKFBH@?$AAV?$AAe?$AAn?$AAU?$AAt?$AAf?$AA8@ 00000000000caa08     UefiDevicePathLib:DevicePathFromText.obj
 0002:00002a18       ??_C@_1BK@CEOAKICF@?$AAU?$AAa?$AAr?$AAt?$AAF?$AAl?$AAo?$AAw?$AAC?$AAt?$AAr?$AAl@ 00000000000caa18     UefiDevicePathLib:DevicePathFromText.obj
 0002:00002a38       ??_C@_1M@CCCLFLPN@?$AAS?$AAa?$AAs?$AAE?$AAx@ 00000000000caa38     UefiDevicePathLib:DevicePathFromText.obj
 0002:00002a48       ??_C@_19LAHBEEFI@?$AAN?$AAV?$AAM?$AAe@ 00000000000caa48     UefiDevicePathLib:DevicePathFromText.obj
 0002:00002a58       ??_C@_17IHKCJEAJ@?$AAU?$AAF?$AAS@ 00000000000caa58     UefiDevicePathLib:DevicePathFromText.obj
 0002:00002a60       ??_C@_15NAFBOLGP@?$AAS?$AAD@ 00000000000caa60     UefiDevicePathLib:DevicePathFromText.obj
 0002:00002a68       ??_C@_19KDEEGBOA@?$AAe?$AAM?$AAM?$AAC@ 00000000000caa68     UefiDevicePathLib:DevicePathFromText.obj
 0002:00002a78       ??_C@_1BE@BGIBNJJP@?$AAD?$AAe?$AAb?$AAu?$AAg?$AAP?$AAo?$AAr?$AAt@ 00000000000caa78     UefiDevicePathLib:DevicePathFromText.obj
 0002:00002a90       ??_C@_17GFOANJLA@?$AAM?$AAA?$AAC@ 00000000000caa90     UefiDevicePathLib:DevicePathFromText.obj
 0002:00002a98       ??_C@_19IJMOMJAP@?$AAI?$AAP?$AAv?$AA4@ 00000000000caa98     UefiDevicePathLib:DevicePathFromText.obj
 0002:00002aa8       ??_C@_19CDMHABIE@?$AAI?$AAP?$AAv?$AA6@ 00000000000caaa8     UefiDevicePathLib:DevicePathFromText.obj
 0002:00002ab8       ??_C@_19PNLOOBKB@?$AAU?$AAa?$AAr?$AAt@ 00000000000caab8     UefiDevicePathLib:DevicePathFromText.obj
 0002:00002ac8       ??_C@_1BC@BHHGGAIE@?$AAU?$AAs?$AAb?$AAC?$AAl?$AAa?$AAs?$AAs@ 00000000000caac8     UefiDevicePathLib:DevicePathFromText.obj
 0002:00002ae0       ??_C@_1BC@NAJEJDIH@?$AAU?$AAs?$AAb?$AAA?$AAu?$AAd?$AAi?$AAo@ 00000000000caae0     UefiDevicePathLib:DevicePathFromText.obj
 0002:00002af8       ??_C@_1BM@EBMHFGAN@?$AAU?$AAs?$AAb?$AAC?$AAD?$AAC?$AAC?$AAo?$AAn?$AAt?$AAr?$AAo?$AAl@ 00000000000caaf8     UefiDevicePathLib:DevicePathFromText.obj
 0002:00002b18       ??_C@_1O@MNHDOJBH@?$AAU?$AAs?$AAb?$AAH?$AAI?$AAD@ 00000000000cab18     UefiDevicePathLib:DevicePathFromText.obj
 0002:00002b28       ??_C@_1BC@PPLGKLBF@?$AAU?$AAs?$AAb?$AAI?$AAm?$AAa?$AAg?$AAe@ 00000000000cab28     UefiDevicePathLib:DevicePathFromText.obj
 0002:00002b40       ??_C@_1BG@PFAKNBDK@?$AAU?$AAs?$AAb?$AAP?$AAr?$AAi?$AAn?$AAt?$AAe?$AAr@ 00000000000cab40     UefiDevicePathLib:DevicePathFromText.obj
 0002:00002b58       ??_C@_1BO@PDNPADEO@?$AAU?$AAs?$AAb?$AAM?$AAa?$AAs?$AAs?$AAS?$AAt?$AAo?$AAr?$AAa?$AAg?$AAe@ 00000000000cab58     UefiDevicePathLib:DevicePathFromText.obj
 0002:00002b78       ??_C@_1O@DLJCNOCD@?$AAU?$AAs?$AAb?$AAH?$AAu?$AAb@ 00000000000cab78     UefiDevicePathLib:DevicePathFromText.obj
 0002:00002b88       ??_C@_1BG@HNPFOCNE@?$AAU?$AAs?$AAb?$AAC?$AAD?$AAC?$AAD?$AAa?$AAt?$AAa@ 00000000000cab88     UefiDevicePathLib:DevicePathFromText.obj
 0002:00002ba0       ??_C@_1BK@COBNKHKO@?$AAU?$AAs?$AAb?$AAS?$AAm?$AAa?$AAr?$AAt?$AAC?$AAa?$AAr?$AAd@ 00000000000caba0     UefiDevicePathLib:DevicePathFromText.obj
 0002:00002bc0       ??_C@_1BC@OCEEDGOJ@?$AAU?$AAs?$AAb?$AAV?$AAi?$AAd?$AAe?$AAo@ 00000000000cabc0     UefiDevicePathLib:DevicePathFromText.obj
 0002:00002bd8       ??_C@_1BM@LPAMJGAO@?$AAU?$AAs?$AAb?$AAD?$AAi?$AAa?$AAg?$AAn?$AAo?$AAs?$AAt?$AAi?$AAc@ 00000000000cabd8     UefiDevicePathLib:DevicePathFromText.obj
 0002:00002bf8       ??_C@_1BI@FHBIGIDC@?$AAU?$AAs?$AAb?$AAW?$AAi?$AAr?$AAe?$AAl?$AAe?$AAs?$AAs@ 00000000000cabf8     UefiDevicePathLib:DevicePathFromText.obj
 0002:00002c10       ??_C@_1DA@MALGIHBH@?$AAU?$AAs?$AAb?$AAD?$AAe?$AAv?$AAi?$AAc?$AAe?$AAF?$AAi?$AAr?$AAm?$AAw?$AAa@ 00000000000cac10     UefiDevicePathLib:DevicePathFromText.obj
 0002:00002c40       ??_C@_1BM@OGJGENB@?$AAU?$AAs?$AAb?$AAI?$AAr?$AAd?$AAa?$AAB?$AAr?$AAi?$AAd?$AAg?$AAe@ 00000000000cac40     UefiDevicePathLib:DevicePathFromText.obj
 0002:00002c60       ??_C@_1CM@FCDMDMMH@?$AAU?$AAs?$AAb?$AAT?$AAe?$AAs?$AAt?$AAA?$AAn?$AAd?$AAM?$AAe?$AAa?$AAs?$AAu@ 00000000000cac60     UefiDevicePathLib:DevicePathFromText.obj
 0002:00002c90       ??_C@_1BA@JFMBPOKP@?$AAU?$AAs?$AAb?$AAW?$AAw?$AAi?$AAd@ 00000000000cac90     UefiDevicePathLib:DevicePathFromText.obj
 0002:00002ca0       ??_C@_19ENIPABFF@?$AAU?$AAn?$AAi?$AAt@ 00000000000caca0     UefiDevicePathLib:DevicePathFromText.obj
 0002:00002cb0       ??_C@_1M@KIOGPKKC@?$AAi?$AAS?$AAC?$AAS?$AAI@ 00000000000cacb0     UefiDevicePathLib:DevicePathFromText.obj
 0002:00002cc0       ??_C@_19DHGKIILN@?$AAV?$AAl?$AAa?$AAn@ 00000000000cacc0     UefiDevicePathLib:DevicePathFromText.obj
 0002:00002cd0       ??_C@_17HMHOINNJ@?$AAD?$AAn?$AAs@ 00000000000cacd0     UefiDevicePathLib:DevicePathFromText.obj
 0002:00002cd8       ??_C@_17IHNPMJHH@?$AAU?$AAr?$AAi@ 00000000000cacd8     UefiDevicePathLib:DevicePathFromText.obj
 0002:00002ce0       ??_C@_1BE@DJCFELKD@?$AAB?$AAl?$AAu?$AAe?$AAt?$AAo?$AAo?$AAt?$AAh@ 00000000000cace0     UefiDevicePathLib:DevicePathFromText.obj
 0002:00002cf8       ??_C@_1M@BMGHIDNG@?$AAW?$AAi?$AA?9?$AAF?$AAi@ 00000000000cacf8     UefiDevicePathLib:DevicePathFromText.obj
 0002:00002d08       ??_C@_1BI@EALHOODN@?$AAB?$AAl?$AAu?$AAe?$AAt?$AAo?$AAo?$AAt?$AAh?$AAL?$AAE@ 00000000000cad08     UefiDevicePathLib:DevicePathFromText.obj
 0002:00002d20       ??_C@_1BE@MHMKEMCG@?$AAM?$AAe?$AAd?$AAi?$AAa?$AAP?$AAa?$AAt?$AAh@ 00000000000cad20     UefiDevicePathLib:DevicePathFromText.obj
 0002:00002d38       ??_C@_1BC@GHCKDDOI@?$AAV?$AAe?$AAn?$AAM?$AAe?$AAd?$AAi?$AAa@ 00000000000cad38     UefiDevicePathLib:DevicePathFromText.obj
 0002:00002d50       ??_C@_1M@OFOICAAP@?$AAM?$AAe?$AAd?$AAi?$AAa@ 00000000000cad50     UefiDevicePathLib:DevicePathFromText.obj
 0002:00002d5c       ??_C@_15NJGIEIGN@?$AAF?$AAv@ 00000000000cad5c     UefiDevicePathLib:DevicePathFromText.obj
 0002:00002d68       ??_C@_1O@HDIGBKAM@?$AAF?$AAv?$AAF?$AAi?$AAl?$AAe@ 00000000000cad68     UefiDevicePathLib:DevicePathFromText.obj
 0002:00002d78       ??_C@_1O@LMEEEHLB@?$AAO?$AAf?$AAf?$AAs?$AAe?$AAt@ 00000000000cad78     UefiDevicePathLib:DevicePathFromText.obj
 0002:00002d88       ??_C@_1BA@MCPGEJDD@?$AAR?$AAa?$AAm?$AAD?$AAi?$AAs?$AAk@ 00000000000cad88     UefiDevicePathLib:DevicePathFromText.obj
 0002:00002d98       ??_C@_1BI@DOBDENMH@?$AAV?$AAi?$AAr?$AAt?$AAu?$AAa?$AAl?$AAD?$AAi?$AAs?$AAk@ 00000000000cad98     UefiDevicePathLib:DevicePathFromText.obj
 0002:00002db0       ??_C@_1BE@INMIBDPL@?$AAV?$AAi?$AAr?$AAt?$AAu?$AAa?$AAl?$AAC?$AAD@ 00000000000cadb0     UefiDevicePathLib:DevicePathFromText.obj
 0002:00002dc8       ??_C@_1CM@HJNDDJNG@?$AAP?$AAe?$AAr?$AAs?$AAi?$AAs?$AAt?$AAe?$AAn?$AAt?$AAV?$AAi?$AAr?$AAt?$AAu@ 00000000000cadc8     UefiDevicePathLib:DevicePathFromText.obj
 0002:00002df8       ??_C@_1CI@NFGDEDCN@?$AAP?$AAe?$AAr?$AAs?$AAi?$AAs?$AAt?$AAe?$AAn?$AAt?$AAV?$AAi?$AAr?$AAt?$AAu@ 00000000000cadf8     UefiDevicePathLib:DevicePathFromText.obj
 0002:00002e20       ??_C@_1BA@EPIJMJOF@?$AAB?$AAb?$AAs?$AAP?$AAa?$AAt?$AAh@ 00000000000cae20     UefiDevicePathLib:DevicePathFromText.obj
 0002:00002e30       ??_C@_17GKENOOCN@?$AAB?$AAB?$AAS@ 00000000000cae30     UefiDevicePathLib:DevicePathFromText.obj
 0002:00002e38       ??_C@_19EBDONFFG@?$AAS?$AAa?$AAt?$AAa@ 00000000000cae38     UefiDevicePathLib:DevicePathFromText.obj
 0002:00002e48       ??_C@_0BO@BBJIABON@DeviceNodeStr?5?$CB?$DN?5?$CI?$CIvoid?5?$CK?$CJ?50?$CJ@ 00000000000cae48     UefiDevicePathLib:DevicePathFromText.obj
 0002:00002e68       ??_C@_0BL@PENJEDLL@DeviceNode?5?$CB?$DN?5?$CI?$CIvoid?5?$CK?$CJ?50?$CJ@ 00000000000cae68     UefiDevicePathLib:DevicePathFromText.obj
 0002:00002e88       ??_C@_0BJ@NNFHKMPH@Str?9?$DOStr?5?$CB?$DN?5?$CI?$CIvoid?5?$CK?$CJ?50?$CJ@ 00000000000cae88     UefiDevicePathLib:DevicePathToText.obj
 0002:00002eb0       ??_C@_0FB@IMFNBFMK@D?3?2develop?2Self_develop?2edk2?2Md@ 00000000000caeb0     UefiDevicePathLib:DevicePathToText.obj
 0002:00002f08       ??_C@_1BO@OAGLMPIF@?$AAP?$AAc?$AAi?$AA?$CI?$AA0?$AAx?$AA?$CF?$AAx?$AA?0?$AA0?$AAx?$AA?$CF?$AAx?$AA?$CJ@ 00000000000caf08     UefiDevicePathLib:DevicePathToText.obj
 0002:00002f28       ??_C@_1BK@KCEBDNMK@?$AAP?$AAc?$AAC?$AAa?$AAr?$AAd?$AA?$CI?$AA0?$AAx?$AA?$CF?$AAx?$AA?$CJ@ 00000000000caf28     UefiDevicePathLib:DevicePathToText.obj
 0002:00002f48       ??_C@_1DO@IFCJNKPC@?$AAM?$AAe?$AAm?$AAo?$AAr?$AAy?$AAM?$AAa?$AAp?$AAp?$AAe?$AAd?$AA?$CI?$AA0?$AAx@ 00000000000caf48     UefiDevicePathLib:DevicePathToText.obj
 0002:00002f88       ??_C@_15FLNOEOHI@?$AAH?$AAw@ 00000000000caf88     UefiDevicePathLib:DevicePathToText.obj
 0002:00002f90       ??_C@_1BI@PHHNEBMB@?$AAV?$AAe?$AAn?$AAP?$AAc?$AAA?$AAn?$AAs?$AAi?$AA?$CI?$AA?$CJ@ 00000000000caf90     UefiDevicePathLib:DevicePathToText.obj
 0002:00002fa8       ??_C@_1BG@IAIKNGNN@?$AAV?$AAe?$AAn?$AAV?$AAt?$AA1?$AA0?$AA0?$AA?$CI?$AA?$CJ@ 00000000000cafa8     UefiDevicePathLib:DevicePathToText.obj
 0002:00002fc0       ??_C@_1BO@COEKAAEN@?$AAV?$AAe?$AAn?$AAV?$AAt?$AA1?$AA0?$AA0?$AAP?$AAl?$AAu?$AAs?$AA?$CI?$AA?$CJ@ 00000000000cafc0     UefiDevicePathLib:DevicePathToText.obj
 0002:00002fe0       ??_C@_1BE@IDDFGEGE@?$AAV?$AAe?$AAn?$AAU?$AAt?$AAf?$AA8?$AA?$CI?$AA?$CJ@ 00000000000cafe0     UefiDevicePathLib:DevicePathToText.obj
 0002:00002ff8       ??_C@_1CC@FKEHNDLA@?$AAU?$AAa?$AAr?$AAt?$AAF?$AAl?$AAo?$AAw?$AAC?$AAt?$AAr?$AAl?$AA?$CI?$AA?$CF?$AAs@ 00000000000caff8     UefiDevicePathLib:DevicePathToText.obj
 0002:00003020       ??_C@_1CM@MBOKCKGI@?$AAS?$AAA?$AAS?$AA?$CI?$AA0?$AAx?$AA?$CF?$AAl?$AAx?$AA?0?$AA0?$AAx?$AA?$CF?$AAl?$AAx@ 00000000000cb020     UefiDevicePathLib:DevicePathToText.obj
 0002:00003050       ??_C@_1CE@FDCOMKL@?$AAN?$AAo?$AAT?$AAo?$AAp?$AAo?$AAl?$AAo?$AAg?$AAy?$AA?0?$AA0?$AA?0?$AA0?$AA?0@ 00000000000cb050     UefiDevicePathLib:DevicePathToText.obj
 0002:00003078       ??_C@_1BE@MLBJKAMN@?$AA?$CF?$AAs?$AA?0?$AA?$CF?$AAs?$AA?0?$AA?$CF?$AAs?$AA?0@ 00000000000cb078     UefiDevicePathLib:DevicePathToText.obj
 0002:0000308c       ??_C@_15KAKDEJHH@?$AA0?$AA?0@ 00000000000cb08c     UefiDevicePathLib:DevicePathToText.obj
 0002:00003098       ??_C@_1M@MJJODJOA@?$AA0?$AAx?$AA?$CF?$AAx?$AA?0@ 00000000000cb098     UefiDevicePathLib:DevicePathToText.obj
 0002:000030a8       ??_C@_1BI@EOONELPP@?$AA0?$AAx?$AA?$CF?$AAx?$AA?0?$AA0?$AA?0?$AA0?$AA?0?$AA0?$AA?0@ 00000000000cb0a8     UefiDevicePathLib:DevicePathToText.obj
 0002:000030c0       ??_C@_1M@POEAMJNC@?$AA0?$AAx?$AA?$CF?$AAx?$AA?$CJ@ 00000000000cb0c0     UefiDevicePathLib:DevicePathToText.obj
 0002:000030d0       ??_C@_1BI@IHPCIEPJ@?$AAD?$AAe?$AAb?$AAu?$AAg?$AAP?$AAo?$AAr?$AAt?$AA?$CI?$AA?$CJ@ 00000000000cb0d0     UefiDevicePathLib:DevicePathToText.obj
 0002:000030e8       ??_C@_1BC@EAAHJKNI@?$AAV?$AAe?$AAn?$AA?$CF?$AAs?$AA?$CI?$AA?$CF?$AAg@ 00000000000cb0e8     UefiDevicePathLib:DevicePathToText.obj
 0002:000030fc       ??_C@_13DEFPDAGF@?$AA?0@   00000000000cb0fc     UefiDevicePathLib:DevicePathToText.obj
 0002:00003100       ??_C@_19NHPFCCLF@?$AA?$CF?$AA0?$AA2?$AAx@ 00000000000cb100     UefiDevicePathLib:DevicePathToText.obj
 0002:0000310c       ??_C@_13DIBMAFH@?$AA?$CJ@  00000000000cb10c     UefiDevicePathLib:DevicePathToText.obj
 0002:00003110       ??_C@_1BG@PDEHEHNB@?$AAC?$AAt?$AAr?$AAl?$AA?$CI?$AA0?$AAx?$AA?$CF?$AAx?$AA?$CJ@ 00000000000cb110     UefiDevicePathLib:DevicePathToText.obj
 0002:00003128       ??_C@_1CA@OCDNKJMI@?$AAB?$AAM?$AAC?$AA?$CI?$AA0?$AAx?$AA?$CF?$AAx?$AA?0?$AA0?$AAx?$AA?$CF?$AAl?$AAx?$AA?$CJ@ 00000000000cb128     UefiDevicePathLib:DevicePathToText.obj
 0002:00003148       ??_C@_1BM@LLBDFMIK@?$AAP?$AAc?$AAi?$AAR?$AAo?$AAo?$AAt?$AA?$CI?$AA0?$AAx?$AA?$CF?$AAx?$AA?$CJ@ 00000000000cb148     UefiDevicePathLib:DevicePathToText.obj
 0002:00003168       ??_C@_1BO@IHBMGOPI@?$AAP?$AAc?$AAi?$AAe?$AAR?$AAo?$AAo?$AAt?$AA?$CI?$AA0?$AAx?$AA?$CF?$AAx?$AA?$CJ@ 00000000000cb168     UefiDevicePathLib:DevicePathToText.obj
 0002:00003188       ??_C@_1BK@NGLNBACO@?$AAF?$AAl?$AAo?$AAp?$AAp?$AAy?$AA?$CI?$AA0?$AAx?$AA?$CF?$AAx?$AA?$CJ@ 00000000000cb188     UefiDevicePathLib:DevicePathToText.obj
 0002:000031a8       ??_C@_1BO@OEKEOEOK@?$AAK?$AAe?$AAy?$AAb?$AAo?$AAa?$AAr?$AAd?$AA?$CI?$AA0?$AAx?$AA?$CF?$AAx?$AA?$CJ@ 00000000000cb1a8     UefiDevicePathLib:DevicePathToText.obj
 0002:000031c8       ??_C@_1BK@PMIGPGKH@?$AAS?$AAe?$AAr?$AAi?$AAa?$AAl?$AA?$CI?$AA0?$AAx?$AA?$CF?$AAx?$AA?$CJ@ 00000000000cb1c8     UefiDevicePathLib:DevicePathToText.obj
 0002:000031e8       ??_C@_1CG@CPMOJELH@?$AAP?$AAa?$AAr?$AAa?$AAl?$AAl?$AAe?$AAl?$AAP?$AAo?$AAr?$AAt?$AA?$CI?$AA0?$AAx@ 00000000000cb1e8     UefiDevicePathLib:DevicePathToText.obj
 0002:00003210       ??_C@_1CG@JCMCADBM@?$AAA?$AAc?$AAp?$AAi?$AA?$CI?$AAP?$AAN?$AAP?$AA?$CF?$AA0?$AA4?$AAx?$AA?0?$AA0?$AAx@ 00000000000cb210     UefiDevicePathLib:DevicePathToText.obj
 0002:00003238       ??_C@_1CE@CLIAMHCD@?$AAA?$AAc?$AAp?$AAi?$AA?$CI?$AA0?$AAx?$AA?$CF?$AA0?$AA8?$AAx?$AA?0?$AA0?$AAx?$AA?$CF@ 00000000000cb238     UefiDevicePathLib:DevicePathToText.obj
 0002:00003260       ??_C@_1BI@IBECIOLF@?$AAP?$AAc?$AAi?$AAR?$AAo?$AAo?$AAt?$AA?$CI?$AA?$CF?$AAa?$AA?$CJ@ 00000000000cb260     UefiDevicePathLib:DevicePathToText.obj
 0002:00003278       ??_C@_1BK@HOGBDMPI@?$AAP?$AAc?$AAi?$AAe?$AAR?$AAo?$AAo?$AAt?$AA?$CI?$AA?$CF?$AAa?$AA?$CJ@ 00000000000cb278     UefiDevicePathLib:DevicePathToText.obj
 0002:00003298       ??_C@_1BG@BGLICHDL@?$AA?$CF?$AAc?$AA?$CF?$AAc?$AA?$CF?$AAc?$AA?$CF?$AA0?$AA4?$AAX@ 00000000000cb298     UefiDevicePathLib:DevicePathToText.obj
 0002:000032b0       ??_C@_1CC@CMCFGMM@?$AAA?$AAc?$AAp?$AAi?$AAE?$AAx?$AAp?$AA?$CI?$AA?$CF?$AAs?$AA?0?$AA0?$AA?0?$AA?$CF?$AAa@ 00000000000cb2b0     UefiDevicePathLib:DevicePathToText.obj
 0002:000032d8       ??_C@_1CE@CGEKHGFF@?$AAA?$AAc?$AAp?$AAi?$AAE?$AAx?$AAp?$AA?$CI?$AA?$CF?$AAs?$AA?0?$AA?$CF?$AAs?$AA?0?$AA?$CF@ 00000000000cb2d8     UefiDevicePathLib:DevicePathToText.obj
 0002:00003300       ??_C@_1BG@EEDCOCH@?$AAA?$AAc?$AAp?$AAi?$AAE?$AAx?$AA?$CI?$AA?$CF?$AAa?$AA?0@ 00000000000cb300     UefiDevicePathLib:DevicePathToText.obj
 0002:00003318       ??_C@_1BG@EKFNINLH@?$AAA?$AAc?$AAp?$AAi?$AAE?$AAx?$AA?$CI?$AA?$CF?$AAs?$AA?0@ 00000000000cb318     UefiDevicePathLib:DevicePathToText.obj
 0002:00003330       ??_C@_17CAHIANN@?$AA?$CF?$AAa?$AA?0@ 00000000000cb330     UefiDevicePathLib:DevicePathToText.obj
 0002:00003338       ??_C@_17EMBJCDEN@?$AA?$CF?$AAs?$AA?0@ 00000000000cb338     UefiDevicePathLib:DevicePathToText.obj
 0002:00003340       ??_C@_17DFNJHAOP@?$AA?$CF?$AAa?$AA?$CJ@ 00000000000cb340     UefiDevicePathLib:DevicePathToText.obj
 0002:00003348       ??_C@_1DI@HGKBPPFE@?$AAA?$AAc?$AAp?$AAi?$AAE?$AAx?$AA?$CI?$AA?$CF?$AAs?$AA?0?$AA?$CF?$AAs?$AA?0?$AA0?$AAx@ 00000000000cb348     UefiDevicePathLib:DevicePathToText.obj
 0002:00003380       ??_C@_1BK@IMGBACLG@?$AAA?$AAc?$AAp?$AAi?$AAA?$AAd?$AAr?$AA?$CI?$AA0?$AAx?$AA?$CF?$AAx@ 00000000000cb380     UefiDevicePathLib:DevicePathToText.obj
 0002:000033a0       ??_C@_1M@HHLNLLAC@?$AA?0?$AA0?$AAx?$AA?$CF?$AAx@ 00000000000cb3a0     UefiDevicePathLib:DevicePathToText.obj
 0002:000033b0       ??_C@_1BE@HBALDGNG@?$AAA?$AAt?$AAa?$AA?$CI?$AA0?$AAx?$AA?$CF?$AAx?$AA?$CJ@ 00000000000cb3b0     UefiDevicePathLib:DevicePathToText.obj
 0002:000033c8       ??_C@_1CA@EFDNFHKP@?$AAA?$AAt?$AAa?$AA?$CI?$AA?$CF?$AAs?$AA?0?$AA?$CF?$AAs?$AA?0?$AA0?$AAx?$AA?$CF?$AAx?$AA?$CJ@ 00000000000cb3c8     UefiDevicePathLib:DevicePathToText.obj
 0002:000033e8       ??_C@_1CA@JGIMMJKB@?$AAS?$AAc?$AAs?$AAi?$AA?$CI?$AA0?$AAx?$AA?$CF?$AAx?$AA?0?$AA0?$AAx?$AA?$CF?$AAx?$AA?$CJ@ 00000000000cb3e8     UefiDevicePathLib:DevicePathToText.obj
 0002:00003408       ??_C@_1CG@OFFLOOAD@?$AAF?$AAi?$AAb?$AAr?$AAe?$AA?$CI?$AA0?$AAx?$AA?$CF?$AAl?$AAx?$AA?0?$AA0?$AAx?$AA?$CF@ 00000000000cb408     UefiDevicePathLib:DevicePathToText.obj
 0002:00003430       ??_C@_1BG@EHEKANON@?$AAF?$AAi?$AAb?$AAr?$AAe?$AAE?$AAx?$AA?$CI?$AA0?$AAx@ 00000000000cb430     UefiDevicePathLib:DevicePathToText.obj
 0002:00003448       ??_C@_17JOPFNIFB@?$AA?0?$AA0?$AAx@ 00000000000cb448     UefiDevicePathLib:DevicePathToText.obj
 0002:00003450       ??_C@_1BC@CKFHLIJB@?$AAS?$AAa?$AAs?$AAE?$AAx?$AA?$CI?$AA0?$AAx@ 00000000000cb450     UefiDevicePathLib:DevicePathToText.obj
 0002:00003468       ??_C@_1O@IEGBGPLN@?$AA?0?$AA0?$AAx?$AA?$CF?$AAx?$AA?0@ 00000000000cb468     UefiDevicePathLib:DevicePathToText.obj
 0002:00003478       ??_C@_1CC@FKOFEPIC@?$AAN?$AAo?$AAT?$AAo?$AAp?$AAo?$AAl?$AAo?$AAg?$AAy?$AA?0?$AA0?$AA?0?$AA0?$AA?0@ 00000000000cb478     UefiDevicePathLib:DevicePathToText.obj
 0002:0000349c       ??_C@_13COJANIEC@?$AA0@    00000000000cb49c     UefiDevicePathLib:DevicePathToText.obj
 0002:000034a0       ??_C@_1BG@JCDPLMKI@?$AA0?$AAx?$AA?$CF?$AAx?$AA?0?$AA0?$AA?0?$AA0?$AA?0?$AA0@ 00000000000cb4a0     UefiDevicePathLib:DevicePathToText.obj
 0002:000034c0       ??_C@_1GG@KPIKGINP@?$AAN?$AAV?$AAM?$AAe?$AA?$CI?$AA0?$AAx?$AA?$CF?$AAx?$AA?0?$AA?$CF?$AA0?$AA2?$AAx?$AA?9@ 00000000000cb4c0     UefiDevicePathLib:DevicePathToText.obj
 0002:00003528       ??_C@_1BO@HJLBIHHO@?$AAU?$AAF?$AAS?$AA?$CI?$AA0?$AAx?$AA?$CF?$AAx?$AA?0?$AA0?$AAx?$AA?$CF?$AAx?$AA?$CJ@ 00000000000cb528     UefiDevicePathLib:DevicePathToText.obj
 0002:00003548       ??_C@_1BC@JIFEONHJ@?$AAS?$AAD?$AA?$CI?$AA0?$AAx?$AA?$CF?$AAx?$AA?$CJ@ 00000000000cb548     UefiDevicePathLib:DevicePathToText.obj
 0002:00003560       ??_C@_1BG@BHOAMFEP@?$AAe?$AAM?$AAM?$AAC?$AA?$CI?$AA0?$AAx?$AA?$CF?$AAx?$AA?$CJ@ 00000000000cb560     UefiDevicePathLib:DevicePathToText.obj
 0002:00003578       ??_C@_1BM@OFMOJDLM@?$AAI?$AA1?$AA3?$AA9?$AA4?$AA?$CI?$AA?$CF?$AA0?$AA1?$AA6?$AAl?$AAx?$AA?$CJ@ 00000000000cb578     UefiDevicePathLib:DevicePathToText.obj
 0002:00003598       ??_C@_1BO@CIMDKCCI@?$AAU?$AAS?$AAB?$AA?$CI?$AA0?$AAx?$AA?$CF?$AAx?$AA?0?$AA0?$AAx?$AA?$CF?$AAx?$AA?$CJ@ 00000000000cb598     UefiDevicePathLib:DevicePathToText.obj
 0002:000035b8       ??_C@_0BH@GADOMDOK@NewStr?5?$CB?$DN?5?$CI?$CIvoid?5?$CK?$CJ?50?$CJ@ 00000000000cb5b8     UefiDevicePathLib:DevicePathToText.obj
 0002:000035d0       ??_C@_1DK@IPDOPIPA@?$AAU?$AAs?$AAb?$AAW?$AAw?$AAi?$AAd?$AA?$CI?$AA0?$AAx?$AA?$CF?$AAx?$AA?0?$AA0?$AAx@ 00000000000cb5d0     UefiDevicePathLib:DevicePathToText.obj
 0002:00003610       ??_C@_1BG@NJNCNCKM@?$AAU?$AAn?$AAi?$AAt?$AA?$CI?$AA0?$AAx?$AA?$CF?$AAx?$AA?$CJ@ 00000000000cb610     UefiDevicePathLib:DevicePathToText.obj
 0002:00003628       ??_C@_1CM@JDEAFCK@?$AA?$CI?$AA0?$AAx?$AA?$CF?$AAx?$AA?0?$AA0?$AAx?$AA?$CF?$AAx?$AA?0?$AA0?$AAx?$AA?$CF?$AAx@ 00000000000cb628     UefiDevicePathLib:DevicePathToText.obj
 0002:00003660       ??_C@_1FA@DIDNHLOK@?$AAU?$AAs?$AAb?$AAD?$AAe?$AAv?$AAi?$AAc?$AAe?$AAF?$AAi?$AAr?$AAm?$AAw?$AAa@ 00000000000cb660     UefiDevicePathLib:DevicePathToText.obj
 0002:000036b0       ??_C@_1DM@JLMEALMP@?$AAU?$AAs?$AAb?$AAI?$AAr?$AAd?$AAa?$AAB?$AAr?$AAi?$AAd?$AAg?$AAe?$AA?$CI?$AA0@ 00000000000cb6b0     UefiDevicePathLib:DevicePathToText.obj
 0002:000036f0       ??_C@_1EM@PFIODAIB@?$AAU?$AAs?$AAb?$AAT?$AAe?$AAs?$AAt?$AAA?$AAn?$AAd?$AAM?$AAe?$AAa?$AAs?$AAu@ 00000000000cb6f0     UefiDevicePathLib:DevicePathToText.obj
 0002:00003740       ??_C@_1EG@NMOJJABI@?$AAU?$AAs?$AAb?$AAC?$AAl?$AAa?$AAs?$AAs?$AA?$CI?$AA0?$AAx?$AA?$CF?$AAx?$AA?0?$AA0@ 00000000000cb740     UefiDevicePathLib:DevicePathToText.obj
 0002:00003788       ??_C@_1CK@MHLLPHIN@?$AAS?$AAa?$AAt?$AAa?$AA?$CI?$AA0?$AAx?$AA?$CF?$AAx?$AA?0?$AA0?$AAx?$AA?$CF?$AAx?$AA?0@ 00000000000cb788     UefiDevicePathLib:DevicePathToText.obj
 0002:000037b8       ??_C@_1BE@GPJMKBFH@?$AAI?$AA2?$AAO?$AA?$CI?$AA0?$AAx?$AA?$CF?$AAx?$AA?$CJ@ 00000000000cb7b8     UefiDevicePathLib:DevicePathToText.obj
 0002:000037d0       ??_C@_19HOEMCGPJ@?$AAM?$AAA?$AAC?$AA?$CI@ 00000000000cb7d0     UefiDevicePathLib:DevicePathToText.obj
 0002:000037e0       ??_C@_1O@LDLPJPIP@?$AA?0?$AA0?$AAx?$AA?$CF?$AAx?$AA?$CJ@ 00000000000cb7e0     UefiDevicePathLib:DevicePathToText.obj
 0002:000037f0       ??_C@_1BI@FCMLLAGN@?$AA?$CF?$AAd?$AA?4?$AA?$CF?$AAd?$AA?4?$AA?$CF?$AAd?$AA?4?$AA?$CF?$AAd@ 00000000000cb7f0     UefiDevicePathLib:DevicePathToText.obj
 0002:00003810       ??_C@_1JA@HKGNNMMG@?$AA?$CF?$AA0?$AA2?$AAx?$AA?$CF?$AA0?$AA2?$AAx?$AA?3?$AA?$CF?$AA0?$AA2?$AAx?$AA?$CF?$AA0@ 00000000000cb810     UefiDevicePathLib:DevicePathToText.obj
 0002:000038a0       ??_C@_1M@KGGIME@?$AAI?$AAP?$AAv?$AA4?$AA?$CI@ 00000000000cb8a0     UefiDevicePathLib:DevicePathToText.obj
 0002:000038b0       ??_C@_19DDJNJOGL@?$AAD?$AAH?$AAC?$AAP@ 00000000000cb8b0     UefiDevicePathLib:DevicePathToText.obj
 0002:000038c0       ??_C@_19JPNAHHAM@?$AA?0?$AA?$CF?$AAs?$AA?0@ 00000000000cb8c0     UefiDevicePathLib:DevicePathToText.obj
 0002:000038d0       ??_C@_1M@ENGOMJMP@?$AAI?$AAP?$AAv?$AA6?$AA?$CI@ 00000000000cb8d0     UefiDevicePathLib:DevicePathToText.obj
 0002:000038e0       ??_C@_1BC@CMHMGCCH@?$AA?0?$AAS?$AAt?$AAa?$AAt?$AAi?$AAc?$AA?0@ 00000000000cb8e0     UefiDevicePathLib:DevicePathToText.obj
 0002:000038f8       ??_C@_1DC@LOFPJEEL@?$AA?0?$AAS?$AAt?$AAa?$AAt?$AAe?$AAl?$AAe?$AAs?$AAs?$AAA?$AAu?$AAt?$AAo?$AAC@ 00000000000cb8f8     UefiDevicePathLib:DevicePathToText.obj
 0002:00003930       ??_C@_1DA@HMGEOIF@?$AA?0?$AAS?$AAt?$AAa?$AAt?$AAe?$AAf?$AAu?$AAl?$AAA?$AAu?$AAt?$AAo?$AAC?$AAo@ 00000000000cb930     UefiDevicePathLib:DevicePathToText.obj
 0002:00003960       ??_C@_1EM@IPHLFBGI@?$AAI?$AAn?$AAf?$AAi?$AAn?$AAi?$AAb?$AAa?$AAn?$AAd?$AA?$CI?$AA0?$AAx?$AA?$CF?$AAx@ 00000000000cb960     UefiDevicePathLib:DevicePathToText.obj
 0002:000039b0       ??_C@_1BM@EHGODEHA@?$AAU?$AAa?$AAr?$AAt?$AA?$CI?$AAD?$AAE?$AAF?$AAA?$AAU?$AAL?$AAT?$AA?0@ 00000000000cb9b0     UefiDevicePathLib:DevicePathToText.obj
 0002:000039d0       ??_C@_1BE@OEIOOGGH@?$AAU?$AAa?$AAr?$AAt?$AA?$CI?$AA?$CF?$AAl?$AAd?$AA?0@ 00000000000cb9d0     UefiDevicePathLib:DevicePathToText.obj
 0002:000039e8       ??_C@_1BC@DDKPDLCJ@?$AAD?$AAE?$AAF?$AAA?$AAU?$AAL?$AAT?$AA?0@ 00000000000cb9e8     UefiDevicePathLib:DevicePathToText.obj
 0002:00003a00       ??_C@_17FCMKBBGO@?$AA?$CF?$AAd?$AA?0@ 00000000000cba00     UefiDevicePathLib:DevicePathToText.obj
 0002:00003a08       ??_C@_17EPMPCBNG@?$AA?$CF?$AAc?$AA?0@ 00000000000cba08     UefiDevicePathLib:DevicePathToText.obj
 0002:00003a10       ??_C@_15HMOPGJC@?$AAD?$AA?$CJ@ 00000000000cba10     UefiDevicePathLib:DevicePathToText.obj
 0002:00003a18       ??_C@_15FMCBGKOA@?$AA1?$AA?$CJ@ 00000000000cba18     UefiDevicePathLib:DevicePathToText.obj
 0002:00003a20       ??_C@_19PODFHIEB@?$AA1?$AA?4?$AA5?$AA?$CJ@ 00000000000cba20     UefiDevicePathLib:DevicePathToText.obj
 0002:00003a2c       ??_C@_15NKLFBIEO@?$AA2?$AA?$CJ@ 00000000000cba2c     UefiDevicePathLib:DevicePathToText.obj
 0002:00003a34       ??_C@_15HEHGDBEE@?$AAx?$AA?$CJ@ 00000000000cba34     UefiDevicePathLib:DevicePathToText.obj
 0002:00003a40       ??_C@_1CC@OKJDLPLB@?$AAi?$AAS?$AAC?$AAS?$AAI?$AA?$CI?$AA?$CF?$AAa?$AA?0?$AA0?$AAx?$AA?$CF?$AAx?$AA?0?$AA0@ 00000000000cba40     UefiDevicePathLib:DevicePathToText.obj
 0002:00003a68       ??_C@_1BA@FMEKDPAI@?$AAC?$AAH?$AAA?$AAP?$AA_?$AAB?$AAI@ 00000000000cba68     UefiDevicePathLib:DevicePathToText.obj
 0002:00003a78       ??_C@_1BC@EFEBCBGB@?$AAr?$AAe?$AAs?$AAe?$AAr?$AAv?$AAe?$AAd@ 00000000000cba78     UefiDevicePathLib:DevicePathToText.obj
 0002:00003a90       ??_C@_17HLMHNDHP@?$AA?$CF?$AAs?$AA?$CJ@ 00000000000cba90     UefiDevicePathLib:DevicePathToText.obj
 0002:00003a98       ??_C@_1BC@OPCHKNKH@?$AAV?$AAl?$AAa?$AAn?$AA?$CI?$AA?$CF?$AAd?$AA?$CJ@ 00000000000cba98     UefiDevicePathLib:DevicePathToText.obj
 0002:00003ab0       ??_C@_1EI@EPMFLBAJ@?$AAB?$AAl?$AAu?$AAe?$AAt?$AAo?$AAo?$AAt?$AAh?$AA?$CI?$AA?$CF?$AA0?$AA2?$AAx?$AA?$CF@ 00000000000cbab0     UefiDevicePathLib:DevicePathToText.obj
 0002:00003af8       ??_C@_1BE@DKODNJMI@?$AAW?$AAi?$AA?9?$AAF?$AAi?$AA?$CI?$AA?$CF?$AAa?$AA?$CJ@ 00000000000cbaf8     UefiDevicePathLib:DevicePathToText.obj
 0002:00003b10       ??_C@_1FK@LABBEHKJ@?$AAB?$AAl?$AAu?$AAe?$AAt?$AAo?$AAo?$AAt?$AAh?$AAL?$AAE?$AA?$CI?$AA?$CF?$AA0?$AA2@ 00000000000cbb10     UefiDevicePathLib:DevicePathToText.obj
 0002:00003b70       ??_C@_19KGHFHKGE@?$AAD?$AAn?$AAs?$AA?$CI@ 00000000000cbb70     UefiDevicePathLib:DevicePathToText.obj
 0002:00003b80       ??_C@_0BH@EDBFFFOA@UriStr?5?$CB?$DN?5?$CI?$CIvoid?5?$CK?$CJ?50?$CJ@ 00000000000cbb80     UefiDevicePathLib:DevicePathToText.obj
 0002:00003b98       ??_C@_1BA@OMDAJDPE@?$AAU?$AAr?$AAi?$AA?$CI?$AA?$CF?$AAa?$AA?$CJ@ 00000000000cbb98     UefiDevicePathLib:DevicePathToText.obj
 0002:00003ba8       ??_C@_1CA@HNPFGNEH@?$AAH?$AAD?$AA?$CI?$AA?$CF?$AAd?$AA?0?$AA?$CF?$AAs?$AA?0?$AA0?$AAx?$AA?$CF?$AA0?$AA8?$AAx@ 00000000000cbba8     UefiDevicePathLib:DevicePathToText.obj
 0002:00003bc8       ??_C@_1BI@MINPIKNN@?$AAH?$AAD?$AA?$CI?$AA?$CF?$AAd?$AA?0?$AA?$CF?$AAs?$AA?0?$AA?$CF?$AAg@ 00000000000cbbc8     UefiDevicePathLib:DevicePathToText.obj
 0002:00003be0       ??_C@_1BG@INGFHNLC@?$AAH?$AAD?$AA?$CI?$AA?$CF?$AAd?$AA?0?$AA?$CF?$AAd?$AA?0?$AA0@ 00000000000cbbe0     UefiDevicePathLib:DevicePathToText.obj
 0002:00003bf8       ??_C@_1BM@NOEIAAGN@?$AA?0?$AA0?$AAx?$AA?$CF?$AAl?$AAx?$AA?0?$AA0?$AAx?$AA?$CF?$AAl?$AAx?$AA?$CJ@ 00000000000cbbf8     UefiDevicePathLib:DevicePathToText.obj
 0002:00003c18       ??_C@_1BI@EEHCFNDN@?$AAC?$AAD?$AAR?$AAO?$AAM?$AA?$CI?$AA0?$AAx?$AA?$CF?$AAx?$AA?$CJ@ 00000000000cbc18     UefiDevicePathLib:DevicePathToText.obj
 0002:00003c30       ??_C@_1DA@JMLBJEDN@?$AAC?$AAD?$AAR?$AAO?$AAM?$AA?$CI?$AA0?$AAx?$AA?$CF?$AAx?$AA?0?$AA0?$AAx?$AA?$CF?$AAl@ 00000000000cbc30     UefiDevicePathLib:DevicePathToText.obj
 0002:00003c60       ??_C@_15GANGMFKL@?$AA?$CF?$AAs@ 00000000000cbc60     UefiDevicePathLib:DevicePathToText.obj
 0002:00003c68       ??_C@_1BE@CJGJAKDA@?$AAM?$AAe?$AAd?$AAi?$AAa?$AA?$CI?$AA?$CF?$AAg?$AA?$CJ@ 00000000000cbc68     UefiDevicePathLib:DevicePathToText.obj
 0002:00003c80       ??_C@_1O@HJJPOOCL@?$AAF?$AAv?$AA?$CI?$AA?$CF?$AAg?$AA?$CJ@ 00000000000cbc80     UefiDevicePathLib:DevicePathToText.obj
 0002:00003c90       ??_C@_1BG@MHENELFF@?$AAF?$AAv?$AAF?$AAi?$AAl?$AAe?$AA?$CI?$AA?$CF?$AAg?$AA?$CJ@ 00000000000cbc90     UefiDevicePathLib:DevicePathToText.obj
 0002:00003ca8       ??_C@_1CI@FAOKAOM@?$AAO?$AAf?$AAf?$AAs?$AAe?$AAt?$AA?$CI?$AA0?$AAx?$AA?$CF?$AAl?$AAx?$AA?0?$AA0?$AAx@ 00000000000cbca8     UefiDevicePathLib:DevicePathToText.obj
 0002:00003cd0       ??_C@_1DI@GJAGNPCG@?$AAV?$AAi?$AAr?$AAt?$AAu?$AAa?$AAl?$AAD?$AAi?$AAs?$AAk?$AA?$CI?$AA0?$AAx?$AA?$CF@ 00000000000cbcd0     UefiDevicePathLib:DevicePathToText.obj
 0002:00003d08       ??_C@_1DE@FBEBFJJD@?$AAV?$AAi?$AAr?$AAt?$AAu?$AAa?$AAl?$AAC?$AAD?$AA?$CI?$AA0?$AAx?$AA?$CF?$AAl?$AAx@ 00000000000cbd08     UefiDevicePathLib:DevicePathToText.obj
 0002:00003d40       ??_C@_1EM@PFGFJDCD@?$AAP?$AAe?$AAr?$AAs?$AAi?$AAs?$AAt?$AAe?$AAn?$AAt?$AAV?$AAi?$AAr?$AAt?$AAu@ 00000000000cbd40     UefiDevicePathLib:DevicePathToText.obj
 0002:00003d90       ??_C@_1EI@IJLGIAIE@?$AAP?$AAe?$AAr?$AAs?$AAi?$AAs?$AAt?$AAe?$AAn?$AAt?$AAV?$AAi?$AAr?$AAt?$AAu@ 00000000000cbd90     UefiDevicePathLib:DevicePathToText.obj
 0002:00003dd8       ??_C@_1DG@IFGHOPEL@?$AAR?$AAa?$AAm?$AAD?$AAi?$AAs?$AAk?$AA?$CI?$AA0?$AAx?$AA?$CF?$AAl?$AAx?$AA?0?$AA0@ 00000000000cbdd8     UefiDevicePathLib:DevicePathToText.obj
 0002:00003e10       ??_C@_1BE@EICHFCPK@?$AAB?$AAB?$AAS?$AA?$CI?$AA?$CF?$AAs?$AA?0?$AA?$CF?$AAa@ 00000000000cbe10     UefiDevicePathLib:DevicePathToText.obj
 0002:00003e28       ??_C@_1BI@EAEHELAJ@?$AAB?$AAB?$AAS?$AA?$CI?$AA0?$AAx?$AA?$CF?$AAx?$AA?0?$AA?$CF?$AAa@ 00000000000cbe28     UefiDevicePathLib:DevicePathToText.obj
 0002:00003e40       ??_C@_1BG@BNMBFAIA@?$AAP?$AAa?$AAt?$AAh?$AA?$CI?$AA?$CF?$AAd?$AA?0?$AA?$CF?$AAd@ 00000000000cbe40     UefiDevicePathLib:DevicePathToText.obj
 0002:00003e58       ??_C@_1M@NAHACGNB@?$AA?$CF?$AAs?$AA?$CI?$AA?$CF?$AAd@ 00000000000cbe58     UefiDevicePathLib:DevicePathToText.obj
 0002:00003e64       ??_C@_13CGOKJPIL@?$AA?1@   00000000000cbe64     UefiDevicePathLib:DevicePathToText.obj
 0002:00003e70       mUefiDevicePathLibToTextTableGeneric 00000000000cbe70     UefiDevicePathLib:DevicePathToText.obj
 0002:00003ed0       mUefiDevicePathLibToTextTable 00000000000cbed0     UefiDevicePathLib:DevicePathToText.obj
 0002:000041f0       ??_C@_0FE@LBAOMKEJ@D?3?2develop?2Self_develop?2edk2?2Md@ 00000000000cc1f0     UefiDevicePathLib:DevicePathUtilities.obj
 0002:00004250       ??_C@_0EH@ENCEEKKL@?$CILength?5?$DO?$DN?5sizeof?5?$CIEFI_DEVICE_P@ 00000000000cc250     UefiDevicePathLib:DevicePathUtilities.obj
 0002:00004298       ??_C@_0BF@MBJFHGBE@Size?5?$CB?$DN?5?$CI?$CIvoid?5?$CK?$CJ?50?$CJ@ 00000000000cc298     UefiDevicePathLib:DevicePathUtilities.obj
 0002:000042b0       mUefiDevicePathLibEndDevicePath 00000000000cc2b0     UefiDevicePathLib:DevicePathUtilities.obj
 0002:000042c0       ??_C@_0FK@KCDEFJBC@D?3?2develop?2Self_develop?2edk2?2Md@ 00000000000cc2c0     UefiMemoryAllocationLib:MemoryAllocationLib.obj
 0002:00004320       ??_C@_0DO@GEEICOOO@AllocationSize?5?$DM?$DN?5?$CI0xFFFFFFFFFF@ 00000000000cc320     UefiMemoryAllocationLib:MemoryAllocationLib.obj
 0002:00004360       ??_C@_0FM@HDIIFGPN@D?3?2develop?2Self_develop?2edk2?2Md@ 00000000000cc360     PeiDxeDebugLibReportStatusCode:DebugLib.obj
 0002:000043c0       ??_C@_0CP@EFCGCEBK@?$CICHAR8?5?$CK?$CJBaseListMarkerPointer?5@ 00000000000cc3c0     PeiDxeDebugLibReportStatusCode:DebugLib.obj
 0002:000043f0       ??_C@_01OHGJGJJP@?$FL@     00000000000cc3f0     PeiDxeDebugLibReportStatusCode:DebugLib.obj
 0002:000043f4       ??_C@_02PBFOLPKM@?$FN?5@   00000000000cc3f4     PeiDxeDebugLibReportStatusCode:DebugLib.obj
 0002:00004400       ??_C@_0EA@FKBIDDGN@D?3?2develop?2Self_develop?2edk2?2Md@ 00000000000cc400     BaseLib:Unaligned.obj
 0002:00004440       ??_C@_15LEKKCGMK@?$AA?2?$AA?2@ 00000000000cc440     BaseLib:FilePaths.obj
 0002:00004448       ??_C@_17CECJBCED@?$AA?2?$AA?4?$AA?2@ 00000000000cc448     BaseLib:FilePaths.obj
 0002:00004450       ??_C@_15HFJMEONN@?$AA?2?$AA?4@ 00000000000cc450     BaseLib:FilePaths.obj
 0002:00004458       ??_C@_17OFBPHKFE@?$AA?2?$AA?4?$AA?4@ 00000000000cc458     BaseLib:FilePaths.obj
 0002:00004460       ??_C@_0DN@POJBHOAP@D?3?2develop?2Self_develop?2edk2?2Md@ 00000000000cc460     BaseLib:String.obj
 0002:000044a0       ??_C@_0CC@GFNLNIOC@?$CI?$CIUINTN?$CJString?5?$CG?50x00000001?$CJ?5?$DN?$DN@ 00000000000cc4a0     BaseLib:String.obj
 0002:000044c8       ??_C@_0DK@EOJCOAME@Length?5?$DM?5_gPcd_FixedAtBuild_Pcd@ 00000000000cc4c8     BaseLib:String.obj
 0002:00004508       ??_C@_0BL@JAAMOCAJ@StrSize?5?$CIFirstString?$CJ?5?$CB?$DN?50@ 00000000000cc508     BaseLib:String.obj
 0002:00004528       ??_C@_0BM@DALBOILC@StrSize?5?$CISecondString?$CJ?5?$CB?$DN?50@ 00000000000cc528     BaseLib:String.obj
 0002:00004548       ??_C@_0DL@LFIMEMJP@Length?5?$DM?$DN?5_gPcd_FixedAtBuild_Pc@ 00000000000cc548     BaseLib:String.obj
 0002:00004588       ??_C@_0BG@KBNOLIGE@StrSize?5?$CIString?$CJ?5?$CB?$DN?50@ 00000000000cc588     BaseLib:String.obj
 0002:000045a0       ??_C@_0BM@NNBLOHJD@StrSize?5?$CISearchString?$CJ?5?$CB?$DN?50@ 00000000000cc5a0     BaseLib:String.obj
 0002:000045c0       ??_C@_0DI@MDIKFADO@Length?5?$DM?5_gPcd_FixedAtBuild_Pcd@ 00000000000cc5c0     BaseLib:String.obj
 0002:000045f8       ??_C@_0BL@IKFBNFIL@AsciiStrSize?5?$CIFirstString?$CJ@ 00000000000cc5f8     BaseLib:String.obj
 0002:00004618       ??_C@_0BM@EDNOKLLE@AsciiStrSize?5?$CISecondString?$CJ@ 00000000000cc618     BaseLib:String.obj
 0002:00004638       ??_C@_0DJ@JJHGIFMP@Length?5?$DM?$DN?5_gPcd_FixedAtBuild_Pc@ 00000000000cc638     BaseLib:String.obj
 0002:00004678       ??_C@_0BM@NLNKOJGD@Destination?5?$CB?$DN?5?$CI?$CIvoid?5?$CK?$CJ?50?$CJ@ 00000000000cc678     BaseLib:String.obj
 0002:000046a0       ??_C@_0EB@DAKPBIJH@D?3?2develop?2Self_develop?2edk2?2Md@ 00000000000cc6a0     BaseLib:SafeString.obj
 0002:000046e8       ??_C@_0CH@LALFPBMC@?$CI?$CIUINTN?$CJDestination?5?$CG?50x0000000@ 00000000000cc6e8     BaseLib:SafeString.obj
 0002:00004710       ??_C@_0CC@HEBCMBPF@?$CI?$CIUINTN?$CJSource?5?$CG?50x00000001?$CJ?5?$DN?$DN@ 00000000000cc710     BaseLib:SafeString.obj
 0002:00004738       ??_C@_0BO@ECNIOIHG@?$CIDestination?5?$CB?$DN?5?$CI?$CIvoid?5?$CK?$CJ?50?$CJ?$CJ@ 00000000000cc738     BaseLib:SafeString.obj
 0002:00004758       ??_C@_07KBGDFDAM@StrCpyS@  00000000000cc758     BaseLib:SafeString.obj
 0002:00004760       ??_C@_0EA@PDPDJJNN@?$CFa?$CI?$CFd?$CJ?5?$CFa?3?5SAFE_STRING_CONSTRAI@ 00000000000cc760     BaseLib:SafeString.obj
 0002:000047a0       ??_C@_0BJ@EAEEJIP@?$CISource?5?$CB?$DN?5?$CI?$CIvoid?5?$CK?$CJ?50?$CJ?$CJ@ 00000000000cc7a0     BaseLib:SafeString.obj
 0002:000047c0       ??_C@_0EA@BBALOHPI@?$CIDestMax?5?$DM?$DN?5?$CI_gPcd_FixedAtBuild@ 00000000000cc7c0     BaseLib:SafeString.obj
 0002:00004800       ??_C@_0P@PMIMLIHM@?$CIDestMax?5?$CB?$DN?50?$CJ@ 00000000000cc800     BaseLib:SafeString.obj
 0002:00004810       ??_C@_0BG@EEGIIOKH@?$CIDestMax?5?$DO?5SourceLen?$CJ@ 00000000000cc810     BaseLib:SafeString.obj
 0002:00004830       ??_C@_0FH@PPBLBDBJ@InternalSafeStringNoStrOverlap?5@ 00000000000cc830     BaseLib:SafeString.obj
 0002:00004888       ??_C@_08INOAHJON@StrnCpyS@ 00000000000cc888     BaseLib:SafeString.obj
 0002:00004898       ??_C@_0DP@PBOJGJC@?$CILength?5?$DM?$DN?5?$CI_gPcd_FixedAtBuild_@ 00000000000cc898     BaseLib:SafeString.obj
 0002:000048d8       ??_C@_07EBBOPAKF@StrCatS@  00000000000cc8d8     BaseLib:SafeString.obj
 0002:000048e0       ??_C@_0P@BHOOOJPD@?$CICopyLen?5?$CB?$DN?50?$CJ@ 00000000000cc8e0     BaseLib:SafeString.obj
 0002:000048f0       ??_C@_0BG@BPGICNPK@?$CICopyLen?5?$DO?5SourceLen?$CJ@ 00000000000cc8f0     BaseLib:SafeString.obj
 0002:00004908       ??_C@_08GNJNNKEE@StrnCatS@ 00000000000cc908     BaseLib:SafeString.obj
 0002:00004918       ??_C@_0BJ@MBBOBCLN@?$CIString?5?$CB?$DN?5?$CI?$CIvoid?5?$CK?$CJ?50?$CJ?$CJ@ 00000000000cc918     BaseLib:SafeString.obj
 0002:00004938       ??_C@_0BD@NNBAKNOF@StrDecimalToUintnS@ 00000000000cc938     BaseLib:SafeString.obj
 0002:00004950       ??_C@_0BH@JPMEDPAI@?$CIData?5?$CB?$DN?5?$CI?$CIvoid?5?$CK?$CJ?50?$CJ?$CJ@ 00000000000cc950     BaseLib:SafeString.obj
 0002:00004970       ??_C@_0IC@CFBPEAPC@?$CIStrnLenS?5?$CIString?0?5?$CI_gPcd_Fixed@ 00000000000cc970     BaseLib:SafeString.obj
 0002:000049f8       ??_C@_0BE@CAKPCCF@StrDecimalToUint64S@ 00000000000cc9f8     BaseLib:SafeString.obj
 0002:00004a10       ??_C@_0P@FDCJFGP@StrHexToUintnS@ 00000000000cca10     BaseLib:SafeString.obj
 0002:00004a20       ??_C@_0BA@PLPLKCD@StrHexToUint64S@ 00000000000cca20     BaseLib:SafeString.obj
 0002:00004a30       ??_C@_0BB@LMEEEKHP@StrToIpv6Address@ 00000000000cca30     BaseLib:SafeString.obj
 0002:00004a48       ??_C@_0BK@PFCDEPEA@?$CIAddress?5?$CB?$DN?5?$CI?$CIvoid?5?$CK?$CJ?50?$CJ?$CJ@ 00000000000cca48     BaseLib:SafeString.obj
 0002:00004a70       ??_C@_0EK@OFPBBCEA@AddressIndex?5?$CL?51?5?$DM?5?$CIsizeof?5?$CIAdd@ 00000000000cca70     BaseLib:SafeString.obj
 0002:00004ac0       ??_C@_0BB@JCLCGCPJ@StrToIpv4Address@ 00000000000ccac0     BaseLib:SafeString.obj
 0002:00004ad8       ??_C@_09NDPBFECG@StrToGuid@ 00000000000ccad8     BaseLib:SafeString.obj
 0002:00004ae8       ??_C@_0BH@JHLMKECN@?$CIGuid?5?$CB?$DN?5?$CI?$CIvoid?5?$CK?$CJ?50?$CJ?$CJ@ 00000000000ccae8     BaseLib:SafeString.obj
 0002:00004b00       ??_C@_0O@GDLPMLII@StrHexToBytes@ 00000000000ccb00     BaseLib:SafeString.obj
 0002:00004b10       ??_C@_0BN@ECMFIFKJ@?$CI?$CILength?5?$CG?50x00000001?$CJ?5?$DN?$DN?50?$CJ@ 00000000000ccb10     BaseLib:SafeString.obj
 0002:00004b30       ??_C@_0BO@HHMNFJIK@?$CIMaxBufferSize?5?$DO?$DN?5Length?5?1?52?$CJ@ 00000000000ccb30     BaseLib:SafeString.obj
 0002:00004b50       ??_C@_0DO@LJFOOPII@?$CIDestMax?5?$DM?$DN?5?$CI_gPcd_FixedAtBuild@ 00000000000ccb50     BaseLib:SafeString.obj
 0002:00004b90       ??_C@_0FL@CDANCHFO@InternalSafeStringNoAsciiStrOve@ 00000000000ccb90     BaseLib:SafeString.obj
 0002:00004bf0       ??_C@_0O@DIHNCLLG@AsciiStrnCpyS@ 00000000000ccbf0     BaseLib:SafeString.obj
 0002:00004c00       ??_C@_0DN@DLAADCJE@?$CILength?5?$DM?$DN?5?$CI_gPcd_FixedAtBuild_@ 00000000000ccc00     BaseLib:SafeString.obj
 0002:00004c40       ??_C@_0BG@ECBHNCII@UnicodeStrToAsciiStrS@ 00000000000ccc40     BaseLib:SafeString.obj
 0002:00004c60       ??_C@_0GH@OGMKEJDK@?$CBInternalSafeStringIsOverlap?5?$CID@ 00000000000ccc60     BaseLib:SafeString.obj
 0002:00004cc8       ??_C@_0BA@MFHLDCJH@?$CKSource?5?$DM?50x100@ 00000000000cccc8     BaseLib:SafeString.obj
 0002:00004cd8       ??_C@_0BG@MFINJFHO@AsciiStrToUnicodeStrS@ 00000000000cccd8     BaseLib:SafeString.obj
 0002:00004cf0       ??_C@_0GF@GCLJAOAI@?$CBInternalSafeStringIsOverlap?5?$CID@ 00000000000cccf0     BaseLib:SafeString.obj
 0002:00004d60       ??_C@_0EB@CMODBEO@D?3?2develop?2Self_develop?2edk2?2Md@ 00000000000ccd60     BaseLib:LinkedList.obj
 0002:00004da8       ??_C@_0CC@KDLPLAED@List?9?$DOForwardLink?5?$CB?$DN?5?$CI?$CIvoid?5?$CK?$CJ?5@ 00000000000ccda8     BaseLib:LinkedList.obj
 0002:00004dd0       ??_C@_0BP@IJJCCMAK@List?9?$DOBackLink?5?$CB?$DN?5?$CI?$CIvoid?5?$CK?$CJ?50?$CJ@ 00000000000ccdd0     BaseLib:LinkedList.obj
 0002:00004df0       ??_C@_0CI@BMHOPIIO@InternalBaseLibIsListValid?5?$CIFir@ 00000000000ccdf0     BaseLib:LinkedList.obj
 0002:00004e18       ??_C@_0BM@BAIHHOEP@SecondEntry?5?$CB?$DN?5?$CI?$CIvoid?5?$CK?$CJ?50?$CJ@ 00000000000cce18     BaseLib:LinkedList.obj
 0002:00004e38       ??_C@_0BJ@NJABNCDK@ListHead?5?$CB?$DN?5?$CI?$CIvoid?5?$CK?$CJ?50?$CJ@ 00000000000cce38     BaseLib:LinkedList.obj
 0002:00004e58       ??_C@_0DI@HOMAKAJD@?$CI?$CIBOOLEAN?$CJ?$CI0?$DN?$DN1?$CJ?$CJ?5?$DN?$DN?5IsNodeInLi@ 00000000000cce58     BaseLib:LinkedList.obj
 0002:00004e90       ??_C@_0CG@LGIALJFK@InternalBaseLibIsListValid?5?$CILis@ 00000000000cce90     BaseLib:LinkedList.obj
 0002:00004eb8       ??_C@_0CC@JLDICICM@InternalBaseLibIsListValid?5?$CILis@ 00000000000cceb8     BaseLib:LinkedList.obj
 0002:00004ee0       ??_C@_0DD@OAAIDOJD@?$CI?$CIBOOLEAN?$CJ?$CI1?$DN?$DN1?$CJ?$CJ?5?$DN?$DN?5IsNodeInLi@ 00000000000ccee0     BaseLib:LinkedList.obj
 0002:00004f20       ??_C@_0EA@OIBCJFLG@?$CI?$CIBOOLEAN?$CJ?$CI1?$DN?$DN1?$CJ?$CJ?5?$DN?$DN?5IsNodeInLi@ 00000000000ccf20     BaseLib:LinkedList.obj
 0002:00004f60       ??_C@_0BF@NMBJJECB@?$CBIsListEmpty?5?$CIEntry?$CJ@ 00000000000ccf60     BaseLib:LinkedList.obj
 0002:00004f78       ??_C@_0L@MEMPDLHB@Count?5?$DM?564@ 00000000000ccf78     BaseLib:ARShiftU64.obj
 0002:00004f88       ??_C@_0N@KGHEHMDL@Divisor?5?$CB?$DN?50@ 00000000000ccf88     BaseLib:DivS64x64Remainder.obj
 0002:00004fa0       ??_C@_0EA@LBPPPCLG@D?3?2develop?2Self_develop?2edk2?2Md@ 00000000000ccfa0     BaseLib:DivU64x32.obj
 0002:00004fe0       ??_C@_0EJ@IMLDOBB@D?3?2develop?2Self_develop?2edk2?2Md@ 00000000000ccfe0     BaseLib:DivU64x32Remainder.obj
 0002:00005030       ??_C@_0EJ@CMINIPKB@D?3?2develop?2Self_develop?2edk2?2Md@ 00000000000cd030     BaseLib:DivU64x64Remainder.obj
 0002:00005080       ??_C@_0EA@MLMAFFLG@D?3?2develop?2Self_develop?2edk2?2Md@ 00000000000cd080     BaseLib:LShiftU64.obj
 0002:000050c0       ??_C@_0EA@OHLIFDLB@D?3?2develop?2Self_develop?2edk2?2Md@ 00000000000cd0c0     BaseLib:ModU64x32.obj
 0002:00005100       ??_C@_0EA@COOJGLFE@D?3?2develop?2Self_develop?2edk2?2Md@ 00000000000cd100     BaseLib:RShiftU64.obj
 0002:00005140       ??_C@_0BN@FHPHCJAL@BufferToSort?5?$CB?$DN?5?$CI?$CIvoid?5?$CK?$CJ?50?$CJ@ 00000000000cd140     BaseLib:QuickSort.obj
 0002:00005160       ??_C@_0EA@EPCLINCM@D?3?2develop?2Self_develop?2edk2?2Md@ 00000000000cd160     BaseLib:QuickSort.obj
 0002:000051a0       ??_C@_0CA@DJEMEKLN@CompareFunction?5?$CB?$DN?5?$CI?$CIvoid?5?$CK?$CJ?50?$CJ@ 00000000000cd1a0     BaseLib:QuickSort.obj
 0002:000051c0       ??_C@_0CB@PMBBAAMG@BufferOneElement?5?$CB?$DN?5?$CI?$CIvoid?5?$CK?$CJ?50@ 00000000000cd1c0     BaseLib:QuickSort.obj
 0002:000051e8       ??_C@_0BB@HEFAKMBE@ElementSize?5?$DO?$DN?51@ 00000000000cd1e8     BaseLib:QuickSort.obj
 0002:00005200       ??_C@_0BL@CPGKAMND@JumpBuffer?5?$CB?$DN?5?$CI?$CIvoid?5?$CK?$CJ?50?$CJ@ 00000000000cd200     BaseLib:SetJump.obj
 0002:00005220       ??_C@_0DO@CNCBEEME@D?3?2develop?2Self_develop?2edk2?2Md@ 00000000000cd220     BaseLib:SetJump.obj
 0002:00005260       ??_C@_0CD@OEHNCIHG@?$CI?$CIUINTN?$CJJumpBuffer?5?$CG?5?$CI8?5?9?51?$CJ?$CJ?5?$DN@ 00000000000cd260     BaseLib:SetJump.obj
 0002:00005288       ??_C@_0BN@COECPDCC@gImageHandle?5?$CB?$DN?5?$CI?$CIvoid?5?$CK?$CJ?50?$CJ@ 00000000000cd288     UefiBootServicesTableLib:UefiBootServicesTableLib.obj
 0002:000052b0       ??_C@_0GA@INMEIGJE@D?3?2develop?2Self_develop?2edk2?2Md@ 00000000000cd2b0     UefiBootServicesTableLib:UefiBootServicesTableLib.obj
 0002:00005310       ??_C@_0BE@DGNHAHIL@gST?5?$CB?$DN?5?$CI?$CIvoid?5?$CK?$CJ?50?$CJ@ 00000000000cd310     UefiBootServicesTableLib:UefiBootServicesTableLib.obj
 0002:00005328       ??_C@_0BE@BDFJLGLN@gBS?5?$CB?$DN?5?$CI?$CIvoid?5?$CK?$CJ?50?$CJ@ 00000000000cd328     UefiBootServicesTableLib:UefiBootServicesTableLib.obj
 0002:00005340       ??_C@_0BE@OBDFIHND@gRT?5?$CB?$DN?5?$CI?$CIvoid?5?$CK?$CJ?50?$CJ@ 00000000000cd340     UefiRuntimeServicesTableLib:UefiRuntimeServicesTableLib.obj
 0002:00005360       ??_C@_0GG@OBDIBKMM@D?3?2develop?2Self_develop?2edk2?2Md@ 00000000000cd360     UefiRuntimeServicesTableLib:UefiRuntimeServicesTableLib.obj
 0002:000053c8       ??_C@_0BK@PPOBBAMB@TableGuid?5?$CB?$DN?5?$CI?$CIvoid?5?$CK?$CJ?50?$CJ@ 00000000000cd3c8     UefiLib:UefiLib.obj
 0002:000053e8       ??_C@_0DO@KJBPHFLK@D?3?2develop?2Self_develop?2edk2?2Md@ 00000000000cd3e8     UefiLib:UefiLib.obj
 0002:00005428       ??_C@_0BG@JDKEGFNB@Table?5?$CB?$DN?5?$CI?$CIvoid?5?$CK?$CJ?50?$CJ@ 00000000000cd428     UefiLib:UefiLib.obj
 0002:00005440       ??_C@_0BF@OGAHIMFI@Name?5?$CB?$DN?5?$CI?$CIvoid?5?$CK?$CJ?50?$CJ@ 00000000000cd440     UefiLib:UefiLib.obj
 0002:00005460       ??_C@_0EG@GOBFPEEP@Name?5?$CB?$DN?5?$CI?$CIvoid?5?$CK?$CJ?50?$CJ?5?$CG?$CG?5Guid?5?$CB?$DN@ 00000000000cd460     UefiLib:UefiLib.obj
 0002:000054a8       ??_C@_0BH@FMEOEIBC@?$CKValue?5?$CB?$DN?5?$CI?$CIvoid?5?$CK?$CJ?50?$CJ@ 00000000000cd4a8     UefiLib:UefiLib.obj
 0002:000054c0       ??_C@_0CD@OLFKAJF@SupportedLanguages?5?$CB?$DN?5?$CI?$CIvoid?5?$CK?$CJ@ 00000000000cd4c0     UefiLib:UefiLib.obj
 0002:000054e8       ??_C@_0DF@ECOIAGNP@?$CI?$CI?$CIRETURN_STATUS?$CJ?$CIStatus?$CJ?$CJ?5?$DO?$DN?50@ 00000000000cd4e8     UefiLib:UefiLib.obj
 0002:00005520       ??_C@_0ED@IHINCCJF@D?3?2develop?2Self_develop?2edk2?2Md@ 00000000000cd520     UefiLib:UefiNotTiano.obj
 0002:00005568       ??_C@_0CB@OKGFGBHJ@FvDevicePathNode?5?$CB?$DN?5?$CI?$CIvoid?5?$CK?$CJ?50@ 00000000000cd568     UefiLib:UefiNotTiano.obj
 0002:00005590       ??_C@_0ED@IHPNEENF@D?3?2develop?2Self_develop?2edk2?2Md@ 00000000000cd590     UefiLib:UefiLibPrint.obj
 0002:000055d8       ??_C@_0CC@KPMNJIIF@?$CI?$CIUINTN?$CJFormat?5?$CG?50x00000001?$CJ?5?$DN?$DN@ 00000000000cd5d8     UefiLib:UefiLibPrint.obj
 0002:00005600       ??_C@_0BI@DIKLKBJC@Console?5?$CB?$DN?5?$CI?$CIvoid?5?$CK?$CJ?50?$CJ@ 00000000000cd600     UefiLib:UefiLibPrint.obj
 0002:00005618       ??_C@_0CJ@HBMCGOOM@StrSize?5?$CIBufferToReturn?$CJ?5?$DN?$DN?5Siz@ 00000000000cd618     UefiLib:UefiLibPrint.obj
 0002:00005650       ??_C@_0FK@MLELAAND@D?3?2develop?2Self_develop?2edk2?2Md@ 00000000000cd650     UefiHiiServicesLib:UefiHiiServicesLib.obj
 0002:000056b0       ??_C@_0DP@IKGCDEIJ@D?3?2develop?2Self_develop?2edk2?2Md@ 00000000000cd6b0     DxeHobLib:HobLib.obj
 0002:000056f0       ??_C@_0BJ@OBFMLLDO@mHobList?5?$CB?$DN?5?$CI?$CIvoid?5?$CK?$CJ?50?$CJ@ 00000000000cd6f0     DxeHobLib:HobLib.obj
 0002:00005710       ??_C@_0EM@JKDKGFPD@D?3?2develop?2Self_develop?2edk2?2Md@ 00000000000cd710     UefiSortLib:UefiSortLib.obj
 0002:00005760       ??_C@_0BK@KLJHMMPJ@HiiHandle?5?$CB?$DN?5?$CI?$CIvoid?5?$CK?$CJ?50?$CJ@ 00000000000cd760     UefiHiiLib:HiiLanguage.obj
 0002:00005780       ??_C@_0EL@HGMBJPPA@D?3?2develop?2Self_develop?2edk2?2Md@ 00000000000cd780     UefiHiiLib:HiiLanguage.obj
 0002:000057d0       ??_C@_0EJ@HDLKOEBP@D?3?2develop?2Self_develop?2edk2?2Md@ 00000000000cd7d0     UefiHiiLib:HiiString.obj
 0002:0000581c       ??_C@_06PLDEFKP@x?9UEFI@   00000000000cd81c     UefiHiiLib:HiiString.obj
 0002:00005828       ??_C@_0CA@OEKIMLLB@PackageListGuid?5?$CB?$DN?5?$CI?$CIvoid?5?$CK?$CJ?50?$CJ@ 00000000000cd828     UefiHiiLib:HiiString.obj
 0002:00005848       ??_C@_0O@EMMLPDMJ@StringId?5?$CB?$DN?50@ 00000000000cd848     UefiHiiLib:HiiString.obj
 0002:00005858       ??_C@_0DA@MAJHLAPK@?$CB?$CI?$CBTryBestLanguage?5?$CG?$CG?5Language?5@ 00000000000cd858     UefiHiiLib:HiiString.obj
 0002:00005888       ??_C@_1BK@GGGENMOA@?$AAP?$AAl?$AAa?$AAt?$AAf?$AAo?$AAr?$AAm?$AAL?$AAa?$AAn?$AAg@ 00000000000cd888     UefiHiiLib:HiiString.obj
 0002:000058a2       ??_C@_00CNPNBAHC@@         00000000000cd8a2     UefiHiiLib:HiiString.obj
 0002:000058b0       ??_C@_0EG@FKLMENCJ@D?3?2develop?2Self_develop?2edk2?2Md@ 00000000000cd8b0     UefiHiiLib:HiiLib.obj
 0002:000058f8       ??_C@_0BH@OOIJJHNK@Handle?5?$CB?$DN?5?$CI?$CIvoid?5?$CK?$CJ?50?$CJ@ 00000000000cd8f8     UefiHiiLib:HiiLib.obj
 0002:00005910       ??_C@_19LJDFFCJJ@?$AA?$CF?$AAs?$AA?$CF?$AAs@ 00000000000cd910     UefiHiiLib:HiiLib.obj
 0002:0000591c       mEndOfPakageList           00000000000cd91c     UefiHiiLib:HiiLib.obj
 0002:00005920       gUnicodeFileTag            00000000000cd920     UefiFileHandleLib:UefiFileHandleLib.obj
 0002:00005928       ??_C@_0DJ@IBOAFPFC@Status?5?$CB?$DN?5?$CI?$CIRETURN_STATUS?$CJ?$CI0x80@ 00000000000cd928     UefiFileHandleLib:UefiFileHandleLib.obj
 0002:00005970       ??_C@_0FC@IBCFHENL@D?3?2develop?2Self_develop?2edk2?2Md@ 00000000000cd970     UefiFileHandleLib:UefiFileHandleLib.obj
 0002:000059c8       ??_C@_0BB@PMNGACIB@CurrentSize?5?$CB?$DN?50@ 00000000000cd9c8     UefiFileHandleLib:UefiFileHandleLib.obj
 0002:000059e0       ??_C@_0CF@PEEFMLCB@DestinationStartSize?5?$DM?$DN?5?$CKCurren@ 00000000000cd9e0     UefiFileHandleLib:UefiFileHandleLib.obj
 0002:00005a10       ??_C@_0FA@DCHCMINO@?$CI?$CKFullFileName?5?$DN?$DN?5?$CI?$CIvoid?5?$CK?$CJ?50?$CJ?5@ 00000000000cda10     UefiFileHandleLib:UefiFileHandleLib.obj
 0002:00005a60       ??_C@_0BJ@OAAKNPEN@Pe32Data?5?$CB?$DN?5?$CI?$CIvoid?5?$CK?$CJ?50?$CJ@ 00000000000cda60     BasePeCoffGetEntryPointLib:PeCoffGetEntryPoint.obj
 0002:00005a80       ??_C@_0FN@BBOENJPL@D?3?2develop?2Self_develop?2edk2?2Md@ 00000000000cda80     BasePeCoffGetEntryPointLib:PeCoffGetEntryPoint.obj
 0002:00005ae0       ??_C@_0BO@DIMHDDCF@TotalSize?5?$DM?$DN?5?$CI?$CIUINT16?$CJ0xFFFF?$CJ@ 00000000000cdae0     VariablePolicyHelperLib:VariablePolicyHelperLib.obj
 0002:00005b00       ??_C@_0GE@KHLGMMHL@D?3?2develop?2Self_develop?2edk2?2Md@ 00000000000cdb00     VariablePolicyHelperLib:VariablePolicyHelperLib.obj
 0002:00005b70       ??_C@_0FG@BBBJNEFD@D?3?2develop?2Self_develop?2edk2?2Md@ 00000000000cdb70     DxeServicesTableLib:DxeServicesTableLib.obj
 0002:00005bc8       ??_C@_0BE@IOIFLNKO@gDS?5?$CB?$DN?5?$CI?$CIvoid?5?$CK?$CJ?50?$CJ@ 00000000000cdbc8     DxeServicesTableLib:DxeServicesTableLib.obj
 0002:00005be0       ??_C@_0CA@LDOGPNJA@OrderedCollectionIsEmpty?5?$CITree?$CJ@ 00000000000cdbe0     BaseOrderedCollectionRedBlackTreeLib:BaseOrderedCollectionRedBlackTreeLib.obj
 0002:00005c00       ??_C@_0HI@FJMFCNPI@D?3?2develop?2Self_develop?2edk2?2Md@ 00000000000cdc00     BaseOrderedCollectionRedBlackTreeLib:BaseOrderedCollectionRedBlackTreeLib.obj
 0002:00005c78       ??_C@_0BO@JHGBLDAL@GrandParent?5?$DN?$DN?5Parent?9?$DOParent@ 00000000000cdc78     BaseOrderedCollectionRedBlackTreeLib:BaseOrderedCollectionRedBlackTreeLib.obj
 0002:00005c98       ??_C@_0BI@LNFKHELA@Sibling?5?$CB?$DN?5?$CI?$CIvoid?5?$CK?$CJ?50?$CJ@ 00000000000cdc98     BaseOrderedCollectionRedBlackTreeLib:BaseOrderedCollectionRedBlackTreeLib.obj
 0002:00005cb0       ??_C@_0CE@BFPIJPIP@Sibling?9?$DOColor?5?$DN?$DN?5RedBlackTreeB@ 00000000000cdcb0     BaseOrderedCollectionRedBlackTreeLib:BaseOrderedCollectionRedBlackTreeLib.obj
 0002:00005cd8       ??_C@_0BM@KOLHPPKJ@RightNephew?5?$CB?$DN?5?$CI?$CIvoid?5?$CK?$CJ?50?$CJ@ 00000000000cdcd8     BaseOrderedCollectionRedBlackTreeLib:BaseOrderedCollectionRedBlackTreeLib.obj
 0002:00005cf8       ??_C@_0CG@DHIMMODJ@RightNephew?9?$DOColor?5?$DN?$DN?5RedBlackT@ 00000000000cdcf8     BaseOrderedCollectionRedBlackTreeLib:BaseOrderedCollectionRedBlackTreeLib.obj
 0002:00005d20       ??_C@_0BL@KAEICEIJ@LeftNephew?5?$CB?$DN?5?$CI?$CIvoid?5?$CK?$CJ?50?$CJ@ 00000000000cdd20     BaseOrderedCollectionRedBlackTreeLib:BaseOrderedCollectionRedBlackTreeLib.obj
 0002:00005d40       ??_C@_0CF@JIPHGPLG@LeftNephew?9?$DOColor?5?$DN?$DN?5RedBlackTr@ 00000000000cdd40     BaseOrderedCollectionRedBlackTreeLib:BaseOrderedCollectionRedBlackTreeLib.obj
 0002:00005d70       ??_C@_0ED@IGBEFDFD@Node?9?$DOColor?5?$DN?$DN?5RedBlackTreeRed?5@ 00000000000cdd70     BaseOrderedCollectionRedBlackTreeLib:BaseOrderedCollectionRedBlackTreeLib.obj
 0002:00005db8       ??_C@_0BP@FEMNMDIC@NodeIsNullOrBlack?5?$CINode?9?$DOLeft?$CJ@ 00000000000cddb8     BaseOrderedCollectionRedBlackTreeLib:BaseOrderedCollectionRedBlackTreeLib.obj
 0002:00005dd8       ??_C@_0CA@EEEMOLLI@NodeIsNullOrBlack?5?$CINode?9?$DORight?$CJ@ 00000000000cddd8     BaseOrderedCollectionRedBlackTreeLib:BaseOrderedCollectionRedBlackTreeLib.obj
 0002:00005df8       ??_C@_0BK@MDECNOFB@LeftHeight?5?$DN?$DN?5RightHeight@ 00000000000cddf8     BaseOrderedCollectionRedBlackTreeLib:BaseOrderedCollectionRedBlackTreeLib.obj
 0002:00005e18       ??_C@_0BF@PAMKDJKB@RedBlackTreeValidate@ 00000000000cde18     BaseOrderedCollectionRedBlackTreeLib:BaseOrderedCollectionRedBlackTreeLib.obj
 0002:00005e30       ??_C@_0N@EIIKKJGJ@?$CFa?3?5Tree?$DN?$CFp?6@ 00000000000cde30     BaseOrderedCollectionRedBlackTreeLib:BaseOrderedCollectionRedBlackTreeLib.obj
 0002:00005e40       ??_C@_0BP@DGCGBACN@NodeIsNullOrBlack?5?$CITree?9?$DORoot?$CJ@ 00000000000cde40     BaseOrderedCollectionRedBlackTreeLib:BaseOrderedCollectionRedBlackTreeLib.obj
 0002:00005e60       ??_C@_0EB@HHGJHFNM@Tree?9?$DOUserStructCompare?5?$CILast?9?$DO@ 00000000000cde60     BaseOrderedCollectionRedBlackTreeLib:BaseOrderedCollectionRedBlackTreeLib.obj
 0002:00005eb0       ??_C@_0EB@NNGALNFH@Tree?9?$DOUserStructCompare?5?$CILast?9?$DO@ 00000000000cdeb0     BaseOrderedCollectionRedBlackTreeLib:BaseOrderedCollectionRedBlackTreeLib.obj
 0002:00005ef8       ??_C@_0BO@CCHCGBOF@ForwardCount?5?$DN?$DN?5BackwardCount@ 00000000000cdef8     BaseOrderedCollectionRedBlackTreeLib:BaseOrderedCollectionRedBlackTreeLib.obj
 0002:00005f18       ??_C@_0CH@KNNAGDPC@?$CFa?3?5Tree?$DN?$CFp?5BlackHeight?$DN?$CFLd?5Cou@ 00000000000cdf18     BaseOrderedCollectionRedBlackTreeLib:BaseOrderedCollectionRedBlackTreeLib.obj
 0002:00005f40       ??_C@_19DJOBICII@?$AA?9?$AAs?$AAf?$AAo@ 00000000000cdf40     UefiShellLib:UefiShellLib.obj
 0002:00005f50       ??_C@_0BF@EAIGPLDI@Path?5?$CB?$DN?5?$CI?$CIvoid?5?$CK?$CJ?50?$CJ@ 00000000000cdf50     UefiShellLib:UefiShellLib.obj
 0002:00005f70       ??_C@_0EK@NMFGAPDM@D?3?2develop?2Self_develop?2edk2?2Sh@ 00000000000cdf70     UefiShellLib:UefiShellLib.obj
 0002:00005fc0       ??_C@_0BB@FIMNCDND@Status?3?50x?$CF08x?$AN?6@ 00000000000cdfc0     UefiShellLib:UefiShellLib.obj
 0002:00005fd8       ??_C@_0BJ@BLIKFMIM@FileName?5?$CB?$DN?5?$CI?$CIvoid?5?$CK?$CJ?50?$CJ@ 00000000000cdfd8     UefiShellLib:UefiShellLib.obj
 0002:00005ff8       ??_C@_0BJ@LGIAPEFG@FileInfo?5?$CB?$DN?5?$CI?$CIvoid?5?$CK?$CJ?50?$CJ@ 00000000000cdff8     UefiShellLib:UefiShellLib.obj
 0002:00006018       ??_C@_0CG@HOBDBICG@mEfiShellEnvironment2?5?$CB?$DN?5?$CI?$CIvoid@ 00000000000ce018     UefiShellLib:UefiShellLib.obj
 0002:00006040       ??_C@_0BJ@CEFLEMCG@FileList?5?$CB?$DN?5?$CI?$CIvoid?5?$CK?$CJ?50?$CJ@ 00000000000ce040     UefiShellLib:UefiShellLib.obj
 0002:00006060       ??_C@_0BI@HFLLAPEM@OldInfo?5?$CB?$DN?5?$CI?$CIvoid?5?$CK?$CJ?50?$CJ@ 00000000000ce060     UefiShellLib:UefiShellLib.obj
 0002:00006078       ??_C@_0BO@JMFHFMII@OldInfo?9?$DOInfo?5?$CB?$DN?5?$CI?$CIvoid?5?$CK?$CJ?50?$CJ@ 00000000000ce078     UefiShellLib:UefiShellLib.obj
 0002:00006098       ??_C@_0CC@BMDNOILF@OldInfo?9?$DOFullName?5?$CB?$DN?5?$CI?$CIvoid?5?$CK?$CJ?5@ 00000000000ce098     UefiShellLib:UefiShellLib.obj
 0002:000060c0       ??_C@_0CC@HGDGHHKJ@OldInfo?9?$DOFileName?5?$CB?$DN?5?$CI?$CIvoid?5?$CK?$CJ?5@ 00000000000ce0c0     UefiShellLib:UefiShellLib.obj
 0002:000060e8       ??_C@_0BE@MAANAFFD@Arg?5?$CB?$DN?5?$CI?$CIvoid?5?$CK?$CJ?50?$CJ@ 00000000000ce0e8     UefiShellLib:UefiShellLib.obj
 0002:00006100       ??_C@_0BH@GKHOOAJI@RetVal?5?$DN?$DN?5?$CI?$CIvoid?5?$CK?$CJ?50?$CJ@ 00000000000ce100     UefiShellLib:UefiShellLib.obj
 0002:00006118       ??_C@_19JIFMCCAP@?$AAp?$AAa?$AAt?$AAh@ 00000000000ce118     UefiShellLib:UefiShellLib.obj
 0002:00006128       ??_C@_0CA@PJEKBINO@ExtensionWalker?5?$CB?$DN?5?$CI?$CIvoid?5?$CK?$CJ?50?$CJ@ 00000000000ce128     UefiShellLib:UefiShellLib.obj
 0002:00006148       ??_C@_0BK@KFLCMCGE@CheckList?5?$CB?$DN?5?$CI?$CIvoid?5?$CK?$CJ?50?$CJ@ 00000000000ce148     UefiShellLib:UefiShellLib.obj
 0002:00006168       ??_C@_0BF@DFKBEABN@Type?5?$CB?$DN?5?$CI?$CIvoid?5?$CK?$CJ?50?$CJ@ 00000000000ce168     UefiShellLib:UefiShellLib.obj
 0002:00006180       ??_C@_15GECAHHDM@?$AA?9?$AAb@ 00000000000ce180     UefiShellLib:UefiShellLib.obj
 0002:00006188       ??_C@_0BC@DHCAIFAM@GetItemValue?5?$DN?$DN?50@ 00000000000ce188     UefiShellLib:UefiShellLib.obj
 0002:000061a0       ??_C@_0BN@EKAHENGP@CheckPackage?5?$CB?$DN?5?$CI?$CIvoid?5?$CK?$CJ?50?$CJ@ 00000000000ce1a0     UefiShellLib:UefiShellLib.obj
 0002:000061c0       ??_C@_0CD@OLNJGJNE@mEfiShellInterface?5?$CB?$DN?5?$CI?$CIvoid?5?$CK?$CJ@ 00000000000ce1c0     UefiShellLib:UefiShellLib.obj
 0002:000061e8       ??_C@_19GBMGDAIM@?$AA?$CC?$AA?$CF?$AAs?$AA?$CC@ 00000000000ce1e8     UefiShellLib:UefiShellLib.obj
 0002:000061f8       ??_C@_17HOBPHCP@?$AA?$CF?$AA?$CF?$AAN@ 00000000000ce1f8     UefiShellLib:UefiShellLib.obj
 0002:00006200       ??_C@_15GCJHOFNH@?$AA?$CF?$AAN@ 00000000000ce200     UefiShellLib:UefiShellLib.obj
 0002:00006208       ??_C@_17NAOAHACO@?$AA?$CF?$AA?$CF?$AAE@ 00000000000ce208     UefiShellLib:UefiShellLib.obj
 0002:00006210       ??_C@_15LFJGGCNG@?$AA?$CF?$AAE@ 00000000000ce210     UefiShellLib:UefiShellLib.obj
 0002:00006218       ??_C@_17CCIKKIPD@?$AA?$CF?$AA?$CF?$AAH@ 00000000000ce218     UefiShellLib:UefiShellLib.obj
 0002:00006220       ??_C@_15EHPMLKAL@?$AA?$CF?$AAH@ 00000000000ce220     UefiShellLib:UefiShellLib.obj
 0002:00006228       ??_C@_17ENDHEIJH@?$AA?$CF?$AA?$CF?$AAB@ 00000000000ce228     UefiShellLib:UefiShellLib.obj
 0002:00006230       ??_C@_15CIEBFKGP@?$AA?$CF?$AAB@ 00000000000ce230     UefiShellLib:UefiShellLib.obj
 0002:00006238       ??_C@_17JCEMIIFP@?$AA?$CF?$AA?$CF?$AAV@ 00000000000ce238     UefiShellLib:UefiShellLib.obj
 0002:00006240       ??_C@_15PHDKJKKH@?$AA?$CF?$AAV@ 00000000000ce240     UefiShellLib:UefiShellLib.obj
 0002:00006248       ??_C@_0BI@BCILGJIG@DirName?5?$CB?$DN?5?$CI?$CIvoid?5?$CK?$CJ?50?$CJ@ 00000000000ce248     UefiShellLib:UefiShellLib.obj
 0002:00006260       ??_C@_15DAMPJCDE@?$AA?$CF?$AAc@ 00000000000ce260     UefiShellLib:UefiShellLib.obj
 0002:00006270       ??_C@_0EC@NPOOM@?$CIBuffer?5?$DN?$DN?5?$CI?$CIvoid?5?$CK?$CJ?50?$CJ?5?$CG?$CG?5Size@ 00000000000ce270     UefiShellLib:UefiShellLib.obj
 0002:000062b4       ??_C@_15OEMMNBIC@?$AA0?$AAx@ 00000000000ce2b4     UefiShellLib:UefiShellLib.obj
 0002:000062bc       ??_C@_15EEPOHOLM@?$AA0?$AAX@ 00000000000ce2bc     UefiShellLib:UefiShellLib.obj
 0002:000062c8       ??_C@_0L@NOBFEIA@?$CKSize?5?$DN?$DN?50@ 00000000000ce2c8     UefiShellLib:UefiShellLib.obj
 0002:000062d8       ??_C@_0DC@PFNNBEEF@The?5line?5was?5truncated?5in?5Shell@ 00000000000ce2d8     UefiShellLib:UefiShellLib.obj
 0002:00006310       ??_C@_1CA@MKFFJJHF@?$AA?$CF?$AAH?$AA?$CF?$AA?9?$AA1?$AA4?$AAs?$AA?$CF?$AAN?$AA?9?$AA?5?$AA?$CF?$AAs?$AA?$AN?$AA?6@ 00000000000ce310     UefiShellLib:UefiShellLib.obj
 0002:00006330       ??_C@_1O@OGFJFJDO@?$AA?$CF?$AAN?$AA?$CF?$AAs?$AA?$AN?$AA?6@ 00000000000ce330     UefiShellLib:UefiShellLib.obj
 0002:00006340       ??_C@_1CM@FFPOKMDE@?$AAE?$AAf?$AAi?$AAR?$AAe?$AAs?$AAe?$AAr?$AAv?$AAe?$AAd?$AAM?$AAe?$AAm?$AAo@ 00000000000ce340     UefiHandleParsingLib:UefiHandleParsingLib.obj
 0002:00006370       ??_C@_1BM@FAGLICOG@?$AAE?$AAf?$AAi?$AAL?$AAo?$AAa?$AAd?$AAe?$AAr?$AAC?$AAo?$AAd?$AAe@ 00000000000ce370     UefiHandleParsingLib:UefiHandleParsingLib.obj
 0002:00006390       ??_C@_1BM@CLIJBOGB@?$AAE?$AAf?$AAi?$AAL?$AAo?$AAa?$AAd?$AAe?$AAr?$AAD?$AAa?$AAt?$AAa@ 00000000000ce390     UefiHandleParsingLib:UefiHandleParsingLib.obj
 0002:000063b0       ??_C@_1CI@DPCOKMCE@?$AAE?$AAf?$AAi?$AAB?$AAo?$AAo?$AAt?$AAS?$AAe?$AAr?$AAv?$AAi?$AAc?$AAe?$AAs@ 00000000000ce3b0     UefiHandleParsingLib:UefiHandleParsingLib.obj
 0002:000063d8       ??_C@_1CI@EEMMDAKD@?$AAE?$AAf?$AAi?$AAB?$AAo?$AAo?$AAt?$AAS?$AAe?$AAr?$AAv?$AAi?$AAc?$AAe?$AAs@ 00000000000ce3d8     UefiHandleParsingLib:UefiHandleParsingLib.obj
 0002:00006400       ??_C@_1CO@GDFCIHHC@?$AAE?$AAf?$AAi?$AAR?$AAu?$AAn?$AAt?$AAi?$AAm?$AAe?$AAS?$AAe?$AAr?$AAv?$AAi@ 00000000000ce400     UefiHandleParsingLib:UefiHandleParsingLib.obj
 0002:00006430       ??_C@_1CO@BILABLPF@?$AAE?$AAf?$AAi?$AAR?$AAu?$AAn?$AAt?$AAi?$AAm?$AAe?$AAS?$AAe?$AAr?$AAv?$AAi@ 00000000000ce430     UefiHandleParsingLib:UefiHandleParsingLib.obj
 0002:00006460       ??_C@_1CM@NMFKEKLB@?$AAE?$AAf?$AAi?$AAC?$AAo?$AAn?$AAv?$AAe?$AAn?$AAt?$AAi?$AAo?$AAn?$AAa?$AAl@ 00000000000ce460     UefiHandleParsingLib:UefiHandleParsingLib.obj
 0002:00006490       ??_C@_1CE@EGDMDJFH@?$AAE?$AAf?$AAi?$AAU?$AAn?$AAu?$AAs?$AAa?$AAb?$AAl?$AAe?$AAM?$AAe?$AAm?$AAo@ 00000000000ce490     UefiHandleParsingLib:UefiHandleParsingLib.obj
 0002:000064b8       ??_C@_1CK@IPMNKCMJ@?$AAE?$AAf?$AAi?$AAA?$AAC?$AAP?$AAI?$AAR?$AAe?$AAc?$AAl?$AAa?$AAi?$AAm?$AAM@ 00000000000ce4b8     UefiHandleParsingLib:UefiHandleParsingLib.obj
 0002:000064e8       ??_C@_1CC@JFBAOHPO@?$AAE?$AAf?$AAi?$AAA?$AAC?$AAP?$AAI?$AAM?$AAe?$AAm?$AAo?$AAr?$AAy?$AAN?$AAV@ 00000000000ce4e8     UefiHandleParsingLib:UefiHandleParsingLib.obj
 0002:00006510       ??_C@_1CE@GDAFGIDL@?$AAE?$AAf?$AAi?$AAM?$AAe?$AAm?$AAo?$AAr?$AAy?$AAM?$AAa?$AAp?$AAp?$AAe?$AAd@ 00000000000ce510     UefiHandleParsingLib:UefiHandleParsingLib.obj
 0002:00006538       ??_C@_1DG@HOCHGHPB@?$AAE?$AAf?$AAi?$AAM?$AAe?$AAm?$AAo?$AAr?$AAy?$AAM?$AAa?$AAp?$AAp?$AAe?$AAd@ 00000000000ce538     UefiHandleParsingLib:UefiHandleParsingLib.obj
 0002:00006570       ??_C@_1BG@HFPGOEBG@?$AAE?$AAf?$AAi?$AAP?$AAa?$AAl?$AAC?$AAo?$AAd?$AAe@ 00000000000ce570     UefiHandleParsingLib:UefiHandleParsingLib.obj
 0002:00006588       ??_C@_1CC@PCJPCHMF@?$AAE?$AAf?$AAi?$AAM?$AAa?$AAx?$AAM?$AAe?$AAm?$AAo?$AAr?$AAy?$AAT?$AAy?$AAp@ 00000000000ce588     UefiHandleParsingLib:UefiHandleParsingLib.obj
 0002:000065b0       ??_C@_0FK@OPIMAFPJ@D?3?2develop?2Self_develop?2edk2?2Sh@ 00000000000ce5b0     UefiHandleParsingLib:UefiHandleParsingLib.obj
 0002:00006610       ??_C@_1EM@PFGNLEFJ@?$AAP?$AAi?$AAx?$AAe?$AAl?$AAR?$AAe?$AAd?$AAG?$AAr?$AAe?$AAe?$AAn?$AAB?$AAl@ 00000000000ce610     UefiHandleParsingLib:UefiHandleParsingLib.obj
 0002:00006660       ??_C@_1EM@LHEAPBOF@?$AAP?$AAi?$AAx?$AAe?$AAl?$AAB?$AAl?$AAu?$AAe?$AAG?$AAr?$AAe?$AAe?$AAn?$AAR@ 00000000000ce660     UefiHandleParsingLib:UefiHandleParsingLib.obj
 0002:000066b0       ??_C@_1BK@KCONFGPO@?$AAP?$AAi?$AAx?$AAe?$AAl?$AAB?$AAi?$AAt?$AAM?$AAa?$AAs?$AAk@ 00000000000ce6b0     UefiHandleParsingLib:UefiHandleParsingLib.obj
 0002:000066d0       ??_C@_1BK@PDALNFFI@?$AAP?$AAi?$AAx?$AAe?$AAl?$AAB?$AAl?$AAt?$AAO?$AAn?$AAl?$AAy@ 00000000000ce6d0     UefiHandleParsingLib:UefiHandleParsingLib.obj
 0002:000066f0       ??_C@_1BO@LDACBODH@?$AAP?$AAi?$AAx?$AAe?$AAl?$AAF?$AAo?$AAr?$AAm?$AAa?$AAt?$AAM?$AAa?$AAx@ 00000000000ce6f0     UefiHandleParsingLib:UefiHandleParsingLib.obj
 0002:00006710       ??_C@_0CI@CDMOAKJF@mHandleParsingHiiHandle?5?$CB?$DN?5?$CI?$CIvo@ 00000000000ce710     UefiHandleParsingLib:UefiHandleParsingLib.obj
 0002:00006738       ??_C@_1BO@IKNCGJNK@?$AAG?$AAr?$AAa?$AAp?$AAh?$AAi?$AAc?$AAs?$AAO?$AAu?$AAt?$AAp?$AAu?$AAt@ 00000000000ce738     UefiHandleParsingLib:UefiHandleParsingLib.obj
 0002:00006758       ??_C@_1BO@COINAGCD@?$AAE?$AAD?$AAI?$AAD?$AAD?$AAi?$AAs?$AAc?$AAo?$AAv?$AAe?$AAr?$AAe?$AAd@ 00000000000ce758     UefiHandleParsingLib:UefiHandleParsingLib.obj
 0002:00006778       ??_C@_1BG@HHDKNMEH@?$AAE?$AAD?$AAI?$AAD?$AAA?$AAc?$AAt?$AAi?$AAv?$AAe@ 00000000000ce778     UefiHandleParsingLib:UefiHandleParsingLib.obj
 0002:00006790       ??_C@_1CA@DFHAODOI@?$AAP?$AAc?$AAi?$AAR?$AAo?$AAo?$AAt?$AAB?$AAr?$AAi?$AAd?$AAg?$AAe?$AAI?$AAo@ 00000000000ce790     UefiHandleParsingLib:UefiHandleParsingLib.obj
 0002:000067b0       ??_C@_19FGKAJLAG@?$AA?$AN?$AA?6?$AA?$CF?$AAs@ 00000000000ce7b0     UefiHandleParsingLib:UefiHandleParsingLib.obj
 0002:000067c0       ??_C@_1EG@OKJPEDO@?$AA?$CF?$AA?$CF?$AAH?$AA?$CF?$AA0?$AA2?$AAx?$AA?5?$AA?5?$AA?5?$AA?5?$AA?$CF?$AA0?$AA1?$AA6@ 00000000000ce7c0     UefiHandleParsingLib:UefiHandleParsingLib.obj
 0002:00006808       ??_C@_0DB@FBDJHOFE@Dev?5?$CB?$DN?5?$CI?$CIvoid?5?$CK?$CJ?50?$CJ?5?$CG?$CG?5Dev?9?$DOMod@ 00000000000ce808     UefiHandleParsingLib:UefiHandleParsingLib.obj
 0002:00006840       ??_C@_1O@MNMPKDNM@?$AA0?$AAx?$AA?$CF?$AA0?$AA8?$AAx@ 00000000000ce840     UefiHandleParsingLib:UefiHandleParsingLib.obj
 0002:00006850       ??_C@_15OJKDPEFE@?$AA?5?$AA?5@ 00000000000ce850     UefiHandleParsingLib:UefiHandleParsingLib.obj
 0002:00006858       ??_C@_1O@LIKMPGGN@?$AAc?$AAa?$AAc?$AAh?$AAe?$AAd@ 00000000000ce858     UefiHandleParsingLib:UefiHandleParsingLib.obj
 0002:00006868       ??_C@_1BA@DMPLCOBD@?$AA?$CB?$AAc?$AAa?$AAc?$AAh?$AAe?$AAd@ 00000000000ce868     UefiHandleParsingLib:UefiHandleParsingLib.obj
 0002:00006878       ??_C@_15GLJCBFMD@?$AAr?$AAo@ 00000000000ce878     UefiHandleParsingLib:UefiHandleParsingLib.obj
 0002:00006880       ??_C@_15PODPGKLD@?$AAr?$AAw@ 00000000000ce880     UefiHandleParsingLib:UefiHandleParsingLib.obj
 0002:00006888       ??_C@_1BE@DLNCBOIL@?$AAp?$AAa?$AAr?$AAt?$AAi?$AAt?$AAi?$AAo?$AAn@ 00000000000ce888     UefiHandleParsingLib:UefiHandleParsingLib.obj
 0002:000068a0       ??_C@_17EBOIPCKB@?$AAr?$AAa?$AAw@ 00000000000ce8a0     UefiHandleParsingLib:UefiHandleParsingLib.obj
 0002:000068a8       ??_C@_1BK@FJPEHKJB@?$AAn?$AAo?$AAt?$AA?9?$AAp?$AAr?$AAe?$AAs?$AAe?$AAn?$AAt?$AA?5@ 00000000000ce8a8     UefiHandleParsingLib:UefiHandleParsingLib.obj
 0002:000068c8       ??_C@_1BG@LGHNKLOH@?$AAR?$AAe?$AAm?$AAo?$AAv?$AAa?$AAb?$AAl?$AAe?$AA?5@ 00000000000ce8c8     UefiHandleParsingLib:UefiHandleParsingLib.obj
 0002:000068e0       ??_C@_1O@GMAGOFCH@?$AAF?$AAi?$AAx?$AAe?$AAd?$AA?5@ 00000000000ce8e0     UefiHandleParsingLib:UefiHandleParsingLib.obj
 0002:000068f0       ??_C@_1M@OCCHOKMB@?$AAI?$AAA?$AA?9?$AA3?$AA2@ 00000000000ce8f0     UefiHandleParsingLib:UefiHandleParsingLib.obj
 0002:00006900       ??_C@_17BOPOPGEG@?$AAI?$AAP?$AAF@ 00000000000ce900     UefiHandleParsingLib:UefiHandleParsingLib.obj
 0002:00006908       ??_C@_17DAJBLAKL@?$AAE?$AAB?$AAC@ 00000000000ce908     UefiHandleParsingLib:UefiHandleParsingLib.obj
 0002:00006910       ??_C@_1BM@NDIOGKH@?$AA?$AN?$AA?6?$AA?5?$AA?5?$AA?5?$AA?5?$AA?5?$AA?5?$AA?5?$AA?$CF?$AA0?$AA2?$AAx@ 00000000000ce910     UefiHandleParsingLib:UefiHandleParsingLib.obj
 0002:00006930       ??_C@_1BI@LHMCEDBK@?$AAA?$AAd?$AAa?$AAp?$AAt?$AAe?$AAr?$AAI?$AAn?$AAf?$AAo@ 00000000000ce930     UefiHandleParsingLib:UefiHandleParsingLib.obj
 0002:00006948       ??_C@_1DM@EKBICOFE@?$AAg?$AAE?$AAf?$AAi?$AAA?$AAd?$AAa?$AAp?$AAt?$AAe?$AAr?$AAI?$AAn?$AAf?$AAo@ 00000000000ce948     UefiHandleParsingLib:UefiHandleParsingLib.obj
 0002:00006988       ??_C@_1DO@IEEOKFIB@?$AAg?$AAE?$AAf?$AAi?$AAA?$AAd?$AAa?$AAp?$AAt?$AAe?$AAr?$AAI?$AAn?$AAf?$AAo@ 00000000000ce988     UefiHandleParsingLib:UefiHandleParsingLib.obj
 0002:000069d0       ??_C@_1EC@HNCAJDGK@?$AAg?$AAE?$AAf?$AAi?$AAA?$AAd?$AAa?$AAp?$AAt?$AAe?$AAr?$AAI?$AAn?$AAf?$AAo@ 00000000000ce9d0     UefiHandleParsingLib:UefiHandleParsingLib.obj
 0002:00006a20       ??_C@_1EG@HIHCKIMP@?$AAg?$AAE?$AAf?$AAi?$AAA?$AAd?$AAa?$AAp?$AAt?$AAe?$AAr?$AAI?$AAn?$AAf?$AAo@ 00000000000cea20     UefiHandleParsingLib:UefiHandleParsingLib.obj
 0002:00006a68       ??_C@_1CA@MBEPGFBE@?$AAU?$AAn?$AAk?$AAn?$AAo?$AAw?$AAn?$AAI?$AAn?$AAf?$AAo?$AAT?$AAy?$AAp?$AAe@ 00000000000cea68     UefiHandleParsingLib:UefiHandleParsingLib.obj
 0002:00006a88       ??_C@_1CG@JPDLKBMG@?$AAF?$AAi?$AAr?$AAm?$AAw?$AAa?$AAr?$AAe?$AAM?$AAa?$AAn?$AAa?$AAg?$AAe?$AAm@ 00000000000cea88     UefiHandleParsingLib:UefiHandleParsingLib.obj
 0002:00006ab0       ??_C@_13LLDNKHDC@?$AA?$CI@ 00000000000ceab0     UefiHandleParsingLib:UefiHandleParsingLib.obj
 0002:00006ac0       ??_C@_1EC@DFECDMDI@?$AA?5?$AAI?$AAM?$AAA?$AAG?$AAE?$AA_?$AAA?$AAT?$AAT?$AAR?$AAI?$AAB?$AAU?$AAT@ 00000000000ceac0     UefiHandleParsingLib:UefiHandleParsingLib.obj
 0002:00006b10       ??_C@_1EA@MKHJJKBH@?$AA?5?$AAI?$AAM?$AAA?$AAG?$AAE?$AA_?$AAA?$AAT?$AAT?$AAR?$AAI?$AAB?$AAU?$AAT@ 00000000000ceb10     UefiHandleParsingLib:UefiHandleParsingLib.obj
 0002:00006b50       ??_C@_1FC@DDNKJMEO@?$AA?5?$AAI?$AAM?$AAA?$AAG?$AAE?$AA_?$AAA?$AAT?$AAT?$AAR?$AAI?$AAB?$AAU?$AAT@ 00000000000ceb50     UefiHandleParsingLib:UefiHandleParsingLib.obj
 0002:00006ba8       ??_C@_1DA@IKPCBJLI@?$AA?5?$AAI?$AAM?$AAA?$AAG?$AAE?$AA_?$AAA?$AAT?$AAT?$AAR?$AAI?$AAB?$AAU?$AAT@ 00000000000ceba8     UefiHandleParsingLib:UefiHandleParsingLib.obj
 0002:00006bd8       ??_C@_1DI@KCIAMJKA@?$AA?5?$AAI?$AAM?$AAA?$AAG?$AAE?$AA_?$AAA?$AAT?$AAT?$AAR?$AAI?$AAB?$AAU?$AAT@ 00000000000cebd8     UefiHandleParsingLib:UefiHandleParsingLib.obj
 0002:00006c10       ??_C@_15JEKLLLNO@?$AA?5?$AA?$CJ@ 00000000000cec10     UefiHandleParsingLib:UefiHandleParsingLib.obj
 0002:00006c18       ??_C@_1O@HOICMPAG@?$AA?$CF?$AAs?$AA?$AN?$AA?6?$AA?$CF?$AAs@ 00000000000cec18     UefiHandleParsingLib:UefiHandleParsingLib.obj
 0002:00006c28       ??_C@_0M@GGBOIEOM@NameID?5?$CB?$DN?50@ 00000000000cec28     UefiHandleParsingLib:UefiHandleParsingLib.obj
 0002:00006c38       ??_C@_0BK@GAPIBOAM@TheHandle?5?$CB?$DN?5?$CI?$CIvoid?5?$CK?$CJ?50?$CJ@ 00000000000cec38     UefiHandleParsingLib:UefiHandleParsingLib.obj
 0002:00006c58       ??_C@_19BALNHBBC@?$AAL?$AAa?$AAn?$AAg@ 00000000000cec58     UefiHandleParsingLib:UefiHandleParsingLib.obj
 0002:00006c68       ??_C@_0BM@COIKDDAB@HandleCount?5?$CB?$DN?5?$CI?$CIvoid?5?$CK?$CJ?50?$CJ@ 00000000000cec68     UefiHandleParsingLib:UefiHandleParsingLib.obj
 0002:00006c88       ??_C@_0BN@BOHIKNIF@HandleBuffer?5?$CB?$DN?5?$CI?$CIvoid?5?$CK?$CJ?50?$CJ@ 00000000000cec88     UefiHandleParsingLib:UefiHandleParsingLib.obj
 0002:00006ca8       ??_C@_0BL@FBKBNKMC@HandleType?5?$CB?$DN?5?$CI?$CIvoid?5?$CK?$CJ?50?$CJ@ 00000000000ceca8     UefiHandleParsingLib:UefiHandleParsingLib.obj
 0002:00006cd0       ??_C@_0EI@PBLAOGFL@DriverBindingHandle?5?$CB?$DN?5?$CI?$CIvoid?5?$CK@ 00000000000cecd0     UefiHandleParsingLib:UefiHandleParsingLib.obj
 0002:00006d18       ??_C@_0CE@NBHJFFJO@MatchingHandleCount?5?$CB?$DN?5?$CI?$CIvoid?5?$CK@ 00000000000ced18     UefiHandleParsingLib:UefiHandleParsingLib.obj
 0002:00006d40       ??_C@_0LH@DLLMLJLM@?$CIMatchingHandleBuffer?5?$DN?$DN?5?$CI?$CIvoid@ 00000000000ced40     UefiHandleParsingLib:UefiHandleParsingLib.obj
 0002:00006df8       ??_C@_0CD@MHDCANPO@?$CKDestinationBuffer?5?$CB?$DN?5?$CI?$CIvoid?5?$CK?$CJ@ 00000000000cedf8     UefiHandleParsingLib:UefiHandleParsingLib.obj
 0002:00006e20       ??_C@_0DO@DJKKKJCP@HandleList?$FL?$CITotalSize?1sizeof?5?$CIE@ 00000000000cee20     UefiHandleParsingLib:UefiHandleParsingLib.obj
 0002:000088e8       ??_C@_19NMAFMAH@?$AA?5?$AA?5?$AA?5?$AA?5@ 00000000000d08e8     UefiBootManagerLib:BmDriverHealth.obj
 0002:000088f8       ??_C@_1O@CJIOJFKI@?$AA?$CF?$AAs?$AA?$CF?$AA0?$AA4?$AAx@ 00000000000d08f8     UefiBootManagerLib:BmHotkey.obj
 0002:00008908       ??_C@_1BA@MLKFGFON@?$AAK?$AAe?$AAy?$AA?$CF?$AA0?$AA4?$AAx@ 00000000000d0908     UefiBootManagerLib:BmHotkey.obj
 0002:00008918       ??_C@_1O@GAOCKAOK@?$AAD?$AAr?$AAi?$AAv?$AAe?$AAr@ 00000000000d0918     UefiBootManagerLib:BmLoadOption.obj
 0002:00008928       ??_C@_1BA@IBFPPJON@?$AAS?$AAy?$AAs?$AAP?$AAr?$AAe?$AAp@ 00000000000d0928     UefiBootManagerLib:BmLoadOption.obj
 0002:00008938       ??_C@_19JCAOHIEH@?$AAB?$AAo?$AAo?$AAt@ 00000000000d0938     UefiBootManagerLib:BmLoadOption.obj
 0002:00008948       ??_C@_1CC@LGMJPJO@?$AAP?$AAl?$AAa?$AAt?$AAf?$AAo?$AAr?$AAm?$AAR?$AAe?$AAc?$AAo?$AAv?$AAe?$AAr@ 00000000000d0948     UefiBootManagerLib:BmLoadOption.obj
 0002:00008970       ??_C@_1BI@PDMCFEDG@?$AAD?$AAr?$AAi?$AAv?$AAe?$AAr?$AAO?$AAr?$AAd?$AAe?$AAr@ 00000000000d0970     UefiBootManagerLib:BmLoadOption.obj
 0002:00008988       ??_C@_1BE@CHCFCNKI@?$AAB?$AAo?$AAo?$AAt?$AAO?$AAr?$AAd?$AAe?$AAr@ 00000000000d0988     UefiBootManagerLib:BmLoadOption.obj
 0002:000089a0       ??_C@_0FE@NBNKBDBG@D?3?2develop?2Self_develop?2edk2?2Md@ 00000000000d09a0     UefiBootManagerLib:BmLoadOption.obj
 0002:000089f8       ??_C@_0BJ@DLOFCCCI@Variable?5?$CB?$DN?5?$CI?$CIvoid?5?$CK?$CJ?50?$CJ@ 00000000000d09f8     UefiBootManagerLib:BmLoadOption.obj
 0002:00008a18       ??_C@_0CM@MAOCOHA@String?5?$CB?$DN?5?$CI?$CIvoid?5?$CK?$CJ?50?$CJ?5?$CG?$CG?5MaxSt@ 00000000000d0a18     UefiBootManagerLib:BmLoadOption.obj
 0002:00008a48       ??_C@_1M@NFPEGKHA@?$AAC?$AAo?$AAn?$AAI?$AAn@ 00000000000d0a48     UefiBootManagerLib:BmConsole.obj
 0002:00008a58       ??_C@_1O@MJHLOIFA@?$AAC?$AAo?$AAn?$AAO?$AAu?$AAt@ 00000000000d0a58     UefiBootManagerLib:BmConsole.obj
 0002:00008a68       ??_C@_1O@JOJMCOJC@?$AAE?$AAr?$AAr?$AAO?$AAu?$AAt@ 00000000000d0a68     UefiBootManagerLib:BmConsole.obj
 0002:00008a78       ??_C@_1BC@OBFMLJLI@?$AAC?$AAo?$AAn?$AAI?$AAn?$AAD?$AAe?$AAv@ 00000000000d0a78     UefiBootManagerLib:BmConsole.obj
 0002:00008a90       ??_C@_1BE@INNAKDAF@?$AAC?$AAo?$AAn?$AAO?$AAu?$AAt?$AAD?$AAe?$AAv@ 00000000000d0a90     UefiBootManagerLib:BmConsole.obj
 0002:00008aa8       ??_C@_1BE@JFPOEAHF@?$AAE?$AAr?$AAr?$AAO?$AAu?$AAt?$AAD?$AAe?$AAv@ 00000000000d0aa8     UefiBootManagerLib:BmConsole.obj
 0002:00008abc       ??_C@_02DKCKIIND@?$CFs@    00000000000d0abc     UefiBootManagerLib:BmMisc.obj
 0002:00008ac0       ??_C@_13GAMECHAC@?$AAF@    00000000000d0ac0     UefiShellCommandLib:ConsistMapping.obj
 0002:00008ac4       ??_C@_15FMDBLIIP@?$AAF?$AAP@ 00000000000d0ac4     UefiShellCommandLib:ConsistMapping.obj
 0002:00008acc       ??_C@_15NDIHOJPE@?$AAC?$AAD@ 00000000000d0acc     UefiShellCommandLib:ConsistMapping.obj
 0002:00008ad8       ??_C@_0BE@LNIAOOBG@Str?5?$CB?$DN?5?$CI?$CIvoid?5?$CK?$CJ?50?$CJ@ 00000000000d0ad8     UefiShellCommandLib:ConsistMapping.obj
 0002:00008af0       ??_C@_0FD@JEGLMANM@D?3?2develop?2Self_develop?2edk2?2Sh@ 00000000000d0af0     UefiShellCommandLib:ConsistMapping.obj
 0002:00008b48       ??_C@_0BM@HIGDLIKJ@MappingItem?5?$CB?$DN?5?$CI?$CIvoid?5?$CK?$CJ?50?$CJ@ 00000000000d0b48     UefiShellCommandLib:ConsistMapping.obj
 0002:00008b68       ??_C@_17OADJODNB@?$AA?$CF?$AAl?$AAd@ 00000000000d0b68     UefiShellCommandLib:ConsistMapping.obj
 0002:00008b70       ??_C@_0DD@DMJAEFC@Str?5?$CB?$DN?5?$CI?$CIvoid?5?$CK?$CJ?50?$CJ?5?$CG?$CG?5MappingI@ 00000000000d0b70     UefiShellCommandLib:ConsistMapping.obj
 0002:00008ba4       ??_C@_15FEFLCNCJ@?$AA1?$AA6@ 00000000000d0ba4     UefiShellCommandLib:ConsistMapping.obj
 0002:00008bb0       ??_C@_17KNEILPBN@?$AA1?$AA?$CF?$AAc@ 00000000000d0bb0     UefiShellCommandLib:ConsistMapping.obj
 0002:00008bb8       ??_C@_0DE@FCJINMCJ@Guid?5?$CB?$DN?5?$CI?$CIvoid?5?$CK?$CJ?50?$CJ?5?$CG?$CG?5Mapping@ 00000000000d0bb8     UefiShellCommandLib:ConsistMapping.obj
 0002:00008bec       ??_C@_15LPKNAFGD@?$AA?$CF?$AAg@ 00000000000d0bec     UefiShellCommandLib:ConsistMapping.obj
 0002:00008bf8       ??_C@_0BM@MPGMLKPE@DevicePath1?5?$CB?$DN?5?$CI?$CIvoid?5?$CK?$CJ?50?$CJ@ 00000000000d0bf8     UefiShellCommandLib:ConsistMapping.obj
 0002:00008c18       ??_C@_0BM@CFOKGHJG@DevicePath2?5?$CB?$DN?5?$CI?$CIvoid?5?$CK?$CJ?50?$CJ@ 00000000000d0c18     UefiShellCommandLib:ConsistMapping.obj
 0002:00008c38       ??_C@_0BP@IFDAIIIE@DevicePathNode?5?$CB?$DN?5?$CI?$CIvoid?5?$CK?$CJ?50?$CJ@ 00000000000d0c38     UefiShellCommandLib:ConsistMapping.obj
 0002:00008c58       ??_C@_0BG@CBCHCMKB@UsbIo?5?$CB?$DN?5?$CI?$CIvoid?5?$CK?$CJ?50?$CJ@ 00000000000d0c58     UefiShellCommandLib:ConsistMapping.obj
 0002:00008c70       ??_C@_1CC@LFFNJKKE@?$AA?$CF?$AA0?$AA2?$AAx?$AA?$CF?$AA0?$AA2?$AAx?$AA?$CF?$AA0?$AA2?$AAx?$AA?$CF?$AA0?$AA2@ 00000000000d0c70     UefiShellCommandLib:ConsistMapping.obj
 0002:00008c98       ??_C@_17PKPGALPG@?$AA?$CF?$AAl?$AAx@ 00000000000d0c98     UefiShellCommandLib:ConsistMapping.obj
 0002:00008ca0       ??_C@_1BA@DNMMBOC@?$AAM?$AAi?$AAn?$AAi?$AAm?$AAa?$AAl@ 00000000000d0ca0     UefiShellCommandLib:UefiShellCommandLib.obj
 0002:00008cb0       ??_C@_1BE@HNPOGPLM@?$AAS?$AAc?$AAr?$AAi?$AAp?$AAt?$AAi?$AAn?$AAg@ 00000000000d0cb0     UefiShellCommandLib:UefiShellCommandLib.obj
 0002:00008cc8       ??_C@_1M@ECOAOPLN@?$AAB?$AAa?$AAs?$AAi?$AAc@ 00000000000d0cc8     UefiShellCommandLib:UefiShellCommandLib.obj
 0002:00008cd8       ??_C@_1BI@NFOKHDOD@?$AAI?$AAn?$AAt?$AAe?$AAr?$AAa?$AAc?$AAt?$AAi?$AAv?$AAe@ 00000000000d0cd8     UefiShellCommandLib:UefiShellCommandLib.obj
 0002:00008cf0       ??_C@_0CI@LPGDMEAP@BufferListEntry?9?$DOBuffer?5?$CB?$DN?5?$CI?$CIvo@ 00000000000d0cf0     UefiShellCommandLib:UefiShellCommandLib.obj
 0002:00008d20       ??_C@_0FI@IOAOGCEM@D?3?2develop?2Self_develop?2edk2?2Sh@ 00000000000d0d20     UefiShellCommandLib:UefiShellCommandLib.obj
 0002:00008d78       ??_C@_0BI@KIPBGMAD@MapNode?5?$CB?$DN?5?$CI?$CIvoid?5?$CK?$CJ?50?$CJ@ 00000000000d0d78     UefiShellCommandLib:UefiShellCommandLib.obj
 0002:00008d90       ??_C@_0BO@MBONBKCA@CommandString?5?$CB?$DN?5?$CI?$CIvoid?5?$CK?$CJ?50?$CJ@ 00000000000d0d90     UefiShellCommandLib:UefiShellCommandLib.obj
 0002:00008db0       ??_C@_02LFNMGJAP@en@       00000000000d0db0     UefiShellCommandLib:UefiShellCommandLib.obj
 0002:00008db8       ??_C@_0BP@MPGCBHML@GetManFileName?5?$CB?$DN?5?$CI?$CIvoid?5?$CK?$CJ?50?$CJ@ 00000000000d0db8     UefiShellCommandLib:UefiShellCommandLib.obj
 0002:00008dd8       ??_C@_0BP@KLHDEOMH@CommandHandler?5?$CB?$DN?5?$CI?$CIvoid?5?$CK?$CJ?50?$CJ@ 00000000000d0dd8     UefiShellCommandLib:UefiShellCommandLib.obj
 0002:00008df8       ??_C@_0BM@OPPIBMMG@ProfileName?5?$CB?$DN?5?$CI?$CIvoid?5?$CK?$CJ?50?$CJ@ 00000000000d0df8     UefiShellCommandLib:UefiShellCommandLib.obj
 0002:00008e20       ??_C@_0FK@HAGBHMMB@?$CImProfileList?5?$DN?$DN?5?$CI?$CIvoid?5?$CK?$CJ?50?$CJ?5?$CG@ 00000000000d0e20     UefiShellCommandLib:UefiShellCommandLib.obj
 0002:00008e80       ??_C@_0BI@BLOGOJPJ@Command?5?$CB?$DN?5?$CI?$CIvoid?5?$CK?$CJ?50?$CJ@ 00000000000d0e80     UefiShellCommandLib:UefiShellCommandLib.obj
 0002:00008e98       ??_C@_0CE@GJHPJEHO@Node?9?$DOCommandString?5?$CB?$DN?5?$CI?$CIvoid?5?$CK@ 00000000000d0e98     UefiShellCommandLib:UefiShellCommandLib.obj
 0002:00008ec0       ??_C@_0BM@KBBHHLCN@Node?9?$DOAlias?5?$CB?$DN?5?$CI?$CIvoid?5?$CK?$CJ?50?$CJ@ 00000000000d0ec0     UefiShellCommandLib:UefiShellCommandLib.obj
 0002:00008ee0       ??_C@_0BG@NGLBKNON@Type?5?$DM?5MappingTypeMax@ 00000000000d0ee0     UefiShellCommandLib:UefiShellCommandLib.obj
 0002:00008ef8       ??_C@_1M@LEDCCPHA@?$AAF?$AAS?$AA?$CF?$AAd?$AA?3@ 00000000000d0ef8     UefiShellCommandLib:UefiShellCommandLib.obj
 0002:00008f08       ??_C@_1O@GAMFIKPJ@?$AAB?$AAL?$AAK?$AA?$CF?$AAd?$AA?3@ 00000000000d0f08     UefiShellCommandLib:UefiShellCommandLib.obj
 0002:00008f20       ??_C@_0EL@OPMEFBHH@?$CINewPath?5?$DN?$DN?5?$CI?$CIvoid?5?$CK?$CJ?50?$CJ?5?$CG?$CG?5New@ 00000000000d0f20     UefiShellCommandLib:UefiShellCommandLib.obj
 0002:00008f70       ??_C@_1BK@CAPKGIMF@?$AA?2?$AAe?$AAf?$AAi?$AA?2?$AAt?$AAo?$AAo?$AAl?$AAs?$AA?2?$AA?$DL@ 00000000000d0f70     UefiShellCommandLib:UefiShellCommandLib.obj
 0002:00008f90       ??_C@_1BI@PKLDNON@?$AA?2?$AAe?$AAf?$AAi?$AA?2?$AAb?$AAo?$AAo?$AAt?$AA?2?$AA?$DL@ 00000000000d0f90     UefiShellCommandLib:UefiShellCommandLib.obj
 0002:00008fa8       ??_C@_0BP@CPABMANL@NewDefaultName?5?$CB?$DN?5?$CI?$CIvoid?5?$CK?$CJ?50?$CJ@ 00000000000d0fa8     UefiShellCommandLib:UefiShellCommandLib.obj
 0002:00008fc8       ??_C@_1CM@PBLCLIC@?$AA?$CF?$AA?$CK?$AAa?$AA?$CF?$AA0?$AA8?$AAX?$AA?3?$AA?5?$AA?$CF?$AA?9?$AA4?$AA8?$AAa?$AA?5@ 00000000000d0fc8     UefiShellCommandLib:UefiShellCommandLib.obj
 0002:00008ff8       ??_C@_0DK@NNPIMKMP@Status?5?$DN?$DN?5?$CI?$CIRETURN_STATUS?$CJ?$CI0x80@ 00000000000d0ff8     UefiShellCommandLib:UefiShellCommandLib.obj
 0002:00009038       ??_C@_0BK@LKPHBLMB@SortEntry?5?$CB?$DN?5?$CI?$CIvoid?5?$CK?$CJ?50?$CJ@ 00000000000d1038     UefiShellCommandLib:UefiShellCommandLib.obj
 0002:00009058       ??_C@_0CE@LNAKIMOF@IsListEmpty?5?$CI?$CGUnique?9?$DOSameNameL@ 00000000000d1058     UefiShellCommandLib:UefiShellCommandLib.obj
 0002:00009080       ??_C@_0EH@NJCICCOG@D?3?2develop?2Self_develop?2edk2?2Md@ 00000000000d1080     BaseIoLibIntrinsic:IoLib.obj
 0002:000090c8       ??_C@_0BD@KOOFJLFH@?$CIAddress?5?$CG?51?$CJ?5?$DN?$DN?50@ 00000000000d10c8     BaseIoLibIntrinsic:IoLib.obj
 0002:000090e0       ??_C@_0BD@OMMAJMCK@?$CIAddress?5?$CG?53?$CJ?5?$DN?$DN?50@ 00000000000d10e0     BaseIoLibIntrinsic:IoLib.obj
 0002:000090f8       ??_C@_0BD@GIIKJCNA@?$CIAddress?5?$CG?57?$CJ?5?$DN?$DN?50@ 00000000000d10f8     BaseIoLibIntrinsic:IoLib.obj
 0002:00009110       ??_C@_0BA@DAGHIEBA@?$CIPort?5?$CG?51?$CJ?5?$DN?$DN?50@ 00000000000d1110     BaseIoLibIntrinsic:IoLibMsc.obj
 0002:00009120       ??_C@_0EK@IEHIKDAE@D?3?2develop?2Self_develop?2edk2?2Md@ 00000000000d1120     BaseIoLibIntrinsic:IoLibMsc.obj
 0002:00009170       ??_C@_0BA@HCECIDGN@?$CIPort?5?$CG?53?$CJ?5?$DN?$DN?50@ 00000000000d1170     BaseIoLibIntrinsic:IoLibMsc.obj
 0002:00009180       ??_C@_0FG@ICJGMFOE@D?3?2develop?2Self_develop?2edk2?2Md@ 00000000000d1180     BaseIoLibIntrinsic:IoLibInternalTdxNull.obj
 0002:000091d8       ??_C@_0BN@OAGJBDOI@OriginalData?5?$CB?$DN?5?$CI?$CIvoid?5?$CK?$CJ?50?$CJ@ 00000000000d11d8     UefiShellBcfgCommandLib:UefiShellBcfgCommandLib.obj
 0002:00009200       ??_C@_0GA@HDEHMFEJ@D?3?2develop?2Self_develop?2edk2?2Sh@ 00000000000d1200     UefiShellBcfgCommandLib:UefiShellBcfgCommandLib.obj
 0002:00009260       ??_C@_1BE@CJHCMCEN@?$AA?$CF?$AAB?$AAo?$AAo?$AAt?$AA?$CF?$AA0?$AA4?$AAx@ 00000000000d1260     UefiShellBcfgCommandLib:UefiShellBcfgCommandLib.obj
 0002:00009278       ??_C@_1BM@OGCIILMP@?$AAH?$AAa?$AAn?$AAd?$AAl?$AAe?$AA?5?$AAN?$AAu?$AAm?$AAb?$AAe?$AAr@ 00000000000d1278     UefiShellBcfgCommandLib:UefiShellBcfgCommandLib.obj
 0002:00009298       ??_C@_19OPFPMHGB@?$AAb?$AAc?$AAf?$AAg@ 00000000000d1298     UefiShellBcfgCommandLib:UefiShellBcfgCommandLib.obj
 0002:000092b0       ??_C@_1EK@LKIONLFB@?$AAH?$AAa?$AAn?$AAd?$AAl?$AAe?$AA?5?$AAs?$AAh?$AAo?$AAu?$AAl?$AAd?$AA?5?$AAp@ 00000000000d12b0     UefiShellBcfgCommandLib:UefiShellBcfgCommandLib.obj
 0002:00009300       ??_C@_1EG@JKFBOBM@?$AAH?$AAa?$AAn?$AAd?$AAl?$AAe?$AA?5?$AAs?$AAh?$AAo?$AAu?$AAl?$AAd?$AA?5?$AAp@ 00000000000d1300     UefiShellBcfgCommandLib:UefiShellBcfgCommandLib.obj
 0002:00009348       ??_C@_1BC@HAMKBGJJ@?$AAB?$AAo?$AAo?$AAt?$AA?$CF?$AA0?$AA4?$AAx@ 00000000000d1348     UefiShellBcfgCommandLib:UefiShellBcfgCommandLib.obj
 0002:00009360       ??_C@_1BG@IKNMHBCC@?$AAD?$AAr?$AAi?$AAv?$AAe?$AAr?$AA?$CF?$AA0?$AA4?$AAx@ 00000000000d1360     UefiShellBcfgCommandLib:UefiShellBcfgCommandLib.obj
 0002:00009378       ??_C@_1CI@FLOHBJHM@?$AAb?$AAc?$AAf?$AAg?$AA?3?$AA?5?$AAA?$AAd?$AAd?$AA?5?$AA?$CF?$AAs?$AA?5?$AAa?$AAs@ 00000000000d1378     UefiShellBcfgCommandLib:UefiShellBcfgCommandLib.obj
 0002:000093a0       ??_C@_1BK@NLJJBAJP@?$AAO?$AAp?$AAt?$AAi?$AAo?$AAn?$AA?5?$AAI?$AAn?$AAd?$AAe?$AAx@ 00000000000d13a0     UefiShellBcfgCommandLib:UefiShellBcfgCommandLib.obj
 0002:000093c0       ??_C@_0BG@HLEJBMDK@Temp2?5?$CB?$DN?5?$CI?$CIvoid?5?$CK?$CJ?50?$CJ@ 00000000000d13c0     UefiShellBcfgCommandLib:UefiShellBcfgCommandLib.obj
 0002:000093d8       ??_C@_0BK@FIHHKA@OptionIndex?5?$DM?$DN?5OrderCount@ 00000000000d13d8     UefiShellBcfgCommandLib:UefiShellBcfgCommandLib.obj
 0002:000093f8       ??_C@_0DB@OGBPPANN@FileName?5?$DN?$DN?5?$CI?$CIvoid?5?$CK?$CJ?50?$CJ?5?$CG?$CG?5Dat@ 00000000000d13f8     UefiShellBcfgCommandLib:UefiShellBcfgCommandLib.obj
 0002:00009430       ??_C@_0DB@FNAJIKFH@FileName?5?$DN?$DN?5?$CI?$CIvoid?5?$CK?$CJ?50?$CJ?5?$HM?$HM?5Dat@ 00000000000d1430     UefiShellBcfgCommandLib:UefiShellBcfgCommandLib.obj
 0002:00009468       ??_C@_0BH@PJCFHJ@Struct?5?$CB?$DN?5?$CI?$CIvoid?5?$CK?$CJ?50?$CJ@ 00000000000d1468     UefiShellBcfgCommandLib:UefiShellBcfgCommandLib.obj
 0002:00009480       ??_C@_15LLFLLHPE@?$AA?9?$AAv@ 00000000000d1480     UefiShellBcfgCommandLib:UefiShellBcfgCommandLib.obj
 0002:00009488       ??_C@_19EAGCJHPE@?$AA?9?$AAo?$AAp?$AAt@ 00000000000d1488     UefiShellBcfgCommandLib:UefiShellBcfgCommandLib.obj
 0002:00009498       ??_C@_1O@KNIGNIDC@?$AAd?$AAr?$AAi?$AAv?$AAe?$AAr@ 00000000000d1498     UefiShellBcfgCommandLib:UefiShellBcfgCommandLib.obj
 0002:000094a8       ??_C@_19NNFDHLJH@?$AAb?$AAo?$AAo?$AAt@ 00000000000d14a8     UefiShellBcfgCommandLib:UefiShellBcfgCommandLib.obj
 0002:000094b8       ??_C@_19PPJMBAGP@?$AAd?$AAu?$AAm?$AAp@ 00000000000d14b8     UefiShellBcfgCommandLib:UefiShellBcfgCommandLib.obj
 0002:000094c8       ??_C@_1CE@HIJPIOH@?$AA?9?$AAv?$AA?5?$AA?$CI?$AAw?$AAi?$AAt?$AAh?$AAo?$AAu?$AAt?$AA?5?$AAd?$AAu?$AAm@ 00000000000d14c8     UefiShellBcfgCommandLib:UefiShellBcfgCommandLib.obj
 0002:000094f0       ??_C@_17KBLNKNKL@?$AAa?$AAd?$AAd@ 00000000000d14f0     UefiShellBcfgCommandLib:UefiShellBcfgCommandLib.obj
 0002:000094f8       ??_C@_0CK@FNHGLDIL@CurrentOperation?4FileName?5?$DN?$DN?5?$CI?$CI@ 00000000000d14f8     UefiShellBcfgCommandLib:UefiShellBcfgCommandLib.obj
 0002:00009528       ??_C@_0CN@KKKPOPMN@CurrentOperation?4Description?5?$DN?$DN@ 00000000000d1528     UefiShellBcfgCommandLib:UefiShellBcfgCommandLib.obj
 0002:00009558       ??_C@_19IOKLLLFG@?$AAa?$AAd?$AAd?$AAp@ 00000000000d1558     UefiShellBcfgCommandLib:UefiShellBcfgCommandLib.obj
 0002:00009568       ??_C@_19BLAGMECG@?$AAa?$AAd?$AAd?$AAh@ 00000000000d1568     UefiShellBcfgCommandLib:UefiShellBcfgCommandLib.obj
 0002:00009574       ??_C@_15MBJLNNEI@?$AAr?$AAm@ 00000000000d1574     UefiShellBcfgCommandLib:UefiShellBcfgCommandLib.obj
 0002:0000957c       ??_C@_15LEADLNJI@?$AAm?$AAv@ 00000000000d157c     UefiShellBcfgCommandLib:UefiShellBcfgCommandLib.obj
 0002:00009588       ??_C@_17JMNFEICH@?$AAm?$AAo?$AAd@ 00000000000d1588     UefiShellBcfgCommandLib:UefiShellBcfgCommandLib.obj
 0002:00009590       ??_C@_19LMIPEPMN@?$AAm?$AAo?$AAd?$AAf@ 00000000000d1590     UefiShellBcfgCommandLib:UefiShellBcfgCommandLib.obj
 0002:000095a0       ??_C@_19MJPNEHIO@?$AAm?$AAo?$AAd?$AAp@ 00000000000d15a0     UefiShellBcfgCommandLib:UefiShellBcfgCommandLib.obj
 0002:000095b0       ??_C@_19FMFADIPO@?$AAm?$AAo?$AAd?$AAh@ 00000000000d15b0     UefiShellBcfgCommandLib:UefiShellBcfgCommandLib.obj
 0002:00009610       ??_C@_0EG@DLIGODDF@D?3?2develop?2Self_develop?2edk2?2Ne@ 00000000000d1610     DxeNetLib:DxeNetLib.obj
 0002:00009658       ??_C@_0N@NMJPNKHJ@NetMask?5?$CB?$DN?50@ 00000000000d1658     DxeNetLib:DxeNetLib.obj
 0002:00009668       ??_C@_0CI@KOOBFNBF@?$CIMaskLength?5?$DO?$DN?50?$CJ?5?$CG?$CG?5?$CIMaskLengt@ 00000000000d1668     DxeNetLib:DxeNetLib.obj
 0002:00009690       ??_C@_0BE@FCBOEPIJ@Ip6?5?$CB?$DN?5?$CI?$CIvoid?5?$CK?$CJ?50?$CJ@ 00000000000d1690     DxeNetLib:DxeNetLib.obj
 0002:000096a8       ??_C@_0BN@NHNKBDLL@MediaPresent?5?$CB?$DN?5?$CI?$CIvoid?5?$CK?$CJ?50?$CJ@ 00000000000d16a8     DxeNetLib:DxeNetLib.obj
 0002:000096c8       ??_C@_0BM@CPKMECHF@MCastFilter?5?$CB?$DN?5?$CI?$CIvoid?5?$CK?$CJ?50?$CJ@ 00000000000d16c8     DxeNetLib:DxeNetLib.obj
 0002:000096e4       ??_C@_15LHNHECKK@?$AA?$CF?$AAx@ 00000000000d16e4     DxeNetLib:DxeNetLib.obj
 0002:000096ec       ??_C@_13PFGJFIHC@?$AA?$FO@ 00000000000d16ec     UefiShellLevel2CommandsLib:Vol.obj
 0002:000096f0       ??_C@_13KJIIAINM@?$AA?$CL@ 00000000000d16f0     UefiShellLevel2CommandsLib:Vol.obj
 0002:000096f4       ??_C@_13MCLHKIEA@?$AA?$FL@ 00000000000d16f4     UefiShellLevel2CommandsLib:Vol.obj
 0002:000096f8       ??_C@_13OHNMPHJM@?$AA?$FN@ 00000000000d16f8     UefiShellLevel2CommandsLib:Vol.obj
 0002:000096fc       ??_C@_13GEEGGHPK@?$AA?$DM@ 00000000000d16fc     UefiShellLevel2CommandsLib:Vol.obj
 0002:00009700       ??_C@_13MOEPKPHB@?$AA?$DO@ 00000000000d1700     UefiShellLevel2CommandsLib:Vol.obj
 0002:00009708       ??_C@_17HILAENLF@?$AAv?$AAo?$AAl@ 00000000000d1708     UefiShellLevel2CommandsLib:Vol.obj
 0002:00009710       ??_C@_0EP@DMOIFCA@D?3?2develop?2Self_develop?2edk2?2Sh@ 00000000000d1710     UefiShellLevel2CommandsLib:Vol.obj
 0002:00009760       ??_C@_0BI@OHKIGLJK@SysInfo?5?$CB?$DN?5?$CI?$CIvoid?5?$CK?$CJ?50?$CJ@ 00000000000d1760     UefiShellLevel2CommandsLib:Vol.obj
 0002:00009778       ??_C@_13BPINEIPE@?$AAr@    00000000000d1778     UefiShellLevel2CommandsLib:Vol.obj
 0002:0000977c       ??_C@_15EBELCIOA@?$AA?9?$AAd@ 00000000000d177c     UefiShellLevel2CommandsLib:Vol.obj
 0002:00009784       ??_C@_15COPGMIIE@?$AA?9?$AAn@ 00000000000d1784     UefiShellLevel2CommandsLib:Vol.obj
 0002:0000978c       ??_C@_15GKAHMKIN@?$AA?3?$AA?2@ 00000000000d178c     UefiShellLevel2CommandsLib:Vol.obj
 0002:000097c8       ??_C@_15HGJFNINC@?$AA?9?$AAa@ 00000000000d17c8     UefiShellLevel2CommandsLib:Attrib.obj
 0002:000097d0       ??_C@_15KAMMDLMP@?$AA?$CL?$AAa@ 00000000000d17d0     UefiShellLevel2CommandsLib:Attrib.obj
 0002:000097d8       ??_C@_15IMIFEHMG@?$AA?9?$AAs@ 00000000000d17d8     UefiShellLevel2CommandsLib:Attrib.obj
 0002:000097e0       ??_C@_15FKNMKENL@?$AA?$CL?$AAs@ 00000000000d17e0     UefiShellLevel2CommandsLib:Attrib.obj
 0002:000097e8       ??_C@_15LJNJHFI@?$AA?9?$AAh@ 00000000000d17e8     UefiShellLevel2CommandsLib:Attrib.obj
 0002:000097f0       ??_C@_15NNMEHEEF@?$AA?$CL?$AAh@ 00000000000d17f0     UefiShellLevel2CommandsLib:Attrib.obj
 0002:000097f8       ??_C@_15DEDJCAKD@?$AA?9?$AAr@ 00000000000d17f8     UefiShellLevel2CommandsLib:Attrib.obj
 0002:00009800       ??_C@_15OCGAMDLO@?$AA?$CL?$AAr@ 00000000000d1800     UefiShellLevel2CommandsLib:Attrib.obj
 0002:00009810       ??_C@_0FC@GDPEKJBN@D?3?2develop?2Self_develop?2edk2?2Sh@ 00000000000d1810     UefiShellLevel2CommandsLib:Attrib.obj
 0002:00009868       ??_C@_1O@LHNJIAPJ@?$AAa?$AAt?$AAt?$AAr?$AAi?$AAb@ 00000000000d1868     UefiShellLevel2CommandsLib:Attrib.obj
 0002:00009878       ??_C@_0BM@PPAFNGLK@ListOfFiles?5?$DN?$DN?5?$CI?$CIvoid?5?$CK?$CJ?50?$CJ@ 00000000000d1878     UefiShellLevel2CommandsLib:Attrib.obj
 0002:00009930       ??_C@_0BI@LCBFIOEA@CwdPath?5?$CB?$DN?5?$CI?$CIvoid?5?$CK?$CJ?50?$CJ@ 00000000000d1930     UefiShellLevel2CommandsLib:Mv.obj
 0002:00009950       ??_C@_0EO@KADEMKAA@D?3?2develop?2Self_develop?2edk2?2Sh@ 00000000000d1950     UefiShellLevel2CommandsLib:Mv.obj
 0002:000099a0       ??_C@_0BP@DMAIHGMB@DestPathWalker?5?$CB?$DN?5?$CI?$CIvoid?5?$CK?$CJ?50?$CJ@ 00000000000d19a0     UefiShellLevel2CommandsLib:Mv.obj
 0002:000099c0       ??_C@_0BL@JJLEDFJJ@SourcePath?5?$CB?$DN?5?$CI?$CIvoid?5?$CK?$CJ?50?$CJ@ 00000000000d19c0     UefiShellLevel2CommandsLib:Mv.obj
 0002:000099e0       ??_C@_0BJ@HMJPKPMK@DestAttr?5?$CB?$DN?5?$CI?$CIvoid?5?$CK?$CJ?50?$CJ@ 00000000000d19e0     UefiShellLevel2CommandsLib:Mv.obj
 0002:00009a00       ??_C@_0BJ@BOMODBED@DestPath?5?$DN?$DN?5?$CI?$CIvoid?5?$CK?$CJ?50?$CJ@ 00000000000d1a00     UefiShellLevel2CommandsLib:Mv.obj
 0002:00009a20       ??_C@_0BO@OPBKFEGF@DestParameter?5?$CB?$DN?5?$CI?$CIvoid?5?$CK?$CJ?50?$CJ@ 00000000000d1a20     UefiShellLevel2CommandsLib:Mv.obj
 0002:00009a40       ??_C@_0CB@HHHHOICB@CleanFilePathStr?5?$CB?$DN?5?$CI?$CIvoid?5?$CK?$CJ?50@ 00000000000d1a40     UefiShellLevel2CommandsLib:Mv.obj
 0002:00009a68       ??_C@_0BP@CEDNINEP@Node?9?$DOFileName?5?$CB?$DN?5?$CI?$CIvoid?5?$CK?$CJ?50?$CJ@ 00000000000d1a68     UefiShellLevel2CommandsLib:Mv.obj
 0002:00009a88       ??_C@_0BP@EODGBCFD@Node?9?$DOFullName?5?$CB?$DN?5?$CI?$CIvoid?5?$CK?$CJ?50?$CJ@ 00000000000d1a88     UefiShellLevel2CommandsLib:Mv.obj
 0002:00009aa8       ??_C@_0BL@LJNANCHI@Node?9?$DOInfo?5?$CB?$DN?5?$CI?$CIvoid?5?$CK?$CJ?50?$CJ@ 00000000000d1aa8     UefiShellLevel2CommandsLib:Mv.obj
 0002:00009ac4       ??_C@_15CGIMIPEN@?$AA?9?$AAq@ 00000000000d1ac4     UefiShellLevel2CommandsLib:Rm.obj
 0002:00009ad0       ??_C@_0EO@MFJMBKMN@D?3?2develop?2Self_develop?2edk2?2Sh@ 00000000000d1ad0     UefiShellLevel2CommandsLib:Rm.obj
 0002:00009b40       ??_C@_0FB@DODBEGNK@D?3?2develop?2Self_develop?2edk2?2Sh@ 00000000000d1b40     UefiShellLevel2CommandsLib:Parse.obj
 0002:00009b98       ??_C@_0BK@ONNIGBFG@TableName?5?$CB?$DN?5?$CI?$CIvoid?5?$CK?$CJ?50?$CJ@ 00000000000d1b98     UefiShellLevel2CommandsLib:Parse.obj
 0002:00009bb8       ??_C@_1M@PBHODJJJ@?$AAp?$AAa?$AAr?$AAs?$AAe@ 00000000000d1bb8     UefiShellLevel2CommandsLib:Parse.obj
 0002:00009bc8       ??_C@_1BM@JGMAIAOM@?$AAS?$AAh?$AAe?$AAl?$AAl?$AAC?$AAo?$AAm?$AAm?$AAa?$AAn?$AAd?$AA?0@ 00000000000d1bc8     UefiShellLevel2CommandsLib:Parse.obj
 0002:00009be4       ??_C@_15DEGIPMKE@?$AA?0?$AA?$CC@ 00000000000d1be4     UefiShellLevel2CommandsLib:Parse.obj
 0002:00009bf0       ??_C@_1BK@BOMKEOAF@?$AAC?$AAo?$AAl?$AAu?$AAm?$AAn?$AA?5?$AAI?$AAn?$AAd?$AAe?$AAx@ 00000000000d1bf0     UefiShellLevel2CommandsLib:Parse.obj
 0002:00009c0c       ??_C@_15LDCBPADN@?$AA?9?$AAi@ 00000000000d1c0c     UefiShellLevel2CommandsLib:Parse.obj
 0002:00009c50       ??_C@_0EO@DKGPCLLN@D?3?2develop?2Self_develop?2edk2?2Sh@ 00000000000d1c50     UefiShellLevel2CommandsLib:Cp.obj
 0002:00009ca0       ??_C@_15PKPONJIK@?$AA?2?$AA?$CK@ 00000000000d1ca0     UefiShellLevel2CommandsLib:Cp.obj
 0002:00009ca8       ??_C@_15KLGCIDDE@?$AAc?$AAp@ 00000000000d1ca8     UefiShellLevel2CommandsLib:Cp.obj
 0002:00009cb0       ??_C@_0BI@PMPALEG@DestDir?5?$CB?$DN?5?$CI?$CIvoid?5?$CK?$CJ?50?$CJ@ 00000000000d1cb0     UefiShellLevel2CommandsLib:Cp.obj
 0002:00009cd0       ??_C@_0EA@HBMPJEPK@?$CI?$CIEFI_SHELL_FILE_INFO?5?$CK?$CJList?9?$DOL@ 00000000000d1cd0     UefiShellLevel2CommandsLib:Cp.obj
 0002:00009d10       ??_C@_0EK@LEAHEFB@?$CI?$CIEFI_SHELL_FILE_INFO?5?$CK?$CJList?9?$DOL@ 00000000000d1d10     UefiShellLevel2CommandsLib:Cp.obj
 0002:00009d90       ??_C@_0BG@JMDNBIJO@Splitter?5?$CB?$DN?5?$CKFullPath@ 00000000000d1d90     UefiShellLevel2CommandsLib:Cd.obj
 0002:00009db0       ??_C@_0EO@OFBEOLHF@D?3?2develop?2Self_develop?2edk2?2Sh@ 00000000000d1db0     UefiShellLevel2CommandsLib:Cd.obj
 0002:00009e00       ??_C@_0BJ@NHAALEPA@FullPath?5?$CB?$DN?5?$CI?$CIvoid?5?$CK?$CJ?50?$CJ@ 00000000000d1e00     UefiShellLevel2CommandsLib:Cd.obj
 0002:00009e1c       ??_C@_15HEBJEDPM@?$AAc?$AAd@ 00000000000d1e1c     UefiShellLevel2CommandsLib:Cd.obj
 0002:00009e30       ??_C@_0FB@EIECDJNL@D?3?2develop?2Self_develop?2edk2?2Sh@ 00000000000d1e30     UefiShellLevel2CommandsLib:MkDir.obj
 0002:00009e88       ??_C@_1M@KBLMDDDF@?$AAm?$AAk?$AAd?$AAi?$AAr@ 00000000000d1e88     UefiShellLevel2CommandsLib:MkDir.obj
 0002:00009e98       ??_C@_0BL@MMALFFMO@FileHandle?5?$DN?$DN?5?$CI?$CIvoid?5?$CK?$CJ?50?$CJ@ 00000000000d1e98     UefiShellLevel2CommandsLib:MkDir.obj
 0002:00009ec0       ??_C@_0EP@IMBOHDEC@D?3?2develop?2Self_develop?2edk2?2Sh@ 00000000000d1ec0     UefiShellLevel2CommandsLib:Set.obj
 0002:00009f10       ??_C@_17EGGBPMH@?$AAs?$AAe?$AAt@ 00000000000d1f10     UefiShellLevel2CommandsLib:Set.obj
 0002:00009f48       ??_C@_15DOHNAJB@?$AA?9?$AAw@ 00000000000d1f48     UefiShellLevel2CommandsLib:Reset.obj
 0002:00009f50       ??_C@_15NMJMBAFJ@?$AA?9?$AAc@ 00000000000d1f50     UefiShellLevel2CommandsLib:Reset.obj
 0002:00009f58       ??_C@_1M@GFBJCLMD@?$AA?9?$AAf?$AAw?$AAu?$AAi@ 00000000000d1f58     UefiShellLevel2CommandsLib:Reset.obj
 0002:00009f70       ??_C@_0FB@EEACOEMJ@D?3?2develop?2Self_develop?2edk2?2Sh@ 00000000000d1f70     UefiShellLevel2CommandsLib:Reset.obj
 0002:00009fc8       ??_C@_1M@OFCONGJO@?$AAr?$AAe?$AAs?$AAe?$AAt@ 00000000000d1fc8     UefiShellLevel2CommandsLib:Reset.obj
 0002:00009fd8       ??_C@_1CO@MENFEBKM@?$AAO?$AAs?$AAI?$AAn?$AAd?$AAi?$AAc?$AAa?$AAt?$AAi?$AAo?$AAn?$AAs?$AAS?$AAu@ 00000000000d1fd8     UefiShellLevel2CommandsLib:Reset.obj
 0002:0000a008       ??_C@_1BM@MDLAABPK@?$AAO?$AAs?$AAI?$AAn?$AAd?$AAi?$AAc?$AAa?$AAt?$AAi?$AAo?$AAn?$AAs@ 00000000000d2008     UefiShellLevel2CommandsLib:Reset.obj
 0002:0000a028       ??_C@_1DE@NABBCPIM@?$AAR?$AAe?$AAs?$AAe?$AAt?$AA?5?$AAw?$AAi?$AAt?$AAh?$AA?5?$AA?$CF?$AAs?$AA?5?$AA?$CI@ 00000000000d2028     UefiShellLevel2CommandsLib:Reset.obj
 0002:0000a0b0       ??_C@_0BJ@COCMLIKB@TempList?5?$CB?$DN?5?$CI?$CIvoid?5?$CK?$CJ?50?$CJ@ 00000000000d20b0     UefiShellLevel2CommandsLib:Map.obj
 0002:0000a0d0       ??_C@_0EP@MPCACBDO@D?3?2develop?2Self_develop?2edk2?2Sh@ 00000000000d20d0     UefiShellLevel2CommandsLib:Map.obj
 0002:0000a120       ??_C@_17DLODPOOO@?$AAH?$AAD?$AA?$CK@ 00000000000d2120     UefiShellLevel2CommandsLib:Map.obj
 0002:0000a128       ??_C@_17GGIJOCLI@?$AAC?$AAD?$AA?$CK@ 00000000000d2128     UefiShellLevel2CommandsLib:Map.obj
 0002:0000a130       ??_C@_15FILDPIHH@?$AAF?$AA?$CK@ 00000000000d2130     UefiShellLevel2CommandsLib:Map.obj
 0002:0000a138       ??_C@_17LGCOKMFB@?$AAF?$AAP?$AA?$CK@ 00000000000d2138     UefiShellLevel2CommandsLib:Map.obj
 0002:0000a140       ??_C@_15EOIEBHGB@?$AAF?$AAS@ 00000000000d2140     UefiShellLevel2CommandsLib:Map.obj
 0002:0000a148       ??_C@_17MFOKPACN@?$AAB?$AAL?$AAK@ 00000000000d2148     UefiShellLevel2CommandsLib:Map.obj
 0002:0000a150       ??_C@_17PBAHFJOA@?$AAY?$AAe?$AAs@ 00000000000d2150     UefiShellLevel2CommandsLib:Map.obj
 0002:0000a158       ??_C@_15BICKNCBF@?$AAN?$AAo@ 00000000000d2158     UefiShellLevel2CommandsLib:Map.obj
 0002:0000a160       ??_C@_15OLECOAGL@?$AA?9?$AAf@ 00000000000d2160     UefiShellLevel2CommandsLib:Map.obj
 0002:0000a168       ??_C@_15KJOOBIBK@?$AA?9?$AAu@ 00000000000d2168     UefiShellLevel2CommandsLib:Map.obj
 0002:0000a170       ??_C@_15BBFCHPHP@?$AA?9?$AAt@ 00000000000d2170     UefiShellLevel2CommandsLib:Map.obj
 0002:0000a178       AnyF                       00000000000d2178     UefiShellLevel2CommandsLib:Map.obj
 0002:0000a180       Hd                         00000000000d2180     UefiShellLevel2CommandsLib:Map.obj
 0002:0000a220       Cd                         00000000000d2220     UefiShellLevel2CommandsLib:Map.obj
 0002:0000a228       Fp                         00000000000d2228     UefiShellLevel2CommandsLib:Map.obj
 0002:0000a230       ??_C@_0EO@KKIKBDIC@D?3?2develop?2Self_develop?2edk2?2Sh@ 00000000000d2230     UefiShellLevel2CommandsLib:Ls.obj
 0002:0000a280       ??_C@_15EIIBJOAP@?$AAl?$AAs@ 00000000000d2280     UefiShellLevel2CommandsLib:Ls.obj
 0002:0000a288       ??_C@_19ELAAHEEL@?$AAT?$AAR?$AAU?$AAE@ 00000000000d2288     UefiShellLevel2CommandsLib:Ls.obj
 0002:0000a298       ??_C@_1M@HCOOECOK@?$AAF?$AAA?$AAL?$AAS?$AAE@ 00000000000d2298     UefiShellLevel2CommandsLib:Ls.obj
 0002:0000a2a8       ??_C@_0BG@NGJFNJEB@Files?5?$CB?$DN?5?$CI?$CIvoid?5?$CK?$CJ?50?$CJ@ 00000000000d22a8     UefiShellLevel2CommandsLib:Ls.obj
 0002:0000a2c0       ??_C@_0BF@MKOIBPLI@Dirs?5?$CB?$DN?5?$CI?$CIvoid?5?$CK?$CJ?50?$CJ@ 00000000000d22c0     UefiShellLevel2CommandsLib:Ls.obj
 0002:0000a2d8       ??_C@_0BI@PNAGFONE@TheNode?5?$CB?$DN?5?$CI?$CIvoid?5?$CK?$CJ?50?$CJ@ 00000000000d22d8     UefiShellLevel2CommandsLib:Ls.obj
 0002:0000a2f0       ??_C@_13KHDBCPJB@?$AAs@    00000000000d22f0     UefiShellLevel2CommandsLib:Ls.obj
 0002:0000a2f4       ??_C@_13CACJPPAP@?$AAh@    00000000000d22f4     UefiShellLevel2CommandsLib:Ls.obj
 0002:0000a2f8       ??_C@_13GKPPEALH@?$AAd@    00000000000d22f8     UefiShellLevel2CommandsLib:Ls.obj
 0002:0000a2fc       ??_C@_13FNCBLAIF@?$AAa@    00000000000d22fc     UefiShellLevel2CommandsLib:Ls.obj
 0002:0000a300       ??_C@_1M@GFDIBKGH@?$AA?$DM?$AAD?$AAI?$AAR?$AA?$DO@ 00000000000d2300     UefiShellLevel2CommandsLib:Ls.obj
 0002:0000a310       ??_C@_19PLKELGOA@?$AA?4?$AAn?$AAs?$AAh@ 00000000000d2310     UefiShellLevel2CommandsLib:Ls.obj
 0002:0000a320       ??_C@_0DG@DLFOGLEB@?$CITime?9?$DOTimeZone?5?$DO?$DN?5?91440?$CJ?5?$CG?$CG?5?$CIT@ 00000000000d2320     UefiShellLevel2CommandsLib:Ls.obj
 0002:0000a358       ??_C@_0DE@HHNNGGB@?$CILocalTimeZone?5?$DO?$DN?5?91440?$CJ?5?$CG?$CG?5?$CILo@ 00000000000d2358     UefiShellLevel2CommandsLib:Ls.obj
 0002:0000a390       ??_C@_0CK@EBFHICFE@?$CITime?9?$DOMonth?5?$DO?$DN?51?$CJ?5?$CG?$CG?5?$CITime?9?$DOMo@ 00000000000d2390     UefiShellLevel2CommandsLib:Ls.obj
 0002:0000a3c0       ??_C@_0EJ@NBAHNBEF@?$CINode?9?$DOInfo?9?$DOAttribute?5?$CG?50x0000@ 00000000000d23c0     UefiShellLevel2CommandsLib:Ls.obj
 0002:0000a410       ??_C@_0BN@EBBNOBIN@SearchString?5?$DN?$DN?5?$CI?$CIvoid?5?$CK?$CJ?50?$CJ@ 00000000000d2410     UefiShellLevel2CommandsLib:Ls.obj
 0002:0000a430       ??_C@_0BJ@JGAFFJKG@FullPath?5?$DN?$DN?5?$CI?$CIvoid?5?$CK?$CJ?50?$CJ@ 00000000000d2430     UefiShellLevel2CommandsLib:Ls.obj
 0002:0000a450       ??_C@_0EG@BBKMMMDB@?$CIFullPath?5?$DN?$DN?5?$CI?$CIvoid?5?$CK?$CJ?50?$CJ?5?$CG?$CG?5Si@ 00000000000d2450     UefiShellLevel2CommandsLib:Ls.obj
 0002:0000a498       ??_C@_1BK@IBFCCNCI@?$AAg?$AAR?$AAT?$AA?9?$AA?$DO?$AAG?$AAe?$AAt?$AAT?$AAi?$AAm?$AAe@ 00000000000d2498     UefiShellLevel2CommandsLib:Ls.obj
 0002:0000a500       ??_C@_0FA@MCGIHHNC@D?3?2develop?2Self_develop?2edk2?2Sh@ 00000000000d2500     UefiShellLevel2CommandsLib:Load.obj
 0002:0000a550       ??_C@_0CC@BPGMMONK@LoadedDriverImage?5?$CB?$DN?5?$CI?$CIvoid?5?$CK?$CJ?5@ 00000000000d2550     UefiShellLevel2CommandsLib:Load.obj
 0002:0000a578       ??_C@_17ODMDGBNG@?$AA?9?$AAn?$AAc@ 00000000000d2578     UefiShellLevel2CommandsLib:Load.obj
 0002:0000a580       ??_C@_19KJIJHNML@?$AAl?$AAo?$AAa?$AAd@ 00000000000d2580     UefiShellLevel2CommandsLib:Load.obj
 0002:0000a5b0       ??_C@_19EEHDNLEA@?$AAd?$AAa?$AAt?$AAe@ 00000000000d25b0     UefiShellLevel2CommandsLib:TimeDate.obj
 0002:0000a5c0       ??_C@_0FE@CILPELKH@D?3?2develop?2Self_develop?2edk2?2Sh@ 00000000000d25c0     UefiShellLevel2CommandsLib:TimeDate.obj
 0002:0000a618       ??_C@_17GMJPFIDO@?$AA?9?$AAt?$AAz@ 00000000000d2618     UefiShellLevel2CommandsLib:TimeDate.obj
 0002:0000a620       ??_C@_19JEOBBCEO@?$AAt?$AAi?$AAm?$AAe@ 00000000000d2620     UefiShellLevel2CommandsLib:TimeDate.obj
 0002:0000a630       ??_C@_0CN@JAAOOJBM@_gPcd_FixedAtBuild_PcdShellSupp@ 00000000000d2630     UefiShellLevel2CommandsLib:TimeDate.obj
 0002:0000a660       ??_C@_1CC@NOCPFBIB@?$AAT?$AAh?$AAe?$AAT?$AAi?$AAm?$AAe?$AA?4?$AAD?$AAa?$AAy?$AAl?$AAi?$AAg?$AAh@ 00000000000d2660     UefiShellLevel2CommandsLib:TimeDate.obj
 0002:0000a688       ??_C@_1O@LOFDLEDL@?$AA_?$AAl?$AAo?$AAc?$AAa?$AAl@ 00000000000d2688     UefiShellLevel2CommandsLib:TimeDate.obj
 0002:0000a698       ??_C@_15IEPPAAAP@?$AA?9?$AAl@ 00000000000d2698     UefiShellLevel2CommandsLib:TimeDate.obj
 0002:0000a6a0       ??_C@_1BC@ODGONKJC@?$AAt?$AAi?$AAm?$AAe?$AAz?$AAo?$AAn?$AAe@ 00000000000d26a0     UefiShellLevel2CommandsLib:TimeDate.obj
 0002:0000a6b8       ??_C@_1BC@JBHNBLED@?$AA?9?$AAl?$AA?5?$AAo?$AAr?$AA?5?$AA?9?$AAf@ 00000000000d26b8     UefiShellLevel2CommandsLib:TimeDate.obj
 0002:0000a820       ??_C@_17OHLFFIIF@?$AAd?$AAe?$AAl@ 00000000000d2820     UefiShellLevel2CommandsLib:UefiShellLevel2CommandsLib.obj
 0002:0000a828       ??_C@_17CALBLIFC@?$AAd?$AAi?$AAr@ 00000000000d2828     UefiShellLevel2CommandsLib:UefiShellLevel2CommandsLib.obj
 0002:0000a830       ??_C@_19DCHLHIDK@?$AAc?$AAo?$AAp?$AAy@ 00000000000d2830     UefiShellLevel2CommandsLib:UefiShellLevel2CommandsLib.obj
 0002:0000a83c       ??_C@_15EOBDCCIM@?$AAm?$AAd@ 00000000000d283c     UefiShellLevel2CommandsLib:UefiShellLevel2CommandsLib.obj
 0002:0000a848       ??_C@_19PEPDKPA@?$AAc?$AAd?$AA?4?$AA?4@ 00000000000d2848     UefiShellLevel2CommandsLib:UefiShellLevel2CommandsLib.obj
 0002:0000a858       ??_C@_1M@IHNHPNHP@?$AAc?$AAd?$AA?5?$AA?4?$AA?4@ 00000000000d2858     UefiShellLevel2CommandsLib:UefiShellLevel2CommandsLib.obj
 0002:0000a868       ??_C@_17NGAHHKJI@?$AAc?$AAd?$AA?2@ 00000000000d2868     UefiShellLevel2CommandsLib:UefiShellLevel2CommandsLib.obj
 0002:0000a870       ??_C@_19PEHDDDJH@?$AAc?$AAd?$AA?5?$AA?2@ 00000000000d2870     UefiShellLevel2CommandsLib:UefiShellLevel2CommandsLib.obj
 0002:0000a880       ??_C@_17PHGIKIKC@?$AAr?$AAe?$AAn@ 00000000000d2880     UefiShellLevel2CommandsLib:UefiShellLevel2CommandsLib.obj
 0002:0000a888       ??_C@_19OACEEDLD@?$AAm?$AAo?$AAv?$AAe@ 00000000000d2888     UefiShellLevel2CommandsLib:UefiShellLevel2CommandsLib.obj
 0002:0000a898       ??_C@_1M@CACIMNJO@?$AAm?$AAo?$AAu?$AAn?$AAt@ 00000000000d2898     UefiShellLevel2CommandsLib:UefiShellLevel2CommandsLib.obj
 0002:0000a8a8       ??_C@_1O@CIHIHMGO@?$AAl?$AA2?$AAd?$AAa?$AAt?$AAe@ 00000000000d28a8     UefiShellLevel2CommandsLib:UefiShellLevel2CommandsLib.obj
 0002:0000a8b8       ??_C@_1O@PIOKLFGA@?$AAl?$AA2?$AAt?$AAi?$AAm?$AAe@ 00000000000d28b8     UefiShellLevel2CommandsLib:UefiShellLevel2CommandsLib.obj
 0002:0000a8c8       ??_C@_1BG@LLJLCNJJ@?$AAl?$AA2?$AAt?$AAi?$AAm?$AAe?$AAz?$AAo?$AAn?$AAe@ 00000000000d28c8     UefiShellLevel2CommandsLib:UefiShellLevel2CommandsLib.obj
 0002:0000a8e0       ??_C@_0GG@ILNHBOMB@D?3?2develop?2Self_develop?2edk2?2Sh@ 00000000000d28e0     UefiShellLevel2CommandsLib:UefiShellLevel2CommandsLib.obj
 0002:0000a948       mFileName                  00000000000d2948     UefiShellLevel2CommandsLib:UefiShellLevel2CommandsLib.obj
 0002:0000a970       ??_C@_0FB@OELMEPFP@D?3?2develop?2Self_develop?2edk2?2Sh@ 00000000000d2970     UefiShellLevel1CommandsLib:Stall.obj
 0002:0000a9c8       ??_C@_1M@DKNLGIMJ@?$AAs?$AAt?$AAa?$AAl?$AAl@ 00000000000d29c8     UefiShellLevel1CommandsLib:Stall.obj
 0002:0000a9e0       ??_C@_0FB@HHIMFMFJ@D?3?2develop?2Self_develop?2edk2?2Sh@ 00000000000d29e0     UefiShellLevel1CommandsLib:Shift.obj
 0002:0000aa38       ??_C@_1M@OAJKEOAM@?$AAs?$AAh?$AAi?$AAf?$AAt@ 00000000000d2a38     UefiShellLevel1CommandsLib:Shift.obj
 0002:0000aa48       ??_C@_0CC@IMJMDDEE@CurrentScriptFile?5?$CB?$DN?5?$CI?$CIvoid?5?$CK?$CJ?5@ 00000000000d2a48     UefiShellLevel1CommandsLib:Shift.obj
 0002:0000aa70       ??_C@_0EP@BDIICBLO@D?3?2develop?2Self_develop?2edk2?2Sh@ 00000000000d2a70     UefiShellLevel1CommandsLib:For.obj
 0002:0000aac0       ??_C@_1O@CFFHBKEK@?$AAE?$AAn?$AAd?$AAF?$AAo?$AAr@ 00000000000d2ac0     UefiShellLevel1CommandsLib:For.obj
 0002:0000aad0       ??_C@_17ENLLDOGE@?$AAF?$AAo?$AAr@ 00000000000d2ad0     UefiShellLevel1CommandsLib:For.obj
 0002:0000aad8       ??_C@_0BM@OABCJGHL@Node?9?$DOAlias?5?$DN?$DN?5?$CI?$CIvoid?5?$CK?$CJ?50?$CJ@ 00000000000d2ad8     UefiShellLevel1CommandsLib:For.obj
 0002:0000aaf8       ??_C@_0CE@CIHKHJCI@Node?9?$DOCommandString?5?$DN?$DN?5?$CI?$CIvoid?5?$CK@ 00000000000d2af8     UefiShellLevel1CommandsLib:For.obj
 0002:0000ab1c       ??_C@_15LKDPIAPO@?$AAi?$AAn@ 00000000000d2b1c     UefiShellLevel1CommandsLib:For.obj
 0002:0000ab30       ??_C@_0EF@PAMGJHH@?$CIArgSet?5?$DN?$DN?5?$CI?$CIvoid?5?$CK?$CJ?50?$CJ?5?$CG?$CG?5ArgS@ 00000000000d2b30     UefiShellLevel1CommandsLib:For.obj
 0002:0000ab78       ??_C@_17PELOKKDJ@?$AAr?$AAu?$AAn@ 00000000000d2b78     UefiShellLevel1CommandsLib:For.obj
 0002:0000ab80       ??_C@_0CE@FDICNFOP@Info?9?$DOStep?5?$DN?$DN?51?5?$HM?$HM?5Info?9?$DOStep?5?$DN@ 00000000000d2b80     UefiShellLevel1CommandsLib:For.obj
 0002:0000aba8       ??_C@_0BN@LFMPNEMJ@ArgSetWalker?5?$DN?$DN?5?$CI?$CIvoid?5?$CK?$CJ?50?$CJ@ 00000000000d2ba8     UefiShellLevel1CommandsLib:For.obj
 0002:0000abc8       ??_C@_0BH@BKCNJEAO@ArgSet?5?$DN?$DN?5?$CI?$CIvoid?5?$CK?$CJ?50?$CJ@ 00000000000d2bc8     UefiShellLevel1CommandsLib:For.obj
 0002:0000abe0       ??_C@_0BF@ELANCEIC@Info?5?$CB?$DN?5?$CI?$CIvoid?5?$CK?$CJ?50?$CJ@ 00000000000d2be0     UefiShellLevel1CommandsLib:For.obj
 0002:0000abf8       ??_C@_0BK@IBPGOKHK@Info?9?$DOSet?5?$CB?$DN?5?$CI?$CIvoid?5?$CK?$CJ?50?$CJ@ 00000000000d2bf8     UefiShellLevel1CommandsLib:For.obj
 0002:0000ac18       ??_C@_17CMBJCHDO@?$AA?$CC?$AA?5?$AA?$CC@ 00000000000d2c18     UefiShellLevel1CommandsLib:For.obj
 0002:0000ac20       ??_C@_0BP@EFNHGOCI@ProfilesString?5?$CB?$DN?5?$CI?$CIvoid?5?$CK?$CJ?50?$CJ@ 00000000000d2c20     UefiShellLevel1CommandsLib:If.obj
 0002:0000ac40       ??_C@_0EO@OPCLOGDN@D?3?2develop?2Self_develop?2edk2?2Sh@ 00000000000d2c40     UefiShellLevel1CommandsLib:If.obj
 0002:0000ac90       ??_C@_0CK@MGCONFMJ@?$CIEND_TAG_TYPE?$CJOperatorToUse?5?$CB?$DN?5@ 00000000000d2c90     UefiShellLevel1CommandsLib:If.obj
 0002:0000acc0       ??_C@_17ECEDBIFL@?$AAn?$AAo?$AAt@ 00000000000d2cc0     UefiShellLevel1CommandsLib:If.obj
 0002:0000acc8       ??_C@_1M@DFKILDOD@?$AAi?$AAs?$AAi?$AAn?$AAt@ 00000000000d2cc8     UefiShellLevel1CommandsLib:If.obj
 0002:0000acd8       ??_C@_1O@OCGIGJBK@?$AAe?$AAx?$AAi?$AAs?$AAt?$AAs@ 00000000000d2cd8     UefiShellLevel1CommandsLib:If.obj
 0002:0000ace8       ??_C@_1M@HHAKBENA@?$AAe?$AAx?$AAi?$AAs?$AAt@ 00000000000d2ce8     UefiShellLevel1CommandsLib:If.obj
 0002:0000acf8       ??_C@_1BC@MDECFFOE@?$AAe?$AAx?$AAi?$AAs?$AAt?$AA?$CI?$AAs?$AA?$CJ@ 00000000000d2cf8     UefiShellLevel1CommandsLib:If.obj
 0002:0000ad10       ??_C@_1BE@DKICMKIK@?$AAa?$AAv?$AAa?$AAi?$AAl?$AAa?$AAb?$AAl?$AAe@ 00000000000d2d10     UefiShellLevel1CommandsLib:If.obj
 0002:0000ad28       ??_C@_1BA@PNHGIEJF@?$AAp?$AAr?$AAo?$AAf?$AAi?$AAl?$AAe@ 00000000000d2d28     UefiShellLevel1CommandsLib:If.obj
 0002:0000ad38       ??_C@_1BC@EHCCAAMH@?$AAe?$AAf?$AAi?$AAe?$AAr?$AAr?$AAo?$AAr@ 00000000000d2d38     UefiShellLevel1CommandsLib:If.obj
 0002:0000ad50       ??_C@_0BJ@MPBMMEMI@Compare1?5?$DN?$DN?5?$CI?$CIvoid?5?$CK?$CJ?50?$CJ@ 00000000000d2d50     UefiShellLevel1CommandsLib:If.obj
 0002:0000ad70       ??_C@_1BA@HKAFHKBC@?$AAp?$AAi?$AAe?$AAr?$AAr?$AAo?$AAr@ 00000000000d2d70     UefiShellLevel1CommandsLib:If.obj
 0002:0000ad80       ??_C@_1BC@GFMDPOKB@?$AAo?$AAe?$AAm?$AAe?$AAr?$AAr?$AAo?$AAr@ 00000000000d2d80     UefiShellLevel1CommandsLib:If.obj
 0002:0000ad98       ??_C@_0CM@JGPHALJN@StartParameterNumber?$CL1?5?$DM?5EndPar@ 00000000000d2d98     UefiShellLevel1CommandsLib:If.obj
 0002:0000adc4       ??_C@_15LPJBFGHF@?$AAg?$AAt@ 00000000000d2dc4     UefiShellLevel1CommandsLib:If.obj
 0002:0000adcc       ??_C@_15NFFGKGLG@?$AAl?$AAt@ 00000000000d2dcc     UefiShellLevel1CommandsLib:If.obj
 0002:0000add4       ??_C@_15MFIHAHEM@?$AAe?$AAq@ 00000000000d2dd4     UefiShellLevel1CommandsLib:If.obj
 0002:0000addc       ??_C@_15HADLDHEH@?$AAn?$AAe@ 00000000000d2ddc     UefiShellLevel1CommandsLib:If.obj
 0002:0000ade4       ??_C@_15FHDEGGIP@?$AAg?$AAe@ 00000000000d2de4     UefiShellLevel1CommandsLib:If.obj
 0002:0000adec       ??_C@_15DNPDJGEM@?$AAl?$AAe@ 00000000000d2dec     UefiShellLevel1CommandsLib:If.obj
 0002:0000adf4       ??_C@_15PEJIGKFD@?$AA?$DN?$AA?$DN@ 00000000000d2df4     UefiShellLevel1CommandsLib:If.obj
 0002:0000ae00       ??_C@_17IPMBLHEL@?$AAu?$AAg?$AAt@ 00000000000d2e00     UefiShellLevel1CommandsLib:If.obj
 0002:0000ae08       ??_C@_17OFAGEHII@?$AAu?$AAl?$AAt@ 00000000000d2e08     UefiShellLevel1CommandsLib:If.obj
 0002:0000ae10       ??_C@_17GHGEIHLB@?$AAu?$AAg?$AAe@ 00000000000d2e10     UefiShellLevel1CommandsLib:If.obj
 0002:0000ae18       ??_C@_17NKDHHHC@?$AAu?$AAl?$AAe@ 00000000000d2e18     UefiShellLevel1CommandsLib:If.obj
 0002:0000ae20       ??_C@_0CN@IKFKLGIO@StartParameterNumber?$CL2?5?$DM?$DN?5EndPa@ 00000000000d2e20     UefiShellLevel1CommandsLib:If.obj
 0002:0000ae50       ??_C@_0BJ@CFJKBJKK@Compare2?5?$DN?$DN?5?$CI?$CIvoid?5?$CK?$CJ?50?$CJ@ 00000000000d2e50     UefiShellLevel1CommandsLib:If.obj
 0002:0000ae6c       ??_C@_15HGKJILME@?$AAo?$AAr@ 00000000000d2e6c     UefiShellLevel1CommandsLib:If.obj
 0002:0000ae78       ??_C@_17CGIOMN@?$AAa?$AAn?$AAd@ 00000000000d2e78     UefiShellLevel1CommandsLib:If.obj
 0002:0000ae80       ??_C@_19GDBJBHLM@?$AAt?$AAh?$AAe?$AAn@ 00000000000d2e80     UefiShellLevel1CommandsLib:If.obj
 0002:0000ae8c       ??_C@_15HICHKNCH@?$AAI?$AAf@ 00000000000d2e8c     UefiShellLevel1CommandsLib:If.obj
 0002:0000ae98       ??_C@_1M@IBHPJAIJ@?$AAE?$AAn?$AAd?$AAI?$AAf@ 00000000000d2e98     UefiShellLevel1CommandsLib:If.obj
 0002:0000aea4       ??_C@_15POOJFBDG@?$AA?1?$AAi@ 00000000000d2ea4     UefiShellLevel1CommandsLib:If.obj
 0002:0000aeac       ??_C@_15MBENOGMN@?$AA?1?$AAs@ 00000000000d2eac     UefiShellLevel1CommandsLib:If.obj
 0002:0000aeb8       ??_C@_19CMEEBEGM@?$AAT?$AAh?$AAe?$AAn@ 00000000000d2eb8     UefiShellLevel1CommandsLib:If.obj
 0002:0000aec8       ??_C@_19GCOMJGMH@?$AAE?$AAl?$AAs?$AAe@ 00000000000d2ec8     UefiShellLevel1CommandsLib:If.obj
 0002:0000aed4       ??_C@_04JGADNOIL@Else@     00000000000d2ed4     UefiShellLevel1CommandsLib:If.obj
 0002:0000aee0       ??_C@_1M@IGNDJFLP@?$AAE?$AAn?$AAd?$AAi?$AAf@ 00000000000d2ee0     UefiShellLevel1CommandsLib:If.obj
 0002:0000aef0       ??_C@_0FA@BAMHPBBB@D?3?2develop?2Self_develop?2edk2?2Sh@ 00000000000d2ef0     UefiShellLevel1CommandsLib:Goto.obj
 0002:0000af40       ??_C@_19JKCOJBMF@?$AAG?$AAo?$AAt?$AAo@ 00000000000d2f40     UefiShellLevel1CommandsLib:Goto.obj
 0002:0000af50       ??_C@_0FA@CDCHNAMP@?$CICompareString?5?$DN?$DN?5?$CI?$CIvoid?5?$CK?$CJ?50?$CJ?5@ 00000000000d2f50     UefiShellLevel1CommandsLib:Goto.obj
 0002:0000afa0       ??_C@_15CJOINGDH@?$AA?1?$AAb@ 00000000000d2fa0     UefiShellLevel1CommandsLib:Exit.obj
 0002:0000afb0       ??_C@_0FA@IGODFBLG@D?3?2develop?2Self_develop?2edk2?2Sh@ 00000000000d2fb0     UefiShellLevel1CommandsLib:Exit.obj
 0002:0000b000       ??_C@_19JPKILLMB@?$AAe?$AAx?$AAi?$AAt@ 00000000000d3000     UefiShellLevel1CommandsLib:Exit.obj
 0002:0000b050       ??_C@_1O@PAAFNODC@?$AA?9?$AAu?$AAs?$AAa?$AAg?$AAe@ 00000000000d3050     UefiShellLevel3CommandsLib:Help.obj
 0002:0000b060       ??_C@_1BC@IFEILMPD@?$AA?9?$AAs?$AAe?$AAc?$AAt?$AAi?$AAo?$AAn@ 00000000000d3060     UefiShellLevel3CommandsLib:Help.obj
 0002:0000b078       ??_C@_1BC@CHGGHNLP@?$AA?9?$AAv?$AAe?$AAr?$AAb?$AAo?$AAs?$AAe@ 00000000000d3078     UefiShellLevel3CommandsLib:Help.obj
 0002:0000b090       ??_C@_0FA@NFDAEPJI@D?3?2develop?2Self_develop?2edk2?2Sh@ 00000000000d3090     UefiShellLevel3CommandsLib:Help.obj
 0002:0000b0e0       ??_C@_19FCEHBCGP@?$AAh?$AAe?$AAl?$AAp@ 00000000000d30e0     UefiShellLevel3CommandsLib:Help.obj
 0002:0000b0f0       ??_C@_0CD@FMCLKPKH@CommandToGetHelpOn?5?$DN?$DN?5?$CI?$CIvoid?5?$CK?$CJ@ 00000000000d30f0     UefiShellLevel3CommandsLib:Help.obj
 0002:0000b118       ??_C@_0CD@FDGHKIPP@SectionToGetHelpOn?5?$DN?$DN?5?$CI?$CIvoid?5?$CK?$CJ@ 00000000000d3118     UefiShellLevel3CommandsLib:Help.obj
 0002:0000b140       ??_C@_19GGDNNDFE@?$AAN?$AAA?$AAM?$AAE@ 00000000000d3140     UefiShellLevel3CommandsLib:Help.obj
 0002:0000b150       ??_C@_1BM@FNNGFIAF@?$AAN?$AAA?$AAM?$AAE?$AA?0?$AAS?$AAY?$AAN?$AAO?$AAP?$AAS?$AAI?$AAS@ 00000000000d3150     UefiShellLevel3CommandsLib:Help.obj
 0002:0000b170       ??_C@_1FG@FJOCLHCB@?$AAN?$AAA?$AAM?$AAE?$AA?0?$AAS?$AAY?$AAN?$AAO?$AAP?$AAS?$AAI?$AAS?$AA?0?$AAO@ 00000000000d3170     UefiShellLevel3CommandsLib:Help.obj
 0002:0000b1c8       ??_C@_1BA@PIFIILLL@?$AAs?$AAp?$AAe?$AAc?$AAi?$AAa?$AAl@ 00000000000d31c8     UefiShellLevel3CommandsLib:Help.obj
 0002:0000b230       ??_C@_0FC@GCDHAEMM@D?3?2develop?2Self_develop?2edk2?2Sh@ 00000000000d3230     UefiShellLevel3CommandsLib:GetMtc.obj
 0002:0000b288       ??_C@_1O@HKMJDPHL@?$AAg?$AAe?$AAt?$AAm?$AAt?$AAc@ 00000000000d3288     UefiShellLevel3CommandsLib:GetMtc.obj
 0002:0000b2a0       ??_C@_0FB@LMOOPFPM@D?3?2develop?2Self_develop?2edk2?2Sh@ 00000000000d32a0     UefiShellLevel3CommandsLib:Pause.obj
 0002:0000b2f8       ??_C@_1M@PLLLDAIA@?$AAp?$AAa?$AAu?$AAs?$AAe@ 00000000000d32f8     UefiShellLevel3CommandsLib:Pause.obj
 0002:0000b328       ??_C@_17NKPFGKKO@?$AA?9?$AAo?$AAn@ 00000000000d3328     UefiShellLevel3CommandsLib:Echo.obj
 0002:0000b330       ??_C@_19GPPNOJGG@?$AA?9?$AAo?$AAf?$AAf@ 00000000000d3330     UefiShellLevel3CommandsLib:Echo.obj
 0002:0000b340       ??_C@_0FA@JPEECMEM@D?3?2develop?2Self_develop?2edk2?2Sh@ 00000000000d3340     UefiShellLevel3CommandsLib:Echo.obj
 0002:0000b390       ??_C@_19PCDNJFIH@?$AAe?$AAc?$AAh?$AAo@ 00000000000d3390     UefiShellLevel3CommandsLib:Echo.obj
 0002:0000b3d0       ??_C@_1M@IJIAJFBE@?$AAa?$AAl?$AAi?$AAa?$AAs@ 00000000000d33d0     UefiShellLevel3CommandsLib:Alias.obj
 0002:0000b3e0       ??_C@_0FB@HGGOKLMI@D?3?2develop?2Self_develop?2edk2?2Sh@ 00000000000d33e0     UefiShellLevel3CommandsLib:Alias.obj
 0002:0000b438       ??_C@_0N@NEOHOBAN@VolatileFlag@ 00000000000d3438     UefiShellLevel3CommandsLib:Alias.obj
 0002:0000b448       ??_C@_0M@PBEJAEMF@?$CBDeleteFlag@ 00000000000d3448     UefiShellLevel3CommandsLib:Alias.obj
 0002:0000b490       ??_C@_0EP@MIONKLEJ@D?3?2develop?2Self_develop?2edk2?2Sh@ 00000000000d3490     UefiShellLevel3CommandsLib:Cls.obj
 0002:0000b4e0       ??_C@_17MCAFEHJN@?$AAc?$AAl?$AAs@ 00000000000d34e0     UefiShellLevel3CommandsLib:Cls.obj
 0002:0000b508       ??_C@_19FHBCDCCA@?$AAt?$AAy?$AAp?$AAe@ 00000000000d3508     UefiShellLevel3CommandsLib:UefiShellLevel3CommandsLib.obj
 0002:0000b518       ??_C@_1M@BHMIOBAK@?$AAt?$AAo?$AAu?$AAc?$AAh@ 00000000000d3518     UefiShellLevel3CommandsLib:UefiShellLevel3CommandsLib.obj
 0002:0000b528       ??_C@_17GJONEOHP@?$AAv?$AAe?$AAr@ 00000000000d3528     UefiShellLevel3CommandsLib:UefiShellLevel3CommandsLib.obj
 0002:0000b530       ??_C@_17ODEMGMPK@?$AAc?$AAa?$AAt@ 00000000000d3530     UefiShellLevel3CommandsLib:UefiShellLevel3CommandsLib.obj
 0002:0000b538       gShellLevel3FileName       00000000000d3538     UefiShellLevel3CommandsLib:UefiShellLevel3CommandsLib.obj
 0002:0000b558       ??_C@_1O@CLGDBFLH@?$AA?9?$AAt?$AAe?$AAr?$AAs?$AAe@ 00000000000d3558     UefiShellLevel3CommandsLib:Ver.obj
 0002:0000b568       ??_C@_19KCGIGDCE@?$AA?9?$AA_?$AAp?$AAa@ 00000000000d3568     UefiShellLevel3CommandsLib:Ver.obj
 0002:0000b580       ??_C@_0EP@COFKDNHF@D?3?2develop?2Self_develop?2edk2?2Sh@ 00000000000d3580     UefiShellLevel3CommandsLib:Ver.obj
 0002:0000b5d0       ??_C@_1BK@IMKBAMOC@?$AA?9?$AAt?$AA?5?$AAo?$AAr?$AA?5?$AA?9?$AAt?$AAe?$AAr?$AAs?$AAe@ 00000000000d35d0     UefiShellLevel3CommandsLib:Ver.obj
 0002:0000b5f0       ??_C@_19DCIDACOG@?$AA?$CF?$AAd?$AA?$AN?$AA?6@ 00000000000d35f0     UefiShellLevel3CommandsLib:Ver.obj
 0002:0000b650       ??_C@_0FB@PKBBMPAE@D?3?2develop?2Self_develop?2edk2?2Sh@ 00000000000d3650     UefiShellLevel3CommandsLib:Touch.obj
 0002:0000b6d0       ??_C@_0FA@MDINKGOM@D?3?2develop?2Self_develop?2edk2?2Sh@ 00000000000d36d0     UefiShellLevel3CommandsLib:Type.obj
 0002:0000b720       ??_C@_1BA@FIDEGPKO@?$AA?9?$AAa?$AA?5?$AA?$CG?$AA?5?$AA?9?$AAu@ 00000000000d3720     UefiShellLevel3CommandsLib:Type.obj
 0002:0000b730       ??_C@_0BN@NBHLEDMH@ShellStatus?5?$DN?$DN?5SHELL_SUCCESS@ 00000000000d3730     UefiShellLevel3CommandsLib:Type.obj
 0002:0000b780       ??_C@_1BA@DKNAEHKI@?$AAD?$AAr?$AAi?$AAv?$AAe?$AAr?$AA1@ 00000000000d3780     UefiShellDriver1CommandsLib:UefiShellDriver1CommandsLib.obj
 0002:0000b790       ??_C@_1BA@CFPPNJDF@?$AAc?$AAo?$AAn?$AAn?$AAe?$AAc?$AAt@ 00000000000d3790     UefiShellDriver1CommandsLib:UefiShellDriver1CommandsLib.obj
 0002:0000b7a0       ??_C@_1BA@GPBIKJID@?$AAd?$AAe?$AAv?$AAi?$AAc?$AAe?$AAs@ 00000000000d37a0     UefiShellDriver1CommandsLib:UefiShellDriver1CommandsLib.obj
 0002:0000b7b0       ??_C@_1BC@MKFACHOA@?$AAo?$AAp?$AAe?$AAn?$AAi?$AAn?$AAf?$AAo@ 00000000000d37b0     UefiShellDriver1CommandsLib:UefiShellDriver1CommandsLib.obj
 0002:0000b7c8       ??_C@_1BG@ILELFFEH@?$AAd?$AAi?$AAs?$AAc?$AAo?$AAn?$AAn?$AAe?$AAc?$AAt@ 00000000000d37c8     UefiShellDriver1CommandsLib:UefiShellDriver1CommandsLib.obj
 0002:0000b7e0       ??_C@_1BE@MAKMINOO@?$AAr?$AAe?$AAc?$AAo?$AAn?$AAn?$AAe?$AAc?$AAt@ 00000000000d37e0     UefiShellDriver1CommandsLib:UefiShellDriver1CommandsLib.obj
 0002:0000b7f8       ??_C@_1O@DEBHAOEE@?$AAu?$AAn?$AAl?$AAo?$AAa?$AAd@ 00000000000d37f8     UefiShellDriver1CommandsLib:UefiShellDriver1CommandsLib.obj
 0002:0000b808       ??_C@_1BA@EMLDCKIJ@?$AAd?$AAr?$AAv?$AAd?$AAi?$AAa?$AAg@ 00000000000d3808     UefiShellDriver1CommandsLib:UefiShellDriver1CommandsLib.obj
 0002:0000b818       ??_C@_15CDMKMMPM@?$AAd?$AAh@ 00000000000d3818     UefiShellDriver1CommandsLib:UefiShellDriver1CommandsLib.obj
 0002:0000b820       ??_C@_1BA@BMPCKMGD@?$AAd?$AAr?$AAi?$AAv?$AAe?$AAr?$AAs@ 00000000000d3820     UefiShellDriver1CommandsLib:UefiShellDriver1CommandsLib.obj
 0002:0000b830       ??_C@_1BA@HICLJKCN@?$AAd?$AAe?$AAv?$AAt?$AAr?$AAe?$AAe@ 00000000000d3830     UefiShellDriver1CommandsLib:UefiShellDriver1CommandsLib.obj
 0002:0000b840       ??_C@_1O@KOCLOIBL@?$AAd?$AAr?$AAv?$AAc?$AAf?$AAg@ 00000000000d3840     UefiShellDriver1CommandsLib:UefiShellDriver1CommandsLib.obj
 0002:0000b870       ??_C@_0BJ@HMGEGPJ@DevPath1?5?$CB?$DN?5?$CI?$CIvoid?5?$CK?$CJ?50?$CJ@ 00000000000d3870     UefiShellDriver1CommandsLib:DrvCfg.obj
 0002:0000b890       ??_C@_0FD@LFPONHLJ@D?3?2develop?2Self_develop?2edk2?2Sh@ 00000000000d3890     UefiShellDriver1CommandsLib:DrvCfg.obj
 0002:0000b8e8       ??_C@_0BL@PMHHHLIM@?$CKHiiHandle?5?$DN?$DN?5?$CI?$CIvoid?5?$CK?$CJ?50?$CJ@ 00000000000d38e8     UefiShellDriver1CommandsLib:DrvCfg.obj
 0002:0000b908       ??_C@_0BG@GDKGJGL@HiiDb?5?$CB?$DN?5?$CI?$CIvoid?5?$CK?$CJ?50?$CJ@ 00000000000d3908     UefiShellDriver1CommandsLib:DrvCfg.obj
 0002:0000b920       ??_C@_1CO@BBNCKDAD@?$AAE?$AAf?$AAi?$AAH?$AAi?$AAi?$AAD?$AAa?$AAt?$AAa?$AAb?$AAa?$AAs?$AAe?$AAP@ 00000000000d3920     UefiShellDriver1CommandsLib:DrvCfg.obj
 0002:0000b950       ??_C@_1O@HAMLNBEA@?$AAD?$AAe?$AAv?$AAi?$AAc?$AAe@ 00000000000d3950     UefiShellDriver1CommandsLib:DrvCfg.obj
 0002:0000b960       ??_C@_1DO@DAJOAMHC@?$AAH?$AAi?$AAi?$AAD?$AAa?$AAt?$AAa?$AAb?$AAa?$AAs?$AAe?$AA?9?$AA?$DO?$AAU?$AAp@ 00000000000d3960     UefiShellDriver1CommandsLib:DrvCfg.obj
 0002:0000b9a0       ??_C@_1CA@BBCLIDIM@?$AAs?$AAt?$AAo?$AAp?$AA?5?$AAc?$AAo?$AAn?$AAt?$AAr?$AAo?$AAl?$AAl?$AAe?$AAr@ 00000000000d39a0     UefiShellDriver1CommandsLib:DrvCfg.obj
 0002:0000b9c0       ??_C@_1BA@PKILJGND@?$AAs?$AAt?$AAo?$AAp?$AAp?$AAe?$AAd@ 00000000000d39c0     UefiShellDriver1CommandsLib:DrvCfg.obj
 0002:0000b9d0       ??_C@_1BG@OACNEEF@?$AAc?$AAo?$AAn?$AAt?$AAr?$AAo?$AAl?$AAl?$AAe?$AAr@ 00000000000d39d0     UefiShellDriver1CommandsLib:DrvCfg.obj
 0002:0000b9e8       ??_C@_1CG@MCGKPHJM@?$AAr?$AAe?$AAs?$AAt?$AAa?$AAr?$AAt?$AA?5?$AAc?$AAo?$AAn?$AAt?$AAr?$AAo?$AAl@ 00000000000d39e8     UefiShellDriver1CommandsLib:DrvCfg.obj
 0002:0000ba10       ??_C@_1BE@HGFGMPNB@?$AAr?$AAe?$AAs?$AAt?$AAa?$AAr?$AAt?$AAe?$AAd@ 00000000000d3a10     UefiShellDriver1CommandsLib:DrvCfg.obj
 0002:0000ba28       ??_C@_1BC@KDOFGLFF@?$AAp?$AAl?$AAa?$AAt?$AAf?$AAo?$AAr?$AAm@ 00000000000d3a28     UefiShellDriver1CommandsLib:DrvCfg.obj
 0002:0000ba40       ??_C@_1CC@PCBPHGE@?$AAr?$AAe?$AAs?$AAt?$AAa?$AAr?$AAt?$AA?5?$AAp?$AAl?$AAa?$AAt?$AAf?$AAo?$AAr@ 00000000000d3a40     UefiShellDriver1CommandsLib:DrvCfg.obj
 0002:0000ba68       ??_C@_0BI@NIPGFGFF@DriverImageHandleBuffer@ 00000000000d3a68     UefiShellDriver1CommandsLib:DrvCfg.obj
 0002:0000ba80       ??_C@_15JGEKKPOB@?$AA?9?$AAo@ 00000000000d3a80     UefiShellDriver1CommandsLib:DrvCfg.obj
 0002:0000bb50       ??_C@_0FE@EANAJCCB@D?3?2develop?2Self_develop?2edk2?2Sh@ 00000000000d3b50     UefiShellDriver1CommandsLib:DevTree.obj
 0002:0000bba8       ??_C@_0BK@IFBJPJNB@HiiString?5?$CB?$DN?5?$CI?$CIvoid?5?$CK?$CJ?50?$CJ@ 00000000000d3ba8     UefiShellDriver1CommandsLib:DevTree.obj
 0002:0000bbc8       ??_C@_1BC@OEEOMJPG@?$AA?$CF?$AA?$CF?$AA?$CF?$AAd?$AAs?$AA?5?$AA?$CF?$AAs@ 00000000000d3bc8     UefiShellDriver1CommandsLib:DevTree.obj
 0002:0000bbe0       ??_C@_1BA@LEPJIIOK@?$AAU?$AAn?$AAk?$AAn?$AAo?$AAw?$AAn@ 00000000000d3be0     UefiShellDriver1CommandsLib:DevTree.obj
 0002:0000bbf0       ??_C@_0BJ@IPMIFDC@Language?5?$DN?$DN?5?$CI?$CIvoid?5?$CK?$CJ?50?$CJ@ 00000000000d3bf0     UefiShellDriver1CommandsLib:DevTree.obj
 0002:0000bc40       ??_C@_0FE@MMKJMHFJ@D?3?2develop?2Self_develop?2edk2?2Sh@ 00000000000d3c40     UefiShellDriver1CommandsLib:Drivers.obj
 0002:0000bcc8       ??_C@_15JODAOICI@?$AA?9?$AAp@ 00000000000d3cc8     UefiShellDriver1CommandsLib:Dh.obj
 0002:0000bcd0       ??_C@_0EC@KKFLCAGI@?$CIRetVal?5?$DN?$DN?5?$CI?$CIvoid?5?$CK?$CJ?50?$CJ?5?$CG?$CG?5Size@ 00000000000d3cd0     UefiShellDriver1CommandsLib:Dh.obj
 0002:0000bd20       ??_C@_0EP@KKLDOPLI@D?3?2develop?2Self_develop?2edk2?2Sh@ 00000000000d3d20     UefiShellDriver1CommandsLib:Dh.obj
 0002:0000bd70       ??_C@_17LJIPLNCC@?$AA?$CI?$AA?$CF?$AAH@ 00000000000d3d70     UefiShellDriver1CommandsLib:Dh.obj
 0002:0000bd78       ??_C@_15HCGDGKEF@?$AA?$CF?$AAp@ 00000000000d3d78     UefiShellDriver1CommandsLib:Dh.obj
 0002:0000bd80       ??_C@_17MDCDMHAM@?$AA?$CF?$AAN?$AA?$CJ@ 00000000000d3d80     UefiShellDriver1CommandsLib:Dh.obj
 0002:0000bd88       ??_C@_1BE@BGMELJBK@?$AA?$DM?$AAU?$AAn?$AAk?$AAn?$AAo?$AAw?$AAn?$AA?$DO@ 00000000000d3d88     UefiShellDriver1CommandsLib:Dh.obj
 0002:0000bda0       ??_C@_17FGJJPDOI@?$AAY?$AAE?$AAS@ 00000000000d3da0     UefiShellDriver1CommandsLib:Dh.obj
 0002:0000bda8       ??_C@_15LIBIHNCL@?$AAN?$AAO@ 00000000000d3da8     UefiShellDriver1CommandsLib:Dh.obj
 0002:0000bdb0       ??_C@_19OLEIDBPB@?$AAR?$AAO?$AAO?$AAT@ 00000000000d3db0     UefiShellDriver1CommandsLib:Dh.obj
 0002:0000bdc0       ??_C@_17HEJONMAO@?$AAB?$AAU?$AAS@ 00000000000d3dc0     UefiShellDriver1CommandsLib:Dh.obj
 0002:0000bdc8       ??_C@_1O@HJEPMBDG@?$AAD?$AAE?$AAV?$AAI?$AAC?$AAE@ 00000000000d3dc8     UefiShellDriver1CommandsLib:Dh.obj
 0002:0000bdd8       ??_C@_1O@NLHFMLEA@?$AA?$DM?$AAN?$AAo?$AAn?$AAe?$AA?$DO@ 00000000000d3dd8     UefiShellDriver1CommandsLib:Dh.obj
 0002:0000bde8       ??_C@_17NDAAHGAG@?$AAB?$AAu?$AAs@ 00000000000d3de8     UefiShellDriver1CommandsLib:Dh.obj
 0002:0000bdf0       ??_C@_1BA@OBHGHNNB@?$AAD?$AAe?$AAv?$AAP?$AAa?$AAt?$AAh@ 00000000000d3df0     UefiShellDriver1CommandsLib:Dh.obj
 0002:0000be00       ??_C@_1BO@JHBAADC@?$AAC?$AAo?$AAn?$AAt?$AAr?$AAo?$AAl?$AAl?$AAe?$AAr?$AAN?$AAa?$AAm?$AAe@ 00000000000d3e00     UefiShellDriver1CommandsLib:Dh.obj
 0002:0000be20       ??_C@_1BG@LDKFKLIA@?$AAD?$AAr?$AAi?$AAv?$AAe?$AAr?$AAN?$AAa?$AAm?$AAe@ 00000000000d3e20     UefiShellDriver1CommandsLib:Dh.obj
 0002:0000be38       ??_C@_1BI@PIGGPLMC@?$AAH?$AAa?$AAn?$AAd?$AAl?$AAe?$AAs?$AAI?$AAn?$AAf?$AAo@ 00000000000d3e38     UefiShellDriver1CommandsLib:Dh.obj
 0002:0000be50       ??_C@_1BG@HBNBALLH@?$AAH?$AAa?$AAn?$AAd?$AAl?$AAe?$AAI?$AAn?$AAf?$AAo@ 00000000000d3e50     UefiShellDriver1CommandsLib:Dh.obj
 0002:0000be68       ??_C@_05DEHGPOPE@en?9us@   00000000000d3e68     UefiShellDriver1CommandsLib:Dh.obj
 0002:0000be70       ??_C@_1O@KHECNKAL@?$AAd?$AAe?$AAc?$AAo?$AAd?$AAe@ 00000000000d3e70     UefiShellDriver1CommandsLib:Dh.obj
 0002:0000bef0       ??_C@_1EE@NHOEDGHC@?$AAg?$AAE?$AAf?$AAi?$AAD?$AAr?$AAi?$AAv?$AAe?$AAr?$AAD?$AAi?$AAa?$AAg?$AAn@ 00000000000d3ef0     UefiShellDriver1CommandsLib:DrvDiag.obj
 0002:0000bf40       ??_C@_1EG@EPGLAAKO@?$AAg?$AAE?$AAf?$AAi?$AAD?$AAr?$AAi?$AAv?$AAe?$AAr?$AAD?$AAi?$AAa?$AAg?$AAn@ 00000000000d3f40     UefiShellDriver1CommandsLib:DrvDiag.obj
 0002:0000bf88       ??_C@_0CA@MFIJNLGK@ChildHandleList?5?$DN?$DN?5?$CI?$CIvoid?5?$CK?$CJ?50?$CJ@ 00000000000d3f88     UefiShellDriver1CommandsLib:DrvDiag.obj
 0002:0000bfb0       ??_C@_0FE@NJDHLNEE@D?3?2develop?2Self_develop?2edk2?2Sh@ 00000000000d3fb0     UefiShellDriver1CommandsLib:DrvDiag.obj
 0002:0000c008       ??_C@_1BA@BENBFCCE@?$AAD?$AAr?$AAv?$AAD?$AAi?$AAa?$AAg@ 00000000000d4008     UefiShellDriver1CommandsLib:DrvDiag.obj
 0002:0000c018       ??_C@_15PJPHEPIF@?$AA?9?$AAe@ 00000000000d4018     UefiShellDriver1CommandsLib:DrvDiag.obj
 0002:0000c020       ??_C@_15DMEDGHGK@?$AA?9?$AAm@ 00000000000d4020     UefiShellDriver1CommandsLib:DrvDiag.obj
 0002:0000c090       ??_C@_0FD@DGAENANM@D?3?2develop?2Self_develop?2edk2?2Sh@ 00000000000d4090     UefiShellDriver1CommandsLib:Unload.obj
 0002:0000c0e8       ??_C@_1O@PJHDHGJM@?$AAU?$AAn?$AAl?$AAo?$AAa?$AAd@ 00000000000d40e8     UefiShellDriver1CommandsLib:Unload.obj
 0002:0000c140       ??_C@_0FG@CEOFCLCK@D?3?2develop?2Self_develop?2edk2?2Sh@ 00000000000d4140     UefiShellDriver1CommandsLib:Reconnect.obj
 0002:0000c1c0       ??_C@_0FH@PNHKBNDJ@D?3?2develop?2Self_develop?2edk2?2Sh@ 00000000000d41c0     UefiShellDriver1CommandsLib:Disconnect.obj
 0002:0000c218       ??_C@_0BH@BKMFDLMK@Param2?5?$CB?$DN?5?$CI?$CIvoid?5?$CK?$CJ?50?$CJ@ 00000000000d4218     UefiShellDriver1CommandsLib:Disconnect.obj
 0002:0000c230       ??_C@_1BM@PPEFOEMK@?$AAd?$AAr?$AAi?$AAv?$AAe?$AAr?$AA?5?$AAh?$AAa?$AAn?$AAd?$AAl?$AAe@ 00000000000d4230     UefiShellDriver1CommandsLib:Disconnect.obj
 0002:0000c250       ??_C@_0BH@PAEDOGKI@Param1?5?$CB?$DN?5?$CI?$CIvoid?5?$CK?$CJ?50?$CJ@ 00000000000d4250     UefiShellDriver1CommandsLib:Disconnect.obj
 0002:0000c268       ??_C@_1BG@DNEMHIE@?$AAD?$AAi?$AAs?$AAc?$AAo?$AAn?$AAn?$AAe?$AAc?$AAt@ 00000000000d4268     UefiShellDriver1CommandsLib:Disconnect.obj
 0002:0000c2b0       ??_C@_0FF@LNPGFODB@D?3?2develop?2Self_develop?2edk2?2Sh@ 00000000000d42b0     UefiShellDriver1CommandsLib:OpenInfo.obj
 0002:0000c308       ??_C@_1BC@CAGGCOJA@?$AA?$CF?$AAH?$AA?$CF?$AAs?$AA?$CF?$AAN?$AA?$AN?$AA?6@ 00000000000d4308     UefiShellDriver1CommandsLib:OpenInfo.obj
 0002:0000c3e0       ??_C@_0FE@DEJMIPMO@D?3?2develop?2Self_develop?2edk2?2Sh@ 00000000000d43e0     UefiShellDriver1CommandsLib:Devices.obj
 0002:0000c438       ??_C@_0BL@LNNGAGCN@HandleList?5?$CB?$DN?5?$CI?$CIvoid?5?$CK?$CJ?50?$CJ@ 00000000000d4438     UefiShellDriver1CommandsLib:Devices.obj
 0002:0000c458       ??_C@_1BE@GFCJAFPH@?$AA?$DM?$AAU?$AAN?$AAK?$AAN?$AAO?$AAW?$AAN?$AA?$DO@ 00000000000d4458     UefiShellDriver1CommandsLib:Devices.obj
 0002:0000c4a0       ??_C@_1BA@DCMAKCEI@?$AAC?$AAo?$AAn?$AAn?$AAe?$AAc?$AAt@ 00000000000d44a0     UefiShellDriver1CommandsLib:Connect.obj
 0002:0000c4b0       ??_C@_0BM@LCJPJJII@HandleArray?5?$CB?$DN?5?$CI?$CIvoid?5?$CK?$CJ?50?$CJ@ 00000000000d44b0     UefiShellDriver1CommandsLib:Connect.obj
 0002:0000c4d0       ??_C@_0FE@ONFJCEDN@D?3?2develop?2Self_develop?2edk2?2Sh@ 00000000000d44d0     UefiShellDriver1CommandsLib:Connect.obj
 0002:0000c528       ??_C@_0BG@EJHBPGMG@HandleArrayCount?5?$CB?$DN?50@ 00000000000d4528     UefiShellDriver1CommandsLib:Connect.obj
 0002:0000c540       ??_C@_0BJ@DCFLLLOA@Instance?5?$CB?$DN?5?$CI?$CIvoid?5?$CK?$CJ?50?$CJ@ 00000000000d4540     UefiShellDriver1CommandsLib:Connect.obj
 0002:0000c560       ??_C@_0CE@LHCGKMOF@AtLeastOneConnected?5?$CB?$DN?5?$CI?$CIvoid?5?$CK@ 00000000000d4560     UefiShellDriver1CommandsLib:Connect.obj
 0002:0000c5c0       ??_C@_0FI@FPOMGJNG@D?3?2develop?2Self_develop?2edk2?2Sh@ 00000000000d45c0     UefiShellDebug1CommandsLib:Misc.obj
 0002:0000c618       ??_C@_1CG@PKEPGPJG@?$AAR?$AAe?$AAa?$AAd?$AA?5?$AAM?$AAe?$AAm?$AAo?$AAr?$AAy?$AA?5?$AAF?$AAa?$AAi@ 00000000000d4618     UefiShellDebug1CommandsLib:MemImage.obj
 0002:0000c640       ??_C@_1EA@GENECJI@?$AAM?$AAe?$AAm?$AAo?$AAr?$AAy?$AA?5?$AAS?$AAp?$AAe?$AAc?$AAi?$AAf?$AAi?$AAe@ 00000000000d4640     UefiShellDebug1CommandsLib:MemImage.obj
 0002:0000c680       ??_C@_1BM@EIMMJFOI@?$AA?$CF?$AAd?$AA?5?$AAL?$AAi?$AAn?$AAe?$AAs?$AA?5?$AAR?$AAe?$AAa?$AAd@ 00000000000d4680     UefiShellDebug1CommandsLib:MemImage.obj
 0002:0000c6a0       ??_C@_0FM@DIGMNAJB@D?3?2develop?2Self_develop?2edk2?2Sh@ 00000000000d46a0     UefiShellDebug1CommandsLib:MemImage.obj
 0002:0000c700       ??_C@_1O@GIECLFAB@?$AA?$CF?$AAE?$AA?$CF?$AAs?$AA?$CF?$AAN@ 00000000000d4700     UefiShellDebug1CommandsLib:MainHexEditor.obj
 0002:0000c710       ??_C@_0GB@IPGLAMEG@D?3?2develop?2Self_develop?2edk2?2Sh@ 00000000000d4710     UefiShellDebug1CommandsLib:MainHexEditor.obj
 0002:0000c778       ??_C@_1BO@CAEDEPBC@?$AAG?$AAo?$AA?5?$AAT?$AAo?$AA?5?$AAO?$AAf?$AAf?$AAs?$AAe?$AAt?$AA?3?$AA?5@ 00000000000d4778     UefiShellDebug1CommandsLib:MainHexEditor.obj
 0002:0000c798       ??_C@_1BO@COIEEELA@?$AAI?$AAn?$AAv?$AAa?$AAl?$AAi?$AAd?$AA?5?$AAO?$AAf?$AAf?$AAs?$AAe?$AAt@ 00000000000d4798     UefiShellDebug1CommandsLib:MainHexEditor.obj
 0002:0000c7c0       ??_C@_1HG@FPDDGJIB@?$AAD?$AAa?$AAn?$AAg?$AAe?$AAr?$AAo?$AAu?$AAs?$AA?5?$AAt?$AAo?$AA?5?$AAs?$AAa@ 00000000000d47c0     UefiShellDebug1CommandsLib:MainHexEditor.obj
 0002:0000c838       ??_C@_1DK@LMKJFHLE@?$AAB?$AAu?$AAf?$AAf?$AAe?$AAr?$AAS?$AAa?$AAv?$AAe?$AA?3?$AA?5?$AAP?$AAr?$AAo@ 00000000000d4838     UefiShellDebug1CommandsLib:MainHexEditor.obj
 0002:0000c878       ??_C@_1CG@NJHNCLOJ@?$AAF?$AAi?$AAl?$AAe?$AA?5?$AAt?$AAo?$AA?5?$AAS?$AAa?$AAv?$AAe?$AA?3?$AA?5?$AA?$FL@ 00000000000d4878     UefiShellDebug1CommandsLib:MainHexEditor.obj
 0002:0000c8a0       ??_C@_1CE@PAJDEKJB@?$AAI?$AAn?$AAv?$AAa?$AAl?$AAi?$AAd?$AA?5?$AAF?$AAi?$AAl?$AAe?$AA?5?$AAN?$AAa@ 00000000000d48a0     UefiShellDebug1CommandsLib:MainHexEditor.obj
 0002:0000c8c8       ??_C@_1BM@HDPINFLL@?$AAA?$AAc?$AAc?$AAe?$AAs?$AAs?$AA?5?$AAD?$AAe?$AAn?$AAi?$AAe?$AAd@ 00000000000d48c8     UefiShellDebug1CommandsLib:MainHexEditor.obj
 0002:0000c8f0       ??_C@_1FE@GJKODLCN@?$AAF?$AAi?$AAl?$AAe?$AA?5?$AAe?$AAx?$AAi?$AAs?$AAt?$AAs?$AA?4?$AA?5?$AAO?$AAv@ 00000000000d48f0     UefiShellDebug1CommandsLib:MainHexEditor.obj
 0002:0000c948       ??_C@_1CI@CKMNKNGO@?$AAI?$AAn?$AAv?$AAa?$AAl?$AAi?$AAd?$AA?5?$AAB?$AAl?$AAo?$AAc?$AAk?$AA?5?$AAS@ 00000000000d4948     UefiShellDebug1CommandsLib:MainHexEditor.obj
 0002:0000c970       ??_C@_1CE@EGEFGBDB@?$AAI?$AAn?$AAv?$AAa?$AAl?$AAi?$AAd?$AA?5?$AAB?$AAl?$AAo?$AAc?$AAk?$AA?5?$AAE@ 00000000000d4970     UefiShellDebug1CommandsLib:MainHexEditor.obj
 0002:0000c998       ??_C@_1CK@NPEDAFHE@?$AAN?$AAo?$AA?5?$AAB?$AAl?$AAo?$AAc?$AAk?$AA?5?$AAi?$AAs?$AA?5?$AAS?$AAe?$AAl@ 00000000000d4998     UefiShellDebug1CommandsLib:MainHexEditor.obj
 0002:0000c9c8       ??_C@_1CC@EMEHDNOH@?$AAN?$AAo?$AAt?$AAh?$AAi?$AAn?$AAg?$AA?5?$AAt?$AAo?$AA?5?$AAP?$AAa?$AAs?$AAt@ 00000000000d49c8     UefiShellDebug1CommandsLib:MainHexEditor.obj
 0002:0000c9f0       ??_C@_1FC@OIPNEKNP@?$AAB?$AAu?$AAf?$AAf?$AAe?$AAr?$AA?5?$AAm?$AAo?$AAd?$AAi?$AAf?$AAi?$AAe?$AAd@ 00000000000d49f0     UefiShellDebug1CommandsLib:MainHexEditor.obj
 0002:0000ca48       ??_C@_1CI@PPPODMPB@?$AAF?$AAi?$AAl?$AAe?$AA?5?$AAN?$AAa?$AAm?$AAe?$AA?5?$AAt?$AAo?$AA?5?$AAO?$AAp@ 00000000000d4a48     UefiShellDebug1CommandsLib:MainHexEditor.obj
 0002:0000ca70       ??_C@_1CO@DPNHKEEI@?$AAB?$AAl?$AAo?$AAc?$AAk?$AA?5?$AAD?$AAe?$AAv?$AAi?$AAc?$AAe?$AA?5?$AAt?$AAo@ 00000000000d4a70     UefiShellDebug1CommandsLib:MainHexEditor.obj
 0002:0000caa0       ??_C@_1CE@LPNEOONB@?$AAF?$AAi?$AAr?$AAs?$AAt?$AA?5?$AAB?$AAl?$AAo?$AAc?$AAk?$AA?5?$AAN?$AAo?$AA?4@ 00000000000d4aa0     UefiShellDebug1CommandsLib:MainHexEditor.obj
 0002:0000cac8       ??_C@_1CG@DGHIFMFN@?$AAN?$AAu?$AAm?$AAb?$AAe?$AAr?$AA?5?$AAo?$AAf?$AA?5?$AAB?$AAl?$AAo?$AAc?$AAk@ 00000000000d4ac8     UefiShellDebug1CommandsLib:MainHexEditor.obj
 0002:0000caf0       ??_C@_1CE@CFGOJKIA@?$AAS?$AAt?$AAa?$AAr?$AAt?$AAi?$AAn?$AAg?$AA?5?$AAO?$AAf?$AAf?$AAs?$AAe?$AAt@ 00000000000d4af0     UefiShellDebug1CommandsLib:MainHexEditor.obj
 0002:0000cb18       ??_C@_1BM@CIHHBIME@?$AAB?$AAu?$AAf?$AAf?$AAe?$AAr?$AA?5?$AAS?$AAi?$AAz?$AAe?$AA?3?$AA?5@ 00000000000d4b18     UefiShellDebug1CommandsLib:MainHexEditor.obj
 0002:0000cb38       ??_C@_1CE@EKGFFJHF@?$AAI?$AAn?$AAv?$AAa?$AAl?$AAi?$AAd?$AA?5?$AAp?$AAa?$AAr?$AAa?$AAm?$AAe?$AAt@ 00000000000d4b38     UefiShellDebug1CommandsLib:MainHexEditor.obj
 0002:0000cb60       ??_C@_1CG@CCBIICDO@?$AAR?$AAe?$AAa?$AAd?$AA?5?$AAD?$AAe?$AAv?$AAi?$AAc?$AAe?$AA?5?$AAE?$AAr?$AAr@ 00000000000d4b60     UefiShellDebug1CommandsLib:MainHexEditor.obj
 0002:0000cb88       ??_C@_1BK@OCMNPPO@?$AAU?$AAE?$AAF?$AAI?$AA?5?$AAH?$AAE?$AAX?$AAE?$AAD?$AAI?$AAT@ 00000000000d4b88     UefiShellDebug1CommandsLib:MainHexEditor.obj
 0002:0000cba8       ??_C@_1DA@GGLHBKOP@?$AAI?$AAn?$AAv?$AAa?$AAl?$AAi?$AAd?$AA?5?$AAM?$AAo?$AAu?$AAs?$AAe?$AA?5?$AAM@ 00000000000d4ba8     UefiShellDebug1CommandsLib:MainHexEditor.obj
 0002:0000cbd8       ??_C@_1CA@DIEHGKLA@?$AAU?$AAn?$AAk?$AAn?$AAo?$AAw?$AAn?$AA?5?$AAC?$AAo?$AAm?$AAm?$AAa?$AAn?$AAd@ 00000000000d4bd8     UefiShellDebug1CommandsLib:MainHexEditor.obj
 0002:0000cbf8       ??_C@_1CM@BMOMFGJM@?$AAD?$AAi?$AAs?$AAk?$AA?5?$AAE?$AAr?$AAr?$AAo?$AAr?$AA?4?$AA?5?$AAT?$AAr?$AAy@ 00000000000d4bf8     UefiShellDebug1CommandsLib:MainHexEditor.obj
 0002:0000cc30       ??_C@_1FK@DGMBPBDL@?$AAD?$AAi?$AAs?$AAk?$AA?1?$AAM?$AAe?$AAm?$AA?5?$AAB?$AAu?$AAf?$AAf?$AAe?$AAr@ 00000000000d4c30     UefiShellDebug1CommandsLib:MainHexEditor.obj
 0002:0000cc90       HexEditorMenuItems         00000000000d4c90     UefiShellDebug1CommandsLib:MainHexEditor.obj
 0002:0000cd40       ??_C@_0FL@BJLAEKCO@D?3?2develop?2Self_develop?2edk2?2Sh@ 00000000000d4d40     UefiShellDebug1CommandsLib:HexEdit.obj
 0002:0000cda0       ??_C@_1BA@NLOHLIAA@?$AAh?$AAe?$AAx?$AAe?$AAd?$AAi?$AAt@ 00000000000d4da0     UefiShellDebug1CommandsLib:HexEdit.obj
 0002:0000cdb0       ??_C@_17PMBBFJPC@?$AAb?$AAi?$AAn@ 00000000000d4db0     UefiShellDebug1CommandsLib:HexEdit.obj
 0002:0000ce00       ??_C@_1DE@HNKDFIPF@?$AAR?$AAe?$AAa?$AAd?$AA?5?$AAe?$AAr?$AAr?$AAo?$AAr?$AA?5?$AAo?$AAn?$AA?5?$AAf@ 00000000000d4e00     UefiShellDebug1CommandsLib:FileImage.obj
 0002:0000ce38       ??_C@_1CI@LDONJDG@?$AAE?$AAr?$AAr?$AAo?$AAr?$AA?5?$AAp?$AAa?$AAr?$AAs?$AAi?$AAn?$AAg?$AA?5?$AAf@ 00000000000d4e38     UefiShellDebug1CommandsLib:FileImage.obj
 0002:0000ce60       ??_C@_0FN@BLDNKMCM@D?3?2develop?2Self_develop?2edk2?2Sh@ 00000000000d4e60     UefiShellDebug1CommandsLib:FileImage.obj
 0002:0000cec0       ??_C@_1EA@KMGLANCH@?$AAR?$AAe?$AAa?$AAd?$AA?5?$AAO?$AAn?$AAl?$AAy?$AA?5?$AAF?$AAi?$AAl?$AAe?$AA?5@ 00000000000d4ec0     UefiShellDebug1CommandsLib:FileImage.obj
 0002:0000cf00       ??_C@_1DG@JNGOCPNM@?$AAD?$AAi?$AAr?$AAe?$AAc?$AAt?$AAo?$AAr?$AAy?$AA?5?$AAC?$AAa?$AAn?$AA?5?$AAN@ 00000000000d4f00     UefiShellDebug1CommandsLib:FileImage.obj
 0002:0000cf38       ??_C@_1CE@ICGBOPPJ@?$AAW?$AAr?$AAi?$AAt?$AAe?$AA?5?$AAF?$AAi?$AAl?$AAe?$AA?5?$AAF?$AAa?$AAi?$AAl@ 00000000000d4f38     UefiShellDebug1CommandsLib:FileImage.obj
 0002:0000cf60       ??_C@_1CG@LGANFAB@?$AAC?$AAr?$AAe?$AAa?$AAt?$AAe?$AA?5?$AAF?$AAi?$AAl?$AAe?$AA?5?$AAF?$AAa?$AAi@ 00000000000d4f60     UefiShellDebug1CommandsLib:FileImage.obj
 0002:0000cf88       ??_C@_1CC@FCLNIBFG@?$AA?$CF?$AAd?$AA?5?$AAL?$AAi?$AAn?$AAe?$AAs?$AA?5?$AAW?$AAr?$AAi?$AAt?$AAt?$AAe@ 00000000000d4f88     UefiShellDebug1CommandsLib:FileImage.obj
 0002:0000cfb0       ??_C@_1CG@GGCANCNJ@?$AAC?$AAa?$AAn?$AAn?$AAo?$AAt?$AA?5?$AAF?$AAi?$AAn?$AAd?$AA?5?$AAD?$AAe?$AAv@ 00000000000d4fb0     UefiShellDebug1CommandsLib:DiskImage.obj
 0002:0000cfd8       ??_C@_1CC@BOLHEDEM@?$AAR?$AAe?$AAa?$AAd?$AA?5?$AAD?$AAi?$AAs?$AAk?$AA?5?$AAF?$AAa?$AAi?$AAl?$AAe@ 00000000000d4fd8     UefiShellDebug1CommandsLib:DiskImage.obj
 0002:0000d000       ??_C@_1CM@FECOOMNI@?$AAI?$AAn?$AAv?$AAa?$AAl?$AAi?$AAd?$AA?5?$AAO?$AAf?$AAf?$AAs?$AAe?$AAt?$AA?5@ 00000000000d5000     UefiShellDebug1CommandsLib:DiskImage.obj
 0002:0000d030       ??_C@_0FN@OJGBDDEE@D?3?2develop?2Self_develop?2edk2?2Sh@ 00000000000d5030     UefiShellDebug1CommandsLib:DiskImage.obj
 0002:0000d090       ??_C@_19KDMGDCHB@?$AA?$CF?$AA8?$AAX?$AA?5@ 00000000000d5090     UefiShellDebug1CommandsLib:BufferImage.obj
 0002:0000d0a0       ??_C@_17GMAIGMDG@?$AA?$CF?$AAx?$AA?5@ 00000000000d50a0     UefiShellDebug1CommandsLib:BufferImage.obj
 0002:0000d0a8       ??_C@_19GNCKHPDA@?$AA?$CF?$AAx?$AA?5?$AA?5@ 00000000000d50a8     UefiShellDebug1CommandsLib:BufferImage.obj
 0002:0000d0b8       ??_C@_17MEDFOIMI@?$AA?5?$AA?5?$AA?5@ 00000000000d50b8     UefiShellDebug1CommandsLib:BufferImage.obj
 0002:0000d0c0       ??_C@_0FP@JNHELNCF@D?3?2develop?2Self_develop?2edk2?2Sh@ 00000000000d50c0     UefiShellDebug1CommandsLib:BufferImage.obj
 0002:0000d120       ??_C@_1EO@GOADCGFO@?$AAF?$AAi?$AAl?$AAe?$AA?5?$AAm?$AAo?$AAd?$AAi?$AAf?$AAi?$AAe?$AAd?$AA?4?$AA?5@ 00000000000d5120     UefiShellDebug1CommandsLib:MainTextEditor.obj
 0002:0000d170       ??_C@_1EG@GMIKLNFD@?$AAR?$AAe?$AAa?$AAd?$AA?5?$AAO?$AAn?$AAl?$AAy?$AA?5?$AAF?$AAi?$AAl?$AAe?$AA?5@ 00000000000d5170     UefiShellDebug1CommandsLib:MainTextEditor.obj
 0002:0000d1b8       ??_C@_1CC@MLNBOFNI@?$AAN?$AAo?$AA?5?$AAL?$AAi?$AAn?$AAe?$AA?5?$AAt?$AAo?$AA?5?$AAP?$AAa?$AAs?$AAt@ 00000000000d51b8     UefiShellDebug1CommandsLib:MainTextEditor.obj
 0002:0000d1e0       ??_C@_1CM@DJMHEHIN@?$AAE?$AAn?$AAt?$AAe?$AAr?$AA?5?$AAS?$AAe?$AAa?$AAr?$AAc?$AAh?$AA?5?$AAS?$AAt@ 00000000000d51e0     UefiShellDebug1CommandsLib:MainTextEditor.obj
 0002:0000d210       ??_C@_1CK@IKKEFLKO@?$AAF?$AAi?$AAn?$AAd?$AA?5?$AAN?$AAe?$AAx?$AAt?$AA?5?$AA?$CI?$AAY?$AAe?$AAs?$AA?1@ 00000000000d5210     UefiShellDebug1CommandsLib:MainTextEditor.obj
 0002:0000d240       ??_C@_1DA@GANIGBBH@?$AAS?$AAe?$AAa?$AAr?$AAc?$AAh?$AA?5?$AAS?$AAt?$AAr?$AAi?$AAn?$AAg?$AA?5?$AAN@ 00000000000d5240     UefiShellDebug1CommandsLib:MainTextEditor.obj
 0002:0000d270       ??_C@_1BO@POPBJCFI@?$AAR?$AAe?$AAp?$AAl?$AAa?$AAc?$AAe?$AA?5?$AAW?$AAi?$AAt?$AAh?$AA?3?$AA?5@ 00000000000d5270     UefiShellDebug1CommandsLib:MainTextEditor.obj
 0002:0000d290       ??_C@_1DM@FAGODAPI@?$AAR?$AAe?$AAp?$AAl?$AAa?$AAc?$AAe?$AA?5?$AA?$CI?$AAY?$AAe?$AAs?$AA?1?$AAN?$AAo@ 00000000000d5290     UefiShellDebug1CommandsLib:MainTextEditor.obj
 0002:0000d2d0       ??_C@_1BK@OOJDBGIO@?$AAG?$AAo?$AA?5?$AAT?$AAo?$AA?5?$AAL?$AAi?$AAn?$AAe?$AA?3?$AA?5@ 00000000000d52d0     UefiShellDebug1CommandsLib:MainTextEditor.obj
 0002:0000d2f0       ??_C@_1BK@NIKDLOEH@?$AAN?$AAo?$AA?5?$AAS?$AAu?$AAc?$AAh?$AA?5?$AAL?$AAi?$AAn?$AAe@ 00000000000d52f0     UefiShellDebug1CommandsLib:MainTextEditor.obj
 0002:0000d310       ??_C@_1BI@NDMBEGJD@?$AAO?$AAp?$AAe?$AAn?$AA?5?$AAF?$AAa?$AAi?$AAl?$AAe?$AAd@ 00000000000d5310     UefiShellDebug1CommandsLib:MainTextEditor.obj
 0002:0000d328       ??_C@_1DE@JKIEKFMF@?$AAA?$AAc?$AAc?$AAe?$AAs?$AAs?$AA?5?$AAD?$AAe?$AAn?$AAi?$AAe?$AAd?$AA?5?$AA?9@ 00000000000d5328     UefiShellDebug1CommandsLib:MainTextEditor.obj
 0002:0000d360       ??_C@_1BE@GDKECBCM@?$AAU?$AAE?$AAF?$AAI?$AA?5?$AAE?$AAD?$AAI?$AAT@ 00000000000d5360     UefiShellDebug1CommandsLib:MainTextEditor.obj
 0002:0000d380       ??_C@_0FP@HFGCPELD@D?3?2develop?2Self_develop?2edk2?2Sh@ 00000000000d5380     UefiShellDebug1CommandsLib:MainTextEditor.obj
 0002:0000d3e0       ??_C@_17LBOLAHJL@?$AAt?$AAx?$AAt@ 00000000000d53e0     UefiShellDebug1CommandsLib:FileBuffer.obj
 0002:0000d3f0       ??_C@_0FL@HCMCLKPA@D?3?2develop?2Self_develop?2edk2?2Sh@ 00000000000d53f0     UefiShellDebug1CommandsLib:FileBuffer.obj
 0002:0000d450       ??_C@_0BB@PBKMNOL@0x0000?5?$DN?$DN?50x0000@ 00000000000d5450     UefiShellDebug1CommandsLib:FileBuffer.obj
 0002:0000d464       ??_C@_13NOLLCAOD@?$AA?$AA@ 00000000000d5464     UefiShellDebug1CommandsLib:FileBuffer.obj
 0002:0000d468       ??_C@_1BG@BHAMKCMJ@?$AAD?$AAi?$AAs?$AAk?$AA?5?$AAE?$AAr?$AAr?$AAo?$AAr@ 00000000000d5468     UefiShellDebug1CommandsLib:FileBuffer.obj
 0002:0000d480       ??_C@_1DI@JJCDHCMP@?$AAD?$AAi?$AAr?$AAe?$AAc?$AAt?$AAo?$AAr?$AAy?$AA?5?$AAC?$AAa?$AAn?$AA?5?$AAN@ 00000000000d5480     UefiShellDebug1CommandsLib:FileBuffer.obj
 0002:0000d4c0       ??_C@_1FO@MJPODDGD@?$AAI?$AAn?$AAv?$AAa?$AAl?$AAi?$AAd?$AA?5?$AAF?$AAi?$AAl?$AAe?$AA?5?$AAN?$AAa@ 00000000000d54c0     UefiShellDebug1CommandsLib:FileBuffer.obj
 0002:0000d520       ??_C@_1CC@ECPIEGMO@?$AAR?$AAe?$AAa?$AAd?$AA?5?$AAF?$AAi?$AAl?$AAe?$AA?5?$AAF?$AAa?$AAi?$AAl?$AAe@ 00000000000d5520     UefiShellDebug1CommandsLib:FileBuffer.obj
 0002:0000d548       ??_C@_1CE@MDDOMDFD@?$AAF?$AAi?$AAl?$AAe?$AA?5?$AAF?$AAo?$AAr?$AAm?$AAa?$AAt?$AA?5?$AAW?$AAr?$AAo@ 00000000000d5548     UefiShellDebug1CommandsLib:FileBuffer.obj
 0002:0000d570       ??_C@_1BO@PAMCONJL@?$AAN?$AAo?$AAt?$AAh?$AAi?$AAn?$AAg?$AA?5?$AAt?$AAo?$AA?5?$AAC?$AAu?$AAt@ 00000000000d5570     UefiShellDebug1CommandsLib:FileBuffer.obj
 0002:0000d590       ??_C@_0BI@LLPNPOOB@ReplaceLen?5?$DN?$DN?5SearchLen@ 00000000000d5590     UefiShellDebug1CommandsLib:FileBuffer.obj
 0002:0000d5b0       ??_C@_0FF@IPFCGEIB@D?3?2develop?2Self_develop?2edk2?2Sh@ 00000000000d55b0     UefiShellDebug1CommandsLib:Edit.obj
 0002:0000d608       ??_C@_19LELMJPKF@?$AAe?$AAd?$AAi?$AAt@ 00000000000d5608     UefiShellDebug1CommandsLib:Edit.obj
 0002:0000d618       ??_C@_0BK@PNCMJJKN@TempParam?5?$CB?$DN?5?$CI?$CIvoid?5?$CK?$CJ?50?$CJ@ 00000000000d5618     UefiShellDebug1CommandsLib:Edit.obj
 0002:0000d638       ??_C@_1CA@EIJGJGPK@?$AA?5?$AA?$CF?$AAd?$AA?0?$AA?$CF?$AAd?$AA?5?$AA?5?$AA?5?$AA?5?$AA?5?$AA?5?$AA?5?$AA?$CF?$AAs@ 00000000000d5638     UefiShellDebug1CommandsLib:EditStatusBar.obj
 0002:0000d658       ??_C@_19IELFGNPI@?$AA?5?$AA?5?$AA?$CF?$AAs@ 00000000000d5658     UefiShellDebug1CommandsLib:EditStatusBar.obj
 0002:0000d668       ??_C@_17EAOFDCAA@?$AAI?$AAN?$AAS@ 00000000000d5668     UefiShellDebug1CommandsLib:EditStatusBar.obj
 0002:0000d670       ??_C@_1CI@GJADLICD@?$AA?$HM?$AA?$CF?$AAs?$AA?$HM?$AA?5?$AA?5?$AA?5?$AAH?$AAe?$AAl?$AAp?$AA?3?$AA?5?$AAC?$AAt@ 00000000000d5670     UefiShellDebug1CommandsLib:EditStatusBar.obj
 0002:0000d698       ??_C@_17NBLDNMBE@?$AAO?$AAV?$AAR@ 00000000000d5698     UefiShellDebug1CommandsLib:EditStatusBar.obj
 0002:0000d6a0       ??_C@_1O@HMNHGLNF@?$AAY?$AAe?$AAs?$AA?1?$AAN?$AAo@ 00000000000d56a0     UefiShellDebug1CommandsLib:EditInputBar.obj
 0002:0000d6b0       ??_C@_17GMPJMPF@?$AA?$CF?$AAs?$AA?5@ 00000000000d56b0     UefiShellDebug1CommandsLib:EditInputBar.obj
 0002:0000d6b8       ??_C@_1M@EHCOGDLN@?$AA?$CF?$AAs?$AA?5?$AA?5?$AA?5@ 00000000000d56b8     UefiShellDebug1CommandsLib:EditTitleBar.obj
 0002:0000d6c8       ??_C@_1O@NGMHFILL@?$AA?4?$AA?4?$AA?4?$AA?5?$AA?5?$AA?5@ 00000000000d56c8     UefiShellDebug1CommandsLib:EditTitleBar.obj
 0002:0000d6d8       ??_C@_1CA@JILHKOPA@?$AA?5?$AA?5?$AA?5?$AA?5?$AA?5?$AAA?$AAS?$AAC?$AAI?$AAI?$AA?5?$AA?5?$AA?5?$AA?5?$AA?5@ 00000000000d56d8     UefiShellDebug1CommandsLib:EditTitleBar.obj
 0002:0000d6f8       ??_C@_1CA@DJBIHGGP@?$AA?5?$AA?5?$AA?5?$AA?5?$AA?5?$AAU?$AAN?$AAI?$AAC?$AAO?$AAD?$AAE?$AA?5?$AA?5?$AA?5@ 00000000000d56f8     UefiShellDebug1CommandsLib:EditTitleBar.obj
 0002:0000d718       ??_C@_1BI@ONNEOCHN@?$AAR?$AAe?$AAa?$AAd?$AAO?$AAn?$AAl?$AAy?$AA?5?$AA?5?$AA?5@ 00000000000d5718     UefiShellDebug1CommandsLib:EditTitleBar.obj
 0002:0000d730       ??_C@_1BI@LOBCKCIO@?$AA?5?$AA?5?$AA?5?$AA?5?$AA?5?$AA?5?$AA?5?$AA?5?$AA?5?$AA?5?$AA?5@ 00000000000d5730     UefiShellDebug1CommandsLib:EditTitleBar.obj
 0002:0000d748       ??_C@_1CI@OGNHBGN@?$AAO?$AAf?$AAf?$AAs?$AAe?$AAt?$AA?5?$AA?$CF?$AAX?$AA?5?$AA?$HM?$AA?5?$AAS?$AAi?$AAz@ 00000000000d5748     UefiShellDebug1CommandsLib:EditTitleBar.obj
 0002:0000d770       ??_C@_1BC@LJMDACDF@?$AAM?$AAo?$AAd?$AAi?$AAf?$AAi?$AAe?$AAd@ 00000000000d5770     UefiShellDebug1CommandsLib:EditTitleBar.obj
 0002:0000d788       ??_C@_1O@KKGEAOFF@?$AAD?$AAe?$AAb?$AAu?$AAg?$AA1@ 00000000000d5788     UefiShellDebug1CommandsLib:UefiShellDebug1CommandsLib.obj
 0002:0000d798       ??_C@_1BA@LOEDEEBD@?$AAs?$AAe?$AAt?$AAs?$AAi?$AAz?$AAe@ 00000000000d5798     UefiShellDebug1CommandsLib:UefiShellDebug1CommandsLib.obj
 0002:0000d7a8       ??_C@_19PADLCGPF@?$AAc?$AAo?$AAm?$AAp@ 00000000000d57a8     UefiShellDebug1CommandsLib:UefiShellDebug1CommandsLib.obj
 0002:0000d7b8       ??_C@_19KODKOACD@?$AAm?$AAo?$AAd?$AAe@ 00000000000d57b8     UefiShellDebug1CommandsLib:UefiShellDebug1CommandsLib.obj
 0002:0000d7c8       ??_C@_1O@GCPCCEJL@?$AAm?$AAe?$AAm?$AAm?$AAa?$AAp@ 00000000000d57c8     UefiShellDebug1CommandsLib:UefiShellDebug1CommandsLib.obj
 0002:0000d7d8       ??_C@_1BI@LAIPDGGL@?$AAe?$AAf?$AAi?$AAc?$AAo?$AAm?$AAp?$AAr?$AAe?$AAs?$AAs@ 00000000000d57d8     UefiShellDebug1CommandsLib:UefiShellDebug1CommandsLib.obj
 0002:0000d7f0       ??_C@_1BM@PNCADKIC@?$AAe?$AAf?$AAi?$AAd?$AAe?$AAc?$AAo?$AAm?$AAp?$AAr?$AAe?$AAs?$AAs@ 00000000000d57f0     UefiShellDebug1CommandsLib:UefiShellDebug1CommandsLib.obj
 0002:0000d810       ??_C@_19BOOCDHNO@?$AAd?$AAm?$AAe?$AAm@ 00000000000d5810     UefiShellDebug1CommandsLib:UefiShellDebug1CommandsLib.obj
 0002:0000d820       ??_C@_1BG@FNFDCN@?$AAl?$AAo?$AAa?$AAd?$AAp?$AAc?$AAi?$AAr?$AAo?$AAm@ 00000000000d5820     UefiShellDebug1CommandsLib:UefiShellDebug1CommandsLib.obj
 0002:0000d838       ??_C@_15DDBLGNAG@?$AAm?$AAm@ 00000000000d5838     UefiShellDebug1CommandsLib:UefiShellDebug1CommandsLib.obj
 0002:0000d840       ??_C@_1O@JPLIACKD@?$AAs?$AAe?$AAt?$AAv?$AAa?$AAr@ 00000000000d5840     UefiShellDebug1CommandsLib:UefiShellDebug1CommandsLib.obj
 0002:0000d850       ??_C@_1BA@JHKKDKME@?$AAs?$AAe?$AAr?$AAm?$AAo?$AAd?$AAe@ 00000000000d5850     UefiShellDebug1CommandsLib:UefiShellDebug1CommandsLib.obj
 0002:0000d860       ??_C@_17POMDHEHL@?$AAp?$AAc?$AAi@ 00000000000d5860     UefiShellDebug1CommandsLib:UefiShellDebug1CommandsLib.obj
 0002:0000d868       ??_C@_1BG@JEHOOHI@?$AAs?$AAm?$AAb?$AAi?$AAo?$AAs?$AAv?$AAi?$AAe?$AAw@ 00000000000d5868     UefiShellDebug1CommandsLib:UefiShellDebug1CommandsLib.obj
 0002:0000d880       ??_C@_1BC@EBEMDMHF@?$AAd?$AAm?$AAp?$AAs?$AAt?$AAo?$AAr?$AAe@ 00000000000d5880     UefiShellDebug1CommandsLib:UefiShellDebug1CommandsLib.obj
 0002:0000d898       ??_C@_19MFKGCLGG@?$AAd?$AAb?$AAl?$AAk@ 00000000000d5898     UefiShellDebug1CommandsLib:UefiShellDebug1CommandsLib.obj
 0002:0000d8a8       ??_C@_17EAEGCEML@?$AAm?$AAe?$AAm@ 00000000000d58a8     UefiShellDebug1CommandsLib:UefiShellDebug1CommandsLib.obj
 0002:0000d8b0       ??_C@_0GG@CDMOGFEF@D?3?2develop?2Self_develop?2edk2?2Sh@ 00000000000d58b0     UefiShellDebug1CommandsLib:UefiShellDebug1CommandsLib.obj
 0002:0000d918       ??_C@_1BK@OCGPFNFF@?$AAN?$AAe?$AAw?$AAF?$AAi?$AAl?$AAe?$AA?$CF?$AAd?$AA?4?$AA?$CF?$AAs@ 00000000000d5918     UefiShellDebug1CommandsLib:UefiShellDebug1CommandsLib.obj
 0002:0000d938       ??_C@_0BM@CGBFJHAA@FileNameTmp?5?$CB?$DN?5?$CI?$CIvoid?5?$CK?$CJ?50?$CJ@ 00000000000d5938     UefiShellDebug1CommandsLib:UefiShellDebug1CommandsLib.obj
 0002:0000d958       ??_C@_0CA@NNBOKEGB@CreateFile?5?$DN?$DN?5?$CI?$CIBOOLEAN?$CJ?$CI0?$DN?$DN1?$CJ?$CJ@ 00000000000d5958     UefiShellDebug1CommandsLib:UefiShellDebug1CommandsLib.obj
 0002:0000d998       ??_C@_0BH@HOJGLDNJ@Smbios?5?$CB?$DN?5?$CI?$CIvoid?5?$CK?$CJ?50?$CJ@ 00000000000d5998     UefiShellDebug1CommandsLib:LibSmbiosView.obj
 0002:0000d9b0       ??_C@_0GE@LOFKMKPE@D?3?2develop?2Self_develop?2edk2?2Sh@ 00000000000d59b0     UefiShellDebug1CommandsLib:LibSmbiosView.obj
 0002:0000da20       ??_C@_0GB@NMJLEAHJ@D?3?2develop?2Self_develop?2edk2?2Sh@ 00000000000d5a20     UefiShellDebug1CommandsLib:SmbiosView.obj
 0002:0000da84       ??_C@_04BPEHKPLM@_SM_@     00000000000d5a84     UefiShellDebug1CommandsLib:SmbiosView.obj
 0002:0000da90       ??_C@_1HG@KNFKCNDJ@?$AA?$DN?$AA?$DN?$AA?$DN?$AA?$DN?$AA?$DN?$AA?$DN?$AA?$DN?$AA?$DN?$AA?$DN?$AA?$DN?$AA?$DN?$AA?$DN?$AA?$DN?$AA?$DN?$AA?$DN@ 00000000000d5a90     UefiShellDebug1CommandsLib:SmbiosView.obj
 0002:0000db08       ??_C@_15IABLJNFO@?$AA?6?$AA?6@ 00000000000d5b08     UefiShellDebug1CommandsLib:SmbiosView.obj
 0002:0000db10       ??_C@_1HI@EMMFGAEE@?$AA?6?$AA?$DN?$AA?$DN?$AA?$DN?$AA?$DN?$AA?$DN?$AA?$DN?$AA?$DN?$AA?$DN?$AA?$DN?$AA?$DN?$AA?$DN?$AA?$DN?$AA?$DN?$AA?$DN@ 00000000000d5b10     UefiShellDebug1CommandsLib:SmbiosView.obj
 0002:0000db88       ??_C@_05LOCGMLNH@_SM3_@    00000000000d5b88     UefiShellDebug1CommandsLib:SmbiosView.obj
 0002:0000db90       ??_C@_1HO@HGFGHOFN@?$AA?6?$AA?$DN?$AA?$DN?$AA?$DN?$AA?$DN?$AA?$DN?$AA?$DN?$AA?$DN?$AA?$DN?$AA?$DN?$AA?$DN?$AA?$DN?$AA?$DN?$AA?$DN?$AA?$DN@ 00000000000d5b90     UefiShellDebug1CommandsLib:SmbiosView.obj
 0002:0000dc10       ??_C@_1HM@CMIKLHNP@?$AA?$DN?$AA?$DN?$AA?$DN?$AA?$DN?$AA?$DN?$AA?$DN?$AA?$DN?$AA?$DN?$AA?$DN?$AA?$DN?$AA?$DN?$AA?$DN?$AA?$DN?$AA?$DN?$AA?$DN@ 00000000000d5c10     UefiShellDebug1CommandsLib:SmbiosView.obj
 0002:0000dc90       ??_C@_1BE@GCIKONEG@?$AAS?$AAH?$AAO?$AAW?$AA_?$AAN?$AAO?$AAN?$AAE@ 00000000000d5c90     UefiShellDebug1CommandsLib:SmbiosView.obj
 0002:0000dca8       ??_C@_1BK@GPGPOAOK@?$AAS?$AAH?$AAO?$AAW?$AA_?$AAO?$AAU?$AAT?$AAL?$AAI?$AAN?$AAE@ 00000000000d5ca8     UefiShellDebug1CommandsLib:SmbiosView.obj
 0002:0000dcc8       ??_C@_1BI@IGCEHADI@?$AAS?$AAH?$AAO?$AAW?$AA_?$AAN?$AAO?$AAR?$AAM?$AAA?$AAL@ 00000000000d5cc8     UefiShellDebug1CommandsLib:SmbiosView.obj
 0002:0000dce0       ??_C@_1BI@IMGKFKH@?$AAS?$AAH?$AAO?$AAW?$AA_?$AAD?$AAE?$AAT?$AAA?$AAI?$AAL@ 00000000000d5ce0     UefiShellDebug1CommandsLib:SmbiosView.obj
 0002:0000dcf8       ??_C@_1BC@OAJPGKLN@?$AAS?$AAH?$AAO?$AAW?$AA_?$AAA?$AAL?$AAL@ 00000000000d5cf8     UefiShellDebug1CommandsLib:SmbiosView.obj
 0002:0000dd10       ??_C@_1BO@MEBFNKNC@?$AAU?$AAn?$AAd?$AAe?$AAf?$AAi?$AAn?$AAe?$AAd?$AA?5?$AAt?$AAy?$AAp?$AAe@ 00000000000d5d10     UefiShellDebug1CommandsLib:SmbiosView.obj
 0002:0000dd80       ??_C@_1BE@GKDFJNJK@?$AA?5?$AAR?$AAe?$AAs?$AAe?$AAr?$AAv?$AAe?$AAd@ 00000000000d5d80     UefiShellDebug1CommandsLib:QueryTable.obj
 0002:0000dd98       ??_C@_1O@MEHELOHD@?$AA?5?$AAO?$AAt?$AAh?$AAe?$AAr@ 00000000000d5d98     UefiShellDebug1CommandsLib:QueryTable.obj
 0002:0000dda8       ??_C@_1BC@GCBPLEMC@?$AA?5?$AAU?$AAn?$AAk?$AAn?$AAo?$AAw?$AAn@ 00000000000d5da8     UefiShellDebug1CommandsLib:QueryTable.obj
 0002:0000ddc0       ??_C@_1BG@DBMGKKNC@?$AA?5?$AAA?$AAP?$AAM?$AA?5?$AAT?$AAi?$AAm?$AAe?$AAr@ 00000000000d5dc0     UefiShellDebug1CommandsLib:QueryTable.obj
 0002:0000ddd8       ??_C@_1BI@KDNAJOKG@?$AA?5?$AAM?$AAo?$AAd?$AAe?$AAm?$AA?5?$AAR?$AAi?$AAn?$AAg@ 00000000000d5dd8     UefiShellDebug1CommandsLib:QueryTable.obj
 0002:0000ddf0       ??_C@_1BI@KOEJLOLP@?$AA?5?$AAL?$AAA?$AAN?$AA?5?$AAR?$AAe?$AAm?$AAo?$AAt?$AAe@ 00000000000d5df0     UefiShellDebug1CommandsLib:QueryTable.obj
 0002:0000de08       ??_C@_1BM@DDPHONKP@?$AA?5?$AAP?$AAo?$AAw?$AAe?$AAr?$AA?5?$AAS?$AAw?$AAi?$AAt?$AAc?$AAh@ 00000000000d5e08     UefiShellDebug1CommandsLib:QueryTable.obj
 0002:0000de28       ??_C@_1CG@BNFLMOMD@?$AA?5?$AAA?$AAC?$AA?5?$AAP?$AAo?$AAw?$AAe?$AAr?$AA?5?$AAR?$AAe?$AAs?$AAt?$AAo@ 00000000000d5e28     UefiShellDebug1CommandsLib:QueryTable.obj
 0002:0000de50       ??_C@_1BO@NKAGCGLK@?$AA?5?$AAH?$AAo?$AAs?$AAt?$AAi?$AAn?$AAg?$AA?5?$AAb?$AAo?$AAa?$AAr?$AAd@ 00000000000d5e50     UefiShellDebug1CommandsLib:QueryTable.obj
 0002:0000de70       ??_C@_1HA@PNHHHGEL@?$AA?5?$AAR?$AAe?$AAq?$AAu?$AAi?$AAr?$AAe?$AAs?$AA?5?$AAa?$AAt?$AA?5?$AAl?$AAe@ 00000000000d5e70     UefiShellDebug1CommandsLib:QueryTable.obj
 0002:0000dee0       ??_C@_1BG@DNJINIFJ@?$AA?5?$AAR?$AAe?$AAm?$AAo?$AAv?$AAa?$AAb?$AAl?$AAe@ 00000000000d5ee0     UefiShellDebug1CommandsLib:QueryTable.obj
 0002:0000def8       ??_C@_1BK@GKKDLJDJ@?$AA?5?$AAR?$AAe?$AAp?$AAl?$AAa?$AAc?$AAe?$AAa?$AAb?$AAl?$AAe@ 00000000000d5ef8     UefiShellDebug1CommandsLib:QueryTable.obj
 0002:0000df18       ??_C@_1BO@DAOKEGGB@?$AA?5?$AAH?$AAo?$AAt?$AA?5?$AAs?$AAw?$AAa?$AAp?$AAp?$AAa?$AAb?$AAl?$AAe@ 00000000000d5f18     UefiShellDebug1CommandsLib:QueryTable.obj
 0002:0000df38       ??_C@_1BM@GJJNJBFG@?$AA?5?$AAS?$AAe?$AAr?$AAv?$AAe?$AAr?$AA?5?$AAB?$AAl?$AAa?$AAd?$AAe@ 00000000000d5f38     UefiShellDebug1CommandsLib:QueryTable.obj
 0002:0000df58       ??_C@_1CK@FNJGONFO@?$AA?5?$AAC?$AAo?$AAn?$AAn?$AAe?$AAc?$AAt?$AAi?$AAv?$AAi?$AAt?$AAy?$AA?5?$AAS@ 00000000000d5f58     UefiShellDebug1CommandsLib:QueryTable.obj
 0002:0000df88       ??_C@_1DE@NKMEOENE@?$AA?5?$AAS?$AAy?$AAs?$AAt?$AAe?$AAm?$AA?5?$AAM?$AAa?$AAn?$AAa?$AAg?$AAe?$AAm@ 00000000000d5f88     UefiShellDebug1CommandsLib:QueryTable.obj
 0002:0000dfc0       ??_C@_1CE@LIIEMPHG@?$AA?5?$AAP?$AAr?$AAo?$AAc?$AAe?$AAs?$AAs?$AAo?$AAr?$AA?5?$AAM?$AAo?$AAd?$AAu@ 00000000000d5fc0     UefiShellDebug1CommandsLib:QueryTable.obj
 0002:0000dfe8       ??_C@_1BI@BIJEKCMA@?$AA?5?$AAI?$AA?1?$AAO?$AA?5?$AAM?$AAo?$AAd?$AAu?$AAl?$AAe@ 00000000000d5fe8     UefiShellDebug1CommandsLib:QueryTable.obj
 0002:0000e000       ??_C@_1BO@EDNHMPEI@?$AA?5?$AAM?$AAe?$AAm?$AAo?$AAr?$AAy?$AA?5?$AAM?$AAo?$AAd?$AAu?$AAl?$AAe@ 00000000000d6000     UefiShellDebug1CommandsLib:QueryTable.obj
 0002:0000e020       ??_C@_1CA@EMPCDKKO@?$AA?5?$AAD?$AAa?$AAu?$AAg?$AAh?$AAt?$AAe?$AAr?$AA?5?$AAb?$AAo?$AAa?$AAr?$AAd@ 00000000000d6020     UefiShellDebug1CommandsLib:QueryTable.obj
 0002:0000e040       ??_C@_1BK@GOLJFFNO@?$AA?5?$AAM?$AAo?$AAt?$AAh?$AAe?$AAr?$AAb?$AAo?$AAa?$AAr?$AAd@ 00000000000d6040     UefiShellDebug1CommandsLib:QueryTable.obj
 0002:0000e060       ??_C@_1DC@DBOEEGIB@?$AA?5?$AAP?$AAr?$AAo?$AAc?$AAe?$AAs?$AAs?$AAo?$AAr?$AA?1?$AAM?$AAe?$AAm?$AAo@ 00000000000d6060     UefiShellDebug1CommandsLib:QueryTable.obj
 0002:0000e098       ??_C@_1CK@LNJLFKOO@?$AA?5?$AAP?$AAr?$AAo?$AAc?$AAe?$AAs?$AAs?$AAo?$AAr?$AA?1?$AAI?$AAO?$AA?5?$AAM@ 00000000000d6098     UefiShellDebug1CommandsLib:QueryTable.obj
 0002:0000e0c8       ??_C@_1CI@BDNIGKAE@?$AA?5?$AAI?$AAn?$AAt?$AAe?$AAr?$AAc?$AAo?$AAn?$AAn?$AAe?$AAc?$AAt?$AA?5?$AAB@ 00000000000d60c8     UefiShellDebug1CommandsLib:QueryTable.obj
 0002:0000e0f0       ??_C@_1BA@OOELPHJM@?$AA?5?$AA?5?$AAO?$AAt?$AAh?$AAe?$AAr@ 00000000000d60f0     UefiShellDebug1CommandsLib:QueryTable.obj
 0002:0000e100       ??_C@_1BE@BACNLAAJ@?$AA?5?$AA?5?$AAU?$AAn?$AAk?$AAn?$AAo?$AAw?$AAn@ 00000000000d6100     UefiShellDebug1CommandsLib:QueryTable.obj
 0002:0000e118       ??_C@_1BE@IFPFPJIK@?$AA?5?$AA?5?$AAD?$AAe?$AAs?$AAk?$AAt?$AAo?$AAp@ 00000000000d6118     UefiShellDebug1CommandsLib:QueryTable.obj
 0002:0000e130       ??_C@_1CM@FOJEGAAF@?$AA?5?$AA?5?$AAL?$AAo?$AAw?$AA?5?$AAP?$AAr?$AAo?$AAf?$AAi?$AAl?$AAe?$AA?5?$AAD@ 00000000000d6130     UefiShellDebug1CommandsLib:QueryTable.obj
 0002:0000e160       ??_C@_1BI@DDDHDBNI@?$AA?5?$AA?5?$AAP?$AAi?$AAz?$AAz?$AAa?$AA?5?$AAB?$AAo?$AAx@ 00000000000d6160     UefiShellDebug1CommandsLib:QueryTable.obj
 0002:0000e178       ??_C@_1BK@DJJPJBEJ@?$AA?5?$AA?5?$AAM?$AAi?$AAn?$AAi?$AA?5?$AAT?$AAo?$AAw?$AAe?$AAr@ 00000000000d6178     UefiShellDebug1CommandsLib:QueryTable.obj
 0002:0000e198       ??_C@_1BA@OJBEOHPG@?$AA?5?$AA?5?$AAT?$AAo?$AAw?$AAe?$AAr@ 00000000000d6198     UefiShellDebug1CommandsLib:QueryTable.obj
 0002:0000e1a8       ??_C@_1BG@BFFIIHOJ@?$AA?5?$AA?5?$AAP?$AAo?$AAr?$AAt?$AAa?$AAb?$AAl?$AAe@ 00000000000d61a8     UefiShellDebug1CommandsLib:QueryTable.obj
 0002:0000e1c0       ??_C@_1BC@EGOILCKF@?$AA?5?$AA?5?$AAL?$AAa?$AAp?$AAt?$AAo?$AAp@ 00000000000d61c0     UefiShellDebug1CommandsLib:QueryTable.obj
 0002:0000e1d8       ??_C@_1BG@FLNAIIBC@?$AA?5?$AA?5?$AAN?$AAo?$AAt?$AAe?$AAb?$AAo?$AAo?$AAk@ 00000000000d61d8     UefiShellDebug1CommandsLib:QueryTable.obj
 0002:0000e1f0       ??_C@_1BI@MAFKLHGL@?$AA?5?$AA?5?$AAH?$AAa?$AAn?$AAd?$AA?5?$AAH?$AAe?$AAl?$AAd@ 00000000000d61f0     UefiShellDebug1CommandsLib:QueryTable.obj
 0002:0000e208       ??_C@_1CE@CAKEGNHA@?$AA?5?$AA?5?$AAD?$AAo?$AAc?$AAk?$AAi?$AAn?$AAg?$AA?5?$AAS?$AAt?$AAa?$AAt?$AAi@ 00000000000d6208     UefiShellDebug1CommandsLib:QueryTable.obj
 0002:0000e230       ??_C@_1BK@IOEHDKCF@?$AA?5?$AA?5?$AAA?$AAl?$AAl?$AA?5?$AAi?$AAn?$AA?5?$AAO?$AAn?$AAe@ 00000000000d6230     UefiShellDebug1CommandsLib:QueryTable.obj
 0002:0000e250       ??_C@_1BO@BDBJGHIN@?$AA?5?$AA?5?$AAS?$AAu?$AAb?$AA?5?$AAN?$AAo?$AAt?$AAe?$AAb?$AAo?$AAo?$AAk@ 00000000000d6250     UefiShellDebug1CommandsLib:QueryTable.obj
 0002:0000e270       ??_C@_1BO@FODHBBBJ@?$AA?5?$AA?5?$AAS?$AAp?$AAa?$AAc?$AAe?$AA?9?$AAs?$AAa?$AAv?$AAi?$AAn?$AAg@ 00000000000d6270     UefiShellDebug1CommandsLib:QueryTable.obj
 0002:0000e290       ??_C@_1BI@FFMGAJKA@?$AA?5?$AA?5?$AAL?$AAu?$AAn?$AAc?$AAh?$AA?5?$AAB?$AAo?$AAx@ 00000000000d6290     UefiShellDebug1CommandsLib:QueryTable.obj
 0002:0000e2a8       ??_C@_1CM@FFCFCLID@?$AA?5?$AA?5?$AAM?$AAa?$AAi?$AAn?$AA?5?$AAS?$AAe?$AAr?$AAv?$AAe?$AAr?$AA?5?$AAC@ 00000000000d62a8     UefiShellDebug1CommandsLib:QueryTable.obj
 0002:0000e2d8       ??_C@_1CI@MGPGBCKO@?$AA?5?$AA?5?$AAE?$AAx?$AAp?$AAa?$AAn?$AAs?$AAi?$AAo?$AAn?$AA?5?$AAC?$AAh?$AAa@ 00000000000d62d8     UefiShellDebug1CommandsLib:QueryTable.obj
 0002:0000e300       ??_C@_1BK@BPJDOJEM@?$AA?5?$AA?5?$AAS?$AAu?$AAb?$AAC?$AAh?$AAa?$AAs?$AAs?$AAi?$AAs@ 00000000000d6300     UefiShellDebug1CommandsLib:QueryTable.obj
 0002:0000e320       ??_C@_1DA@KLLLCEHO@?$AA?5?$AA?5?$AAB?$AAu?$AAs?$AA?5?$AAE?$AAx?$AAp?$AAa?$AAn?$AAs?$AAi?$AAo?$AAn@ 00000000000d6320     UefiShellDebug1CommandsLib:QueryTable.obj
 0002:0000e350       ??_C@_1CK@NLFMAGOA@?$AA?5?$AA?5?$AAP?$AAe?$AAr?$AAi?$AAp?$AAh?$AAe?$AAr?$AAa?$AAl?$AA?5?$AAC?$AAh@ 00000000000d6350     UefiShellDebug1CommandsLib:QueryTable.obj
 0002:0000e380       ??_C@_1BO@NEMEGKEI@?$AA?5?$AA?5?$AAR?$AAA?$AAI?$AAD?$AA?5?$AAC?$AAh?$AAa?$AAs?$AAs?$AAi?$AAs@ 00000000000d6380     UefiShellDebug1CommandsLib:QueryTable.obj
 0002:0000e3a0       ??_C@_1CK@JDJBLCID@?$AA?5?$AA?5?$AAR?$AAa?$AAc?$AAk?$AA?5?$AAM?$AAo?$AAu?$AAn?$AAt?$AA?5?$AAC?$AAh@ 00000000000d63a0     UefiShellDebug1CommandsLib:QueryTable.obj
 0002:0000e3d0       ??_C@_1CC@KPCJNEID@?$AA?5?$AA?5?$AAS?$AAe?$AAa?$AAl?$AAe?$AAd?$AA?9?$AAc?$AAa?$AAs?$AAe?$AA?5?$AAP@ 00000000000d63d0     UefiShellDebug1CommandsLib:QueryTable.obj
 0002:0000e3f8       ??_C@_1CO@CJCOGDGK@?$AA?5?$AA?5?$AAM?$AAu?$AAl?$AAt?$AAi?$AA?9?$AAs?$AAy?$AAs?$AAt?$AAe?$AAm?$AA?5@ 00000000000d63f8     UefiShellDebug1CommandsLib:QueryTable.obj
 0002:0000e428       ??_C@_1BK@MBPBNMOJ@?$AA?5?$AA?5?$AAC?$AAo?$AAm?$AAp?$AAa?$AAc?$AAt?$AAP?$AAC?$AAI@ 00000000000d6428     UefiShellDebug1CommandsLib:QueryTable.obj
 0002:0000e448       ??_C@_1BM@MGJOEKKH@?$AA?5?$AA?5?$AAA?$AAd?$AAv?$AAa?$AAn?$AAc?$AAe?$AAd?$AAT?$AAC?$AAA@ 00000000000d6448     UefiShellDebug1CommandsLib:QueryTable.obj
 0002:0000e468       ??_C@_1BA@FNEAJAMG@?$AA?5?$AA?5?$AAB?$AAl?$AAa?$AAd?$AAe@ 00000000000d6468     UefiShellDebug1CommandsLib:QueryTable.obj
 0002:0000e478       ??_C@_1CE@IGONFHMB@?$AA?5?$AA?5?$AAB?$AAl?$AAa?$AAd?$AAe?$AA?5?$AAE?$AAn?$AAc?$AAl?$AAo?$AAs?$AAu@ 00000000000d6478     UefiShellDebug1CommandsLib:QueryTable.obj
 0002:0000e4a0       ??_C@_1BC@LBPPFPIF@?$AA?5?$AA?5?$AAT?$AAa?$AAb?$AAl?$AAe?$AAt@ 00000000000d64a0     UefiShellDebug1CommandsLib:QueryTable.obj
 0002:0000e4b8       ??_C@_1BM@HECDCPPH@?$AA?5?$AA?5?$AAC?$AAo?$AAn?$AAv?$AAe?$AAr?$AAt?$AAi?$AAb?$AAl?$AAe@ 00000000000d64b8     UefiShellDebug1CommandsLib:QueryTable.obj
 0002:0000e4d8       ??_C@_1BK@OHFPHAAH@?$AA?5?$AA?5?$AAD?$AAe?$AAt?$AAa?$AAc?$AAh?$AAa?$AAb?$AAl?$AAe@ 00000000000d64d8     UefiShellDebug1CommandsLib:QueryTable.obj
 0002:0000e4f8       ??_C@_1BM@EKBCHHDK@?$AA?5?$AA?5?$AAI?$AAo?$AAT?$AA?5?$AAG?$AAa?$AAt?$AAe?$AAw?$AAa?$AAy@ 00000000000d64f8     UefiShellDebug1CommandsLib:QueryTable.obj
 0002:0000e518       ??_C@_1BM@DCFPDGHK@?$AA?5?$AA?5?$AAE?$AAm?$AAb?$AAe?$AAd?$AAd?$AAe?$AAd?$AA?5?$AAP?$AAC@ 00000000000d6518     UefiShellDebug1CommandsLib:QueryTable.obj
 0002:0000e538       ??_C@_1BE@CCOHEFFN@?$AA?5?$AA?5?$AAM?$AAi?$AAn?$AAi?$AA?5?$AAP?$AAC@ 00000000000d6538     UefiShellDebug1CommandsLib:QueryTable.obj
 0002:0000e550       ??_C@_1BG@JIFDCODH@?$AA?5?$AA?5?$AAS?$AAt?$AAi?$AAc?$AAk?$AA?5?$AAP?$AAC@ 00000000000d6550     UefiShellDebug1CommandsLib:QueryTable.obj
 0002:0000e568       ??_C@_1M@CMJEHA@?$AA?5?$AAS?$AAa?$AAf?$AAe@ 00000000000d6568     UefiShellDebug1CommandsLib:QueryTable.obj
 0002:0000e578       ??_C@_1BC@LNCEOHGE@?$AA?5?$AAW?$AAa?$AAr?$AAn?$AAi?$AAn?$AAg@ 00000000000d6578     UefiShellDebug1CommandsLib:QueryTable.obj
 0002:0000e590       ??_C@_1BE@CGBCNJEF@?$AA?5?$AAC?$AAr?$AAi?$AAt?$AAi?$AAc?$AAa?$AAl@ 00000000000d6590     UefiShellDebug1CommandsLib:QueryTable.obj
 0002:0000e5a8       ??_C@_1CC@GPPBKKLG@?$AA?5?$AAN?$AAo?$AAn?$AA?9?$AAr?$AAe?$AAc?$AAo?$AAv?$AAe?$AAr?$AAa?$AAb?$AAl@ 00000000000d65a8     UefiShellDebug1CommandsLib:QueryTable.obj
 0002:0000e5d0       ??_C@_1M@CLKFAOHH@?$AA?5?$AAN?$AAo?$AAn?$AAe@ 00000000000d65d0     UefiShellDebug1CommandsLib:QueryTable.obj
 0002:0000e5e0       ??_C@_1DO@PNDEDNIL@?$AA?5?$AAE?$AAx?$AAt?$AAe?$AAr?$AAn?$AAa?$AAl?$AA?5?$AAi?$AAn?$AAt?$AAe?$AAr@ 00000000000d65e0     UefiShellDebug1CommandsLib:QueryTable.obj
 0002:0000e620       ??_C@_1DI@EGCBBEIH@?$AA?5?$AAE?$AAx?$AAt?$AAe?$AAr?$AAn?$AAa?$AAl?$AA?5?$AAi?$AAn?$AAt?$AAe?$AAr@ 00000000000d6620     UefiShellDebug1CommandsLib:QueryTable.obj
 0002:0000e658       ??_C@_1CG@JLPJBJLA@?$AA?5?$AAC?$AAe?$AAn?$AAt?$AAr?$AAa?$AAl?$AA?5?$AAP?$AAr?$AAo?$AAc?$AAe?$AAs@ 00000000000d6658     UefiShellDebug1CommandsLib:QueryTable.obj
 0002:0000e680       ??_C@_1CA@MLGGILEE@?$AA?5?$AAM?$AAa?$AAt?$AAh?$AA?5?$AAP?$AAr?$AAo?$AAc?$AAe?$AAs?$AAs?$AAo?$AAr@ 00000000000d6680     UefiShellDebug1CommandsLib:QueryTable.obj
 0002:0000e6a0       ??_C@_1BO@NBCNBOEN@?$AA?5?$AAD?$AAS?$AAP?$AA?5?$AAP?$AAr?$AAo?$AAc?$AAe?$AAs?$AAs?$AAo?$AAr@ 00000000000d66a0     UefiShellDebug1CommandsLib:QueryTable.obj
 0002:0000e6c0       ??_C@_1CE@BLIEPNBB@?$AA?5?$AAV?$AAi?$AAd?$AAe?$AAo?$AA?5?$AAP?$AAr?$AAo?$AAc?$AAe?$AAs?$AAs?$AAo@ 00000000000d66c0     UefiShellDebug1CommandsLib:QueryTable.obj
 0002:0000e6e8       ??_C@_1M@KDHOHJAD@?$AAO?$AAt?$AAh?$AAe?$AAr@ 00000000000d66e8     UefiShellDebug1CommandsLib:QueryTable.obj
 0002:0000e6f8       ??_C@_1BO@HHHPFHJM@?$AAD?$AAa?$AAu?$AAg?$AAh?$AAt?$AAe?$AAr?$AA?5?$AAB?$AAo?$AAa?$AAr?$AAd@ 00000000000d66f8     UefiShellDebug1CommandsLib:QueryTable.obj
 0002:0000e718       ??_C@_1BG@MHGPIFOA@?$AAZ?$AAI?$AAF?$AA?5?$AAS?$AAo?$AAc?$AAk?$AAe?$AAt@ 00000000000d6718     UefiShellDebug1CommandsLib:QueryTable.obj
 0002:0000e730       ??_C@_1CO@JEMIPAC@?$AAR?$AAe?$AAp?$AAl?$AAa?$AAc?$AAe?$AAa?$AAb?$AAl?$AAe?$AA?5?$AAP?$AAi?$AAg@ 00000000000d6730     UefiShellDebug1CommandsLib:QueryTable.obj
 0002:0000e760       ??_C@_1BG@BMGJJFCB@?$AAL?$AAI?$AAF?$AA?5?$AAS?$AAo?$AAc?$AAk?$AAe?$AAt@ 00000000000d6760     UefiShellDebug1CommandsLib:QueryTable.obj
 0002:0000e778       ??_C@_1O@BPLLBDJC@?$AAS?$AAl?$AAo?$AAt?$AA?5?$AA1@ 00000000000d6778     UefiShellDebug1CommandsLib:QueryTable.obj
 0002:0000e788       ??_C@_1O@NAOLMHM@?$AAS?$AAl?$AAo?$AAt?$AA?5?$AA2@ 00000000000d6788     UefiShellDebug1CommandsLib:QueryTable.obj
 0002:0000e798       ??_C@_1BO@PAECHLFB@?$AA3?$AA7?$AA0?$AA?9?$AAp?$AAi?$AAn?$AA?5?$AAs?$AAo?$AAc?$AAk?$AAe?$AAt@ 00000000000d6798     UefiShellDebug1CommandsLib:QueryTable.obj
 0002:0000e7b8       ??_C@_1O@HEIELDAO@?$AAS?$AAl?$AAo?$AAt?$AA?5?$AAA@ 00000000000d67b8     UefiShellDebug1CommandsLib:QueryTable.obj
 0002:0000e7c8       ??_C@_1O@DOFCAMLG@?$AAS?$AAl?$AAo?$AAt?$AA?5?$AAM@ 00000000000d67c8     UefiShellDebug1CommandsLib:QueryTable.obj
 0002:0000e7d8       ??_C@_1BG@PKJPENJM@?$AAS?$AAo?$AAc?$AAk?$AAe?$AAt?$AA?5?$AA4?$AA2?$AA3@ 00000000000d67d8     UefiShellDebug1CommandsLib:QueryTable.obj
 0002:0000e7f0       ??_C@_1BC@MDELCDNB@?$AAS?$AAo?$AAc?$AAk?$AAe?$AAt?$AA?5?$AAA@ 00000000000d67f0     UefiShellDebug1CommandsLib:QueryTable.obj
 0002:0000e808       ??_C@_1BG@HNFDFLCO@?$AAS?$AAo?$AAc?$AAk?$AAe?$AAt?$AA?5?$AA4?$AA7?$AA8@ 00000000000d6808     UefiShellDebug1CommandsLib:QueryTable.obj
 0002:0000e820       ??_C@_1BG@PEMCECHO@?$AAS?$AAo?$AAc?$AAk?$AAe?$AAt?$AA?5?$AA7?$AA5?$AA4@ 00000000000d6820     UefiShellDebug1CommandsLib:QueryTable.obj
 0002:0000e838       ??_C@_1BG@KFHGBELO@?$AAS?$AAo?$AAc?$AAk?$AAe?$AAt?$AA?5?$AA9?$AA4?$AA0@ 00000000000d6838     UefiShellDebug1CommandsLib:QueryTable.obj
 0002:0000e850       ??_C@_1BG@MFHLGLIM@?$AAS?$AAo?$AAc?$AAk?$AAe?$AAt?$AA?5?$AA9?$AA3?$AA9@ 00000000000d6850     UefiShellDebug1CommandsLib:QueryTable.obj
 0002:0000e868       ??_C@_1BO@KFHDDAOH@?$AAS?$AAo?$AAc?$AAk?$AAe?$AAt?$AA?5?$AAm?$AAP?$AAG?$AAA?$AA6?$AA0?$AA4@ 00000000000d6868     UefiShellDebug1CommandsLib:QueryTable.obj
 0002:0000e888       ??_C@_1BM@NODELBLD@?$AAS?$AAo?$AAc?$AAk?$AAe?$AAt?$AA?5?$AAL?$AAG?$AAA?$AA7?$AA7?$AA1@ 00000000000d6888     UefiShellDebug1CommandsLib:QueryTable.obj
 0002:0000e8a8       ??_C@_1BM@FBFGCGOE@?$AAS?$AAo?$AAc?$AAk?$AAe?$AAt?$AA?5?$AAL?$AAG?$AAA?$AA7?$AA7?$AA5@ 00000000000d68a8     UefiShellDebug1CommandsLib:QueryTable.obj
 0002:0000e8c8       ??_C@_1BE@DMMNHKDD@?$AAS?$AAo?$AAc?$AAk?$AAe?$AAt?$AA?5?$AAS?$AA1@ 00000000000d68c8     UefiShellDebug1CommandsLib:QueryTable.obj
 0002:0000e8e0       ??_C@_1BG@FMOHAKBJ@?$AAS?$AAo?$AAc?$AAk?$AAe?$AAt?$AA?5?$AAA?$AAM?$AA2@ 00000000000d68e0     UefiShellDebug1CommandsLib:QueryTable.obj
 0002:0000e8f8       ??_C@_1BC@FOJMBLGI@?$AAS?$AAo?$AAc?$AAk?$AAe?$AAt?$AA?5?$AAF@ 00000000000d68f8     UefiShellDebug1CommandsLib:QueryTable.obj
 0002:0000e910       ??_C@_1BO@DCJPEJCN@?$AAS?$AAo?$AAc?$AAk?$AAe?$AAt?$AA?5?$AAL?$AAG?$AAA?$AA1?$AA3?$AA6?$AA6@ 00000000000d6910     UefiShellDebug1CommandsLib:QueryTable.obj
 0002:0000e930       ??_C@_1BG@IOMLDAPD@?$AAS?$AAo?$AAc?$AAk?$AAe?$AAt?$AA?5?$AAG?$AA3?$AA4@ 00000000000d6930     UefiShellDebug1CommandsLib:QueryTable.obj
 0002:0000e948       ??_C@_1BG@OEFLGNHM@?$AAS?$AAo?$AAc?$AAk?$AAe?$AAt?$AA?5?$AAA?$AAM?$AA3@ 00000000000d6948     UefiShellDebug1CommandsLib:QueryTable.obj
 0002:0000e960       ??_C@_1BG@CPOKGBNF@?$AAS?$AAo?$AAc?$AAk?$AAe?$AAt?$AA?5?$AAC?$AA3?$AA2@ 00000000000d6960     UefiShellDebug1CommandsLib:QueryTable.obj
 0002:0000e978       ??_C@_1BO@PGCODMPO@?$AAS?$AAo?$AAc?$AAk?$AAe?$AAt?$AA?5?$AAL?$AAG?$AAA?$AA1?$AA1?$AA5?$AA6@ 00000000000d6978     UefiShellDebug1CommandsLib:QueryTable.obj
 0002:0000e998       ??_C@_1BO@EMEMCHMP@?$AAS?$AAo?$AAc?$AAk?$AAe?$AAt?$AA?5?$AAL?$AAG?$AAA?$AA1?$AA5?$AA6?$AA7@ 00000000000d6998     UefiShellDebug1CommandsLib:QueryTable.obj
 0002:0000e9b8       ??_C@_1BO@PBMFABIM@?$AAS?$AAo?$AAc?$AAk?$AAe?$AAt?$AA?5?$AAP?$AAG?$AAA?$AA9?$AA8?$AA8?$AAA@ 00000000000d69b8     UefiShellDebug1CommandsLib:QueryTable.obj
 0002:0000e9d8       ??_C@_1BO@EGCKJFL@?$AAS?$AAo?$AAc?$AAk?$AAe?$AAt?$AA?5?$AAB?$AAG?$AAA?$AA1?$AA2?$AA8?$AA8@ 00000000000d69d8     UefiShellDebug1CommandsLib:QueryTable.obj
 0002:0000e9f8       ??_C@_1CA@ILALBIHB@?$AAS?$AAo?$AAc?$AAk?$AAe?$AAt?$AA?5?$AAr?$AAP?$AAG?$AAA?$AA9?$AA8?$AA8?$AAB@ 00000000000d69f8     UefiShellDebug1CommandsLib:QueryTable.obj
 0002:0000ea18       ??_C@_1BO@DANNAKEB@?$AAS?$AAo?$AAc?$AAk?$AAe?$AAt?$AA?5?$AAB?$AAG?$AAA?$AA1?$AA0?$AA2?$AA3@ 00000000000d6a18     UefiShellDebug1CommandsLib:QueryTable.obj
 0002:0000ea38       ??_C@_1BO@OPCPDFIF@?$AAS?$AAo?$AAc?$AAk?$AAe?$AAt?$AA?5?$AAB?$AAG?$AAA?$AA1?$AA2?$AA2?$AA4@ 00000000000d6a38     UefiShellDebug1CommandsLib:QueryTable.obj
 0002:0000ea58       ??_C@_1BO@OEJLJDBA@?$AAS?$AAo?$AAc?$AAk?$AAe?$AAt?$AA?5?$AAL?$AAG?$AAA?$AA1?$AA1?$AA5?$AA5@ 00000000000d6a58     UefiShellDebug1CommandsLib:QueryTable.obj
 0002:0000ea78       ??_C@_1BO@LEALDLID@?$AAS?$AAo?$AAc?$AAk?$AAe?$AAt?$AA?5?$AAL?$AAG?$AAA?$AA1?$AA3?$AA5?$AA6@ 00000000000d6a78     UefiShellDebug1CommandsLib:QueryTable.obj
 0002:0000ea98       ??_C@_1BO@NHPFPNMM@?$AAS?$AAo?$AAc?$AAk?$AAe?$AAt?$AA?5?$AAL?$AAG?$AAA?$AA2?$AA0?$AA1?$AA1@ 00000000000d6a98     UefiShellDebug1CommandsLib:QueryTable.obj
 0002:0000eab8       ??_C@_1BG@HNELMPAF@?$AAS?$AAo?$AAc?$AAk?$AAe?$AAt?$AA?5?$AAF?$AAS?$AA1@ 00000000000d6ab8     UefiShellDebug1CommandsLib:QueryTable.obj
 0002:0000ead0       ??_C@_1BG@GPPOGAOL@?$AAS?$AAo?$AAc?$AAk?$AAe?$AAt?$AA?5?$AAF?$AAS?$AA2@ 00000000000d6ad0     UefiShellDebug1CommandsLib:QueryTable.obj
 0002:0000eae8       ??_C@_1BG@EEJHKMOO@?$AAS?$AAo?$AAc?$AAk?$AAe?$AAt?$AA?5?$AAF?$AAM?$AA1@ 00000000000d6ae8     UefiShellDebug1CommandsLib:QueryTable.obj
 0002:0000eb00       ??_C@_1BG@FGCCADAA@?$AAS?$AAo?$AAc?$AAk?$AAe?$AAt?$AA?5?$AAF?$AAM?$AA2@ 00000000000d6b00     UefiShellDebug1CommandsLib:QueryTable.obj
 0002:0000eb18       ??_C@_1CC@KJFHKCBF@?$AAS?$AAo?$AAc?$AAk?$AAe?$AAt?$AA?5?$AAL?$AAG?$AAA?$AA2?$AA0?$AA1?$AA1?$AA?9@ 00000000000d6b18     UefiShellDebug1CommandsLib:QueryTable.obj
 0002:0000eb40       ??_C@_1CC@KBIGPMFN@?$AAS?$AAo?$AAc?$AAk?$AAe?$AAt?$AA?5?$AAL?$AAG?$AAA?$AA1?$AA3?$AA5?$AA6?$AA?9@ 00000000000d6b40     UefiShellDebug1CommandsLib:QueryTable.obj
 0002:0000eb68       ??_C@_1BO@NDEFGDCC@?$AAS?$AAo?$AAc?$AAk?$AAe?$AAt?$AA?5?$AAL?$AAG?$AAA?$AA1?$AA1?$AA5?$AA0@ 00000000000d6b68     UefiShellDebug1CommandsLib:QueryTable.obj
 0002:0000eb88       ??_C@_1BO@LAOHMPMI@?$AAS?$AAo?$AAc?$AAk?$AAe?$AAt?$AA?5?$AAB?$AAG?$AAA?$AA1?$AA1?$AA6?$AA8@ 00000000000d6b88     UefiShellDebug1CommandsLib:QueryTable.obj
 0002:0000eba8       ??_C@_1BO@CEHDOGCA@?$AAS?$AAo?$AAc?$AAk?$AAe?$AAt?$AA?5?$AAB?$AAG?$AAA?$AA1?$AA2?$AA3?$AA4@ 00000000000d6ba8     UefiShellDebug1CommandsLib:QueryTable.obj
 0002:0000ebc8       ??_C@_1BO@LIBEHHAN@?$AAS?$AAo?$AAc?$AAk?$AAe?$AAt?$AA?5?$AAB?$AAG?$AAA?$AA1?$AA3?$AA6?$AA4@ 00000000000d6bc8     UefiShellDebug1CommandsLib:QueryTable.obj
 0002:0000ebe8       ??_C@_1BG@HJIMFFMF@?$AAS?$AAo?$AAc?$AAk?$AAe?$AAt?$AA?5?$AAA?$AAM?$AA4@ 00000000000d6be8     UefiShellDebug1CommandsLib:QueryTable.obj
 0002:0000ec00       ??_C@_1BO@GLPJAEEH@?$AAS?$AAo?$AAc?$AAk?$AAe?$AAt?$AA?5?$AAL?$AAG?$AAA?$AA1?$AA1?$AA5?$AA1@ 00000000000d6c00     UefiShellDebug1CommandsLib:QueryTable.obj
 0002:0000ec20       ??_C@_1BO@JEIJMNCI@?$AAS?$AAo?$AAc?$AAk?$AAe?$AAt?$AA?5?$AAB?$AAG?$AAA?$AA1?$AA3?$AA5?$AA6@ 00000000000d6c20     UefiShellDebug1CommandsLib:QueryTable.obj
 0002:0000ec40       ??_C@_1BO@HAHLEIEI@?$AAS?$AAo?$AAc?$AAk?$AAe?$AAt?$AA?5?$AAB?$AAG?$AAA?$AA1?$AA4?$AA4?$AA0@ 00000000000d6c40     UefiShellDebug1CommandsLib:QueryTable.obj
 0002:0000ec60       ??_C@_1BO@NLMCCJFH@?$AAS?$AAo?$AAc?$AAk?$AAe?$AAt?$AA?5?$AAB?$AAG?$AAA?$AA1?$AA5?$AA1?$AA5@ 00000000000d6c60     UefiShellDebug1CommandsLib:QueryTable.obj
 0002:0000ec80       ??_C@_1CC@FBCKOMML@?$AAS?$AAo?$AAc?$AAk?$AAe?$AAt?$AA?5?$AAL?$AAG?$AAA?$AA3?$AA6?$AA4?$AA7?$AA?9@ 00000000000d6c80     UefiShellDebug1CommandsLib:QueryTable.obj
 0002:0000eca8       ??_C@_1BG@GFINEKGP@?$AAS?$AAo?$AAc?$AAk?$AAe?$AAt?$AA?5?$AAS?$AAP?$AA3@ 00000000000d6ca8     UefiShellDebug1CommandsLib:QueryTable.obj
 0002:0000ecc0       ??_C@_1BK@LBHFAAHC@?$AAS?$AAo?$AAc?$AAk?$AAe?$AAt?$AA?5?$AAS?$AAP?$AA3?$AAr?$AA2@ 00000000000d6cc0     UefiShellDebug1CommandsLib:QueryTable.obj
 0002:0000ece0       ??_C@_1BO@FHCHPFMN@?$AAS?$AAo?$AAc?$AAk?$AAe?$AAt?$AA?5?$AAL?$AAG?$AAA?$AA2?$AA0?$AA6?$AA6@ 00000000000d6ce0     UefiShellDebug1CommandsLib:QueryTable.obj
 0002:0000ed00       ??_C@_1BO@GMCJJKAE@?$AAS?$AAo?$AAc?$AAk?$AAe?$AAt?$AA?5?$AAB?$AAG?$AAA?$AA1?$AA3?$AA9?$AA2@ 00000000000d6d00     UefiShellDebug1CommandsLib:QueryTable.obj
 0002:0000ed20       ??_C@_1BO@OMBMNJGF@?$AAS?$AAo?$AAc?$AAk?$AAe?$AAt?$AA?5?$AAB?$AAG?$AAA?$AA1?$AA5?$AA1?$AA0@ 00000000000d6d20     UefiShellDebug1CommandsLib:QueryTable.obj
 0002:0000ed40       ??_C@_1BO@KPDMIDCE@?$AAS?$AAo?$AAc?$AAk?$AAe?$AAt?$AA?5?$AAB?$AAG?$AAA?$AA1?$AA5?$AA2?$AA8@ 00000000000d6d40     UefiShellDebug1CommandsLib:QueryTable.obj
 0002:0000ed60       ??_C@_1BO@PEPKPEDC@?$AAS?$AAo?$AAc?$AAk?$AAe?$AAt?$AA?5?$AAL?$AAG?$AAA?$AA4?$AA1?$AA8?$AA9@ 00000000000d6d60     UefiShellDebug1CommandsLib:QueryTable.obj
 0002:0000ed80       ??_C@_1BO@NAHPFHC@?$AAS?$AAo?$AAc?$AAk?$AAe?$AAt?$AA?5?$AAL?$AAG?$AAA?$AA1?$AA2?$AA0?$AA0@ 00000000000d6d80     UefiShellDebug1CommandsLib:QueryTable.obj
 0002:0000eda0       ??_C@_1BO@OPLGDIMN@?$AAS?$AAo?$AAc?$AAk?$AAe?$AAt?$AA?5?$AAL?$AAG?$AAA?$AA4?$AA6?$AA7?$AA7@ 00000000000d6da0     UefiShellDebug1CommandsLib:QueryTable.obj
 0002:0000edc0       ??_C@_1BO@EFOHPLBG@?$AAS?$AAo?$AAc?$AAk?$AAe?$AAt?$AA?5?$AAL?$AAG?$AAA?$AA1?$AA7?$AA0?$AA0@ 00000000000d6dc0     UefiShellDebug1CommandsLib:QueryTable.obj
 0002:0000ede0       ??_C@_1BO@HBJGNIPM@?$AAS?$AAo?$AAc?$AAk?$AAe?$AAt?$AA?5?$AAB?$AAG?$AAA?$AA1?$AA7?$AA4?$AA4@ 00000000000d6de0     UefiShellDebug1CommandsLib:QueryTable.obj
 0002:0000ee00       ??_C@_1BO@DBIKOILF@?$AAS?$AAo?$AAc?$AAk?$AAe?$AAt?$AA?5?$AAB?$AAG?$AAA?$AA1?$AA7?$AA8?$AA1@ 00000000000d6e00     UefiShellDebug1CommandsLib:QueryTable.obj
 0002:0000ee20       ??_C@_1BO@FOGFLHBJ@?$AAS?$AAo?$AAc?$AAk?$AAe?$AAt?$AA?5?$AAB?$AAG?$AAA?$AA1?$AA2?$AA1?$AA1@ 00000000000d6e20     UefiShellDebug1CommandsLib:QueryTable.obj
 0002:0000ee40       ??_C@_1BO@OHBMNINN@?$AAS?$AAo?$AAc?$AAk?$AAe?$AAt?$AA?5?$AAB?$AAG?$AAA?$AA2?$AA4?$AA2?$AA2@ 00000000000d6e40     UefiShellDebug1CommandsLib:QueryTable.obj
 0002:0000ee60       ??_C@_1BO@HOOHEBLC@?$AAS?$AAo?$AAc?$AAk?$AAe?$AAt?$AA?5?$AAL?$AAG?$AAA?$AA1?$AA2?$AA1?$AA1@ 00000000000d6e60     UefiShellDebug1CommandsLib:QueryTable.obj
 0002:0000ee80       ??_C@_1BO@MHJOCOHG@?$AAS?$AAo?$AAc?$AAk?$AAe?$AAt?$AA?5?$AAL?$AAG?$AAA?$AA2?$AA4?$AA2?$AA2@ 00000000000d6e80     UefiShellDebug1CommandsLib:QueryTable.obj
 0002:0000eea0       ??_C@_1BO@EDLMMEDK@?$AAS?$AAo?$AAc?$AAk?$AAe?$AAt?$AA?5?$AAL?$AAG?$AAA?$AA5?$AA7?$AA7?$AA3@ 00000000000d6ea0     UefiShellDebug1CommandsLib:QueryTable.obj
 0002:0000eec0       ??_C@_1BO@GDDODCJB@?$AAS?$AAo?$AAc?$AAk?$AAe?$AAt?$AA?5?$AAB?$AAG?$AAA?$AA5?$AA7?$AA7?$AA3@ 00000000000d6ec0     UefiShellDebug1CommandsLib:QueryTable.obj
 0002:0000eee0       ??_C@_1BG@MBDADCKA@?$AAS?$AAo?$AAc?$AAk?$AAe?$AAt?$AA?5?$AAA?$AAM?$AA5@ 00000000000d6ee0     UefiShellDebug1CommandsLib:QueryTable.obj
 0002:0000eef8       ??_C@_1BG@EAOGBFLD@?$AAS?$AAo?$AAc?$AAk?$AAe?$AAt?$AA?5?$AAS?$AAP?$AA5@ 00000000000d6ef8     UefiShellDebug1CommandsLib:QueryTable.obj
 0002:0000ef10       ??_C@_1BG@FCFDLKFN@?$AAS?$AAo?$AAc?$AAk?$AAe?$AAt?$AA?5?$AAS?$AAP?$AA6@ 00000000000d6f10     UefiShellDebug1CommandsLib:QueryTable.obj
 0002:0000ef28       ??_C@_1BM@JHNAIMMB@?$AAS?$AAo?$AAc?$AAk?$AAe?$AAt?$AA?5?$AAB?$AAG?$AAA?$AA8?$AA8?$AA3@ 00000000000d6f28     UefiShellDebug1CommandsLib:QueryTable.obj
 0002:0000ef48       ??_C@_1BO@IEAFFFPC@?$AAS?$AAo?$AAc?$AAk?$AAe?$AAt?$AA?5?$AAB?$AAG?$AAA?$AA1?$AA1?$AA9?$AA0@ 00000000000d6f48     UefiShellDebug1CommandsLib:QueryTable.obj
 0002:0000ef68       ??_C@_1BO@HFODCBPP@?$AAS?$AAo?$AAc?$AAk?$AAe?$AAt?$AA?5?$AAB?$AAG?$AAA?$AA4?$AA1?$AA2?$AA9@ 00000000000d6f68     UefiShellDebug1CommandsLib:QueryTable.obj
 0002:0000ef88       ??_C@_1BO@GIJCODPH@?$AAS?$AAo?$AAc?$AAk?$AAe?$AAt?$AA?5?$AAL?$AAG?$AAA?$AA4?$AA7?$AA1?$AA0@ 00000000000d6f88     UefiShellDebug1CommandsLib:QueryTable.obj
 0002:0000efa8       ??_C@_1BO@DKBMGCKN@?$AAS?$AAo?$AAc?$AAk?$AAe?$AAt?$AA?5?$AAL?$AAG?$AAA?$AA7?$AA5?$AA2?$AA9@ 00000000000d6fa8     UefiShellDebug1CommandsLib:QueryTable.obj
 0002:0000efc8       ??_C@_1BO@CJNEGLMF@?$AAS?$AAo?$AAc?$AAk?$AAe?$AAt?$AA?5?$AAB?$AAG?$AAA?$AA1?$AA9?$AA6?$AA4@ 00000000000d6fc8     UefiShellDebug1CommandsLib:QueryTable.obj
 0002:0000efe8       ??_C@_1BO@OIGDJEPO@?$AAS?$AAo?$AAc?$AAk?$AAe?$AAt?$AA?5?$AAB?$AAG?$AAA?$AA1?$AA7?$AA9?$AA2@ 00000000000d6fe8     UefiShellDebug1CommandsLib:QueryTable.obj
 0002:0000f008       ??_C@_1BO@GCAOLCDL@?$AAS?$AAo?$AAc?$AAk?$AAe?$AAt?$AA?5?$AAB?$AAG?$AAA?$AA2?$AA0?$AA4?$AA9@ 00000000000d7008     UefiShellDebug1CommandsLib:QueryTable.obj
 0002:0000f028       ??_C@_1BO@CEAGEHBF@?$AAS?$AAo?$AAc?$AAk?$AAe?$AAt?$AA?5?$AAB?$AAG?$AAA?$AA2?$AA5?$AA5?$AA1@ 00000000000d7028     UefiShellDebug1CommandsLib:QueryTable.obj
 0002:0000f048       ??_C@_1BO@HELGBPGM@?$AAS?$AAo?$AAc?$AAk?$AAe?$AAt?$AA?5?$AAL?$AAG?$AAA?$AA1?$AA8?$AA5?$AA1@ 00000000000d7048     UefiShellDebug1CommandsLib:QueryTable.obj
 0002:0000f068       ??_C@_1BO@MADPLML@?$AAS?$AAo?$AAc?$AAk?$AAe?$AAt?$AA?5?$AAB?$AAG?$AAA?$AA2?$AA1?$AA1?$AA4@ 00000000000d7068     UefiShellDebug1CommandsLib:QueryTable.obj
 0002:0000f088       ??_C@_1BO@MDFDHJFC@?$AAS?$AAo?$AAc?$AAk?$AAe?$AAt?$AA?5?$AAB?$AAG?$AAA?$AA2?$AA8?$AA3?$AA3@ 00000000000d7088     UefiShellDebug1CommandsLib:QueryTable.obj
 0002:0000f0a8       ??_C@_1CA@CEJKMMJI@?$AA?5?$AA6?$AA4?$AA?9?$AAb?$AAi?$AAt?$AA?5?$AAC?$AAa?$AAp?$AAa?$AAb?$AAl?$AAe@ 00000000000d70a8     UefiShellDebug1CommandsLib:QueryTable.obj
 0002:0000f0c8       ??_C@_1BI@BMAAPDHB@?$AA?5?$AAM?$AAu?$AAl?$AAt?$AAi?$AA?9?$AAC?$AAo?$AAr?$AAe@ 00000000000d70c8     UefiShellDebug1CommandsLib:QueryTable.obj
 0002:0000f0e0       ??_C@_1CC@FLKFLDPO@?$AA?5?$AAH?$AAa?$AAr?$AAd?$AAw?$AAa?$AAr?$AAe?$AA?5?$AAT?$AAh?$AAr?$AAe?$AAa@ 00000000000d70e0     UefiShellDebug1CommandsLib:QueryTable.obj
 0002:0000f108       ??_C@_1CI@FMHJJANO@?$AA?5?$AAE?$AAx?$AAe?$AAc?$AAu?$AAt?$AAe?$AA?5?$AAP?$AAr?$AAo?$AAt?$AAe?$AAc@ 00000000000d7108     UefiShellDebug1CommandsLib:QueryTable.obj
 0002:0000f130       ??_C@_1DC@PLHLGAGC@?$AA?5?$AAE?$AAn?$AAh?$AAa?$AAn?$AAc?$AAe?$AAd?$AA?5?$AAV?$AAi?$AAr?$AAt?$AAu@ 00000000000d7130     UefiShellDebug1CommandsLib:QueryTable.obj
 0002:0000f168       ??_C@_1DG@HGMMFCMG@?$AA?5?$AAP?$AAo?$AAw?$AAe?$AAr?$AA?1?$AAP?$AAe?$AAr?$AAf?$AAo?$AAr?$AAm?$AAa@ 00000000000d7168     UefiShellDebug1CommandsLib:QueryTable.obj
 0002:0000f1a0       ??_C@_1CC@CBPFDNKG@?$AA?5?$AA1?$AA2?$AA8?$AA?9?$AAb?$AAi?$AAt?$AA?5?$AAC?$AAa?$AAp?$AAa?$AAb?$AAl@ 00000000000d71a0     UefiShellDebug1CommandsLib:QueryTable.obj
 0002:0000f1c8       ??_C@_1BM@HCOCCICO@?$AA?5?$AAA?$AAR?$AAM?$AA6?$AA4?$AA?5?$AAS?$AAo?$AAC?$AA?5?$AAI?$AAD@ 00000000000d71c8     UefiShellDebug1CommandsLib:QueryTable.obj
 0002:0000f1e8       ??_C@_1BK@KFODEGFE@?$AA8?$AA?9?$AAb?$AAi?$AAt?$AA?5?$AAP?$AAa?$AAr?$AAi?$AAt?$AAy@ 00000000000d71e8     UefiShellDebug1CommandsLib:QueryTable.obj
 0002:0000f208       ??_C@_1BG@EELEODOK@?$AA3?$AA2?$AA?9?$AAb?$AAi?$AAt?$AA?5?$AAE?$AAC?$AAC@ 00000000000d7208     UefiShellDebug1CommandsLib:QueryTable.obj
 0002:0000f220       ??_C@_1BG@ILBOIJPP@?$AA6?$AA4?$AA?9?$AAb?$AAi?$AAt?$AA?5?$AAE?$AAC?$AAC@ 00000000000d7220     UefiShellDebug1CommandsLib:QueryTable.obj
 0002:0000f238       ??_C@_1BI@PPJLILE@?$AA1?$AA2?$AA8?$AA?9?$AAb?$AAi?$AAt?$AA?5?$AAE?$AAC?$AAC@ 00000000000d7238     UefiShellDebug1CommandsLib:QueryTable.obj
 0002:0000f250       ??_C@_17PFCILLLH@?$AAC?$AAR?$AAC@ 00000000000d7250     UefiShellDebug1CommandsLib:QueryTable.obj
 0002:0000f258       ??_C@_1DI@CHFCIAN@?$AAS?$AAi?$AAn?$AAg?$AAl?$AAe?$AA?5?$AAB?$AAi?$AAt?$AA?5?$AAE?$AAr?$AAr?$AAo@ 00000000000d7258     UefiShellDebug1CommandsLib:QueryTable.obj
 0002:0000f290       ??_C@_1DI@MEKPNODD@?$AAD?$AAo?$AAu?$AAb?$AAl?$AAe?$AA?5?$AAB?$AAi?$AAt?$AA?5?$AAE?$AAr?$AAr?$AAo@ 00000000000d7290     UefiShellDebug1CommandsLib:QueryTable.obj
 0002:0000f2c8       ??_C@_1CA@JKCADFFG@?$AAE?$AAr?$AAr?$AAo?$AAr?$AA?5?$AAS?$AAc?$AAr?$AAu?$AAb?$AAb?$AAi?$AAn?$AAg@ 00000000000d72c8     UefiShellDebug1CommandsLib:QueryTable.obj
 0002:0000f2e8       ??_C@_1CG@JKAPKCKE@?$AAO?$AAn?$AAe?$AA?5?$AAW?$AAa?$AAy?$AA?5?$AAI?$AAn?$AAt?$AAe?$AAr?$AAl?$AAe@ 00000000000d72e8     UefiShellDebug1CommandsLib:QueryTable.obj
 0002:0000f310       ??_C@_1CG@GHMCIBEC@?$AAT?$AAw?$AAo?$AA?5?$AAW?$AAa?$AAy?$AA?5?$AAI?$AAn?$AAt?$AAe?$AAr?$AAl?$AAe@ 00000000000d7310     UefiShellDebug1CommandsLib:QueryTable.obj
 0002:0000f338       ??_C@_1CI@EEDBIAPK@?$AAF?$AAo?$AAu?$AAr?$AA?5?$AAW?$AAa?$AAy?$AA?5?$AAI?$AAn?$AAt?$AAe?$AAr?$AAl@ 00000000000d7338     UefiShellDebug1CommandsLib:QueryTable.obj
 0002:0000f360       ??_C@_1CK@KPHLJNNK@?$AAE?$AAi?$AAg?$AAh?$AAt?$AA?5?$AAW?$AAa?$AAy?$AA?5?$AAI?$AAn?$AAt?$AAe?$AAr@ 00000000000d7360     UefiShellDebug1CommandsLib:QueryTable.obj
 0002:0000f390       ??_C@_1CO@BFIMFDHM@?$AAS?$AAi?$AAx?$AAt?$AAe?$AAe?$AAn?$AA?5?$AAW?$AAa?$AAy?$AA?5?$AAI?$AAn?$AAt@ 00000000000d7390     UefiShellDebug1CommandsLib:QueryTable.obj
 0002:0000f3c0       ??_C@_1M@NIINEJAM@?$AA?5?$AA7?$AA0?$AAn?$AAs@ 00000000000d73c0     UefiShellDebug1CommandsLib:QueryTable.obj
 0002:0000f3d0       ??_C@_1M@DHEPCCDC@?$AA?5?$AA6?$AA0?$AAn?$AAs@ 00000000000d73d0     UefiShellDebug1CommandsLib:QueryTable.obj
 0002:0000f3e0       ??_C@_1M@NMHIJJDB@?$AA?5?$AA5?$AA0?$AAn?$AAs@ 00000000000d73e0     UefiShellDebug1CommandsLib:QueryTable.obj
 0002:0000f3f0       ??_C@_17NJHKIEKA@?$AA?5?$AA5?$AAV@ 00000000000d73f0     UefiShellDebug1CommandsLib:QueryTable.obj
 0002:0000f3f8       ??_C@_1M@JPKLIOEK@?$AA?5?$AA3?$AA?4?$AA3?$AAV@ 00000000000d73f8     UefiShellDebug1CommandsLib:QueryTable.obj
 0002:0000f408       ??_C@_1M@NBPCMGBC@?$AA?5?$AA2?$AA?4?$AA9?$AAV@ 00000000000d7408     UefiShellDebug1CommandsLib:QueryTable.obj
 0002:0000f418       ??_C@_1BE@HJHLCDAF@?$AA?5?$AAS?$AAt?$AAa?$AAn?$AAd?$AAa?$AAr?$AAd@ 00000000000d7418     UefiShellDebug1CommandsLib:QueryTable.obj
 0002:0000f430       ??_C@_1CA@LGABIKMO@?$AA?5?$AAF?$AAa?$AAs?$AAt?$AA?5?$AAP?$AAa?$AAg?$AAe?$AA?5?$AAM?$AAo?$AAd?$AAe@ 00000000000d7430     UefiShellDebug1CommandsLib:QueryTable.obj
 0002:0000f450       ??_C@_19GFOLFIMB@?$AA?5?$AAE?$AAD?$AAO@ 00000000000d7450     UefiShellDebug1CommandsLib:QueryTable.obj
 0002:0000f460       ??_C@_1BA@CLBLGKNJ@?$AA?5?$AAP?$AAa?$AAr?$AAi?$AAt?$AAy@ 00000000000d7460     UefiShellDebug1CommandsLib:QueryTable.obj
 0002:0000f470       ??_C@_1M@GKGEDMHO@?$AA?5?$AAE?$AAC?$AAC?$AA?5@ 00000000000d7470     UefiShellDebug1CommandsLib:QueryTable.obj
 0002:0000f480       ??_C@_1M@CCFCJPLH@?$AA?5?$AAS?$AAI?$AAM?$AAM@ 00000000000d7480     UefiShellDebug1CommandsLib:QueryTable.obj
 0002:0000f490       ??_C@_1M@OHCAAFCG@?$AA?5?$AAD?$AAI?$AAM?$AAM@ 00000000000d7490     UefiShellDebug1CommandsLib:QueryTable.obj
 0002:0000f4a0       ??_C@_1BG@JNPHIKMO@?$AA?5?$AAB?$AAu?$AAr?$AAs?$AAt?$AA?5?$AAE?$AAD?$AAO@ 00000000000d74a0     UefiShellDebug1CommandsLib:QueryTable.obj
 0002:0000f4b8       ??_C@_1O@IFONHMFE@?$AA?5?$AAS?$AAD?$AAR?$AAA?$AAM@ 00000000000d74b8     UefiShellDebug1CommandsLib:QueryTable.obj
 0002:0000f4c8       ??_C@_1DO@GGKDHCMG@?$AA?5?$AAU?$AAn?$AAc?$AAo?$AAr?$AAr?$AAe?$AAc?$AAt?$AAa?$AAb?$AAl?$AAe?$AA?5@ 00000000000d74c8     UefiShellDebug1CommandsLib:QueryTable.obj
 0002:0000f508       ??_C@_1DK@GOFLEHAJ@?$AA?5?$AAC?$AAo?$AAr?$AAr?$AAe?$AAc?$AAt?$AAa?$AAb?$AAl?$AAe?$AA?5?$AAe?$AAr@ 00000000000d7508     UefiShellDebug1CommandsLib:QueryTable.obj
 0002:0000f550       ??_C@_1FE@GEHKOMJG@?$AA?5?$AAE?$AAr?$AAr?$AAo?$AAr?$AA?5?$AAS?$AAt?$AAa?$AAt?$AAu?$AAs?$AA?5?$AAo@ 00000000000d7550     UefiShellDebug1CommandsLib:QueryTable.obj
 0002:0000f5a8       ??_C@_1BG@MKAGJBMA@?$AA?5?$AAN?$AAo?$AAn?$AA?9?$AAB?$AAu?$AAr?$AAs?$AAt@ 00000000000d75a8     UefiShellDebug1CommandsLib:QueryTable.obj
 0002:0000f5c0       ??_C@_1O@KIIGEHBK@?$AA?5?$AAB?$AAu?$AAr?$AAs?$AAt@ 00000000000d75c0     UefiShellDebug1CommandsLib:QueryTable.obj
 0002:0000f5d0       ??_C@_1CA@HJHDGNAE@?$AA?5?$AAP?$AAi?$AAp?$AAe?$AAl?$AAi?$AAn?$AAe?$AA?5?$AAB?$AAu?$AAr?$AAs?$AAt@ 00000000000d75d0     UefiShellDebug1CommandsLib:QueryTable.obj
 0002:0000f5f0       ??_C@_1BK@FPIGEJJM@?$AA?5?$AAS?$AAy?$AAn?$AAc?$AAh?$AAr?$AAo?$AAn?$AAo?$AAu?$AAs@ 00000000000d75f0     UefiShellDebug1CommandsLib:QueryTable.obj
 0002:0000f610       ??_C@_1BM@BEGBKMJI@?$AA?5?$AAA?$AAs?$AAy?$AAn?$AAc?$AAh?$AAr?$AAo?$AAn?$AAo?$AAu?$AAs@ 00000000000d7610     UefiShellDebug1CommandsLib:QueryTable.obj
 0002:0000f630       ??_C@_1O@BCECDDG@?$AAP?$AAa?$AAr?$AAi?$AAt?$AAy@ 00000000000d7630     UefiShellDebug1CommandsLib:QueryTable.obj
 0002:0000f640       ??_C@_1BO@NEHMLKLI@?$AAS?$AAi?$AAn?$AAg?$AAl?$AAe?$AA?9?$AAb?$AAi?$AAt?$AA?5?$AAE?$AAC?$AAC@ 00000000000d7640     UefiShellDebug1CommandsLib:QueryTable.obj
 0002:0000f660       ??_C@_1BM@MFBBEGD@?$AAM?$AAu?$AAl?$AAt?$AAi?$AA?9?$AAb?$AAi?$AAt?$AA?5?$AAE?$AAC?$AAC@ 00000000000d7660     UefiShellDebug1CommandsLib:QueryTable.obj
 0002:0000f680       ??_C@_1BI@HJJJFIKM@?$AAI?$AAn?$AAs?$AAt?$AAr?$AAu?$AAc?$AAt?$AAi?$AAo?$AAn@ 00000000000d7680     UefiShellDebug1CommandsLib:QueryTable.obj
 0002:0000f698       ??_C@_19IEEMEPMH@?$AAD?$AAa?$AAt?$AAa@ 00000000000d7698     UefiShellDebug1CommandsLib:QueryTable.obj
 0002:0000f6a8       ??_C@_1BA@KMNJBMPC@?$AAU?$AAn?$AAi?$AAf?$AAi?$AAe?$AAd@ 00000000000d76a8     UefiShellDebug1CommandsLib:QueryTable.obj
 0002:0000f6b8       ??_C@_1BM@DMJMFODO@?$AAD?$AAi?$AAr?$AAe?$AAc?$AAt?$AA?5?$AAM?$AAa?$AAp?$AAp?$AAe?$AAd@ 00000000000d76b8     UefiShellDebug1CommandsLib:QueryTable.obj
 0002:0000f6d8       ??_C@_1CM@NPKKKHFJ@?$AA2?$AA?9?$AAw?$AAa?$AAy?$AA?5?$AAS?$AAe?$AAt?$AA?9?$AAA?$AAs?$AAs?$AAo?$AAc@ 00000000000d76d8     UefiShellDebug1CommandsLib:QueryTable.obj
 0002:0000f708       ??_C@_1CM@CDFKDGBF@?$AA4?$AA?9?$AAw?$AAa?$AAy?$AA?5?$AAS?$AAe?$AAt?$AA?9?$AAA?$AAs?$AAs?$AAo?$AAc@ 00000000000d7708     UefiShellDebug1CommandsLib:QueryTable.obj
 0002:0000f738       ??_C@_1CE@GLBKAPAK@?$AAF?$AAu?$AAl?$AAl?$AAy?$AA?5?$AAA?$AAs?$AAs?$AAo?$AAc?$AAi?$AAa?$AAt?$AAi@ 00000000000d7738     UefiShellDebug1CommandsLib:QueryTable.obj
 0002:0000f760       ??_C@_1CM@BMKBCMM@?$AA8?$AA?9?$AAw?$AAa?$AAy?$AA?5?$AAS?$AAe?$AAt?$AA?9?$AAA?$AAs?$AAs?$AAo?$AAc@ 00000000000d7760     UefiShellDebug1CommandsLib:QueryTable.obj
 0002:0000f790       ??_C@_1CO@OAAPFFKI@?$AA1?$AA6?$AA?9?$AAw?$AAa?$AAy?$AA?5?$AAS?$AAe?$AAt?$AA?9?$AAA?$AAs?$AAs?$AAo@ 00000000000d7790     UefiShellDebug1CommandsLib:QueryTable.obj
 0002:0000f7c0       ??_C@_1CO@EIKPLECA@?$AA1?$AA2?$AA?9?$AAw?$AAa?$AAy?$AA?5?$AAS?$AAe?$AAt?$AA?9?$AAA?$AAs?$AAs?$AAo@ 00000000000d77c0     UefiShellDebug1CommandsLib:QueryTable.obj
 0002:0000f7f0       ??_C@_1CO@DEAFIJNJ@?$AA2?$AA4?$AA?9?$AAw?$AAa?$AAy?$AA?5?$AAS?$AAe?$AAt?$AA?9?$AAA?$AAs?$AAs?$AAo@ 00000000000d77f0     UefiShellDebug1CommandsLib:QueryTable.obj
 0002:0000f820       ??_C@_1CO@LHDMIDAG@?$AA3?$AA2?$AA?9?$AAw?$AAa?$AAy?$AA?5?$AAS?$AAe?$AAt?$AA?9?$AAA?$AAs?$AAs?$AAo@ 00000000000d7820     UefiShellDebug1CommandsLib:QueryTable.obj
 0002:0000f850       ??_C@_1CO@MNFBPCCL@?$AA4?$AA8?$AA?9?$AAw?$AAa?$AAy?$AA?5?$AAS?$AAe?$AAt?$AA?9?$AAA?$AAs?$AAs?$AAo@ 00000000000d7850     UefiShellDebug1CommandsLib:QueryTable.obj
 0002:0000f880       ??_C@_1CO@BAFCOBNE@?$AA6?$AA4?$AA?9?$AAw?$AAa?$AAy?$AA?5?$AAS?$AAe?$AAt?$AA?9?$AAA?$AAs?$AAs?$AAo@ 00000000000d7880     UefiShellDebug1CommandsLib:QueryTable.obj
 0002:0000f8b0       ??_C@_1CO@JMKFGIFB@?$AA2?$AA0?$AA?9?$AAw?$AAa?$AAy?$AA?5?$AAS?$AAe?$AAt?$AA?9?$AAA?$AAs?$AAs?$AAo@ 00000000000d78b0     UefiShellDebug1CommandsLib:QueryTable.obj
 0002:0000f8e0       ??_C@_1BG@PDHILMJJ@?$AAC?$AAe?$AAn?$AAt?$AAr?$AAo?$AAn?$AAi?$AAc?$AAs@ 00000000000d78e0     UefiShellDebug1CommandsLib:QueryTable.obj
 0002:0000f8f8       ??_C@_1CA@PNELBLGF@?$AAM?$AAi?$AAn?$AAi?$AA?5?$AAC?$AAe?$AAn?$AAt?$AAr?$AAo?$AAn?$AAi?$AAc?$AAs@ 00000000000d78f8     UefiShellDebug1CommandsLib:QueryTable.obj
 0002:0000f918       ??_C@_1BI@CDIOKNPG@?$AAP?$AAr?$AAo?$AAp?$AAr?$AAi?$AAe?$AAt?$AAa?$AAr?$AAy@ 00000000000d7918     UefiShellDebug1CommandsLib:QueryTable.obj
 0002:0000f930       ??_C@_1BO@HOPAGIKJ@?$AAD?$AAB?$AA?9?$AA2?$AA5?$AA?5?$AAp?$AAi?$AAn?$AA?5?$AAm?$AAa?$AAl?$AAe@ 00000000000d7930     UefiShellDebug1CommandsLib:QueryTable.obj
 0002:0000f950       ??_C@_1CC@IBNONMNH@?$AAD?$AAB?$AA?9?$AA2?$AA5?$AA?5?$AAp?$AAi?$AAn?$AA?5?$AAf?$AAe?$AAm?$AAa?$AAl@ 00000000000d7950     UefiShellDebug1CommandsLib:QueryTable.obj
 0002:0000f978       ??_C@_1BO@CGOOMBIB@?$AAD?$AAB?$AA?9?$AA1?$AA5?$AA?5?$AAp?$AAi?$AAn?$AA?5?$AAm?$AAa?$AAl?$AAe@ 00000000000d7978     UefiShellDebug1CommandsLib:QueryTable.obj
 0002:0000f998       ??_C@_1CC@IDAANLPA@?$AAD?$AAB?$AA?9?$AA1?$AA5?$AA?5?$AAp?$AAi?$AAn?$AA?5?$AAf?$AAe?$AAm?$AAa?$AAl@ 00000000000d7998     UefiShellDebug1CommandsLib:QueryTable.obj
 0002:0000f9c0       ??_C@_1BM@KNADBFCO@?$AAD?$AAB?$AA?9?$AA9?$AA?5?$AAp?$AAi?$AAn?$AA?5?$AAm?$AAa?$AAl?$AAe@ 00000000000d79c0     UefiShellDebug1CommandsLib:QueryTable.obj
 0002:0000f9e0       ??_C@_1CA@INDCJIEG@?$AAD?$AAB?$AA?9?$AA9?$AA?5?$AAp?$AAi?$AAn?$AA?5?$AAf?$AAe?$AAm?$AAa?$AAl?$AAe@ 00000000000d79e0     UefiShellDebug1CommandsLib:QueryTable.obj
 0002:0000fa00       ??_C@_1M@DIDAFGCB@?$AAR?$AAJ?$AA?9?$AA1?$AA1@ 00000000000d7a00     UefiShellDebug1CommandsLib:QueryTable.obj
 0002:0000fa10       ??_C@_1M@OHJPFAMF@?$AAR?$AAJ?$AA?9?$AA4?$AA5@ 00000000000d7a10     UefiShellDebug1CommandsLib:QueryTable.obj
 0002:0000fa20       ??_C@_1CA@FGGGDIIE@?$AA5?$AA0?$AA?5?$AAP?$AAi?$AAn?$AA?5?$AAM?$AAi?$AAn?$AAi?$AAS?$AAC?$AAS?$AAI@ 00000000000d7a20     UefiShellDebug1CommandsLib:QueryTable.obj
 0002:0000fa40       ??_C@_1BC@IDKNLAIN@?$AAM?$AAi?$AAn?$AAi?$AA?9?$AAD?$AAI?$AAN@ 00000000000d7a40     UefiShellDebug1CommandsLib:QueryTable.obj
 0002:0000fa58       ??_C@_1BE@GJONJPEN@?$AAM?$AAi?$AAc?$AAr?$AAo?$AA?9?$AAD?$AAI?$AAN@ 00000000000d7a58     UefiShellDebug1CommandsLib:QueryTable.obj
 0002:0000fa70       ??_C@_19NCBAGCCN@?$AAP?$AAS?$AA?1?$AA2@ 00000000000d7a70     UefiShellDebug1CommandsLib:QueryTable.obj
 0002:0000fa80       ??_C@_1BC@EDOKPPPJ@?$AAI?$AAn?$AAf?$AAr?$AAa?$AAr?$AAe?$AAd@ 00000000000d7a80     UefiShellDebug1CommandsLib:QueryTable.obj
 0002:0000fa98       ??_C@_1O@NJJBNIOK@?$AAH?$AAP?$AA?9?$AAH?$AAI?$AAL@ 00000000000d7a98     UefiShellDebug1CommandsLib:QueryTable.obj
 0002:0000faa8       ??_C@_1CC@ODIBKOIL@?$AAA?$AAc?$AAc?$AAe?$AAs?$AAs?$AA?5?$AAB?$AAu?$AAs?$AA?5?$AA?$CI?$AAU?$AAS?$AAB@ 00000000000d7aa8     UefiShellDebug1CommandsLib:QueryTable.obj
 0002:0000fad0       ??_C@_1BC@FKGNOFOK@?$AAS?$AAS?$AAA?$AA?5?$AAS?$AAC?$AAS?$AAI@ 00000000000d7ad0     UefiShellDebug1CommandsLib:QueryTable.obj
 0002:0000fae8       ??_C@_1CI@HNFDJGJO@?$AAC?$AAi?$AAr?$AAc?$AAu?$AAl?$AAa?$AAr?$AA?5?$AAD?$AAI?$AAN?$AA?9?$AA8?$AA?5@ 00000000000d7ae8     UefiShellDebug1CommandsLib:QueryTable.obj
 0002:0000fb10       ??_C@_1CM@EPFLPMIF@?$AAC?$AAi?$AAr?$AAc?$AAu?$AAl?$AAa?$AAr?$AA?5?$AAD?$AAI?$AAN?$AA?9?$AA8?$AA?5@ 00000000000d7b10     UefiShellDebug1CommandsLib:QueryTable.obj
 0002:0000fb40       ??_C@_1BK@DDPEDENO@?$AAO?$AAn?$AA?5?$AAB?$AAo?$AAa?$AAr?$AAd?$AA?5?$AAI?$AAD?$AAE@ 00000000000d7b40     UefiShellDebug1CommandsLib:QueryTable.obj
 0002:0000fb60       ??_C@_1CA@PCCPEAIO@?$AAO?$AAn?$AA?5?$AAB?$AAo?$AAa?$AAr?$AAd?$AA?5?$AAF?$AAl?$AAo?$AAp?$AAp?$AAy@ 00000000000d7b60     UefiShellDebug1CommandsLib:QueryTable.obj
 0002:0000fb80       ??_C@_1DO@GKBHHBII@?$AA9?$AA?5?$AAP?$AAi?$AAn?$AA?5?$AAD?$AAu?$AAa?$AAl?$AA?5?$AAI?$AAn?$AAl?$AAi@ 00000000000d7b80     UefiShellDebug1CommandsLib:QueryTable.obj
 0002:0000fbc0       ??_C@_1EA@GKFKJGNC@?$AA2?$AA5?$AA?5?$AAP?$AAi?$AAn?$AA?5?$AAD?$AAu?$AAa?$AAl?$AA?5?$AAI?$AAn?$AAl@ 00000000000d7bc0     UefiShellDebug1CommandsLib:QueryTable.obj
 0002:0000fc00       ??_C@_1CG@BDJNBIMP@?$AA5?$AA0?$AA?5?$AAP?$AAi?$AAn?$AA?5?$AAD?$AAu?$AAa?$AAl?$AA?5?$AAI?$AAn?$AAl@ 00000000000d7c00     UefiShellDebug1CommandsLib:QueryTable.obj
 0002:0000fc28       ??_C@_1CG@CONFKJIG@?$AA6?$AA8?$AA?5?$AAP?$AAi?$AAn?$AA?5?$AAD?$AAu?$AAa?$AAl?$AA?5?$AAI?$AAn?$AAl@ 00000000000d7c28     UefiShellDebug1CommandsLib:QueryTable.obj
 0002:0000fc50       ??_C@_1EC@PDFIJLMB@?$AAO?$AAn?$AA?5?$AAB?$AAo?$AAa?$AAr?$AAd?$AA?5?$AAS?$AAo?$AAu?$AAn?$AAd?$AA?5@ 00000000000d7c50     UefiShellDebug1CommandsLib:QueryTable.obj
 0002:0000fc98       ??_C@_1DA@ELIEDONJ@?$AAM?$AAi?$AAn?$AAi?$AA?9?$AAC?$AAe?$AAn?$AAt?$AAr?$AAo?$AAn?$AAi?$AAc?$AAs@ 00000000000d7c98     UefiShellDebug1CommandsLib:QueryTable.obj
 0002:0000fcc8       ??_C@_1DA@GHBJIEPM@?$AAM?$AAi?$AAn?$AAi?$AA?9?$AAC?$AAe?$AAn?$AAt?$AAr?$AAo?$AAn?$AAi?$AAc?$AAs@ 00000000000d7cc8     UefiShellDebug1CommandsLib:QueryTable.obj
 0002:0000fcf8       ??_C@_1CO@MNNKBLFF@?$AAM?$AAi?$AAn?$AAi?$AA?9?$AAj?$AAa?$AAc?$AAk?$AA?5?$AA?$CI?$AAh?$AAe?$AAa?$AAd@ 00000000000d7cf8     UefiShellDebug1CommandsLib:QueryTable.obj
 0002:0000fd28       ??_C@_17ENJGHJMJ@?$AAB?$AAN?$AAC@ 00000000000d7d28     UefiShellDebug1CommandsLib:QueryTable.obj
 0002:0000fd30       ??_C@_19MMDKBDIC@?$AA1?$AA3?$AA9?$AA4@ 00000000000d7d30     UefiShellDebug1CommandsLib:QueryTable.obj
 0002:0000fd40       ??_C@_1DC@OOELNIFE@?$AAS?$AAA?$AAS?$AA?1?$AAS?$AAA?$AAT?$AAA?$AA?5?$AAP?$AAl?$AAu?$AAg?$AA?5?$AAR@ 00000000000d7d40     UefiShellDebug1CommandsLib:QueryTable.obj
 0002:0000fd78       ??_C@_1CM@OHDELON@?$AAU?$AAS?$AAB?$AA?5?$AAT?$AAy?$AAp?$AAe?$AA?9?$AAC?$AA?5?$AAR?$AAe?$AAc?$AAe@ 00000000000d7d78     UefiShellDebug1CommandsLib:QueryTable.obj
 0002:0000fda8       ??_C@_1M@LJEFCOJD@?$AAP?$AAC?$AA?9?$AA9?$AA8@ 00000000000d7da8     UefiShellDebug1CommandsLib:QueryTable.obj
 0002:0000fdb8       ??_C@_1BI@BAKAJCAB@?$AAP?$AAC?$AA?9?$AA9?$AA8?$AAH?$AAi?$AAr?$AAe?$AAs?$AAo@ 00000000000d7db8     UefiShellDebug1CommandsLib:QueryTable.obj
 0002:0000fdd0       ??_C@_1O@BIIDPPLG@?$AAP?$AAC?$AA?9?$AAH?$AA9?$AA8@ 00000000000d7dd0     UefiShellDebug1CommandsLib:QueryTable.obj
 0002:0000fde0       ??_C@_1BE@GJDMMNIL@?$AAP?$AAC?$AA?9?$AA9?$AA8?$AAN?$AAo?$AAt?$AAe@ 00000000000d7de0     UefiShellDebug1CommandsLib:QueryTable.obj
 0002:0000fdf8       ??_C@_1BE@FBNGPOA@?$AAP?$AAC?$AA?9?$AA9?$AA8?$AAF?$AAu?$AAl?$AAl@ 00000000000d7df8     UefiShellDebug1CommandsLib:QueryTable.obj
 0002:0000fe10       ??_C@_1DO@LIAHKKBP@?$AAP?$AAa?$AAr?$AAa?$AAl?$AAl?$AAe?$AAl?$AA?5?$AAP?$AAo?$AAr?$AAt?$AA?5?$AAX@ 00000000000d7e10     UefiShellDebug1CommandsLib:QueryTable.obj
 0002:0000fe50       ??_C@_1CG@GNBEJKEE@?$AAP?$AAa?$AAr?$AAa?$AAl?$AAl?$AAe?$AAl?$AA?5?$AAP?$AAo?$AAr?$AAt?$AA?5?$AAP@ 00000000000d7e50     UefiShellDebug1CommandsLib:QueryTable.obj
 0002:0000fe78       ??_C@_1CE@JLCOEKBM@?$AAP?$AAa?$AAr?$AAa?$AAl?$AAl?$AAe?$AAl?$AA?5?$AAP?$AAo?$AAr?$AAt?$AA?5?$AAE@ 00000000000d7e78     UefiShellDebug1CommandsLib:QueryTable.obj
 0002:0000fea0       ??_C@_1CE@BOGMDKCJ@?$AAP?$AAa?$AAr?$AAa?$AAl?$AAl?$AAe?$AAl?$AA?5?$AAP?$AAo?$AAr?$AAt?$AA?5?$AAE@ 00000000000d7ea0     UefiShellDebug1CommandsLib:QueryTable.obj
 0002:0000fec8       ??_C@_1CM@EILHOPJF@?$AAP?$AAa?$AAr?$AAa?$AAl?$AAl?$AAe?$AAl?$AA?5?$AAP?$AAo?$AAr?$AAt?$AA?5?$AAE@ 00000000000d7ec8     UefiShellDebug1CommandsLib:QueryTable.obj
 0002:0000fef8       ??_C@_1DK@GFJNGLPP@?$AAS?$AAe?$AAr?$AAi?$AAa?$AAl?$AA?5?$AAP?$AAo?$AAr?$AAt?$AA?5?$AAX?$AAT?$AA?1@ 00000000000d7ef8     UefiShellDebug1CommandsLib:QueryTable.obj
 0002:0000ff38       ??_C@_1DK@DPDCAMIC@?$AAS?$AAe?$AAr?$AAi?$AAa?$AAl?$AA?5?$AAP?$AAo?$AAr?$AAt?$AA?5?$AA1?$AA6?$AA4@ 00000000000d7f38     UefiShellDebug1CommandsLib:QueryTable.obj
 0002:0000ff78       ??_C@_1DK@DFCOPIK@?$AAS?$AAe?$AAr?$AAi?$AAa?$AAl?$AA?5?$AAP?$AAo?$AAr?$AAt?$AA?5?$AA1?$AA6?$AA5@ 00000000000d7f78     UefiShellDebug1CommandsLib:QueryTable.obj
 0002:0000ffb8       ??_C@_1DM@FJBADMAE@?$AAS?$AAe?$AAr?$AAi?$AAa?$AAl?$AA?5?$AAP?$AAo?$AAr?$AAt?$AA?5?$AA1?$AA6?$AA5@ 00000000000d7fb8     UefiShellDebug1CommandsLib:QueryTable.obj
 0002:0000fff8       ??_C@_1BE@NOJBIPAI@?$AAS?$AAC?$AAS?$AAI?$AA?5?$AAP?$AAo?$AAr?$AAt@ 00000000000d7ff8     UefiShellDebug1CommandsLib:QueryTable.obj
 0002:00010010       ??_C@_1BE@COPEGMCO@?$AAM?$AAI?$AAD?$AAI?$AA?5?$AAP?$AAo?$AAr?$AAt@ 00000000000d8010     UefiShellDebug1CommandsLib:QueryTable.obj
 0002:00010028       ??_C@_1BO@EFEHLEPP@?$AAJ?$AAo?$AAy?$AA?5?$AAS?$AAt?$AAi?$AAc?$AAk?$AA?5?$AAP?$AAo?$AAr?$AAt@ 00000000000d8028     UefiShellDebug1CommandsLib:QueryTable.obj
 0002:00010048       ??_C@_1BM@JPCDIBMO@?$AAK?$AAe?$AAy?$AAb?$AAo?$AAa?$AAr?$AAd?$AA?5?$AAP?$AAo?$AAr?$AAt@ 00000000000d8048     UefiShellDebug1CommandsLib:QueryTable.obj
 0002:00010068       ??_C@_1BG@OFNCFLIC@?$AAM?$AAo?$AAu?$AAs?$AAe?$AA?5?$AAP?$AAo?$AAr?$AAt@ 00000000000d8068     UefiShellDebug1CommandsLib:QueryTable.obj
 0002:00010080       ??_C@_1CM@FJJOGJOL@?$AAF?$AAi?$AAr?$AAe?$AAW?$AAi?$AAr?$AAe?$AA?5?$AA?$CI?$AAI?$AAE?$AAE?$AAE?$AA?5@ 00000000000d8080     UefiShellDebug1CommandsLib:QueryTable.obj
 0002:000100b0       ??_C@_1BO@MPNLIICJ@?$AAP?$AAC?$AAM?$AAC?$AAI?$AAA?$AA?5?$AAT?$AAy?$AAp?$AAe?$AA?5?$AAI?$AAI@ 00000000000d80b0     UefiShellDebug1CommandsLib:QueryTable.obj
 0002:000100d0       ??_C@_1CA@EBDJEMJF@?$AAP?$AAC?$AAM?$AAC?$AAI?$AAA?$AA?5?$AAT?$AAy?$AAp?$AAe?$AA?5?$AAI?$AAI?$AAI@ 00000000000d80d0     UefiShellDebug1CommandsLib:QueryTable.obj
 0002:000100f0       ??_C@_1BA@KFPGBHFK@?$AAC?$AAa?$AAr?$AAd?$AAb?$AAu?$AAs@ 00000000000d80f0     UefiShellDebug1CommandsLib:QueryTable.obj
 0002:00010100       ??_C@_1CA@LBIGPIBF@?$AAA?$AAc?$AAc?$AAe?$AAs?$AAs?$AA?5?$AAB?$AAu?$AAs?$AA?5?$AAP?$AAo?$AAr?$AAt@ 00000000000d8100     UefiShellDebug1CommandsLib:QueryTable.obj
 0002:00010120       ??_C@_1BA@NBHKJAMF@?$AAS?$AAC?$AAS?$AAI?$AA?5?$AAI?$AAI@ 00000000000d8120     UefiShellDebug1CommandsLib:QueryTable.obj
 0002:00010130       ??_C@_1BE@MHAIEMIK@?$AAS?$AAC?$AAS?$AAI?$AA?5?$AAW?$AAi?$AAd?$AAe@ 00000000000d8130     UefiShellDebug1CommandsLib:QueryTable.obj
 0002:00010148       ??_C@_1BK@BBENEMM@?$AAP?$AAC?$AA?9?$AA9?$AA8?$AA?9?$AAH?$AAi?$AAr?$AAe?$AAs?$AAo@ 00000000000d8148     UefiShellDebug1CommandsLib:QueryTable.obj
 0002:00010168       ??_C@_1BG@OOENGAEO@?$AAV?$AAi?$AAd?$AAe?$AAo?$AA?5?$AAP?$AAo?$AAr?$AAt@ 00000000000d8168     UefiShellDebug1CommandsLib:QueryTable.obj
 0002:00010180       ??_C@_1BG@LGLBFBEJ@?$AAA?$AAu?$AAd?$AAi?$AAo?$AA?5?$AAP?$AAo?$AAr?$AAt@ 00000000000d8180     UefiShellDebug1CommandsLib:QueryTable.obj
 0002:00010198       ??_C@_1BG@KCMMPIDH@?$AAM?$AAo?$AAd?$AAe?$AAm?$AA?5?$AAP?$AAo?$AAr?$AAt@ 00000000000d8198     UefiShellDebug1CommandsLib:QueryTable.obj
 0002:000101b0       ??_C@_1BK@NHNIIGJK@?$AAN?$AAe?$AAt?$AAw?$AAo?$AAr?$AAk?$AA?5?$AAP?$AAo?$AAr?$AAt@ 00000000000d81b0     UefiShellDebug1CommandsLib:QueryTable.obj
 0002:000101d0       ??_C@_1BE@BFOFACMI@?$AAS?$AAA?$AAT?$AAA?$AA?5?$AAP?$AAo?$AAr?$AAt@ 00000000000d81d0     UefiShellDebug1CommandsLib:QueryTable.obj
 0002:000101e8       ??_C@_1BC@DHGJDMCD@?$AAS?$AAA?$AAS?$AA?5?$AAP?$AAo?$AAr?$AAt@ 00000000000d81e8     UefiShellDebug1CommandsLib:QueryTable.obj
 0002:00010200       ??_C@_1EG@JDPFECNO@?$AAM?$AAu?$AAl?$AAt?$AAi?$AA?9?$AAF?$AAu?$AAn?$AAc?$AAt?$AAi?$AAo?$AAn?$AA?5@ 00000000000d8200     UefiShellDebug1CommandsLib:QueryTable.obj
 0002:00010248       ??_C@_1BI@OHHOEJGN@?$AAT?$AAh?$AAu?$AAn?$AAd?$AAe?$AAr?$AAb?$AAo?$AAl?$AAt@ 00000000000d8248     UefiShellDebug1CommandsLib:QueryTable.obj
 0002:00010260       ??_C@_1CA@EMPGEJLH@?$AA8?$AA2?$AA5?$AA1?$AA?5?$AAC?$AAo?$AAm?$AAp?$AAa?$AAt?$AAi?$AAb?$AAl?$AAe@ 00000000000d8260     UefiShellDebug1CommandsLib:QueryTable.obj
 0002:00010280       ??_C@_1CK@PPNOCDBD@?$AA8?$AA2?$AA5?$AA1?$AA?5?$AAF?$AAI?$AAF?$AAO?$AA?5?$AAC?$AAo?$AAm?$AAp?$AAa@ 00000000000d8280     UefiShellDebug1CommandsLib:QueryTable.obj
 0002:000102b0       ??_C@_1O@KCMGJGBL@?$AAO?$AAt?$AAh?$AAe?$AAr?$AA?5@ 00000000000d82b0     UefiShellDebug1CommandsLib:QueryTable.obj
 0002:000102c0       ??_C@_17FLNLMFB@?$AAI?$AAS?$AAA@ 00000000000d82c0     UefiShellDebug1CommandsLib:QueryTable.obj
 0002:000102c8       ??_C@_17ICCBLADA@?$AAM?$AAC?$AAA@ 00000000000d82c8     UefiShellDebug1CommandsLib:QueryTable.obj
 0002:000102d0       ??_C@_19PLIGMHKK@?$AAE?$AAI?$AAS?$AAA@ 00000000000d82d0     UefiShellDebug1CommandsLib:QueryTable.obj
 0002:000102e0       ??_C@_17KACLLMCF@?$AAP?$AAC?$AAI@ 00000000000d82e0     UefiShellDebug1CommandsLib:QueryTable.obj
 0002:000102e8       ??_C@_1CC@KCBMDFAB@?$AAP?$AAC?$AA?5?$AAC?$AAa?$AAr?$AAd?$AA?5?$AA?$CI?$AAP?$AAC?$AAM?$AAC?$AAI?$AAA@ 00000000000d82e8     UefiShellDebug1CommandsLib:QueryTable.obj
 0002:00010310       ??_C@_1BA@BJJLNGGH@?$AAV?$AAL?$AA?9?$AAV?$AAE?$AAS?$AAA@ 00000000000d8310     UefiShellDebug1CommandsLib:QueryTable.obj
 0002:00010320       ??_C@_1CI@LAEGDMLE@?$AAP?$AAr?$AAo?$AAc?$AAe?$AAs?$AAs?$AAo?$AAr?$AA?5?$AAC?$AAa?$AAr?$AAd?$AA?5@ 00000000000d8320     UefiShellDebug1CommandsLib:QueryTable.obj
 0002:00010348       ??_C@_1DK@EAJEKNAL@?$AAP?$AAr?$AAo?$AAp?$AAr?$AAi?$AAe?$AAt?$AAa?$AAr?$AAy?$AA?5?$AAM?$AAe?$AAm@ 00000000000d8348     UefiShellDebug1CommandsLib:QueryTable.obj
 0002:00010388       ??_C@_1CI@PDMOJGJG@?$AAI?$AA?1?$AAO?$AA?5?$AAR?$AAi?$AAs?$AAe?$AAr?$AA?5?$AAC?$AAa?$AAr?$AAd?$AA?5@ 00000000000d8388     UefiShellDebug1CommandsLib:QueryTable.obj
 0002:000103b0       ??_C@_1M@EMFEFDC@?$AAN?$AAu?$AAB?$AAu?$AAs@ 00000000000d83b0     UefiShellDebug1CommandsLib:QueryTable.obj
 0002:000103c0       ??_C@_1CI@CBCPMECI@?$AAP?$AAC?$AAI?$AA?5?$AA?9?$AA?5?$AA6?$AA6?$AAM?$AAH?$AAz?$AA?5?$AAC?$AAa?$AAp@ 00000000000d83c0     UefiShellDebug1CommandsLib:QueryTable.obj
 0002:000103e8       ??_C@_17KGLKNHJD@?$AAA?$AAG?$AAP@ 00000000000d83e8     UefiShellDebug1CommandsLib:QueryTable.obj
 0002:000103f0       ??_C@_1O@LBGAKLDF@?$AAA?$AAG?$AAP?$AA?5?$AA2?$AAX@ 00000000000d83f0     UefiShellDebug1CommandsLib:QueryTable.obj
 0002:00010400       ??_C@_1O@GHDJEICI@?$AAA?$AAG?$AAP?$AA?5?$AA4?$AAX@ 00000000000d8400     UefiShellDebug1CommandsLib:QueryTable.obj
 0002:00010410       ??_C@_1M@EOIFDHFM@?$AAP?$AAC?$AAI?$AA?9?$AAX@ 00000000000d8410     UefiShellDebug1CommandsLib:QueryTable.obj
 0002:00010420       ??_C@_1O@BAPLIIFD@?$AAA?$AAG?$AAP?$AA?5?$AA8?$AAX@ 00000000000d8420     UefiShellDebug1CommandsLib:QueryTable.obj
 0002:00010430       ??_C@_1EG@JIHKNADJ@?$AAM?$AA?4?$AA2?$AA?5?$AAS?$AAo?$AAc?$AAk?$AAe?$AAt?$AA?5?$AA1?$AA?9?$AAD?$AAP@ 00000000000d8430     UefiShellDebug1CommandsLib:QueryTable.obj
 0002:00010480       ??_C@_1EG@OAGAMHPH@?$AAM?$AA?4?$AA2?$AA?5?$AAS?$AAo?$AAc?$AAk?$AAe?$AAt?$AA?5?$AA1?$AA?9?$AAS?$AAD@ 00000000000d8480     UefiShellDebug1CommandsLib:QueryTable.obj
 0002:000104d0       ??_C@_1EA@PNAJHPEJ@?$AAM?$AA?4?$AA2?$AA?5?$AAS?$AAo?$AAc?$AAk?$AAe?$AAt?$AA?5?$AA2?$AA?5?$AA?$CI?$AAM@ 00000000000d84d0     UefiShellDebug1CommandsLib:QueryTable.obj
 0002:00010510       ??_C@_1EA@KNGGEJHC@?$AAM?$AA?4?$AA2?$AA?5?$AAS?$AAo?$AAc?$AAk?$AAe?$AAt?$AA?5?$AA3?$AA?5?$AA?$CI?$AAM@ 00000000000d8510     UefiShellDebug1CommandsLib:QueryTable.obj
 0002:00010550       ??_C@_1BG@HBBIGDEK@?$AAM?$AAX?$AAM?$AA?5?$AAT?$AAy?$AAp?$AAe?$AA?5?$AAI@ 00000000000d8550     UefiShellDebug1CommandsLib:QueryTable.obj
 0002:00010568       ??_C@_1BI@DIDBPBMC@?$AAM?$AAX?$AAM?$AA?5?$AAT?$AAy?$AAp?$AAe?$AA?5?$AAI?$AAI@ 00000000000d8568     UefiShellDebug1CommandsLib:QueryTable.obj
 0002:00010580       ??_C@_1EE@DMCEFFOA@?$AAM?$AAX?$AAM?$AA?5?$AAT?$AAy?$AAp?$AAe?$AA?5?$AAI?$AAI?$AAI?$AA?5?$AA?$CI?$AAs@ 00000000000d8580     UefiShellDebug1CommandsLib:QueryTable.obj
 0002:000105c8       ??_C@_1DI@MOJKLOGD@?$AAM?$AAX?$AAM?$AA?5?$AAT?$AAy?$AAp?$AAe?$AA?5?$AAI?$AAI?$AAI?$AA?5?$AA?$CI?$AAH@ 00000000000d85c8     UefiShellDebug1CommandsLib:QueryTable.obj
 0002:00010600       ??_C@_1BI@DAELLGAL@?$AAM?$AAX?$AAM?$AA?5?$AAT?$AAy?$AAp?$AAe?$AA?5?$AAI?$AAV@ 00000000000d8600     UefiShellDebug1CommandsLib:QueryTable.obj
 0002:00010618       ??_C@_1BO@HJEAKDMP@?$AAM?$AAX?$AAM?$AA?5?$AA3?$AA?4?$AA0?$AA?5?$AAT?$AAy?$AAp?$AAe?$AA?5?$AAA@ 00000000000d8618     UefiShellDebug1CommandsLib:QueryTable.obj
 0002:00010638       ??_C@_1BO@GLPFAMCB@?$AAM?$AAX?$AAM?$AA?5?$AA3?$AA?4?$AA0?$AA?5?$AAT?$AAy?$AAp?$AAe?$AA?5?$AAB@ 00000000000d8638     UefiShellDebug1CommandsLib:QueryTable.obj
 0002:00010658       ??_C@_1DG@PMEFNILG@?$AAP?$AAC?$AAI?$AA?5?$AAE?$AAx?$AAp?$AAr?$AAe?$AAs?$AAs?$AA?5?$AAG?$AAe?$AAn@ 00000000000d8658     UefiShellDebug1CommandsLib:QueryTable.obj
 0002:00010690       ??_C@_1DG@OLGNLMHG@?$AAP?$AAC?$AAI?$AA?5?$AAE?$AAx?$AAp?$AAr?$AAe?$AAs?$AAs?$AA?5?$AAG?$AAe?$AAn@ 00000000000d8690     UefiShellDebug1CommandsLib:QueryTable.obj
 0002:000106d0       ??_C@_1IG@GDFKECGO@?$AAP?$AAC?$AAI?$AA?5?$AAE?$AAx?$AAp?$AAr?$AAe?$AAs?$AAs?$AA?5?$AAM?$AAi?$AAn@ 00000000000d86d0     UefiShellDebug1CommandsLib:QueryTable.obj
 0002:00010760       ??_C@_1IM@JNIEIDOF@?$AAP?$AAC?$AAI?$AA?5?$AAE?$AAx?$AAp?$AAr?$AAe?$AAs?$AAs?$AA?5?$AAM?$AAi?$AAn@ 00000000000d8760     UefiShellDebug1CommandsLib:QueryTable.obj
 0002:000107f0       ??_C@_1JC@CLEKENNC@?$AAP?$AAC?$AAI?$AA?5?$AAE?$AAx?$AAp?$AAr?$AAe?$AAs?$AAs?$AA?5?$AAM?$AAi?$AAn@ 00000000000d87f0     UefiShellDebug1CommandsLib:QueryTable.obj
 0002:00010890       ??_C@_1EC@JADEBIA@?$AAP?$AAC?$AAI?$AA?5?$AAE?$AAx?$AAp?$AAr?$AAe?$AAs?$AAs?$AA?5?$AAG?$AAe?$AAn@ 00000000000d8890     UefiShellDebug1CommandsLib:QueryTable.obj
 0002:000108e0       ??_C@_1EC@CNIBBALG@?$AAP?$AAC?$AAI?$AA?5?$AAE?$AAx?$AAp?$AAr?$AAe?$AAs?$AAs?$AA?5?$AAG?$AAe?$AAn@ 00000000000d88e0     UefiShellDebug1CommandsLib:QueryTable.obj
 0002:00010930       ??_C@_1EI@OKKODGAF@?$AAO?$AAC?$AAP?$AA?5?$AAN?$AAI?$AAC?$AA?5?$AA3?$AA?4?$AA0?$AA?5?$AAS?$AAm?$AAa@ 00000000000d8930     UefiShellDebug1CommandsLib:QueryTable.obj
 0002:00010980       ??_C@_1EI@OOBKBLLJ@?$AAO?$AAC?$AAP?$AA?5?$AAN?$AAI?$AAC?$AA?5?$AA3?$AA?4?$AA0?$AA?5?$AAL?$AAa?$AAr@ 00000000000d8980     UefiShellDebug1CommandsLib:QueryTable.obj
 0002:000109c8       ??_C@_1CK@DMGCBMBG@?$AAO?$AAC?$AAP?$AA?5?$AAN?$AAI?$AAC?$AA?5?$AAP?$AAr?$AAi?$AAo?$AAr?$AA?5?$AAt@ 00000000000d89c8     UefiShellDebug1CommandsLib:QueryTable.obj
 0002:000109f8       ??_C@_1CA@EACNHKNF@?$AAC?$AAX?$AAL?$AA?5?$AAF?$AAl?$AAe?$AAx?$AAb?$AAu?$AAs?$AA?5?$AA1?$AA?4?$AA0@ 00000000000d89f8     UefiShellDebug1CommandsLib:QueryTable.obj
 0002:00010a18       ??_C@_1BG@MILHKIJI@?$AAP?$AAC?$AA?9?$AA9?$AA8?$AA?1?$AAC?$AA2?$AA0?$AA?5@ 00000000000d8a18     UefiShellDebug1CommandsLib:QueryTable.obj
 0002:00010a30       ??_C@_1BG@FDCGOKIO@?$AAP?$AAC?$AA?9?$AA9?$AA8?$AA?1?$AAC?$AA2?$AA4?$AA?5@ 00000000000d8a30     UefiShellDebug1CommandsLib:QueryTable.obj
 0002:00010a48       ??_C@_1BC@FMLHNMAD@?$AAP?$AAC?$AA?9?$AA9?$AA8?$AA?1?$AAE?$AA?5@ 00000000000d8a48     UefiShellDebug1CommandsLib:QueryTable.obj
 0002:00010a60       ??_C@_1CC@OCHBEAJE@?$AAP?$AAC?$AA?9?$AA9?$AA8?$AA?1?$AAL?$AAo?$AAc?$AAa?$AAl?$AA?5?$AAB?$AAu?$AAs@ 00000000000d8a60     UefiShellDebug1CommandsLib:QueryTable.obj
 0002:00010a88       ??_C@_1BI@GMPFPMOA@?$AAP?$AAC?$AA?9?$AA9?$AA8?$AA?1?$AAC?$AAa?$AAr?$AAd?$AA?5@ 00000000000d8a88     UefiShellDebug1CommandsLib:QueryTable.obj
 0002:00010aa0       ??_C@_1BK@NGAJAHOO@?$AAP?$AAC?$AAI?$AA?5?$AAE?$AAx?$AAp?$AAr?$AAe?$AAs?$AAs?$AA?5@ 00000000000d8aa0     UefiShellDebug1CommandsLib:QueryTable.obj
 0002:00010ac0       ??_C@_1BO@CFNHPJHI@?$AAP?$AAC?$AAI?$AA?5?$AAE?$AAx?$AAp?$AAr?$AAe?$AAs?$AAs?$AA?5?$AAX?$AA1@ 00000000000d8ac0     UefiShellDebug1CommandsLib:QueryTable.obj
 0002:00010ae0       ??_C@_1BO@DHGCFGJG@?$AAP?$AAC?$AAI?$AA?5?$AAE?$AAx?$AAp?$AAr?$AAe?$AAs?$AAs?$AA?5?$AAX?$AA2@ 00000000000d8ae0     UefiShellDebug1CommandsLib:QueryTable.obj
 0002:00010b00       ??_C@_1BO@BCAJAJEK@?$AAP?$AAC?$AAI?$AA?5?$AAE?$AAx?$AAp?$AAr?$AAe?$AAs?$AAs?$AA?5?$AAX?$AA4@ 00000000000d8b00     UefiShellDebug1CommandsLib:QueryTable.obj
 0002:00010b20       ??_C@_1BO@FINPLGPC@?$AAP?$AAC?$AAI?$AA?5?$AAE?$AAx?$AAp?$AAr?$AAe?$AAs?$AAs?$AA?5?$AAX?$AA8@ 00000000000d8b20     UefiShellDebug1CommandsLib:QueryTable.obj
 0002:00010b40       ??_C@_1CA@PGMHDLOM@?$AAP?$AAC?$AAI?$AA?5?$AAE?$AAx?$AAp?$AAr?$AAe?$AAs?$AAs?$AA?5?$AAX?$AA1?$AA6@ 00000000000d8b40     UefiShellDebug1CommandsLib:QueryTable.obj
 0002:00010b60       ??_C@_1CE@HBMMGLIB@?$AAP?$AAC?$AAI?$AA?5?$AAE?$AAx?$AAp?$AAr?$AAe?$AAs?$AAs?$AA?5?$AAG?$AAe?$AAn@ 00000000000d8b60     UefiShellDebug1CommandsLib:QueryTable.obj
 0002:00010b88       ??_C@_1CK@DJKKFPA@?$AAP?$AAC?$AAI?$AA?5?$AAE?$AAx?$AAp?$AAr?$AAe?$AAs?$AAs?$AA?5?$AAG?$AAe?$AAn@ 00000000000d8b88     UefiShellDebug1CommandsLib:QueryTable.obj
 0002:00010bb8       ??_C@_1CK@BBCPAKBO@?$AAP?$AAC?$AAI?$AA?5?$AAE?$AAx?$AAp?$AAr?$AAe?$AAs?$AAs?$AA?5?$AAG?$AAe?$AAn@ 00000000000d8bb8     UefiShellDebug1CommandsLib:QueryTable.obj
 0002:00010be8       ??_C@_1CK@DEEEFFMC@?$AAP?$AAC?$AAI?$AA?5?$AAE?$AAx?$AAp?$AAr?$AAe?$AAs?$AAs?$AA?5?$AAG?$AAe?$AAn@ 00000000000d8be8     UefiShellDebug1CommandsLib:QueryTable.obj
 0002:00010c18       ??_C@_1CK@HOJCOKHK@?$AAP?$AAC?$AAI?$AA?5?$AAE?$AAx?$AAp?$AAr?$AAe?$AAs?$AAs?$AA?5?$AAG?$AAe?$AAn@ 00000000000d8c18     UefiShellDebug1CommandsLib:QueryTable.obj
 0002:00010c48       ??_C@_1CM@GHEABCDN@?$AAP?$AAC?$AAI?$AA?5?$AAE?$AAx?$AAp?$AAr?$AAe?$AAs?$AAs?$AA?5?$AAG?$AAe?$AAn@ 00000000000d8c48     UefiShellDebug1CommandsLib:QueryTable.obj
 0002:00010c78       ??_C@_1CE@MJHAAMOE@?$AAP?$AAC?$AAI?$AA?5?$AAE?$AAx?$AAp?$AAr?$AAe?$AAs?$AAs?$AA?5?$AAG?$AAe?$AAn@ 00000000000d8c78     UefiShellDebug1CommandsLib:QueryTable.obj
 0002:00010ca0       ??_C@_1CK@OMFIMOMO@?$AAP?$AAC?$AAI?$AA?5?$AAE?$AAx?$AAp?$AAr?$AAe?$AAs?$AAs?$AA?5?$AAG?$AAe?$AAn@ 00000000000d8ca0     UefiShellDebug1CommandsLib:QueryTable.obj
 0002:00010cd0       ??_C@_1CK@POONGBCA@?$AAP?$AAC?$AAI?$AA?5?$AAE?$AAx?$AAp?$AAr?$AAe?$AAs?$AAs?$AA?5?$AAG?$AAe?$AAn@ 00000000000d8cd0     UefiShellDebug1CommandsLib:QueryTable.obj
 0002:00010d00       ??_C@_1CK@NLIGDOPM@?$AAP?$AAC?$AAI?$AA?5?$AAE?$AAx?$AAp?$AAr?$AAe?$AAs?$AAs?$AA?5?$AAG?$AAe?$AAn@ 00000000000d8d00     UefiShellDebug1CommandsLib:QueryTable.obj
 0002:00010d30       ??_C@_1CK@JBFAIBEE@?$AAP?$AAC?$AAI?$AA?5?$AAE?$AAx?$AAp?$AAr?$AAe?$AAs?$AAs?$AA?5?$AAG?$AAe?$AAn@ 00000000000d8d30     UefiShellDebug1CommandsLib:QueryTable.obj
 0002:00010d60       ??_C@_1CM@PMOFFOFC@?$AAP?$AAC?$AAI?$AA?5?$AAE?$AAx?$AAp?$AAr?$AAe?$AAs?$AAs?$AA?5?$AAG?$AAe?$AAn@ 00000000000d8d60     UefiShellDebug1CommandsLib:QueryTable.obj
 0002:00010d90       ??_C@_1CE@FEKHDEFN@?$AAP?$AAC?$AAI?$AA?5?$AAE?$AAx?$AAp?$AAr?$AAe?$AAs?$AAs?$AA?5?$AAG?$AAe?$AAn@ 00000000000d8d90     UefiShellDebug1CommandsLib:QueryTable.obj
 0002:00010db8       ??_C@_1CK@OIENFLH@?$AAP?$AAC?$AAI?$AA?5?$AAE?$AAx?$AAp?$AAr?$AAe?$AAs?$AAs?$AA?5?$AAG?$AAe?$AAn@ 00000000000d8db8     UefiShellDebug1CommandsLib:QueryTable.obj
 0002:00010de8       ??_C@_1CK@BMDBHKFJ@?$AAP?$AAC?$AAI?$AA?5?$AAE?$AAx?$AAp?$AAr?$AAe?$AAs?$AAs?$AA?5?$AAG?$AAe?$AAn@ 00000000000d8de8     UefiShellDebug1CommandsLib:QueryTable.obj
 0002:00010e18       ??_C@_1CK@DJFKCFIF@?$AAP?$AAC?$AAI?$AA?5?$AAE?$AAx?$AAp?$AAr?$AAe?$AAs?$AAs?$AA?5?$AAG?$AAe?$AAn@ 00000000000d8e18     UefiShellDebug1CommandsLib:QueryTable.obj
 0002:00010e48       ??_C@_1CK@HDIMJKDN@?$AAP?$AAC?$AAI?$AA?5?$AAE?$AAx?$AAp?$AAr?$AAe?$AAs?$AAs?$AA?5?$AAG?$AAe?$AAn@ 00000000000d8e48     UefiShellDebug1CommandsLib:QueryTable.obj
 0002:00010e78       ??_C@_1CM@IIHNLHNN@?$AAP?$AAC?$AAI?$AA?5?$AAE?$AAx?$AAp?$AAr?$AAe?$AAs?$AAs?$AA?5?$AAG?$AAe?$AAn@ 00000000000d8e78     UefiShellDebug1CommandsLib:QueryTable.obj
 0002:00010ea8       ??_C@_1CE@OMBLFDDI@?$AAP?$AAC?$AAI?$AA?5?$AAE?$AAx?$AAp?$AAr?$AAe?$AAs?$AAs?$AA?5?$AAG?$AAe?$AAn@ 00000000000d8ea8     UefiShellDebug1CommandsLib:QueryTable.obj
 0002:00010ed0       ??_C@_1CK@OGOKLLLP@?$AAP?$AAC?$AAI?$AA?5?$AAE?$AAx?$AAp?$AAr?$AAe?$AAs?$AAs?$AA?5?$AAG?$AAe?$AAn@ 00000000000d8ed0     UefiShellDebug1CommandsLib:QueryTable.obj
 0002:00010f00       ??_C@_1CK@PEFPBEFB@?$AAP?$AAC?$AAI?$AA?5?$AAE?$AAx?$AAp?$AAr?$AAe?$AAs?$AAs?$AA?5?$AAG?$AAe?$AAn@ 00000000000d8f00     UefiShellDebug1CommandsLib:QueryTable.obj
 0002:00010f30       ??_C@_1CK@NBDEELIN@?$AAP?$AAC?$AAI?$AA?5?$AAE?$AAx?$AAp?$AAr?$AAe?$AAs?$AAs?$AA?5?$AAG?$AAe?$AAn@ 00000000000d8f30     UefiShellDebug1CommandsLib:QueryTable.obj
 0002:00010f60       ??_C@_1CK@JLOCPEDF@?$AAP?$AAC?$AAI?$AA?5?$AAE?$AAx?$AAp?$AAr?$AAe?$AAs?$AAs?$AA?5?$AAG?$AAe?$AAn@ 00000000000d8f60     UefiShellDebug1CommandsLib:QueryTable.obj
 0002:00010f90       ??_C@_1CM@OKKOJJOE@?$AAP?$AAC?$AAI?$AA?5?$AAE?$AAx?$AAp?$AAr?$AAe?$AAs?$AAs?$AA?5?$AAG?$AAe?$AAn@ 00000000000d8f90     UefiShellDebug1CommandsLib:QueryTable.obj
 0002:00010fc0       ??_C@_1DK@JOADGCEC@?$AAP?$AAC?$AAI?$AA?5?$AAE?$AAx?$AAp?$AAr?$AAe?$AAs?$AAs?$AA?5?$AAG?$AAe?$AAn@ 00000000000d8fc0     UefiShellDebug1CommandsLib:QueryTable.obj
 0002:00011000       ??_C@_1GC@NDABHFIP@?$AAE?$AAn?$AAt?$AAe?$AAr?$AAp?$AAr?$AAi?$AAs?$AAe?$AA?5?$AAa?$AAn?$AAd?$AA?5@ 00000000000d9000     UefiShellDebug1CommandsLib:QueryTable.obj
 0002:00011070       ??_C@_1GA@JCNJNNEM@?$AAE?$AAn?$AAt?$AAe?$AAr?$AAp?$AAr?$AAi?$AAs?$AAe?$AA?5?$AAa?$AAn?$AAd?$AA?5@ 00000000000d9070     UefiShellDebug1CommandsLib:QueryTable.obj
 0002:000110d0       ??_C@_1O@OHDAHDFF@?$AA?5?$AA8?$AA?5?$AAb?$AAi?$AAt@ 00000000000d90d0     UefiShellDebug1CommandsLib:QueryTable.obj
 0002:000110e0       ??_C@_1BA@NPIDDELO@?$AA?5?$AA1?$AA6?$AA?5?$AAb?$AAi?$AAt@ 00000000000d90e0     UefiShellDebug1CommandsLib:QueryTable.obj
 0002:000110f0       ??_C@_1BA@DNOLMLGM@?$AA?5?$AA3?$AA2?$AA?5?$AAb?$AAi?$AAt@ 00000000000d90f0     UefiShellDebug1CommandsLib:QueryTable.obj
 0002:00011100       ??_C@_1BA@FGHFAAOB@?$AA?5?$AA6?$AA4?$AA?5?$AAb?$AAi?$AAt@ 00000000000d9100     UefiShellDebug1CommandsLib:QueryTable.obj
 0002:00011110       ??_C@_1BC@NEHKFBFM@?$AA?5?$AA1?$AA2?$AA8?$AA?5?$AAb?$AAi?$AAt@ 00000000000d9110     UefiShellDebug1CommandsLib:QueryTable.obj
 0002:00011128       ??_C@_1BE@OJJKOGNM@?$AA?5?$AA1?$AAx?$AA?5?$AAo?$AAr?$AA?5?$AAx?$AA1@ 00000000000d9128     UefiShellDebug1CommandsLib:QueryTable.obj
 0002:00011140       ??_C@_1BE@BBKJJEFA@?$AA?5?$AA2?$AAx?$AA?5?$AAo?$AAr?$AA?5?$AAx?$AA2@ 00000000000d9140     UefiShellDebug1CommandsLib:QueryTable.obj
 0002:00011158       ??_C@_1BE@DKLOHHAJ@?$AA?5?$AA4?$AAx?$AA?5?$AAo?$AAr?$AA?5?$AAx?$AA4@ 00000000000d9158     UefiShellDebug1CommandsLib:QueryTable.obj
 0002:00011170       ??_C@_1BE@GMJBLBLL@?$AA?5?$AA8?$AAx?$AA?5?$AAo?$AAr?$AA?5?$AAx?$AA8@ 00000000000d9170     UefiShellDebug1CommandsLib:QueryTable.obj
 0002:00011188       ??_C@_1BI@NKIOPCBP@?$AA?5?$AA1?$AA2?$AAx?$AA?5?$AAo?$AAr?$AA?5?$AAx?$AA1?$AA2@ 00000000000d9188     UefiShellDebug1CommandsLib:QueryTable.obj
 0002:000111a0       ??_C@_1BI@BLABIOBB@?$AA?5?$AA1?$AA6?$AAx?$AA?5?$AAo?$AAr?$AA?5?$AAx?$AA1?$AA6@ 00000000000d91a0     UefiShellDebug1CommandsLib:QueryTable.obj
 0002:000111b8       ??_C@_1BI@LJBGJKJE@?$AA?5?$AA3?$AA2?$AAx?$AA?5?$AAo?$AAr?$AA?5?$AAx?$AA3?$AA2@ 00000000000d91b8     UefiShellDebug1CommandsLib:QueryTable.obj
 0002:000111d0       ??_C@_1BA@FBEBHPLI@?$AA?5?$AAO?$AAt?$AAh?$AAe?$AAr?$AAs@ 00000000000d91d0     UefiShellDebug1CommandsLib:QueryTable.obj
 0002:000111e0       ??_C@_1O@BKEPEHNA@?$AA?5?$AAG?$AAe?$AAn?$AA?5?$AA1@ 00000000000d91e0     UefiShellDebug1CommandsLib:QueryTable.obj
 0002:000111f0       ??_C@_1O@IPKOIDO@?$AA?5?$AAG?$AAe?$AAn?$AA?5?$AA2@ 00000000000d91f0     UefiShellDebug1CommandsLib:QueryTable.obj
 0002:00011200       ??_C@_1O@LAEGIPFL@?$AA?5?$AAG?$AAe?$AAn?$AA?5?$AA3@ 00000000000d9200     UefiShellDebug1CommandsLib:QueryTable.obj
 0002:00011210       ??_C@_1O@CNJBLHOC@?$AA?5?$AAG?$AAe?$AAn?$AA?5?$AA4@ 00000000000d9210     UefiShellDebug1CommandsLib:QueryTable.obj
 0002:00011220       ??_C@_1O@JFCNNAIH@?$AA?5?$AAG?$AAe?$AAn?$AA?5?$AA5@ 00000000000d9220     UefiShellDebug1CommandsLib:QueryTable.obj
 0002:00011230       ??_C@_1O@IHJIHPGJ@?$AA?5?$AAG?$AAe?$AAn?$AA?5?$AA6@ 00000000000d9230     UefiShellDebug1CommandsLib:QueryTable.obj
 0002:00011240       ??_C@_1BG@PBNCCCP@?$AA?5?$AAA?$AAv?$AAa?$AAi?$AAl?$AAa?$AAb?$AAl?$AAe@ 00000000000d9240     UefiShellDebug1CommandsLib:QueryTable.obj
 0002:00011258       ??_C@_1BA@FEJMAK@?$AA?5?$AAI?$AAn?$AA?5?$AAu?$AAs?$AAe@ 00000000000d9258     UefiShellDebug1CommandsLib:QueryTable.obj
 0002:00011268       ??_C@_1BK@CNJJOMPA@?$AA?5?$AAU?$AAn?$AAa?$AAv?$AAa?$AAi?$AAl?$AAa?$AAb?$AAl?$AAe@ 00000000000d9268     UefiShellDebug1CommandsLib:QueryTable.obj
 0002:00011288       ??_C@_1BM@PMKIHGOB@?$AA?5?$AAS?$AAh?$AAo?$AAr?$AAt?$AA?5?$AAl?$AAe?$AAn?$AAg?$AAt?$AAh@ 00000000000d9288     UefiShellDebug1CommandsLib:QueryTable.obj
 0002:000112a8       ??_C@_1BK@FLOAHCMB@?$AA?5?$AAL?$AAo?$AAn?$AAg?$AA?5?$AAL?$AAe?$AAn?$AAg?$AAt?$AAh@ 00000000000d92a8     UefiShellDebug1CommandsLib:QueryTable.obj
 0002:000112c8       ??_C@_1CA@HNJJEEBP@?$AA?5?$AAN?$AAo?$AAt?$AA?5?$AAa?$AAp?$AAp?$AAl?$AAi?$AAc?$AAa?$AAb?$AAl?$AAe@ 00000000000d92c8     UefiShellDebug1CommandsLib:QueryTable.obj
 0002:000112e8       ??_C@_1BK@BOEOECO@?$AA?5?$AAF?$AAu?$AAl?$AAl?$AA?5?$AAh?$AAe?$AAi?$AAg?$AAh?$AAt@ 00000000000d92e8     UefiShellDebug1CommandsLib:QueryTable.obj
 0002:00011308       ??_C@_1BK@KFDMMBFO@?$AA?5?$AAL?$AAo?$AAw?$AA?9?$AAP?$AAr?$AAo?$AAf?$AAi?$AAl?$AAe@ 00000000000d9308     UefiShellDebug1CommandsLib:QueryTable.obj
 0002:00011328       ??_C@_1DC@FIGFMDLI@?$AA?5?$AAC?$AAh?$AAa?$AAr?$AAa?$AAc?$AAt?$AAe?$AAr?$AAi?$AAs?$AAt?$AAi?$AAc@ 00000000000d9328     UefiShellDebug1CommandsLib:QueryTable.obj
 0002:00011360       ??_C@_1CI@LDBECCCN@?$AA?5?$AAP?$AAr?$AAo?$AAv?$AAi?$AAd?$AAe?$AAs?$AA?5?$AA5?$AA?4?$AA0?$AA?5?$AAV@ 00000000000d9360     UefiShellDebug1CommandsLib:QueryTable.obj
 0002:00011388       ??_C@_1CI@BOPPALAK@?$AA?5?$AAP?$AAr?$AAo?$AAv?$AAi?$AAd?$AAe?$AAs?$AA?5?$AA3?$AA?4?$AA3?$AA?5?$AAV@ 00000000000d9388     UefiShellDebug1CommandsLib:QueryTable.obj
 0002:000113b0       ??_C@_1JA@EIHGPDKL@?$AA?5?$AAS?$AAl?$AAo?$AAt?$AA?8?$AAs?$AA?5?$AAo?$AAp?$AAe?$AAn?$AAi?$AAn?$AAg@ 00000000000d93b0     UefiShellDebug1CommandsLib:QueryTable.obj
 0002:00011440       ??_C@_1EE@OIOLADMH@?$AA?5?$AAP?$AAC?$AA?5?$AAC?$AAa?$AAr?$AAd?$AA?5?$AAs?$AAl?$AAo?$AAt?$AA?5?$AAs@ 00000000000d9440     UefiShellDebug1CommandsLib:QueryTable.obj
 0002:00011488       ??_C@_1DO@JFEDJOOK@?$AA?5?$AAP?$AAC?$AA?5?$AAC?$AAa?$AAr?$AAd?$AA?5?$AAs?$AAl?$AAo?$AAt?$AA?5?$AAs@ 00000000000d9488     UefiShellDebug1CommandsLib:QueryTable.obj
 0002:000114d0       ??_C@_1EG@IEPEODDF@?$AA?5?$AAP?$AAC?$AA?5?$AAC?$AAa?$AAr?$AAd?$AA?5?$AAs?$AAl?$AAo?$AAt?$AA?5?$AAs@ 00000000000d94d0     UefiShellDebug1CommandsLib:QueryTable.obj
 0002:00011520       ??_C@_1FE@NEBIPEBH@?$AA?5?$AAP?$AAC?$AA?5?$AAC?$AAa?$AAr?$AAd?$AA?5?$AAs?$AAl?$AAo?$AAt?$AA?5?$AAs@ 00000000000d9520     UefiShellDebug1CommandsLib:QueryTable.obj
 0002:00011580       ??_C@_1HC@HOEBBJJH@?$AA?5?$AAP?$AAC?$AAI?$AA?5?$AAs?$AAl?$AAo?$AAt?$AA?5?$AAs?$AAu?$AAp?$AAp?$AAo@ 00000000000d9580     UefiShellDebug1CommandsLib:QueryTable.obj
 0002:00011600       ??_C@_1EA@FECBNCMD@?$AA?5?$AAS?$AAl?$AAo?$AAt?$AA?5?$AAs?$AAu?$AAp?$AAp?$AAo?$AAr?$AAt?$AAs?$AA?5@ 00000000000d9600     UefiShellDebug1CommandsLib:QueryTable.obj
 0002:00011640       ??_C@_1EA@PLBBCABB@?$AA?5?$AAP?$AAC?$AAI?$AA?5?$AAs?$AAl?$AAo?$AAt?$AA?5?$AAs?$AAu?$AAp?$AAp?$AAo@ 00000000000d9640     UefiShellDebug1CommandsLib:QueryTable.obj
 0002:00011680       ??_C@_1EA@JPLCNHA@?$AA?5?$AAP?$AAC?$AAI?$AAe?$AA?5?$AAs?$AAl?$AAo?$AAt?$AA?5?$AAs?$AAu?$AAp?$AAp@ 00000000000d9680     UefiShellDebug1CommandsLib:QueryTable.obj
 0002:000116c0       ??_C@_1EM@JFENEIHI@?$AA?5?$AAS?$AAl?$AAo?$AAt?$AA?5?$AAs?$AAu?$AAp?$AAp?$AAo?$AAr?$AAt?$AAs?$AA?5@ 00000000000d96c0     UefiShellDebug1CommandsLib:QueryTable.obj
 0002:00011710       ??_C@_1DO@EDOPJLBB@?$AA?5?$AAF?$AAl?$AAe?$AAx?$AAb?$AAu?$AAs?$AA?5?$AAs?$AAl?$AAo?$AAt?$AA?0?$AA?5@ 00000000000d9710     UefiShellDebug1CommandsLib:QueryTable.obj
 0002:00011750       ??_C@_1DO@BLPBDCDJ@?$AA?5?$AAF?$AAl?$AAe?$AAx?$AAb?$AAu?$AAs?$AA?5?$AAs?$AAl?$AAo?$AAt?$AA?0?$AA?5@ 00000000000d9750     UefiShellDebug1CommandsLib:QueryTable.obj
 0002:00011790       ??_C@_1BA@FIHGLAKE@?$AA?5?$AA?5?$AAV?$AAi?$AAd?$AAe?$AAo@ 00000000000d9790     UefiShellDebug1CommandsLib:QueryTable.obj
 0002:000117a0       ??_C@_1CE@BHBIDJGK@?$AA?5?$AA?5?$AAS?$AAC?$AAS?$AAI?$AA?5?$AAC?$AAo?$AAn?$AAt?$AAr?$AAo?$AAl?$AAl@ 00000000000d97a0     UefiShellDebug1CommandsLib:QueryTable.obj
 0002:000117c8       ??_C@_1BG@BEFJKGMH@?$AA?5?$AA?5?$AAE?$AAt?$AAh?$AAe?$AAr?$AAn?$AAe?$AAt@ 00000000000d97c8     UefiShellDebug1CommandsLib:QueryTable.obj
 0002:000117e0       ??_C@_1BK@KNKKNDDH@?$AA?5?$AA?5?$AAT?$AAo?$AAk?$AAe?$AAn?$AA?5?$AAR?$AAi?$AAn?$AAg@ 00000000000d97e0     UefiShellDebug1CommandsLib:QueryTable.obj
 0002:00011800       ??_C@_1BA@MABMPBIE@?$AA?5?$AA?5?$AAS?$AAo?$AAu?$AAn?$AAd@ 00000000000d9800     UefiShellDebug1CommandsLib:QueryTable.obj
 0002:00011810       ??_C@_1CE@KPFEECDP@?$AA?5?$AA?5?$AAP?$AAa?$AAt?$AAa?$AA?5?$AAC?$AAo?$AAn?$AAt?$AAr?$AAo?$AAl?$AAl@ 00000000000d9810     UefiShellDebug1CommandsLib:QueryTable.obj
 0002:00011838       ??_C@_1CE@GGELEKIA@?$AA?5?$AA?5?$AAS?$AAa?$AAt?$AAa?$AA?5?$AAC?$AAo?$AAn?$AAt?$AAr?$AAo?$AAl?$AAl@ 00000000000d9838     UefiShellDebug1CommandsLib:QueryTable.obj
 0002:00011860       ??_C@_1CC@IFDOBMBO@?$AA?5?$AA?5?$AAS?$AAa?$AAs?$AA?5?$AAC?$AAo?$AAn?$AAt?$AAr?$AAo?$AAl?$AAl?$AAe@ 00000000000d9860     UefiShellDebug1CommandsLib:QueryTable.obj
 0002:00011888       ??_C@_1BO@CHFNBEOG@?$AA?5?$AA?5?$AAW?$AAi?$AAr?$AAe?$AAl?$AAe?$AAs?$AAs?$AA?5?$AAL?$AAA?$AAN@ 00000000000d9888     UefiShellDebug1CommandsLib:QueryTable.obj
 0002:000118a8       ??_C@_1BI@ODHIHGLH@?$AA?5?$AA?5?$AAB?$AAl?$AAu?$AAe?$AAt?$AAo?$AAo?$AAt?$AAh@ 00000000000d98a8     UefiShellDebug1CommandsLib:QueryTable.obj
 0002:000118c0       ??_C@_1O@EAPFLEDB@?$AA?5?$AA?5?$AAW?$AAW?$AAA?$AAN@ 00000000000d98c0     UefiShellDebug1CommandsLib:QueryTable.obj
 0002:000118d0       ??_C@_1EE@HEBGMLIH@?$AA?5?$AA?5?$AAe?$AAm?$AAb?$AAe?$AAd?$AAd?$AAe?$AAd?$AA?5?$AAM?$AAu?$AAl?$AAt@ 00000000000d98d0     UefiShellDebug1CommandsLib:QueryTable.obj
 0002:00011918       ??_C@_1CE@DHCOBDNI@?$AA?5?$AA?5?$AAN?$AAV?$AAM?$AAe?$AA?5?$AAC?$AAo?$AAn?$AAt?$AAr?$AAo?$AAl?$AAl@ 00000000000d9918     UefiShellDebug1CommandsLib:QueryTable.obj
 0002:00011940       ??_C@_1CC@LBBPLGGM@?$AA?5?$AA?5?$AAU?$AAF?$AAS?$AA?5?$AAC?$AAo?$AAn?$AAt?$AAr?$AAo?$AAl?$AAl?$AAe@ 00000000000d9940     UefiShellDebug1CommandsLib:QueryTable.obj
 0002:00011968       ??_C@_1BG@EFPNDPFB@?$AA?5?$AAR?$AAe?$AAs?$AAe?$AAr?$AAv?$AAe?$AAd?$AA?4@ 00000000000d9968     UefiShellDebug1CommandsLib:QueryTable.obj
 0002:00011980       ??_C@_1DK@JCGEGJKI@?$AA?5?$AAS?$AAi?$AAn?$AAg?$AAl?$AAe?$AA?9?$AAb?$AAi?$AAt?$AA?5?$AAE?$AAC?$AAC@ 00000000000d9980     UefiShellDebug1CommandsLib:QueryTable.obj
 0002:000119c0       ??_C@_1DI@IBHOKKKH@?$AA?5?$AAM?$AAu?$AAl?$AAt?$AAi?$AA?9?$AAb?$AAi?$AAt?$AA?5?$AAE?$AAC?$AAC?$AA?5@ 00000000000d99c0     UefiShellDebug1CommandsLib:QueryTable.obj
 0002:000119f8       ??_C@_1CK@BJAGMCAE@?$AA?5?$AAP?$AAa?$AAr?$AAi?$AAt?$AAy?$AA?5?$AAm?$AAe?$AAm?$AAo?$AAr?$AAy?$AA?5@ 00000000000d99f8     UefiShellDebug1CommandsLib:QueryTable.obj
 0002:00011a28       ??_C@_1BM@LOLGDEMN@?$AA?5?$AAB?$AAu?$AAs?$AA?5?$AAt?$AAi?$AAm?$AAe?$AA?9?$AAo?$AAu?$AAt@ 00000000000d9a28     UefiShellDebug1CommandsLib:QueryTable.obj
 0002:00011a48       ??_C@_1CG@DNBJCKBI@?$AA?5?$AAI?$AA?1?$AAO?$AA?5?$AAC?$AAh?$AAa?$AAn?$AAn?$AAe?$AAl?$AA?5?$AAC?$AAh@ 00000000000d9a48     UefiShellDebug1CommandsLib:QueryTable.obj
 0002:00011a70       ??_C@_1BM@HNPAJNDG@?$AA?5?$AAS?$AAo?$AAf?$AAt?$AAw?$AAa?$AAr?$AAe?$AA?5?$AAN?$AAM?$AAI@ 00000000000d9a70     UefiShellDebug1CommandsLib:QueryTable.obj
 0002:00011a90       ??_C@_1CI@KPDLJCME@?$AA?5?$AAP?$AAO?$AAS?$AAT?$AA?5?$AAM?$AAe?$AAm?$AAo?$AAr?$AAy?$AA?5?$AAR?$AAe@ 00000000000d9a90     UefiShellDebug1CommandsLib:QueryTable.obj
 0002:00011ab8       ??_C@_1BI@KLAPKJAF@?$AA?5?$AAP?$AAO?$AAS?$AAT?$AA?5?$AAE?$AAr?$AAr?$AAo?$AAr@ 00000000000d9ab8     UefiShellDebug1CommandsLib:QueryTable.obj
 0002:00011ad0       ??_C@_1CE@NILMJPJ@?$AA?5?$AAP?$AAC?$AAI?$AA?5?$AAP?$AAa?$AAr?$AAi?$AAt?$AAy?$AA?5?$AAE?$AAr?$AAr@ 00000000000d9ad0     UefiShellDebug1CommandsLib:QueryTable.obj
 0002:00011af8       ??_C@_1CE@OAOCDGCK@?$AA?5?$AAP?$AAC?$AAI?$AA?5?$AAS?$AAy?$AAs?$AAt?$AAe?$AAm?$AA?5?$AAE?$AAr?$AAr@ 00000000000d9af8     UefiShellDebug1CommandsLib:QueryTable.obj
 0002:00011b20       ??_C@_1BK@NNPANPFC@?$AA?5?$AAC?$AAP?$AAU?$AA?5?$AAF?$AAa?$AAi?$AAl?$AAu?$AAr?$AAe@ 00000000000d9b20     UefiShellDebug1CommandsLib:QueryTable.obj
 0002:00011b40       ??_C@_1DM@BDHCHFBO@?$AA?5?$AAE?$AAI?$AAS?$AAA?$AA?5?$AAF?$AAa?$AAi?$AAl?$AAS?$AAa?$AAf?$AAe?$AA?5@ 00000000000d9b40     UefiShellDebug1CommandsLib:QueryTable.obj
 0002:00011b80       ??_C@_1EC@CAAJHHDM@?$AA?5?$AAC?$AAo?$AAr?$AAr?$AAe?$AAc?$AAt?$AAa?$AAb?$AAl?$AAe?$AA?5?$AAm?$AAe@ 00000000000d9b80     UefiShellDebug1CommandsLib:QueryTable.obj
 0002:00011bd0       ??_C@_1FI@GNDLBGGM@?$AA?5?$AAL?$AAo?$AAg?$AAg?$AAi?$AAn?$AAg?$AA?5?$AAd?$AAi?$AAs?$AAa?$AAb?$AAl@ 00000000000d9bd0     UefiShellDebug1CommandsLib:QueryTable.obj
 0002:00011c28       ??_C@_1CO@OEOIIMKB@?$AA?5?$AAS?$AAy?$AAs?$AAt?$AAe?$AAm?$AA?5?$AAL?$AAi?$AAm?$AAi?$AAt?$AA?5?$AAE@ 00000000000d9c28     UefiShellDebug1CommandsLib:QueryTable.obj
 0002:00011c60       ??_C@_1HO@IMHBEFG@?$AA?5?$AAA?$AAs?$AAy?$AAn?$AAc?$AAh?$AAr?$AAo?$AAn?$AAo?$AAu?$AAs?$AA?5?$AAh@ 00000000000d9c60     UefiShellDebug1CommandsLib:QueryTable.obj
 0002:00011ce0       ??_C@_1EE@BEEGODPM@?$AA?5?$AAS?$AAy?$AAs?$AAt?$AAe?$AAm?$AA?5?$AAc?$AAo?$AAn?$AAf?$AAi?$AAg?$AAu@ 00000000000d9ce0     UefiShellDebug1CommandsLib:QueryTable.obj
 0002:00011d28       ??_C@_1CO@CAKKPLP@?$AA?5?$AAH?$AAa?$AAr?$AAd?$AA?9?$AAd?$AAi?$AAs?$AAk?$AA?5?$AAi?$AAn?$AAf?$AAo@ 00000000000d9d28     UefiShellDebug1CommandsLib:QueryTable.obj
 0002:00011d58       ??_C@_1CK@CGNHFMJJ@?$AA?5?$AAS?$AAy?$AAs?$AAt?$AAe?$AAm?$AA?5?$AAr?$AAe?$AAc?$AAo?$AAn?$AAf?$AAi@ 00000000000d9d58     UefiShellDebug1CommandsLib:QueryTable.obj
 0002:00011d90       ??_C@_1EC@CCIFCIBI@?$AA?5?$AAU?$AAn?$AAc?$AAo?$AAr?$AAr?$AAe?$AAc?$AAt?$AAa?$AAb?$AAl?$AAe?$AA?5@ 00000000000d9d90     UefiShellDebug1CommandsLib:QueryTable.obj
 0002:00011dd8       ??_C@_1DA@LCIPEMME@?$AA?5?$AAL?$AAo?$AAg?$AA?5?$AAA?$AAr?$AAe?$AAa?$AA?5?$AAR?$AAe?$AAs?$AAe?$AAt@ 00000000000d9dd8     UefiShellDebug1CommandsLib:QueryTable.obj
 0002:00011e08       ??_C@_1BK@JIKBKJOA@?$AA?5?$AAS?$AAy?$AAs?$AAt?$AAe?$AAm?$AA?5?$AAb?$AAo?$AAo?$AAt@ 00000000000d9e08     UefiShellDebug1CommandsLib:QueryTable.obj
 0002:00011e30       ??_C@_1EA@FCCFOHFH@?$AA?5?$AAU?$AAn?$AAu?$AAs?$AAe?$AAd?$AA?5?$AAb?$AAy?$AA?5?$AAS?$AAM?$AAB?$AAI@ 00000000000d9e30     UefiShellDebug1CommandsLib:QueryTable.obj
 0002:00011e70       ??_C@_1DE@OPAHBBEN@?$AA?5?$AAS?$AAy?$AAs?$AAt?$AAe?$AAm?$AA?5?$AAa?$AAn?$AAd?$AA?5?$AAO?$AAE?$AAM@ 00000000000d9e70     UefiShellDebug1CommandsLib:QueryTable.obj
 0002:00011ea8       ??_C@_1BI@JIFHDPDM@?$AA?5?$AAE?$AAn?$AAd?$AA?9?$AAo?$AAf?$AA?9?$AAl?$AAo?$AAg@ 00000000000d9ea8     UefiShellDebug1CommandsLib:QueryTable.obj
 0002:00011ec0       ??_C@_1O@CHPEEGKN@?$AA?5?$AAN?$AAo?$AAn?$AAe?$AA?5@ 00000000000d9ec0     UefiShellDebug1CommandsLib:QueryTable.obj
 0002:00011ed0       ??_C@_1BC@OPDNBAFH@?$AA?5?$AAH?$AAa?$AAn?$AAd?$AAl?$AAe?$AA?5@ 00000000000d9ed0     UefiShellDebug1CommandsLib:QueryTable.obj
 0002:00011ee8       ??_C@_1CC@HBJFNEGG@?$AA?5?$AAM?$AAu?$AAl?$AAt?$AAi?$AAp?$AAl?$AAe?$AA?9?$AAE?$AAv?$AAe?$AAn?$AAt@ 00000000000d9ee8     UefiShellDebug1CommandsLib:QueryTable.obj
 0002:00011f10       ??_C@_1DA@PMAJFMIF@?$AA?5?$AAM?$AAu?$AAl?$AAt?$AAi?$AAp?$AAl?$AAe?$AA?9?$AAE?$AAv?$AAe?$AAn?$AAt@ 00000000000d9f10     UefiShellDebug1CommandsLib:QueryTable.obj
 0002:00011f40       ??_C@_1CM@LNKAMACD@?$AA?5?$AAP?$AAO?$AAS?$AAT?$AA?5?$AAR?$AAe?$AAs?$AAu?$AAl?$AAt?$AAs?$AA?5?$AAB@ 00000000000d9f40     UefiShellDebug1CommandsLib:QueryTable.obj
 0002:00011f70       ??_C@_1DA@LMLLDOGA@?$AA?5?$AAS?$AAy?$AAs?$AAt?$AAe?$AAm?$AA?5?$AAM?$AAa?$AAn?$AAa?$AAg?$AAe?$AAm@ 00000000000d9f70     UefiShellDebug1CommandsLib:QueryTable.obj
 0002:00011fa0       ??_C@_1FA@LOFDDJNI@?$AA?5?$AAM?$AAu?$AAl?$AAt?$AAi?$AAp?$AAl?$AAe?$AA?9?$AAE?$AAv?$AAe?$AAn?$AAt@ 00000000000d9fa0     UefiShellDebug1CommandsLib:QueryTable.obj
 0002:00011ff0       ??_C@_1BC@DKCPMDIL@?$AA?5?$AAU?$AAn?$AAu?$AAs?$AAe?$AAd?$AA?5@ 00000000000d9ff0     UefiShellDebug1CommandsLib:QueryTable.obj
 0002:00012008       ??_C@_1BO@GCNEBFHF@?$AA?5?$AAO?$AAE?$AAM?$AA?5?$AAa?$AAs?$AAs?$AAi?$AAg?$AAn?$AAe?$AAd?$AA?5@ 00000000000da008     UefiShellDebug1CommandsLib:QueryTable.obj
 0002:00012028       ??_C@_1DA@NBEBMC@?$AA?5?$AAC?$AAh?$AAa?$AAn?$AAn?$AAe?$AAl?$AA?5?$AA2?$AA?5?$AAT?$AAi?$AAm?$AAe@ 00000000000da028     UefiShellDebug1CommandsLib:QueryTable.obj
 0002:00012058       ??_C@_1DK@MDGFNBLI@?$AA?5?$AAM?$AAa?$AAs?$AAt?$AAe?$AAr?$AA?5?$AAP?$AAI?$AAC?$AA?5?$AA?$CI?$AA8?$AA2@ 00000000000da058     UefiShellDebug1CommandsLib:QueryTable.obj
 0002:00012098       ??_C@_1DI@OMKGLDAO@?$AA?5?$AAS?$AAl?$AAa?$AAv?$AAe?$AA?5?$AAP?$AAI?$AAC?$AA?5?$AA?$CI?$AA8?$AA2?$AA5@ 00000000000da098     UefiShellDebug1CommandsLib:QueryTable.obj
 0002:000120d0       ??_C@_1CO@JBMKMEBD@?$AA?5?$AAC?$AAM?$AAO?$AAS?$AA?5?$AAB?$AAa?$AAt?$AAt?$AAe?$AAr?$AAy?$AA?5?$AAF@ 00000000000da0d0     UefiShellDebug1CommandsLib:QueryTable.obj
 0002:00012100       ??_C@_1DM@EBIMHGJG@?$AA?5?$AAC?$AAM?$AAO?$AAS?$AA?5?$AAS?$AAy?$AAs?$AAt?$AAe?$AAm?$AA?5?$AAO?$AAp@ 00000000000da100     UefiShellDebug1CommandsLib:QueryTable.obj
 0002:00012140       ??_C@_1CM@CFJBDCNB@?$AA?5?$AAC?$AAM?$AAO?$AAS?$AA?5?$AAC?$AAh?$AAe?$AAc?$AAk?$AAs?$AAu?$AAm?$AA?5@ 00000000000da140     UefiShellDebug1CommandsLib:QueryTable.obj
 0002:00012170       ??_C@_1DG@HFAODPMF@?$AA?5?$AAC?$AAM?$AAO?$AAS?$AA?5?$AAC?$AAo?$AAn?$AAf?$AAi?$AAg?$AAu?$AAr?$AAa@ 00000000000da170     UefiShellDebug1CommandsLib:QueryTable.obj
 0002:000121a8       ??_C@_1DK@CKOKNKLD@?$AA?5?$AAM?$AAo?$AAu?$AAs?$AAe?$AA?5?$AAa?$AAn?$AAd?$AA?5?$AAK?$AAe?$AAy?$AAb@ 00000000000da1a8     UefiShellDebug1CommandsLib:QueryTable.obj
 0002:000121e8       ??_C@_1CE@HKNJNPPA@?$AA?5?$AAK?$AAe?$AAy?$AAb?$AAo?$AAa?$AAr?$AAd?$AA?5?$AAL?$AAo?$AAc?$AAk?$AAe@ 00000000000da1e8     UefiShellDebug1CommandsLib:QueryTable.obj
 0002:00012210       ??_C@_1DE@JPJEMPHC@?$AA?5?$AAK?$AAe?$AAy?$AAb?$AAo?$AAa?$AAr?$AAd?$AA?5?$AAN?$AAo?$AAt?$AA?5?$AAF@ 00000000000da210     UefiShellDebug1CommandsLib:QueryTable.obj
 0002:00012250       ??_C@_1EK@EKBKHGAD@?$AA?5?$AAK?$AAe?$AAy?$AAb?$AAo?$AAa?$AAr?$AAd?$AA?5?$AAC?$AAo?$AAn?$AAt?$AAr@ 00000000000da250     UefiShellDebug1CommandsLib:QueryTable.obj
 0002:000122a0       ??_C@_1DK@CMPKGMCK@?$AA?5?$AAC?$AAM?$AAO?$AAS?$AA?5?$AAM?$AAe?$AAm?$AAo?$AAr?$AAy?$AA?5?$AAS?$AAi@ 00000000000da2a0     UefiShellDebug1CommandsLib:QueryTable.obj
 0002:000122e0       ??_C@_1DG@PLLDHOLJ@?$AA?5?$AAM?$AAe?$AAm?$AAo?$AAr?$AAy?$AA?5?$AAD?$AAe?$AAc?$AAr?$AAe?$AAa?$AAs@ 00000000000da2e0     UefiShellDebug1CommandsLib:QueryTable.obj
 0002:00012318       ??_C@_1CK@BIEBBIJC@?$AA?5?$AAC?$AAa?$AAc?$AAh?$AAe?$AA?5?$AAM?$AAe?$AAm?$AAo?$AAr?$AAy?$AA?5?$AAE@ 00000000000da318     UefiShellDebug1CommandsLib:QueryTable.obj
 0002:00012348       ??_C@_1CO@GBFPKAEB@?$AA?5?$AAF?$AAl?$AAo?$AAp?$AAp?$AAy?$AA?5?$AAD?$AAr?$AAi?$AAv?$AAe?$AA?5?$AA0@ 00000000000da348     UefiShellDebug1CommandsLib:QueryTable.obj
 0002:00012378       ??_C@_1CO@IOANBGKA@?$AA?5?$AAF?$AAl?$AAo?$AAp?$AAp?$AAy?$AA?5?$AAD?$AAr?$AAi?$AAv?$AAe?$AA?5?$AA1@ 00000000000da378     UefiShellDebug1CommandsLib:QueryTable.obj
 0002:000123a8       ??_C@_1DI@LGDKDBKC@?$AA?5?$AAF?$AAl?$AAo?$AAp?$AAp?$AAy?$AA?5?$AAC?$AAo?$AAn?$AAt?$AAr?$AAo?$AAl@ 00000000000da3a8     UefiShellDebug1CommandsLib:QueryTable.obj
 0002:000123e0       ??_C@_1EK@JGAKCFFG@?$AA?5?$AAN?$AAu?$AAm?$AAb?$AAe?$AAr?$AA?5?$AAo?$AAf?$AA?5?$AAA?$AAT?$AAA?$AA?5@ 00000000000da3e0     UefiShellDebug1CommandsLib:QueryTable.obj
 0002:00012430       ??_C@_1CI@JHKILACA@?$AA?5?$AAC?$AAM?$AAO?$AAS?$AA?5?$AAT?$AAi?$AAm?$AAe?$AA?5?$AAN?$AAo?$AAt?$AA?5@ 00000000000da430     UefiShellDebug1CommandsLib:QueryTable.obj
 0002:00012460       ??_C@_1EG@CBFNBNLB@?$AA?5?$AAD?$AAD?$AAC?$AA?5?$AAM?$AAo?$AAn?$AAi?$AAt?$AAo?$AAr?$AA?5?$AAC?$AAo@ 00000000000da460     UefiShellDebug1CommandsLib:QueryTable.obj
 0002:000124a8       ??_C@_1CK@FFBDJGID@?$AA?5?$AAR?$AAe?$AAs?$AAe?$AAr?$AAv?$AAe?$AAd?$AA?0?$AA?5?$AAs?$AAe?$AAt?$AA?5@ 00000000000da4a8     UefiShellDebug1CommandsLib:QueryTable.obj
 0002:000124d8       ??_C@_1DM@CMAAJKDK@?$AA?5?$AAS?$AAe?$AAc?$AAo?$AAn?$AAd?$AA?5?$AAD?$AAW?$AAO?$AAR?$AAD?$AA?5?$AAh@ 00000000000da4d8     UefiShellDebug1CommandsLib:QueryTable.obj
 0002:00012520       ??_C@_1FG@DJMHBPCE@?$AA?5?$AAN?$AAo?$AAr?$AAm?$AAa?$AAl?$AAl?$AAy?$AA?5?$AA0?$AA?$DL?$AA?5?$AAa?$AAv@ 00000000000da520     UefiShellDebug1CommandsLib:QueryTable.obj
 0002:00012578       ??_C@_1CM@PPAOHOBI@?$AA?5?$AAP?$AAC?$AAI?$AA?5?$AAM?$AAe?$AAm?$AAo?$AAr?$AAy?$AA?5?$AAC?$AAo?$AAn@ 00000000000da578     UefiShellDebug1CommandsLib:QueryTable.obj
 0002:000125a8       ??_C@_1CG@NOODKEAF@?$AA?5?$AAP?$AAC?$AAI?$AA?5?$AAI?$AA?1?$AAO?$AA?5?$AAC?$AAo?$AAn?$AAf?$AAl?$AAi@ 00000000000da5a8     UefiShellDebug1CommandsLib:QueryTable.obj
 0002:000125d0       ??_C@_1CG@LKEFCEMJ@?$AA?5?$AAP?$AAC?$AAI?$AA?5?$AAI?$AAR?$AAQ?$AA?5?$AAC?$AAo?$AAn?$AAf?$AAl?$AAi@ 00000000000da5d0     UefiShellDebug1CommandsLib:QueryTable.obj
 0002:000125f8       ??_C@_1CM@HFODNKGG@?$AA?5?$AAP?$AAN?$AAP?$AA?5?$AAM?$AAe?$AAm?$AAo?$AAr?$AAy?$AA?5?$AAC?$AAo?$AAn@ 00000000000da5f8     UefiShellDebug1CommandsLib:QueryTable.obj
 0002:00012628       ??_C@_1DK@ICOLDMIM@?$AA?5?$AAP?$AAN?$AAP?$AA?5?$AA3?$AA2?$AA?5?$AAb?$AAi?$AAt?$AA?5?$AAM?$AAe?$AAm@ 00000000000da628     UefiShellDebug1CommandsLib:QueryTable.obj
 0002:00012668       ??_C@_1CG@JIJMGBAN@?$AA?5?$AAP?$AAN?$AAP?$AA?5?$AAI?$AA?1?$AAO?$AA?5?$AAC?$AAo?$AAn?$AAf?$AAl?$AAi@ 00000000000da668     UefiShellDebug1CommandsLib:QueryTable.obj
 0002:00012690       ??_C@_1CG@PMDKOBMB@?$AA?5?$AAP?$AAN?$AAP?$AA?5?$AAI?$AAR?$AAQ?$AA?5?$AAC?$AAo?$AAn?$AAf?$AAl?$AAi@ 00000000000da690     UefiShellDebug1CommandsLib:QueryTable.obj
 0002:000126b8       ??_C@_1CG@KOCEHCJP@?$AA?5?$AAP?$AAN?$AAP?$AA?5?$AAD?$AAM?$AAA?$AA?5?$AAC?$AAo?$AAn?$AAf?$AAl?$AAi@ 00000000000da6b8     UefiShellDebug1CommandsLib:QueryTable.obj
 0002:000126e0       ??_C@_1DK@ICHJHDMD@?$AA?5?$AAB?$AAa?$AAd?$AA?5?$AAP?$AAN?$AAP?$AA?5?$AAS?$AAe?$AAr?$AAi?$AAa?$AAl@ 00000000000da6e0     UefiShellDebug1CommandsLib:QueryTable.obj
 0002:00012720       ??_C@_1EC@PMGMKMCF@?$AA?5?$AAB?$AAa?$AAd?$AA?5?$AAP?$AAN?$AAP?$AA?5?$AAR?$AAe?$AAs?$AAo?$AAu?$AAr@ 00000000000da720     UefiShellDebug1CommandsLib:QueryTable.obj
 0002:00012768       ??_C@_1DG@NHJNPFDG@?$AA?5?$AAS?$AAt?$AAa?$AAt?$AAi?$AAc?$AA?5?$AAR?$AAe?$AAs?$AAo?$AAu?$AAr?$AAc@ 00000000000da768     UefiShellDebug1CommandsLib:QueryTable.obj
 0002:000127a0       ??_C@_1EM@LDBJBBDL@?$AA?5?$AAN?$AAV?$AAR?$AAA?$AAM?$AA?5?$AAC?$AAh?$AAe?$AAc?$AAk?$AAs?$AAu?$AAm@ 00000000000da7a0     UefiShellDebug1CommandsLib:QueryTable.obj
 0002:000127f0       ??_C@_1FA@DKGFJHHI@?$AA?5?$AAS?$AAy?$AAs?$AAt?$AAe?$AAm?$AA?5?$AAB?$AAo?$AAa?$AAr?$AAd?$AA?5?$AAD@ 00000000000da7f0     UefiShellDebug1CommandsLib:QueryTable.obj
 0002:00012840       ??_C@_1EE@FMMJPMEL@?$AA?5?$AAP?$AAr?$AAi?$AAm?$AAa?$AAr?$AAy?$AA?5?$AAO?$AAu?$AAt?$AAp?$AAu?$AAt@ 00000000000da840     UefiShellDebug1CommandsLib:QueryTable.obj
 0002:00012890       ??_C@_1EC@GAAMAAKE@?$AA?5?$AAP?$AAr?$AAi?$AAm?$AAa?$AAr?$AAy?$AA?5?$AAI?$AAn?$AAp?$AAu?$AAt?$AA?5@ 00000000000da890     UefiShellDebug1CommandsLib:QueryTable.obj
 0002:000128e0       ??_C@_1EA@GJDFNHMM@?$AA?5?$AAP?$AAr?$AAi?$AAm?$AAa?$AAr?$AAy?$AA?5?$AAB?$AAo?$AAo?$AAt?$AA?5?$AAD@ 00000000000da8e0     UefiShellDebug1CommandsLib:QueryTable.obj
 0002:00012920       ??_C@_1DE@KJEMOHJI@?$AA?5?$AAN?$AAV?$AAR?$AAA?$AAM?$AA?5?$AAC?$AAl?$AAe?$AAa?$AAr?$AAe?$AAd?$AA?5@ 00000000000da920     UefiShellDebug1CommandsLib:QueryTable.obj
 0002:00012960       ??_C@_1EI@GEEBAM@?$AA?5?$AAN?$AAV?$AAR?$AAA?$AAM?$AA?5?$AAD?$AAa?$AAt?$AAa?$AA?5?$AAI?$AAn?$AAv@ 00000000000da960     UefiShellDebug1CommandsLib:QueryTable.obj
 0002:000129a8       ??_C@_1DA@HOECFJC@?$AA?5?$AAF?$AAD?$AAC?$AA?5?$AAR?$AAe?$AAs?$AAo?$AAu?$AAr?$AAc?$AAe?$AA?5?$AAC@ 00000000000da9a8     UefiShellDebug1CommandsLib:QueryTable.obj
 0002:000129e0       ??_C@_1FG@KFIMMFIG@?$AA?5?$AAP?$AAr?$AAi?$AAm?$AAa?$AAr?$AAy?$AA?5?$AAA?$AAT?$AAA?$AA?5?$AAC?$AAo@ 00000000000da9e0     UefiShellDebug1CommandsLib:QueryTable.obj
 0002:00012a40       ??_C@_1FK@INNONJPP@?$AA?5?$AAS?$AAe?$AAc?$AAo?$AAn?$AAd?$AAa?$AAr?$AAy?$AA?5?$AAA?$AAT?$AAA?$AA?5@ 00000000000daa40     UefiShellDebug1CommandsLib:QueryTable.obj
 0002:00012aa0       ??_C@_1EE@PKJNLPOF@?$AA?5?$AAP?$AAa?$AAr?$AAa?$AAl?$AAl?$AAe?$AAl?$AA?5?$AAP?$AAo?$AAr?$AAt?$AA?5@ 00000000000daaa0     UefiShellDebug1CommandsLib:QueryTable.obj
 0002:00012af0       ??_C@_1EE@PGOIOJ@?$AA?5?$AAS?$AAe?$AAr?$AAi?$AAa?$AAl?$AA?5?$AAP?$AAo?$AAr?$AAt?$AA?5?$AA1?$AA?5@ 00000000000daaf0     UefiShellDebug1CommandsLib:QueryTable.obj
 0002:00012b40       ??_C@_1EE@DIMNGDJK@?$AA?5?$AAS?$AAe?$AAr?$AAi?$AAa?$AAl?$AA?5?$AAP?$AAo?$AAr?$AAt?$AA?5?$AA2?$AA?5@ 00000000000dab40     UefiShellDebug1CommandsLib:QueryTable.obj
 0002:00012b88       ??_C@_1DE@BGAKOGJM@?$AA?5?$AAA?$AAu?$AAd?$AAi?$AAo?$AA?5?$AAR?$AAe?$AAs?$AAo?$AAu?$AAr?$AAc?$AAe@ 00000000000dab88     UefiShellDebug1CommandsLib:QueryTable.obj
 0002:00012bc0       ??_C@_1DC@IAGLGMGH@?$AA?5?$AA?$CL?$AA2?$AA?4?$AA5?$AAV?$AA?5?$AAO?$AAu?$AAt?$AA?5?$AAo?$AAf?$AA?5?$AAr@ 00000000000dabc0     UefiShellDebug1CommandsLib:QueryTable.obj
 0002:00012bf8       ??_C@_1CK@ICLNCCPK@?$AA?5?$AA?$CL?$AA3?$AA?4?$AA3?$AAV?$AA?5?$AAO?$AAu?$AAt?$AA?5?$AAo?$AAf?$AA?5?$AAr@ 00000000000dabf8     UefiShellDebug1CommandsLib:QueryTable.obj
 0002:00012c28       ??_C@_1CG@DEEAOKBI@?$AA?5?$AA?$CL?$AA5?$AAV?$AA?5?$AAO?$AAu?$AAt?$AA?5?$AAo?$AAf?$AA?5?$AAr?$AAa?$AAn@ 00000000000dac28     UefiShellDebug1CommandsLib:QueryTable.obj
 0002:00012c50       ??_C@_1CG@PNIABNOE@?$AA?5?$AA?9?$AA5?$AAV?$AA?5?$AAO?$AAu?$AAt?$AA?5?$AAo?$AAf?$AA?5?$AAr?$AAa?$AAn@ 00000000000dac50     UefiShellDebug1CommandsLib:QueryTable.obj
 0002:00012c78       ??_C@_1CI@BCJNHMMN@?$AA?5?$AA?$CL?$AA1?$AA2?$AAV?$AA?5?$AAO?$AAu?$AAt?$AA?5?$AAo?$AAf?$AA?5?$AAr?$AAa@ 00000000000dac78     UefiShellDebug1CommandsLib:QueryTable.obj
 0002:00012ca0       ??_C@_1CI@IJENHMAD@?$AA?5?$AA?9?$AA1?$AA2?$AAV?$AA?5?$AAO?$AAu?$AAt?$AA?5?$AAo?$AAf?$AA?5?$AAr?$AAa@ 00000000000daca0     UefiShellDebug1CommandsLib:QueryTable.obj
 0002:00012cd0       ??_C@_1GE@JBKBBPKI@?$AA?5?$AAR?$AAe?$AAs?$AAe?$AAr?$AAv?$AAe?$AAd?$AA?5?$AAf?$AAo?$AAr?$AA?5?$AAf@ 00000000000dacd0     UefiShellDebug1CommandsLib:QueryTable.obj
 0002:00012d40       ??_C@_1FA@HGMMHNHG@?$AA?5?$AAS?$AAy?$AAs?$AAt?$AAe?$AAm?$AA?5?$AAb?$AAo?$AAa?$AAr?$AAd?$AA?5?$AAt@ 00000000000dad40     UefiShellDebug1CommandsLib:QueryTable.obj
 0002:00012d90       ??_C@_1FA@KAOLJIMF@?$AA?5?$AAP?$AAr?$AAo?$AAc?$AAe?$AAs?$AAs?$AAo?$AAr?$AA?5?$AA?$CD?$AA1?$AA?5?$AAt@ 00000000000dad90     UefiShellDebug1CommandsLib:QueryTable.obj
 0002:00012de0       ??_C@_1FA@IGFEKMLM@?$AA?5?$AAP?$AAr?$AAo?$AAc?$AAe?$AAs?$AAs?$AAo?$AAr?$AA?5?$AA?$CD?$AA2?$AA?5?$AAt@ 00000000000dade0     UefiShellDebug1CommandsLib:QueryTable.obj
 0002:00012e30       ??_C@_1FA@JLMBLPGL@?$AA?5?$AAP?$AAr?$AAo?$AAc?$AAe?$AAs?$AAs?$AAo?$AAr?$AA?5?$AA?$CD?$AA3?$AA?5?$AAt@ 00000000000dae30     UefiShellDebug1CommandsLib:QueryTable.obj
 0002:00012e80       ??_C@_1FA@MLCKMEEO@?$AA?5?$AAP?$AAr?$AAo?$AAc?$AAe?$AAs?$AAs?$AAo?$AAr?$AA?5?$AA?$CD?$AA4?$AA?5?$AAt@ 00000000000dae80     UefiShellDebug1CommandsLib:QueryTable.obj
 0002:00012ed0       ??_C@_1FO@MFGCMAGN@?$AA?5?$AAR?$AAe?$AAs?$AAe?$AAr?$AAv?$AAe?$AAd?$AA?5?$AAf?$AAo?$AAr?$AA?5?$AAf@ 00000000000daed0     UefiShellDebug1CommandsLib:QueryTable.obj
 0002:00012f30       ??_C@_1EE@ICMOCLLI@?$AA?5?$AAF?$AAa?$AAn?$AA?5?$AAn?$AA?5?$AA?$CI?$AAn?$AA?5?$AA?$DN?$AA?5?$AA0?$AA?5?$AAt@ 00000000000daf30     UefiShellDebug1CommandsLib:QueryTable.obj
 0002:00012f80       ??_C@_1HA@PEJDPOEJ@?$AA?5?$AAR?$AAe?$AAs?$AAe?$AAr?$AAv?$AAe?$AAd?$AA?5?$AAf?$AAo?$AAr?$AA?5?$AAf@ 00000000000daf80     UefiShellDebug1CommandsLib:QueryTable.obj
 0002:00012ff0       ??_C@_1EE@DEEIHEFI@?$AA?5?$AAC?$AAh?$AAa?$AAs?$AAs?$AAi?$AAs?$AA?5?$AAs?$AAe?$AAc?$AAu?$AAr?$AAe@ 00000000000daff0     UefiShellDebug1CommandsLib:QueryTable.obj
 0002:00013038       ??_C@_1DM@HPAFAGAE@?$AA?5?$AA?5?$AAS?$AAy?$AAs?$AAt?$AAe?$AAm?$AA?5?$AAb?$AAo?$AAa?$AAr?$AAd?$AA?5@ 00000000000db038     UefiShellDebug1CommandsLib:QueryTable.obj
 0002:00013078       ??_C@_1CE@NLFGMECH@?$AA?5?$AA?5?$AAI?$AAS?$AAA?$AA?5?$AAa?$AAd?$AAd?$AA?9?$AAo?$AAn?$AA?5?$AAc?$AAa@ 00000000000db078     UefiShellDebug1CommandsLib:QueryTable.obj
 0002:000130a0       ??_C@_1CG@PCDCENPO@?$AA?5?$AA?5?$AAE?$AAI?$AAS?$AAA?$AA?5?$AAa?$AAd?$AAd?$AA?9?$AAo?$AAn?$AA?5?$AAc@ 00000000000db0a0     UefiShellDebug1CommandsLib:QueryTable.obj
 0002:000130c8       ??_C@_1CE@KJICEPNK@?$AA?5?$AA?5?$AAP?$AAC?$AAI?$AA?5?$AAa?$AAd?$AAd?$AA?9?$AAo?$AAn?$AA?5?$AAc?$AAa@ 00000000000db0c8     UefiShellDebug1CommandsLib:QueryTable.obj
 0002:000130f0       ??_C@_1CE@NKDAOCAP@?$AA?5?$AA?5?$AAM?$AAC?$AAA?$AA?5?$AAa?$AAd?$AAd?$AA?9?$AAo?$AAn?$AA?5?$AAc?$AAa@ 00000000000db0f0     UefiShellDebug1CommandsLib:QueryTable.obj
 0002:00013118       ??_C@_1CK@HOJEJHAA@?$AA?5?$AA?5?$AAP?$AAC?$AAM?$AAC?$AAI?$AAA?$AA?5?$AAa?$AAd?$AAd?$AA?9?$AAo?$AAn@ 00000000000db118     UefiShellDebug1CommandsLib:QueryTable.obj
 0002:00013148       ??_C@_1DE@KNOJLAHG@?$AA?5?$AA?5?$AAP?$AAr?$AAo?$AAp?$AAr?$AAi?$AAe?$AAt?$AAa?$AAr?$AAy?$AA?5?$AAa@ 00000000000db148     UefiShellDebug1CommandsLib:QueryTable.obj
 0002:00013180       ??_C@_1BA@EJPAMLKN@?$AA?5?$AA?5?$AAN?$AAu?$AAB?$AAu?$AAs@ 00000000000db180     UefiShellDebug1CommandsLib:QueryTable.obj
 0002:00013190       ??_C@_1DA@JGMAKOJM@?$AA?5?$AA?5?$AAP?$AAC?$AA?9?$AA9?$AA8?$AA?1?$AAC?$AA2?$AA0?$AA?5?$AAa?$AAd?$AAd@ 00000000000db190     UefiShellDebug1CommandsLib:QueryTable.obj
 0002:000131c0       ??_C@_1DA@JABHFKOI@?$AA?5?$AA?5?$AAP?$AAC?$AA?9?$AA9?$AA8?$AA?1?$AAC?$AA2?$AA4?$AA?5?$AAa?$AAd?$AAd@ 00000000000db1c0     UefiShellDebug1CommandsLib:QueryTable.obj
 0002:000131f0       ??_C@_1CM@PAIFDJEG@?$AA?5?$AA?5?$AAP?$AAC?$AA?9?$AA9?$AA8?$AA?1?$AAE?$AA?5?$AAa?$AAd?$AAd?$AA?9?$AAo@ 00000000000db1f0     UefiShellDebug1CommandsLib:QueryTable.obj
 0002:00013220       ??_C@_1DM@OAOMGOEC@?$AA?5?$AA?5?$AAP?$AAC?$AA?9?$AA9?$AA8?$AA?1?$AAL?$AAo?$AAc?$AAa?$AAl?$AA?5?$AAb@ 00000000000db220     UefiShellDebug1CommandsLib:QueryTable.obj
 0002:00013260       ??_C@_1CE@HGJNCHPO@?$AA?5?$AA?5?$AAC?$AAX?$AAL?$AA?5?$AAa?$AAd?$AAd?$AA?9?$AAo?$AAn?$AA?5?$AAc?$AAa@ 00000000000db260     UefiShellDebug1CommandsLib:QueryTable.obj
 0002:00013288       ??_C@_1BO@IAEEFDAC@?$AA?5?$AAS?$AAy?$AAs?$AAt?$AAe?$AAm?$AA?5?$AAm?$AAe?$AAm?$AAo?$AAr?$AAy@ 00000000000db288     UefiShellDebug1CommandsLib:QueryTable.obj
 0002:000132a8       ??_C@_1BM@HJOIBICI@?$AA?5?$AAV?$AAi?$AAd?$AAe?$AAo?$AA?5?$AAm?$AAe?$AAm?$AAo?$AAr?$AAy@ 00000000000db2a8     UefiShellDebug1CommandsLib:QueryTable.obj
 0002:000132c8       ??_C@_1BM@PFNLHDHM@?$AA?5?$AAF?$AAl?$AAa?$AAs?$AAh?$AA?5?$AAm?$AAe?$AAm?$AAo?$AAr?$AAy@ 00000000000db2c8     UefiShellDebug1CommandsLib:QueryTable.obj
 0002:000132e8       ??_C@_1CE@JDMOKCLL@?$AA?5?$AAN?$AAo?$AAn?$AA?9?$AAv?$AAo?$AAl?$AAa?$AAt?$AAi?$AAl?$AAe?$AA?5?$AAR@ 00000000000db2e8     UefiShellDebug1CommandsLib:QueryTable.obj
 0002:00013310       ??_C@_1BM@NDDLCMF@?$AA?5?$AAC?$AAa?$AAc?$AAh?$AAe?$AA?5?$AAm?$AAe?$AAm?$AAo?$AAr?$AAy@ 00000000000db310     UefiShellDebug1CommandsLib:QueryTable.obj
 0002:00013330       ??_C@_1O@EMKPMJAH@?$AA?5?$AA?5?$AAN?$AAo?$AAn?$AAe@ 00000000000db330     UefiShellDebug1CommandsLib:QueryTable.obj
 0002:00013340       ??_C@_1BC@PNPNFGPB@?$AA?5?$AA?5?$AAP?$AAa?$AAr?$AAi?$AAt?$AAy@ 00000000000db340     UefiShellDebug1CommandsLib:QueryTable.obj
 0002:00013358       ??_C@_1CC@OENHAGLD@?$AA?5?$AA?5?$AAS?$AAi?$AAn?$AAg?$AAl?$AAe?$AA?9?$AAb?$AAi?$AAt?$AA?5?$AAE?$AAC@ 00000000000db358     UefiShellDebug1CommandsLib:QueryTable.obj
 0002:00013380       ??_C@_1CA@EOEBJDPB@?$AA?5?$AA?5?$AAM?$AAu?$AAl?$AAt?$AAi?$AA?9?$AAb?$AAi?$AAt?$AA?5?$AAE?$AAC?$AAC@ 00000000000db380     UefiShellDebug1CommandsLib:QueryTable.obj
 0002:000133a0       ??_C@_1M@LMLDHKJJ@?$AA?5?$AA?5?$AAC?$AAR?$AAC@ 00000000000db3a0     UefiShellDebug1CommandsLib:QueryTable.obj
 0002:000133b0       ??_C@_1O@EFFIFIMH@?$AA?5?$AA?5?$AAS?$AAI?$AAM?$AAM@ 00000000000db3b0     UefiShellDebug1CommandsLib:QueryTable.obj
 0002:000133c0       ??_C@_1M@OLLFEBJL@?$AA?5?$AA?5?$AAS?$AAI?$AAP@ 00000000000db3c0     UefiShellDebug1CommandsLib:QueryTable.obj
 0002:000133d0       ??_C@_1O@MJFGNMLL@?$AA?5?$AA?5?$AAC?$AAh?$AAi?$AAp@ 00000000000db3d0     UefiShellDebug1CommandsLib:QueryTable.obj
 0002:000133e0       ??_C@_1M@JNMLHJKJ@?$AA?5?$AA?5?$AAD?$AAI?$AAP@ 00000000000db3e0     UefiShellDebug1CommandsLib:QueryTable.obj
 0002:000133f0       ??_C@_1M@PEPKFKLA@?$AA?5?$AA?5?$AAZ?$AAI?$AAP@ 00000000000db3f0     UefiShellDebug1CommandsLib:QueryTable.obj
 0002:00013400       ??_C@_1CG@EDGBPDJH@?$AA?5?$AA?5?$AAP?$AAr?$AAo?$AAp?$AAr?$AAi?$AAe?$AAt?$AAa?$AAr?$AAy?$AA?5?$AAC@ 00000000000db400     UefiShellDebug1CommandsLib:QueryTable.obj
 0002:00013428       ??_C@_1O@IACKMCFG@?$AA?5?$AA?5?$AAD?$AAI?$AAM?$AAM@ 00000000000db428     UefiShellDebug1CommandsLib:QueryTable.obj
 0002:00013438       ??_C@_1O@KFEEEABE@?$AA?5?$AA?5?$AAT?$AAS?$AAO?$AAP@ 00000000000db438     UefiShellDebug1CommandsLib:QueryTable.obj
 0002:00013448       ??_C@_1BO@GKLCEEAO@?$AA?5?$AA?5?$AAR?$AAo?$AAw?$AA?5?$AAo?$AAf?$AA?5?$AAc?$AAh?$AAi?$AAp?$AAs@ 00000000000db448     UefiShellDebug1CommandsLib:QueryTable.obj
 0002:00013468       ??_C@_1O@KKJKDDPJ@?$AA?5?$AA?5?$AAR?$AAI?$AAM?$AAM@ 00000000000db468     UefiShellDebug1CommandsLib:QueryTable.obj
 0002:00013478       ??_C@_1BC@LADLNCHG@?$AA?5?$AA?5?$AAS?$AAO?$AAD?$AAI?$AAM?$AAM@ 00000000000db478     UefiShellDebug1CommandsLib:QueryTable.obj
 0002:00013490       ??_C@_1BA@NDHBCJBC@?$AA?5?$AA?5?$AAS?$AAR?$AAI?$AAM?$AAM@ 00000000000db490     UefiShellDebug1CommandsLib:QueryTable.obj
 0002:000134a0       ??_C@_1BE@JHANBNFD@?$AA?5?$AA?5?$AAF?$AAB?$AA?9?$AAD?$AAI?$AAM?$AAM@ 00000000000db4a0     UefiShellDebug1CommandsLib:QueryTable.obj
 0002:000134b8       ??_C@_1M@FNJCHEAM@?$AA?5?$AA?5?$AAD?$AAi?$AAe@ 00000000000db4b8     UefiShellDebug1CommandsLib:QueryTable.obj
 0002:000134c8       ??_C@_1O@LBBDMCJK@?$AA?5?$AA?5?$AAC?$AAA?$AAM?$AAM@ 00000000000db4c8     UefiShellDebug1CommandsLib:QueryTable.obj
 0002:000134d8       ??_C@_1BC@DAKGOLIH@?$AA?5?$AA?5?$AAC?$AAU?$AAD?$AAI?$AAM?$AAM@ 00000000000db4d8     UefiShellDebug1CommandsLib:QueryTable.obj
 0002:000134f0       ??_C@_1BE@NCIAOPMI@?$AA?5?$AA?5?$AAC?$AAS?$AAO?$AAD?$AAI?$AAM?$AAM@ 00000000000db4f0     UefiShellDebug1CommandsLib:QueryTable.obj
 0002:00013508       ??_C@_1O@NGDJCPFA@?$AA?5?$AA?5?$AAD?$AAR?$AAA?$AAM@ 00000000000db508     UefiShellDebug1CommandsLib:QueryTable.obj
 0002:00013518       ??_C@_1BA@EMPHHNKH@?$AA?5?$AA?5?$AAE?$AAD?$AAR?$AAA?$AAM@ 00000000000db518     UefiShellDebug1CommandsLib:QueryTable.obj
 0002:00013528       ??_C@_1O@PFGCHOIF@?$AA?5?$AA?5?$AAV?$AAR?$AAA?$AAM@ 00000000000db528     UefiShellDebug1CommandsLib:QueryTable.obj
 0002:00013538       ??_C@_1O@BDELLFMB@?$AA?5?$AA?5?$AAS?$AAR?$AAA?$AAM@ 00000000000db538     UefiShellDebug1CommandsLib:QueryTable.obj
 0002:00013548       ??_C@_1M@GJDPEMCK@?$AA?5?$AA?5?$AAR?$AAA?$AAM@ 00000000000db548     UefiShellDebug1CommandsLib:QueryTable.obj
 0002:00013558       ??_C@_1M@FDDFCNFK@?$AA?5?$AA?5?$AAR?$AAO?$AAM@ 00000000000db558     UefiShellDebug1CommandsLib:QueryTable.obj
 0002:00013568       ??_C@_1BA@KDEKIKMJ@?$AA?5?$AA?5?$AAF?$AAL?$AAA?$AAS?$AAH@ 00000000000db568     UefiShellDebug1CommandsLib:QueryTable.obj
 0002:00013578       ??_C@_1BC@IGCAOACJ@?$AA?5?$AA?5?$AAE?$AAE?$AAP?$AAR?$AAO?$AAM@ 00000000000db578     UefiShellDebug1CommandsLib:QueryTable.obj
 0002:00013590       ??_C@_1BC@PKEBMFPC@?$AA?5?$AA?5?$AAF?$AAE?$AAP?$AAR?$AAO?$AAM@ 00000000000db590     UefiShellDebug1CommandsLib:QueryTable.obj
 0002:000135a8       ??_C@_1BA@FILIDNEF@?$AA?5?$AA?5?$AAE?$AAP?$AAR?$AAO?$AAM@ 00000000000db5a8     UefiShellDebug1CommandsLib:QueryTable.obj
 0002:000135b8       ??_C@_1BA@KDMKNIEH@?$AA?5?$AA?5?$AAC?$AAD?$AAR?$AAA?$AAM@ 00000000000db5b8     UefiShellDebug1CommandsLib:QueryTable.obj
 0002:000135c8       ??_C@_1BA@IHIAFJLD@?$AA?5?$AA?5?$AA3?$AAD?$AAR?$AAA?$AAM@ 00000000000db5c8     UefiShellDebug1CommandsLib:QueryTable.obj
 0002:000135d8       ??_C@_1BA@KPNCDFLL@?$AA?5?$AA?5?$AAS?$AAD?$AAR?$AAA?$AAM@ 00000000000db5d8     UefiShellDebug1CommandsLib:QueryTable.obj
 0002:000135e8       ??_C@_1BA@EEOFIOLI@?$AA?5?$AA?5?$AAS?$AAG?$AAR?$AAA?$AAM@ 00000000000db5e8     UefiShellDebug1CommandsLib:QueryTable.obj
 0002:000135f8       ??_C@_1BA@DEHHHJNE@?$AA?5?$AA?5?$AAR?$AAD?$AAR?$AAA?$AAM@ 00000000000db5f8     UefiShellDebug1CommandsLib:QueryTable.obj
 0002:00013608       ??_C@_1M@ILFMKCPM@?$AA?5?$AA?5?$AAD?$AAD?$AAR@ 00000000000db608     UefiShellDebug1CommandsLib:QueryTable.obj
 0002:00013618       ??_C@_1O@NKPDNHAD@?$AA?5?$AA?5?$AAD?$AAD?$AAR?$AA2@ 00000000000db618     UefiShellDebug1CommandsLib:QueryTable.obj
 0002:00013628       ??_C@_1BO@IJMOILHH@?$AA?5?$AA?5?$AAD?$AAD?$AAR?$AA2?$AA?5?$AAF?$AAB?$AA?9?$AAD?$AAI?$AAM?$AAM@ 00000000000db628     UefiShellDebug1CommandsLib:QueryTable.obj
 0002:00013648       ??_C@_1O@GCEPLAGG@?$AA?5?$AA?5?$AAD?$AAD?$AAR?$AA3@ 00000000000db648     UefiShellDebug1CommandsLib:QueryTable.obj
 0002:00013658       ??_C@_1O@MNOGOPDP@?$AA?5?$AA?5?$AAF?$AAB?$AAD?$AA2@ 00000000000db658     UefiShellDebug1CommandsLib:QueryTable.obj
 0002:00013668       ??_C@_1O@PPJIIINP@?$AA?5?$AA?5?$AAD?$AAD?$AAR?$AA4@ 00000000000db668     UefiShellDebug1CommandsLib:QueryTable.obj
 0002:00013678       ??_C@_1BA@BNHIIIHC@?$AA?5?$AA?5?$AAL?$AAP?$AAD?$AAD?$AAR@ 00000000000db678     UefiShellDebug1CommandsLib:QueryTable.obj
 0002:00013688       ??_C@_1BC@KEEIDNDE@?$AA?5?$AA?5?$AAL?$AAP?$AAD?$AAD?$AAR?$AA2@ 00000000000db688     UefiShellDebug1CommandsLib:QueryTable.obj
 0002:000136a0       ??_C@_1BC@BMPEFKFB@?$AA?5?$AA?5?$AAL?$AAP?$AAD?$AAD?$AAR?$AA3@ 00000000000db6a0     UefiShellDebug1CommandsLib:QueryTable.obj
 0002:000136b8       ??_C@_1BC@IBCDGCOI@?$AA?5?$AA?5?$AAL?$AAP?$AAD?$AAD?$AAR?$AA4@ 00000000000db6b8     UefiShellDebug1CommandsLib:QueryTable.obj
 0002:000136d0       ??_C@_1DM@FJKNPDDI@?$AA?5?$AA?5?$AAL?$AAo?$AAg?$AAi?$AAc?$AAa?$AAl?$AA?5?$AAn?$AAo?$AAn?$AA?9?$AAv@ 00000000000db6d0     UefiShellDebug1CommandsLib:QueryTable.obj
 0002:00013710       ??_C@_1DM@FFJPIOHB@?$AA?5?$AA?5?$AAH?$AAB?$AAM?$AA?5?$AA?$CI?$AAH?$AAi?$AAg?$AAh?$AA?5?$AAB?$AAa?$AAn@ 00000000000db710     UefiShellDebug1CommandsLib:QueryTable.obj
 0002:00013750       ??_C@_1FI@OCBLDAOC@?$AA?5?$AA?5?$AAH?$AAB?$AAM?$AA2?$AA?5?$AA?$CI?$AAH?$AAi?$AAg?$AAh?$AA?5?$AAB?$AAa@ 00000000000db750     UefiShellDebug1CommandsLib:QueryTable.obj
 0002:000137a8       ??_C@_1O@EHCEOPLK@?$AA?5?$AA?5?$AAD?$AAD?$AAR?$AA5@ 00000000000db7a8     UefiShellDebug1CommandsLib:QueryTable.obj
 0002:000137b8       ??_C@_1BC@DJJPAFIN@?$AA?5?$AA?5?$AAL?$AAP?$AAD?$AAD?$AAR?$AA5@ 00000000000db7b8     UefiShellDebug1CommandsLib:QueryTable.obj
 0002:000137d0       ??_C@_1FI@NEOEPFGC@?$AA?5?$AA?5?$AAH?$AAB?$AAM?$AA3?$AA?5?$AA?$CI?$AAH?$AAi?$AAg?$AAh?$AA?5?$AAB?$AAa@ 00000000000db7d0     UefiShellDebug1CommandsLib:QueryTable.obj
 0002:00013828       ??_C@_1DO@CKJAEKBO@?$AA?5?$AA?5?$AAM?$AAR?$AAD?$AAI?$AAM?$AAM?$AA?5?$AA?$CI?$AAM?$AAu?$AAl?$AAt?$AAi@ 00000000000db828     UefiShellDebug1CommandsLib:QueryTable.obj
 0002:00013868       ??_C@_1BI@COCPHOCL@?$AA?5?$AAF?$AAa?$AAs?$AAt?$AA?9?$AAp?$AAa?$AAg?$AAe?$AAd@ 00000000000db868     UefiShellDebug1CommandsLib:QueryTable.obj
 0002:00013880       ??_C@_1BO@GIPEPGPD@?$AA?5?$AAS?$AAt?$AAa?$AAt?$AAi?$AAc?$AA?5?$AAc?$AAo?$AAl?$AAu?$AAm?$AAn@ 00000000000db880     UefiShellDebug1CommandsLib:QueryTable.obj
 0002:000138a0       ??_C@_1BO@OAFCEBEG@?$AA?5?$AAP?$AAs?$AAe?$AAu?$AAd?$AAo?$AA?9?$AAS?$AAT?$AAA?$AAT?$AAI?$AAC@ 00000000000db8a0     UefiShellDebug1CommandsLib:QueryTable.obj
 0002:000138c0       ??_C@_1BC@FFIADKEE@?$AA?5?$AAR?$AAA?$AAM?$AAB?$AAU?$AAS?$AA?5@ 00000000000db8c0     UefiShellDebug1CommandsLib:QueryTable.obj
 0002:000138d8       ??_C@_1M@HMLIJBAC@?$AA?5?$AAC?$AAM?$AAO?$AAS@ 00000000000db8d8     UefiShellDebug1CommandsLib:QueryTable.obj
 0002:000138e8       ??_C@_1BK@IMFMDGOD@?$AA?5?$AAW?$AAi?$AAn?$AAd?$AAo?$AAw?$AA?5?$AAD?$AAR?$AAA?$AAM@ 00000000000db8e8     UefiShellDebug1CommandsLib:QueryTable.obj
 0002:00013908       ??_C@_1BI@GBMFLJHH@?$AA?5?$AAC?$AAa?$AAc?$AAh?$AAe?$AA?5?$AAD?$AAR?$AAA?$AAM@ 00000000000db908     UefiShellDebug1CommandsLib:QueryTable.obj
 0002:00013920       ??_C@_1BM@NPGEICMN@?$AA?5?$AAN?$AAo?$AAn?$AA?9?$AAv?$AAo?$AAl?$AAa?$AAt?$AAi?$AAl?$AAe@ 00000000000db920     UefiShellDebug1CommandsLib:QueryTable.obj
 0002:00013940       ??_C@_1CM@JKBIGKDC@?$AA?5?$AAR?$AAe?$AAg?$AAi?$AAs?$AAt?$AAe?$AAr?$AAe?$AAd?$AA?$CI?$AAB?$AAu?$AAf@ 00000000000db940     UefiShellDebug1CommandsLib:QueryTable.obj
 0002:00013970       ??_C@_1DE@LMGPAJJA@?$AA?5?$AAU?$AAn?$AAb?$AAu?$AAf?$AAf?$AAe?$AAr?$AAe?$AAd?$AA?$CI?$AAU?$AAn?$AAr@ 00000000000db970     UefiShellDebug1CommandsLib:QueryTable.obj
 0002:000139a8       ??_C@_1M@LBDDOICA@?$AA?5?$AAD?$AAR?$AAA?$AAM@ 00000000000db9a8     UefiShellDebug1CommandsLib:QueryTable.obj
 0002:000139b8       ??_C@_1BE@DOEEGAFB@?$AA?5?$AAN?$AAV?$AAD?$AAI?$AAM?$AAM?$AA?9?$AAN@ 00000000000db9b8     UefiShellDebug1CommandsLib:QueryTable.obj
 0002:000139d0       ??_C@_1BE@PLPAEILO@?$AA?5?$AAN?$AAV?$AAD?$AAI?$AAM?$AAM?$AA?9?$AAF@ 00000000000db9d0     UefiShellDebug1CommandsLib:QueryTable.obj
 0002:000139e8       ??_C@_1BE@IOICEAPN@?$AA?5?$AAN?$AAV?$AAD?$AAI?$AAM?$AAM?$AA?9?$AAP@ 00000000000db9e8     UefiShellDebug1CommandsLib:QueryTable.obj
 0002:00013a00       ??_C@_1EA@HBGCMKCN@?$AA?5?$AAI?$AAn?$AAt?$AAe?$AAl?$AA?5?$AAO?$AAp?$AAt?$AAa?$AAn?$AAe?$AA?5?$AAP@ 00000000000dba00     UefiShellDebug1CommandsLib:QueryTable.obj
 0002:00013a40       ??_C@_1BA@FJEDGLKA@?$AA?5?$AAM?$AAR?$AAD?$AAI?$AAM?$AAM@ 00000000000dba40     UefiShellDebug1CommandsLib:QueryTable.obj
 0002:00013a50       ??_C@_1CC@GAEOEBNI@?$AA?5?$AAV?$AAo?$AAl?$AAa?$AAt?$AAi?$AAl?$AAe?$AA?5?$AAm?$AAe?$AAm?$AAo?$AAr@ 00000000000dba50     UefiShellDebug1CommandsLib:QueryTable.obj
 0002:00013a80       ??_C@_1EG@CMPDLPOM@?$AA?5?$AAB?$AAy?$AAt?$AAe?$AA?9?$AAa?$AAc?$AAc?$AAe?$AAs?$AAs?$AAi?$AAb?$AAl@ 00000000000dba80     UefiShellDebug1CommandsLib:QueryTable.obj
 0002:00013ad0       ??_C@_1EI@KOEPFOKG@?$AA?5?$AAB?$AAl?$AAo?$AAc?$AAk?$AA?9?$AAa?$AAc?$AAc?$AAe?$AAs?$AAs?$AAi?$AAb@ 00000000000dbad0     UefiShellDebug1CommandsLib:QueryTable.obj
 0002:00013b18       ??_C@_19BIEFJBIK@?$AA?5?$AA?5?$AAO?$AAK@ 00000000000dbb18     UefiShellDebug1CommandsLib:QueryTable.obj
 0002:00013b28       ??_C@_1BG@HNNOBHDJ@?$AA?5?$AA?5?$AAB?$AAa?$AAd?$AA?5?$AAr?$AAe?$AAa?$AAd@ 00000000000dbb28     UefiShellDebug1CommandsLib:QueryTable.obj
 0002:00013b40       ??_C@_1BO@JEOAODOI@?$AA?5?$AA?5?$AAP?$AAa?$AAr?$AAi?$AAt?$AAy?$AA?5?$AAe?$AAr?$AAr?$AAo?$AAr@ 00000000000dbb40     UefiShellDebug1CommandsLib:QueryTable.obj
 0002:00013b60       ??_C@_1CG@IMKHFMPK@?$AA?5?$AA?5?$AAS?$AAi?$AAn?$AAg?$AAl?$AAe?$AA?9?$AAb?$AAi?$AAt?$AA?5?$AAe?$AAr@ 00000000000dbb60     UefiShellDebug1CommandsLib:QueryTable.obj
 0002:00013b88       ??_C@_1CG@BEIIOLJG@?$AA?5?$AA?5?$AAD?$AAo?$AAu?$AAb?$AAl?$AAe?$AA?9?$AAb?$AAi?$AAt?$AA?5?$AAe?$AAr@ 00000000000dbb88     UefiShellDebug1CommandsLib:QueryTable.obj
 0002:00013bb0       ??_C@_1CE@FHHKNBDN@?$AA?5?$AA?5?$AAM?$AAu?$AAl?$AAt?$AAi?$AA?9?$AAb?$AAi?$AAt?$AA?5?$AAe?$AAr?$AAr@ 00000000000dbbb0     UefiShellDebug1CommandsLib:QueryTable.obj
 0002:00013bd8       ??_C@_1BO@GFDKLKFI@?$AA?5?$AA?5?$AAN?$AAi?$AAb?$AAb?$AAl?$AAe?$AA?5?$AAe?$AAr?$AAr?$AAo?$AAr@ 00000000000dbbd8     UefiShellDebug1CommandsLib:QueryTable.obj
 0002:00013bf8       ??_C@_1CC@CFBNILPD@?$AA?5?$AA?5?$AAC?$AAh?$AAe?$AAc?$AAk?$AAs?$AAu?$AAm?$AA?5?$AAe?$AAr?$AAr?$AAo@ 00000000000dbbf8     UefiShellDebug1CommandsLib:QueryTable.obj
 0002:00013c20       ??_C@_1BI@HPKCMEFJ@?$AA?5?$AA?5?$AAC?$AAR?$AAC?$AA?5?$AAe?$AAr?$AAr?$AAo?$AAr@ 00000000000dbc20     UefiShellDebug1CommandsLib:QueryTable.obj
 0002:00013c38       ??_C@_1DK@BKHLCP@?$AA?5?$AA?5?$AAC?$AAo?$AAr?$AAr?$AAe?$AAc?$AAt?$AAe?$AAd?$AA?5?$AAs?$AAi?$AAn@ 00000000000dbc38     UefiShellDebug1CommandsLib:QueryTable.obj
 0002:00013c78       ??_C@_1CE@MFCEHAEA@?$AA?5?$AA?5?$AAC?$AAo?$AAr?$AAr?$AAe?$AAc?$AAt?$AAe?$AAd?$AA?5?$AAe?$AAr?$AAr@ 00000000000dbc78     UefiShellDebug1CommandsLib:QueryTable.obj
 0002:00013ca0       ??_C@_1CM@KENJINEJ@?$AA?5?$AA?5?$AAU?$AAn?$AAc?$AAo?$AAr?$AAr?$AAe?$AAc?$AAt?$AAa?$AAb?$AAl?$AAe@ 00000000000dbca0     UefiShellDebug1CommandsLib:QueryTable.obj
 0002:00013cd0       ??_C@_1BO@GCMFDFAL@?$AA?5?$AA?5?$AAD?$AAe?$AAv?$AAi?$AAc?$AAe?$AA?5?$AAl?$AAe?$AAv?$AAe?$AAl@ 00000000000dbcd0     UefiShellDebug1CommandsLib:QueryTable.obj
 0002:00013cf0       ??_C@_1DC@JOELJGIG@?$AA?5?$AA?5?$AAM?$AAe?$AAm?$AAo?$AAr?$AAy?$AA?5?$AAp?$AAa?$AAr?$AAt?$AAi?$AAt@ 00000000000dbcf0     UefiShellDebug1CommandsLib:QueryTable.obj
 0002:00013d28       ??_C@_1O@KJBHGBBJ@?$AA?5?$AA?5?$AAR?$AAe?$AAa?$AAd@ 00000000000dbd28     UefiShellDebug1CommandsLib:QueryTable.obj
 0002:00013d38       ??_C@_1BA@CAKPKCFP@?$AA?5?$AA?5?$AAW?$AAr?$AAi?$AAt?$AAe@ 00000000000dbd38     UefiShellDebug1CommandsLib:QueryTable.obj
 0002:00013d48       ??_C@_1CA@ELOGGHDG@?$AA?5?$AA?5?$AAP?$AAa?$AAr?$AAt?$AAi?$AAa?$AAl?$AA?5?$AAW?$AAr?$AAi?$AAt?$AAe@ 00000000000dbd48     UefiShellDebug1CommandsLib:QueryTable.obj
 0002:00013d68       ??_C@_1BA@CCMBLJEG@?$AA?5?$AA?5?$AAM?$AAo?$AAu?$AAs?$AAe@ 00000000000dbd68     UefiShellDebug1CommandsLib:QueryTable.obj
 0002:00013d78       ??_C@_1BK@FAAIAAOO@?$AA?5?$AA?5?$AAT?$AAr?$AAa?$AAc?$AAk?$AA?5?$AAB?$AAa?$AAl?$AAl@ 00000000000dbd78     UefiShellDebug1CommandsLib:QueryTable.obj
 0002:00013d98       ??_C@_1BM@NPGCFFBO@?$AA?5?$AA?5?$AAT?$AAr?$AAa?$AAc?$AAk?$AA?5?$AAP?$AAo?$AAi?$AAn?$AAt@ 00000000000dbd98     UefiShellDebug1CommandsLib:QueryTable.obj
 0002:00013db8       ??_C@_1BM@MGCFJPLH@?$AA?5?$AA?5?$AAG?$AAl?$AAi?$AAd?$AAe?$AA?5?$AAP?$AAo?$AAi?$AAn?$AAt@ 00000000000dbdb8     UefiShellDebug1CommandsLib:QueryTable.obj
 0002:00013dd8       ??_C@_1BI@LGFKEHIC@?$AA?5?$AA?5?$AAT?$AAo?$AAu?$AAc?$AAh?$AA?5?$AAP?$AAa?$AAd@ 00000000000dbdd8     UefiShellDebug1CommandsLib:QueryTable.obj
 0002:00013df0       ??_C@_1BA@GAKAEAPI@?$AA?5?$AAS?$AAe?$AAr?$AAi?$AAa?$AAl@ 00000000000dbdf0     UefiShellDebug1CommandsLib:QueryTable.obj
 0002:00013e00       ??_C@_1M@FCHOBHMM@?$AA?5?$AAP?$AAS?$AA?1?$AA2@ 00000000000dbe00     UefiShellDebug1CommandsLib:QueryTable.obj
 0002:00013e10       ??_C@_1BE@DBNIPLDC@?$AA?5?$AAI?$AAn?$AAf?$AAr?$AAa?$AAr?$AAe?$AAd@ 00000000000dbe10     UefiShellDebug1CommandsLib:QueryTable.obj
 0002:00013e28       ??_C@_1BA@PDKOJBAF@?$AA?5?$AAH?$AAP?$AA?9?$AAH?$AAI?$AAL@ 00000000000dbe28     UefiShellDebug1CommandsLib:QueryTable.obj
 0002:00013e38       ??_C@_1BG@MFMIFFGL@?$AA?5?$AAB?$AAu?$AAs?$AA?5?$AAm?$AAo?$AAu?$AAs?$AAe@ 00000000000dbe38     UefiShellDebug1CommandsLib:QueryTable.obj
 0002:00013e50       ??_C@_1CO@MHDMPKPI@?$AA?5?$AAA?$AAD?$AAB?$AA?$CI?$AAA?$AAp?$AAp?$AAl?$AAe?$AA?5?$AAD?$AAe?$AAs?$AAk@ 00000000000dbe50     UefiShellDebug1CommandsLib:QueryTable.obj
 0002:00013e80       ??_C@_1CA@PEGNAPGB@?$AA?5?$AAB?$AAu?$AAs?$AA?5?$AAm?$AAo?$AAu?$AAs?$AAe?$AA?5?$AAD?$AAB?$AA?9?$AA9@ 00000000000dbe80     UefiShellDebug1CommandsLib:QueryTable.obj
 0002:00013ea0       ??_C@_1CK@NFDDAAGC@?$AA?5?$AAB?$AAu?$AAs?$AA?5?$AAm?$AAo?$AAu?$AAs?$AAe?$AA?5?$AAm?$AAi?$AAr?$AAc@ 00000000000dbea0     UefiShellDebug1CommandsLib:QueryTable.obj
 0002:00013ed0       ??_C@_19PFOJIDBE@?$AA?5?$AAU?$AAS?$AAB@ 00000000000dbed0     UefiShellDebug1CommandsLib:QueryTable.obj
 0002:00013ee0       ??_C@_1BA@IIPJNPPE@?$AA?5?$AAO?$AAt?$AAh?$AAe?$AAr?$AA?5@ 00000000000dbee0     UefiShellDebug1CommandsLib:QueryTable.obj
 0002:00013ef0       ??_C@_1BE@JFPCAPHI@?$AA?5?$AAU?$AAn?$AAk?$AAn?$AAo?$AAw?$AAn?$AA?5@ 00000000000dbef0     UefiShellDebug1CommandsLib:QueryTable.obj
 0002:00013f08       ??_C@_1BI@MMKCKHAH@?$AA?5?$AAL?$AAe?$AAa?$AAd?$AA?5?$AAA?$AAc?$AAi?$AAd?$AA?5@ 00000000000dbf08     UefiShellDebug1CommandsLib:QueryTable.obj
 0002:00013f20       ??_C@_1CC@NGOOMLIF@?$AA?5?$AAN?$AAi?$AAc?$AAk?$AAe?$AAl?$AA?5?$AAC?$AAa?$AAd?$AAm?$AAi?$AAu?$AAm@ 00000000000dbf20     UefiShellDebug1CommandsLib:QueryTable.obj
 0002:00013f48       ??_C@_1CO@OLAFLDKJ@?$AA?5?$AAN?$AAi?$AAc?$AAk?$AAe?$AAl?$AA?5?$AAm?$AAe?$AAt?$AAa?$AAl?$AA?5?$AAh@ 00000000000dbf48     UefiShellDebug1CommandsLib:QueryTable.obj
 0002:00013f78       ??_C@_1BM@MNJGCDCE@?$AA?5?$AAL?$AAi?$AAt?$AAh?$AAi?$AAu?$AAm?$AA?9?$AAi?$AAo?$AAn?$AA?5@ 00000000000dbf78     UefiShellDebug1CommandsLib:QueryTable.obj
 0002:00013f98       ??_C@_1BG@KELNHKGA@?$AA?5?$AAZ?$AAi?$AAn?$AAc?$AA?5?$AAa?$AAi?$AAr?$AA?5@ 00000000000dbf98     UefiShellDebug1CommandsLib:QueryTable.obj
 0002:00013fb0       ??_C@_1CE@HOBCOKCK@?$AA?5?$AAL?$AAi?$AAt?$AAh?$AAi?$AAu?$AAm?$AA?5?$AAP?$AAo?$AAl?$AAy?$AAm?$AAe@ 00000000000dbfb0     UefiShellDebug1CommandsLib:QueryTable.obj
 0002:00013fd8       ??_C@_19GGDIBBIJ@?$AA?5?$AAO?$AAK?$AA?5@ 00000000000dbfd8     UefiShellDebug1CommandsLib:QueryTable.obj
 0002:00013fe8       ??_C@_1BO@GKEDGEEJ@?$AA?5?$AAN?$AAo?$AAn?$AA?9?$AAc?$AAr?$AAi?$AAt?$AAi?$AAc?$AAa?$AAl?$AA?5@ 00000000000dbfe8     UefiShellDebug1CommandsLib:QueryTable.obj
 0002:00014008       ??_C@_1BG@NCDDFIBM@?$AA?5?$AAC?$AAr?$AAi?$AAt?$AAi?$AAc?$AAa?$AAl?$AA?5@ 00000000000dc008     UefiShellDebug1CommandsLib:QueryTable.obj
 0002:00014020       ??_C@_1CE@CEKOIDAH@?$AA?5?$AAN?$AAo?$AAn?$AA?9?$AAr?$AAe?$AAc?$AAo?$AAv?$AAe?$AAr?$AAa?$AAb?$AAl@ 00000000000dc020     UefiShellDebug1CommandsLib:QueryTable.obj
 0002:00014048       ??_C@_1BI@GMKHOHOC@?$AA?5?$AAP?$AAr?$AAo?$AAc?$AAe?$AAs?$AAs?$AAo?$AAr?$AA?5@ 00000000000dc048     UefiShellDebug1CommandsLib:QueryTable.obj
 0002:00014060       ??_C@_1O@BNGJJLAB@?$AA?5?$AAD?$AAi?$AAs?$AAk?$AA?5@ 00000000000dc060     UefiShellDebug1CommandsLib:QueryTable.obj
 0002:00014070       ??_C@_1CC@KEALGJFC@?$AA?5?$AAP?$AAe?$AAr?$AAi?$AAp?$AAh?$AAe?$AAr?$AAa?$AAl?$AA?5?$AAB?$AAa?$AAy@ 00000000000dc070     UefiShellDebug1CommandsLib:QueryTable.obj
 0002:00014098       ??_C@_1DG@OCABFDIA@?$AA?5?$AAS?$AAy?$AAs?$AAt?$AAe?$AAm?$AA?5?$AAM?$AAa?$AAn?$AAa?$AAg?$AAe?$AAm@ 00000000000dc098     UefiShellDebug1CommandsLib:QueryTable.obj
 0002:000140d0       ??_C@_1BM@KEIIIMGN@?$AA?5?$AAM?$AAo?$AAt?$AAh?$AAe?$AAr?$AAb?$AAo?$AAa?$AAr?$AAd?$AA?5@ 00000000000dc0d0     UefiShellDebug1CommandsLib:QueryTable.obj
 0002:000140f0       ??_C@_1CA@JDEJPGMF@?$AA?5?$AAM?$AAe?$AAm?$AAo?$AAr?$AAy?$AA?5?$AAM?$AAo?$AAd?$AAu?$AAl?$AAe?$AA?5@ 00000000000dc0f0     UefiShellDebug1CommandsLib:QueryTable.obj
 0002:00014110       ??_C@_1CG@NCIMBGOL@?$AA?5?$AAP?$AAr?$AAo?$AAc?$AAe?$AAs?$AAs?$AAo?$AAr?$AA?5?$AAM?$AAo?$AAd?$AAu@ 00000000000dc110     UefiShellDebug1CommandsLib:QueryTable.obj
 0002:00014138       ??_C@_1BK@DEPMCFKI@?$AA?5?$AAP?$AAo?$AAw?$AAe?$AAr?$AA?5?$AAU?$AAn?$AAi?$AAt?$AA?5@ 00000000000dc138     UefiShellDebug1CommandsLib:QueryTable.obj
 0002:00014158       ??_C@_1BM@GLDKJKI@?$AA?5?$AAA?$AAd?$AAd?$AA?9?$AAi?$AAn?$AA?5?$AAC?$AAa?$AAr?$AAd?$AA?5@ 00000000000dc158     UefiShellDebug1CommandsLib:QueryTable.obj
 0002:00014178       ??_C@_1M@IBDCPELO@?$AA?5?$AAF?$AAa?$AAn?$AA?5@ 00000000000dc178     UefiShellDebug1CommandsLib:QueryTable.obj
 0002:00014188       ??_C@_1CK@JBDACGFA@?$AA?5?$AAC?$AAe?$AAn?$AAt?$AAr?$AAi?$AAf?$AAu?$AAg?$AAa?$AAl?$AA?5?$AAB?$AAl@ 00000000000dc188     UefiShellDebug1CommandsLib:QueryTable.obj
 0002:000141b8       ??_C@_1BG@LOMPKKGO@?$AA?5?$AAC?$AAh?$AAi?$AAp?$AA?5?$AAF?$AAa?$AAn?$AA?5@ 00000000000dc1b8     UefiShellDebug1CommandsLib:QueryTable.obj
 0002:000141d0       ??_C@_1BM@NGIONONA@?$AA?5?$AAC?$AAa?$AAb?$AAi?$AAn?$AAe?$AAt?$AA?5?$AAF?$AAa?$AAn?$AA?5@ 00000000000dc1d0     UefiShellDebug1CommandsLib:QueryTable.obj
 0002:000141f0       ??_C@_1CG@LCMCLKCF@?$AA?5?$AAP?$AAo?$AAw?$AAe?$AAr?$AA?5?$AAS?$AAu?$AAp?$AAp?$AAl?$AAy?$AA?5?$AAF@ 00000000000dc1f0     UefiShellDebug1CommandsLib:QueryTable.obj
 0002:00014218       ??_C@_1BI@FOBDMCGG@?$AA?5?$AAH?$AAe?$AAa?$AAt?$AA?5?$AAP?$AAi?$AAp?$AAe?$AA?5@ 00000000000dc218     UefiShellDebug1CommandsLib:QueryTable.obj
 0002:00014230       ??_C@_1DG@HJEBEBBL@?$AA?5?$AAI?$AAn?$AAt?$AAe?$AAg?$AAr?$AAa?$AAt?$AAe?$AAd?$AA?5?$AAR?$AAe?$AAf@ 00000000000dc230     UefiShellDebug1CommandsLib:QueryTable.obj
 0002:00014268       ??_C@_1CC@DKIPEHFO@?$AA?5?$AAA?$AAc?$AAt?$AAi?$AAv?$AAe?$AA?5?$AAC?$AAo?$AAo?$AAl?$AAi?$AAn?$AAg@ 00000000000dc268     UefiShellDebug1CommandsLib:QueryTable.obj
 0002:00014290       ??_C@_1CE@LOOOAFLC@?$AA?5?$AAP?$AAa?$AAs?$AAs?$AAi?$AAv?$AAe?$AA?5?$AAC?$AAo?$AAo?$AAl?$AAi?$AAn@ 00000000000dc290     UefiShellDebug1CommandsLib:QueryTable.obj
 0002:000142b8       ??_C@_1DM@LHANPIKI@?$AA?5?$AAN?$AAa?$AAt?$AAi?$AAo?$AAn?$AAa?$AAl?$AA?5?$AAS?$AAe?$AAm?$AAi?$AAc@ 00000000000dc2b8     UefiShellDebug1CommandsLib:QueryTable.obj
 0002:000142f8       ??_C@_1DM@LJDOLHG@?$AA?5?$AAN?$AAa?$AAt?$AAi?$AAo?$AAn?$AAa?$AAl?$AA?5?$AAS?$AAe?$AAm?$AAi?$AAc@ 00000000000dc2f8     UefiShellDebug1CommandsLib:QueryTable.obj
 0002:00014338       ??_C@_1DM@MAMPDIND@?$AA?5?$AAN?$AAa?$AAt?$AAi?$AAo?$AAn?$AAa?$AAl?$AA?5?$AAS?$AAe?$AAm?$AAi?$AAc@ 00000000000dc338     UefiShellDebug1CommandsLib:QueryTable.obj
 0002:00014378       ??_C@_1DM@DOOAHLLH@?$AA?5?$AAN?$AAa?$AAt?$AAi?$AAo?$AAn?$AAa?$AAl?$AA?5?$AAS?$AAe?$AAm?$AAi?$AAc@ 00000000000dc378     UefiShellDebug1CommandsLib:QueryTable.obj
 0002:000143b8       ??_C@_1DM@PFLMKIBC@?$AA?5?$AAN?$AAa?$AAt?$AAi?$AAo?$AAn?$AAa?$AAl?$AA?5?$AAS?$AAe?$AAm?$AAi?$AAc@ 00000000000dc3b8     UefiShellDebug1CommandsLib:QueryTable.obj
 0002:000143f8       ??_C@_1DC@NHMOKABJ@?$AA?5?$AAA?$AAn?$AAa?$AAl?$AAo?$AAg?$AA?5?$AAD?$AAe?$AAv?$AAi?$AAc?$AAe?$AAs@ 00000000000dc3f8     UefiShellDebug1CommandsLib:QueryTable.obj
 0002:00014430       ??_C@_1DM@KEDMMCPK@?$AA?5?$AAD?$AAa?$AAl?$AAl?$AAa?$AAs?$AA?5?$AAS?$AAe?$AAm?$AAi?$AAc?$AAo?$AAn@ 00000000000dc430     UefiShellDebug1CommandsLib:QueryTable.obj
 0002:00014470       ??_C@_1BK@DMDILACG@?$AA?5?$AAM?$AAa?$AAx?$AAi?$AAm?$AA?5?$AA1?$AA6?$AA1?$AA7?$AA?5@ 00000000000dc470     UefiShellDebug1CommandsLib:QueryTable.obj
 0002:00014490       ??_C@_1CE@NAHLNKEI@?$AA?5?$AAG?$AAe?$AAn?$AAe?$AAs?$AAy?$AAs?$AA?5?$AAG?$AAL?$AA5?$AA1?$AA8?$AAS@ 00000000000dc490     UefiShellDebug1CommandsLib:QueryTable.obj
 0002:000144b8       ??_C@_1CE@LDCCHJEJ@?$AA?5?$AAW?$AAi?$AAn?$AAb?$AAo?$AAn?$AAd?$AA?5?$AAW?$AA8?$AA3?$AA7?$AA8?$AA1@ 00000000000dc4b8     UefiShellDebug1CommandsLib:QueryTable.obj
 0002:000144e0       ??_C@_1CE@GNDDKDDA@?$AA?5?$AAH?$AAo?$AAl?$AAt?$AAe?$AAk?$AA?5?$AAH?$AAT?$AA8?$AA2?$AAH?$AA7?$AA9@ 00000000000dc4e0     UefiShellDebug1CommandsLib:QueryTable.obj
 0002:00014508       ??_C@_1BG@BGKHBHIL@?$AA?5?$AAI?$AA?1?$AAO?$AA?5?$AAP?$AAo?$AAr?$AAt?$AA?5@ 00000000000dc508     UefiShellDebug1CommandsLib:QueryTable.obj
 0002:00014520       ??_C@_1BC@BOJDIKKE@?$AA?5?$AAM?$AAe?$AAm?$AAo?$AAr?$AAy?$AA?5@ 00000000000dc520     UefiShellDebug1CommandsLib:QueryTable.obj
 0002:00014538       ??_C@_1BC@JJDKDAHO@?$AA?5?$AAS?$AAM?$AA?5?$AAB?$AAu?$AAs?$AA?5@ 00000000000dc538     UefiShellDebug1CommandsLib:QueryTable.obj
 0002:00014550       ??_C@_1BC@HOAPPOAE@?$AA?5?$AAR?$AAa?$AAm?$AAB?$AAu?$AAs?$AA?5@ 00000000000dc550     UefiShellDebug1CommandsLib:QueryTable.obj
 0002:00014568       ??_C@_1BG@GCDBPALL@?$AA?5?$AAS?$AAy?$AAn?$AAc?$AAL?$AAi?$AAn?$AAk?$AA?5@ 00000000000dc568     UefiShellDebug1CommandsLib:QueryTable.obj
 0002:00014580       ??_C@_1EC@KIEOMBAI@?$AA?5?$AAK?$AAC?$AAS?$AA?3?$AA?5?$AAK?$AAe?$AAy?$AAb?$AAo?$AAa?$AAr?$AAd?$AA?5@ 00000000000dc580     UefiShellDebug1CommandsLib:QueryTable.obj
 0002:000145d0       ??_C@_1FC@KJMILLDI@?$AA?5?$AAS?$AAM?$AAI?$AAC?$AA?3?$AA?5?$AAS?$AAe?$AAr?$AAv?$AAe?$AAr?$AA?5?$AAM@ 00000000000dc5d0     UefiShellDebug1CommandsLib:QueryTable.obj
 0002:00014628       ??_C@_1CK@IAMEFPOK@?$AA?5?$AAB?$AAT?$AA?3?$AA?5?$AAB?$AAl?$AAo?$AAc?$AAk?$AA?5?$AAT?$AAr?$AAa?$AAn@ 00000000000dc628     UefiShellDebug1CommandsLib:QueryTable.obj
 0002:00014658       ??_C@_1DO@KGAABDHH@?$AA?5?$AAS?$AAS?$AAI?$AAF?$AA?3?$AA?5?$AAS?$AAM?$AAB?$AAu?$AAs?$AA?5?$AAS?$AAy@ 00000000000dc658     UefiShellDebug1CommandsLib:QueryTable.obj
 0002:000146a0       ??_C@_1GO@IFNJFDLH@?$AA?5?$AAR?$AAe?$AAs?$AAe?$AAr?$AAv?$AAe?$AAd?$AA?5?$AAf?$AAo?$AAr?$AA?5?$AAf@ 00000000000dc6a0     UefiShellDebug1CommandsLib:QueryTable.obj
 0002:00014710       ??_C@_1CM@KFJAMKAL@?$AA?5?$AAM?$AAC?$AAT?$AAP?$AA?5?$AAH?$AAo?$AAs?$AAt?$AA?5?$AAI?$AAn?$AAt?$AAe@ 00000000000dc710     UefiShellDebug1CommandsLib:QueryTable.obj
 0002:00014740       ??_C@_1DC@CPKLBJHH@?$AA?5?$AAN?$AAe?$AAt?$AAw?$AAo?$AAr?$AAk?$AA?5?$AAH?$AAo?$AAs?$AAt?$AA?5?$AAI@ 00000000000dc740     UefiShellDebug1CommandsLib:QueryTable.obj
 0002:00014778       ??_C@_1BM@OGGKBMGB@?$AA?5?$AAO?$AAE?$AAM?$AA?5?$AAd?$AAe?$AAf?$AAi?$AAn?$AAe?$AAd?$AA?5@ 00000000000dc778     UefiShellDebug1CommandsLib:QueryTable.obj
 0002:00014798       ??_C@_1BG@KFCCEIGC@?$AA?5?$AAR?$AAe?$AAs?$AAe?$AAr?$AAv?$AAe?$AAd?$AA?5@ 00000000000dc798     UefiShellDebug1CommandsLib:QueryTable.obj
 0002:000147b0       ??_C@_1BK@CHKFKFHH@?$AA?5?$AAI?$AAA?$AA3?$AA2?$AA?5?$AA?$CI?$AAx?$AA8?$AA6?$AA?$CJ?$AA?5@ 00000000000dc7b0     UefiShellDebug1CommandsLib:QueryTable.obj
 0002:000147d0       ??_C@_1EM@HGJOJJCM@?$AA?5?$AAx?$AA6?$AA4?$AA?5?$AA?$CI?$AAx?$AA8?$AA6?$AA?9?$AA6?$AA4?$AA?0?$AA?5?$AAi@ 00000000000dc7d0     UefiShellDebug1CommandsLib:QueryTable.obj
 0002:00014820       ??_C@_1DK@DIGHDGCI@?$AA?5?$AAI?$AAn?$AAt?$AAe?$AAl?$AA?5?$AAI?$AAt?$AAa?$AAn?$AAi?$AAu?$AAm?$AA?5@ 00000000000dc820     UefiShellDebug1CommandsLib:QueryTable.obj
 0002:00014860       ??_C@_1CO@OGHHLOFA@?$AA?5?$AA3?$AA2?$AA?9?$AAb?$AAi?$AAt?$AA?5?$AAA?$AAR?$AAM?$AA?5?$AA?$CI?$AAA?$AAa@ 00000000000dc860     UefiShellDebug1CommandsLib:QueryTable.obj
 0002:00014890       ??_C@_1CO@DEMOLDJP@?$AA?5?$AA6?$AA4?$AA?9?$AAb?$AAi?$AAt?$AA?5?$AAA?$AAR?$AAM?$AA?5?$AA?$CI?$AAA?$AAa@ 00000000000dc890     UefiShellDebug1CommandsLib:QueryTable.obj
 0002:000148c0       ??_C@_1CO@GOFKJBKA@?$AA?5?$AA3?$AA2?$AA?9?$AAb?$AAi?$AAt?$AA?5?$AAR?$AAI?$AAS?$AAC?$AA?9?$AAV?$AA?5@ 00000000000dc8c0     UefiShellDebug1CommandsLib:QueryTable.obj
 0002:000148f0       ??_C@_1CO@LMODJMGP@?$AA?5?$AA6?$AA4?$AA?9?$AAb?$AAi?$AAt?$AA?5?$AAR?$AAI?$AAS?$AAC?$AA?9?$AAV?$AA?5@ 00000000000dc8f0     UefiShellDebug1CommandsLib:QueryTable.obj
 0002:00014920       ??_C@_1DC@LCKKIIBE@?$AA?5?$AA1?$AA2?$AA8?$AA?9?$AAb?$AAi?$AAt?$AA?5?$AAR?$AAI?$AAS?$AAC?$AA?9?$AAV@ 00000000000dc920     UefiShellDebug1CommandsLib:QueryTable.obj
 0002:00014960       ??_C@_1EC@CMBPDCPE@?$AA?5?$AA3?$AA2?$AA?9?$AAb?$AAi?$AAt?$AA?5?$AAL?$AAo?$AAo?$AAn?$AAg?$AAA?$AAr@ 00000000000dc960     UefiShellDebug1CommandsLib:QueryTable.obj
 0002:000149b0       ??_C@_1EC@NAJBCMJH@?$AA?5?$AA6?$AA4?$AA?9?$AAb?$AAi?$AAt?$AA?5?$AAL?$AAo?$AAo?$AAn?$AAg?$AAA?$AAr@ 00000000000dc9b0     UefiShellDebug1CommandsLib:QueryTable.obj
 0002:000149f8       ??_C@_1BE@MDDNDOFK@?$AAU?$AAp?$AAd?$AAa?$AAt?$AAa?$AAb?$AAl?$AAe@ 00000000000dc9f8     UefiShellDebug1CommandsLib:QueryTable.obj
 0002:00014a10       ??_C@_1BM@PLHNMFGN@?$AAW?$AAr?$AAi?$AAt?$AAe?$AA?9?$AAP?$AAr?$AAo?$AAt?$AAe?$AAc?$AAt@ 00000000000dca10     UefiShellDebug1CommandsLib:QueryTable.obj
 0002:00014a30       ??_C@_1BG@LKJBLHNG@?$AA?5?$AA?5?$AAU?$AAn?$AAk?$AAn?$AAo?$AAw?$AAn?$AA?5@ 00000000000dca30     UefiShellDebug1CommandsLib:QueryTable.obj
 0002:00014a50       ??_C@_1GE@GMBAPGHA@?$AA?5?$AA?5?$AAD?$AAi?$AAs?$AAa?$AAb?$AAl?$AAe?$AAd?$AA?3?$AA?5?$AAT?$AAh?$AAi@ 00000000000dca50     UefiShellDebug1CommandsLib:QueryTable.obj
 0002:00014ac0       ??_C@_1GA@KGLDIAGL@?$AA?5?$AA?5?$AAE?$AAn?$AAa?$AAb?$AAl?$AAe?$AAd?$AA?3?$AA?5?$AAT?$AAh?$AAi?$AAs@ 00000000000dcac0     UefiShellDebug1CommandsLib:QueryTable.obj
 0002:00014b20       ??_C@_1JC@NDJCCJHH@?$AA?5?$AA?5?$AAA?$AAb?$AAs?$AAe?$AAn?$AAt?$AA?3?$AA?5?$AAT?$AAh?$AAi?$AAs?$AA?5@ 00000000000dcb20     UefiShellDebug1CommandsLib:QueryTable.obj
 0002:00014bc0       ??_C@_1LE@FHEJOMCB@?$AA?5?$AA?5?$AAS?$AAt?$AAa?$AAn?$AAd?$AAb?$AAy?$AAO?$AAf?$AAf?$AAl?$AAi?$AAn@ 00000000000dcbc0     UefiShellDebug1CommandsLib:QueryTable.obj
 0002:00014c80       ??_C@_1PE@EJADFNPH@?$AA?5?$AA?5?$AAS?$AAt?$AAa?$AAn?$AAd?$AAb?$AAy?$AAS?$AAp?$AAa?$AAr?$AAe?$AA?3@ 00000000000dcc80     UefiShellDebug1CommandsLib:QueryTable.obj
 0002:00014d80       ??_C@_1JM@LHAJIAHN@?$AA?5?$AA?5?$AAU?$AAn?$AAa?$AAv?$AAa?$AAi?$AAl?$AAa?$AAb?$AAl?$AAe?$AAO?$AAf@ 00000000000dcd80     UefiShellDebug1CommandsLib:QueryTable.obj
 0002:00014e20       ??_C@_1CE@NODMCEOF@?$AA?5?$AAB?$AAI?$AAO?$AAS?$AA?5?$AAI?$AAn?$AAf?$AAo?$AAr?$AAm?$AAa?$AAt?$AAi@ 00000000000dce20     UefiShellDebug1CommandsLib:QueryTable.obj
 0002:00014e48       ??_C@_1CI@JBMGMLKL@?$AA?5?$AAS?$AAy?$AAs?$AAt?$AAe?$AAm?$AA?5?$AAI?$AAn?$AAf?$AAo?$AAr?$AAm?$AAa@ 00000000000dce48     UefiShellDebug1CommandsLib:QueryTable.obj
 0002:00014e70       ??_C@_1DA@DLBDLIPB@?$AA?5?$AAB?$AAa?$AAs?$AAe?$AA?5?$AAB?$AAo?$AAa?$AAr?$AAd?$AA?5?$AAI?$AAn?$AAf@ 00000000000dce70     UefiShellDebug1CommandsLib:QueryTable.obj
 0002:00014ea0       ??_C@_1CE@MKBMKOIJ@?$AA?5?$AAS?$AAy?$AAs?$AAt?$AAe?$AAm?$AA?5?$AAE?$AAn?$AAc?$AAl?$AAo?$AAs?$AAu@ 00000000000dcea0     UefiShellDebug1CommandsLib:QueryTable.obj
 0002:00014ec8       ??_C@_1CO@IEFCPDIM@?$AA?5?$AAP?$AAr?$AAo?$AAc?$AAe?$AAs?$AAs?$AAo?$AAr?$AA?5?$AAI?$AAn?$AAf?$AAo@ 00000000000dcec8     UefiShellDebug1CommandsLib:QueryTable.obj
 0002:00014f00       ??_C@_1EA@GLJIDPGC@?$AA?5?$AAM?$AAe?$AAm?$AAo?$AAr?$AAy?$AA?5?$AAC?$AAo?$AAn?$AAt?$AAr?$AAo?$AAl@ 00000000000dcf00     UefiShellDebug1CommandsLib:QueryTable.obj
 0002:00014f40       ??_C@_1DI@NGJKBOBL@?$AA?5?$AAM?$AAe?$AAm?$AAo?$AAr?$AAy?$AA?5?$AAM?$AAo?$AAd?$AAu?$AAl?$AAe?$AA?5@ 00000000000dcf40     UefiShellDebug1CommandsLib:QueryTable.obj
 0002:00014f78       ??_C@_1CI@KAHPHEOD@?$AA?5?$AAC?$AAa?$AAc?$AAh?$AAe?$AA?5?$AAI?$AAn?$AAf?$AAo?$AAr?$AAm?$AAa?$AAt@ 00000000000dcf78     UefiShellDebug1CommandsLib:QueryTable.obj
 0002:00014fa0       ??_C@_1DK@EIOCMDIE@?$AA?5?$AAP?$AAo?$AAr?$AAt?$AA?5?$AAC?$AAo?$AAn?$AAn?$AAe?$AAc?$AAt?$AAo?$AAr@ 00000000000dcfa0     UefiShellDebug1CommandsLib:QueryTable.obj
 0002:00014fe0       ??_C@_1BO@CFNNBGGK@?$AA?5?$AAS?$AAy?$AAs?$AAt?$AAe?$AAm?$AA?5?$AAS?$AAl?$AAo?$AAt?$AAs?$AA?5@ 00000000000dcfe0     UefiShellDebug1CommandsLib:QueryTable.obj
 0002:00015000       ??_C@_1EA@JEIKCCNN@?$AA?5?$AAO?$AAn?$AA?5?$AAB?$AAo?$AAa?$AAr?$AAd?$AA?5?$AAD?$AAe?$AAv?$AAi?$AAc@ 00000000000dd000     UefiShellDebug1CommandsLib:QueryTable.obj
 0002:00015040       ??_C@_1BK@BLOMDIIM@?$AA?5?$AAO?$AAE?$AAM?$AA?5?$AAS?$AAt?$AAr?$AAi?$AAn?$AAg?$AAs@ 00000000000dd040     UefiShellDebug1CommandsLib:QueryTable.obj
 0002:00015060       ??_C@_1DO@GLJAEBOI@?$AA?5?$AAS?$AAy?$AAs?$AAt?$AAe?$AAm?$AA?5?$AAC?$AAo?$AAn?$AAf?$AAi?$AAg?$AAu@ 00000000000dd060     UefiShellDebug1CommandsLib:QueryTable.obj
 0002:000150a0       ??_C@_1DK@PMNAAIFF@?$AA?5?$AAB?$AAI?$AAO?$AAS?$AA?5?$AAL?$AAa?$AAn?$AAg?$AAu?$AAa?$AAg?$AAe?$AA?5@ 00000000000dd0a0     UefiShellDebug1CommandsLib:QueryTable.obj
 0002:000150e0       ??_C@_1CK@LPHDKGOO@?$AA?5?$AAG?$AAr?$AAo?$AAu?$AAp?$AA?5?$AAA?$AAs?$AAs?$AAo?$AAc?$AAi?$AAa?$AAt@ 00000000000dd0e0     UefiShellDebug1CommandsLib:QueryTable.obj
 0002:00015110       ??_C@_1CG@NDCDIPMA@?$AA?5?$AAS?$AAy?$AAs?$AAt?$AAe?$AAm?$AA?5?$AAE?$AAv?$AAe?$AAn?$AAt?$AA?5?$AAL@ 00000000000dd110     UefiShellDebug1CommandsLib:QueryTable.obj
 0002:00015138       ??_C@_1DA@JNMIAO@?$AA?5?$AAP?$AAh?$AAy?$AAs?$AAi?$AAc?$AAa?$AAl?$AA?5?$AAM?$AAe?$AAm?$AAo?$AAr@ 00000000000dd138     UefiShellDebug1CommandsLib:QueryTable.obj
 0002:00015168       ??_C@_1CA@JIJECCCJ@?$AA?5?$AAM?$AAe?$AAm?$AAo?$AAr?$AAy?$AA?5?$AAD?$AAe?$AAv?$AAi?$AAc?$AAe?$AA?5@ 00000000000dd168     UefiShellDebug1CommandsLib:QueryTable.obj
 0002:00015190       ??_C@_1EE@PEHMGDNH@?$AA?5?$AA3?$AA2?$AA?9?$AAb?$AAi?$AAt?$AA?5?$AAM?$AAe?$AAm?$AAo?$AAr?$AAy?$AA?5@ 00000000000dd190     UefiShellDebug1CommandsLib:QueryTable.obj
 0002:000151d8       ??_C@_1DM@JGOEEHED@?$AA?5?$AAM?$AAe?$AAm?$AAo?$AAr?$AAy?$AA?5?$AAA?$AAr?$AAr?$AAa?$AAy?$AA?5?$AAM@ 00000000000dd1d8     UefiShellDebug1CommandsLib:QueryTable.obj
 0002:00015220       ??_C@_1EA@CCKEJEPI@?$AA?5?$AAM?$AAe?$AAm?$AAo?$AAr?$AAy?$AA?5?$AAD?$AAe?$AAv?$AAi?$AAc?$AAe?$AA?5@ 00000000000dd220     UefiShellDebug1CommandsLib:QueryTable.obj
 0002:00015260       ??_C@_1DG@CEGKOEIA@?$AA?5?$AAB?$AAu?$AAi?$AAl?$AAt?$AA?9?$AAi?$AAn?$AA?5?$AAP?$AAo?$AAi?$AAn?$AAt@ 00000000000dd260     UefiShellDebug1CommandsLib:QueryTable.obj
 0002:00015298       ??_C@_1CG@BHBPCLAK@?$AA?5?$AAP?$AAo?$AAr?$AAt?$AAa?$AAb?$AAl?$AAe?$AA?5?$AAB?$AAa?$AAt?$AAt?$AAe@ 00000000000dd298     UefiShellDebug1CommandsLib:QueryTable.obj
 0002:000152c0       ??_C@_1BO@LFPNKNOG@?$AA?5?$AAS?$AAy?$AAs?$AAt?$AAe?$AAm?$AA?5?$AAR?$AAe?$AAs?$AAe?$AAt?$AA?5@ 00000000000dd2c0     UefiShellDebug1CommandsLib:QueryTable.obj
 0002:000152e0       ??_C@_1CI@HEMMAADB@?$AA?5?$AAH?$AAa?$AAr?$AAd?$AAw?$AAa?$AAr?$AAe?$AA?5?$AAS?$AAe?$AAc?$AAu?$AAr@ 00000000000dd2e0     UefiShellDebug1CommandsLib:QueryTable.obj
 0002:00015308       ??_C@_1DA@BHBLKLIE@?$AA?5?$AAS?$AAy?$AAs?$AAt?$AAe?$AAm?$AA?5?$AAP?$AAo?$AAw?$AAe?$AAr?$AA?5?$AAC@ 00000000000dd308     UefiShellDebug1CommandsLib:QueryTable.obj
 0002:00015338       ??_C@_1CA@LPHPMNGH@?$AA?5?$AAV?$AAo?$AAl?$AAt?$AAa?$AAg?$AAe?$AA?5?$AAP?$AAr?$AAo?$AAb?$AAe?$AA?5@ 00000000000dd338     UefiShellDebug1CommandsLib:QueryTable.obj
 0002:00015358       ??_C@_1CC@HIJNABCD@?$AA?5?$AAC?$AAo?$AAo?$AAl?$AAi?$AAn?$AAg?$AA?5?$AAD?$AAe?$AAv?$AAi?$AAc?$AAe@ 00000000000dd358     UefiShellDebug1CommandsLib:QueryTable.obj
 0002:00015380       ??_C@_1CI@DBJFFCMH@?$AA?5?$AAT?$AAe?$AAm?$AAp?$AAe?$AAr?$AAa?$AAt?$AAu?$AAr?$AAe?$AA?5?$AAP?$AAr@ 00000000000dd380     UefiShellDebug1CommandsLib:QueryTable.obj
 0002:000153a8       ??_C@_1DG@GLKFIJAO@?$AA?5?$AAE?$AAl?$AAe?$AAc?$AAt?$AAr?$AAi?$AAc?$AAa?$AAl?$AA?5?$AAC?$AAu?$AAr@ 00000000000dd3a8     UefiShellDebug1CommandsLib:QueryTable.obj
 0002:000153e0       ??_C@_1DK@EBFKJOBC@?$AA?5?$AAO?$AAu?$AAt?$AA?9?$AAo?$AAf?$AA?9?$AAB?$AAa?$AAn?$AAd?$AA?5?$AAR?$AAe@ 00000000000dd3e0     UefiShellDebug1CommandsLib:QueryTable.obj
 0002:00015420       ??_C@_1FG@JFKJFGJC@?$AA?5?$AAB?$AAo?$AAo?$AAt?$AA?5?$AAI?$AAn?$AAt?$AAe?$AAg?$AAr?$AAi?$AAt?$AAy@ 00000000000dd420     UefiShellDebug1CommandsLib:QueryTable.obj
 0002:00015478       ??_C@_1DE@EJKEMOMO@?$AA?5?$AAS?$AAy?$AAs?$AAt?$AAe?$AAm?$AA?5?$AAB?$AAo?$AAo?$AAt?$AA?5?$AAI?$AAn@ 00000000000dd478     UefiShellDebug1CommandsLib:QueryTable.obj
 0002:000154b0       ??_C@_1EE@NFBOJNAJ@?$AA?5?$AA6?$AA4?$AA?9?$AAb?$AAi?$AAt?$AA?5?$AAM?$AAe?$AAm?$AAo?$AAr?$AAy?$AA?5@ 00000000000dd4b0     UefiShellDebug1CommandsLib:QueryTable.obj
 0002:000154f8       ??_C@_1CI@BCNAMOJH@?$AA?5?$AAM?$AAa?$AAn?$AAa?$AAg?$AAe?$AAm?$AAe?$AAn?$AAt?$AA?5?$AAD?$AAe?$AAv@ 00000000000dd4f8     UefiShellDebug1CommandsLib:QueryTable.obj
 0002:00015520       ??_C@_1DM@GCJAAPLD@?$AA?5?$AAM?$AAa?$AAn?$AAa?$AAg?$AAe?$AAm?$AAe?$AAn?$AAt?$AA?5?$AAD?$AAe?$AAv@ 00000000000dd520     UefiShellDebug1CommandsLib:QueryTable.obj
 0002:00015560       ??_C@_1EG@KIKKBPNN@?$AA?5?$AAM?$AAa?$AAn?$AAa?$AAg?$AAe?$AAm?$AAe?$AAn?$AAt?$AA?5?$AAD?$AAe?$AAv@ 00000000000dd560     UefiShellDebug1CommandsLib:QueryTable.obj
 0002:000155a8       ??_C@_1CC@CDPDJPBM@?$AA?5?$AAM?$AAe?$AAm?$AAo?$AAr?$AAy?$AA?5?$AAC?$AAh?$AAa?$AAn?$AAn?$AAe?$AAl@ 00000000000dd5a8     UefiShellDebug1CommandsLib:QueryTable.obj
 0002:000155d0       ??_C@_1DE@KMAGHJDA@?$AA?5?$AAI?$AAP?$AAM?$AAI?$AA?5?$AAD?$AAe?$AAv?$AAi?$AAc?$AAe?$AA?5?$AAI?$AAn@ 00000000000dd5d0     UefiShellDebug1CommandsLib:QueryTable.obj
 0002:00015608       ??_C@_1CK@OCDKGLHK@?$AA?5?$AAS?$AAy?$AAs?$AAt?$AAe?$AAm?$AA?5?$AAP?$AAo?$AAw?$AAe?$AAr?$AA?5?$AAS@ 00000000000dd608     UefiShellDebug1CommandsLib:QueryTable.obj
 0002:00015638       ??_C@_1DA@GLMBOCKD@?$AA?5?$AAA?$AAd?$AAd?$AAi?$AAt?$AAi?$AAo?$AAn?$AAa?$AAl?$AA?5?$AAI?$AAn?$AAf@ 00000000000dd638     UefiShellDebug1CommandsLib:QueryTable.obj
 0002:00015670       ??_C@_1EM@FKONMDEN@?$AA?5?$AAO?$AAn?$AAb?$AAo?$AAa?$AAr?$AAd?$AA?5?$AAD?$AAe?$AAv?$AAi?$AAc?$AAe@ 00000000000dd670     UefiShellDebug1CommandsLib:QueryTable.obj
 0002:000156c0       ??_C@_1EM@CBPIKIMD@?$AA?5?$AAM?$AAa?$AAn?$AAa?$AAg?$AAe?$AAm?$AAe?$AAn?$AAt?$AA?5?$AAC?$AAo?$AAn@ 00000000000dd6c0     UefiShellDebug1CommandsLib:QueryTable.obj
 0002:00015710       ??_C@_1BI@EIFIKJJO@?$AA?5?$AAT?$AAP?$AAM?$AA?5?$AAD?$AAe?$AAv?$AAi?$AAc?$AAe@ 00000000000dd710     UefiShellDebug1CommandsLib:QueryTable.obj
 0002:00015730       ??_C@_1EE@KMPPFPAD@?$AA?5?$AAP?$AAr?$AAo?$AAc?$AAe?$AAs?$AAs?$AAo?$AAr?$AA?5?$AAA?$AAd?$AAd?$AAi@ 00000000000dd730     UefiShellDebug1CommandsLib:QueryTable.obj
 0002:00015778       ??_C@_1BE@BOAAIAOA@?$AA?5?$AAI?$AAn?$AAa?$AAc?$AAt?$AAi?$AAv?$AAe@ 00000000000dd778     UefiShellDebug1CommandsLib:QueryTable.obj
 0002:00015790       ??_C@_1BO@BNMLPACJ@?$AA?5?$AAE?$AAn?$AAd?$AA?9?$AAo?$AAf?$AA?9?$AAT?$AAa?$AAb?$AAl?$AAe?$AA?5@ 00000000000dd790     UefiShellDebug1CommandsLib:QueryTable.obj
 0002:000157b0       ??_C@_1CC@PHEMCIPO@?$AAU?$AAn?$AAd?$AAe?$AAf?$AAi?$AAn?$AAe?$AAd?$AA?5?$AAV?$AAa?$AAl?$AAu?$AAe@ 00000000000dd7b0     UefiShellDebug1CommandsLib:QueryTable.obj
 0002:000157d8       ??_C@_17LPHJCAEE@?$AA?5?$AA?$HM?$AA?5@ 00000000000dd7d8     UefiShellDebug1CommandsLib:QueryTable.obj
 0002:000157e0       ??_C@_1M@EMMHMJAC@?$AA0?$AAx?$AA?$CF?$AAx?$AA?6@ 00000000000dd7e0     UefiShellDebug1CommandsLib:QueryTable.obj
 0002:000157f0       ??_C@_0P@GKBOIFMJ@VendorSyndrome@ 00000000000dd7f0     UefiShellDebug1CommandsLib:PrintInfo.obj
 0002:00015800       ??_C@_0BI@GMHNBLK@MemoryArrayErrorAddress@ 00000000000dd800     UefiShellDebug1CommandsLib:PrintInfo.obj
 0002:00015818       ??_C@_0BD@BKOBIHDF@DeviceErrorAddress@ 00000000000dd818     UefiShellDebug1CommandsLib:PrintInfo.obj
 0002:00015830       ??_C@_0BA@DBMDPLBE@ErrorResolution@ 00000000000dd830     UefiShellDebug1CommandsLib:PrintInfo.obj
 0002:00015840       ??_C@_0BA@JKJCLFJA@StartingAddress@ 00000000000dd840     UefiShellDebug1CommandsLib:PrintInfo.obj
 0002:00015850       ??_C@_0O@DMEOEBEF@EndingAddress@ 00000000000dd850     UefiShellDebug1CommandsLib:PrintInfo.obj
 0002:00015860       ??_C@_0BC@DOCKMFPE@MemoryArrayHandle@ 00000000000dd860     UefiShellDebug1CommandsLib:PrintInfo.obj
 0002:00015878       ??_C@_0P@HDALFGDK@PartitionWidth@ 00000000000dd878     UefiShellDebug1CommandsLib:PrintInfo.obj
 0002:00015888       ??_C@_0BI@PDLKJHHB@ExtendedStartingAddress@ 00000000000dd888     UefiShellDebug1CommandsLib:PrintInfo.obj
 0002:000158a0       ??_C@_0BG@GIFMFDDI@ExtendedEndingAddress@ 00000000000dd8a0     UefiShellDebug1CommandsLib:PrintInfo.obj
 0002:000158b8       ??_C@_0BD@BEPOHNAH@MemoryDeviceHandle@ 00000000000dd8b8     UefiShellDebug1CommandsLib:PrintInfo.obj
 0002:000158d0       ??_C@_0BP@CAGAFDLF@MemoryArrayMappedAddressHandle@ 00000000000dd8d0     UefiShellDebug1CommandsLib:PrintInfo.obj
 0002:000158f0       ??_C@_0BF@PKKBLCDA@PartitionRowPosition@ 00000000000dd8f0     UefiShellDebug1CommandsLib:PrintInfo.obj
 0002:00015908       ??_C@_0BD@OOBFBMPB@InterleavePosition@ 00000000000dd908     UefiShellDebug1CommandsLib:PrintInfo.obj
 0002:00015920       ??_C@_0BF@NJFOFALN@InterleavedDataDepth@ 00000000000dd920     UefiShellDebug1CommandsLib:PrintInfo.obj
 0002:00015938       ??_C@_0BA@EHILAMBM@NumberOfButtons@ 00000000000dd938     UefiShellDebug1CommandsLib:PrintInfo.obj
 0002:00015948       ??_C@_08KDOEBHGA@Location@ 00000000000dd948     UefiShellDebug1CommandsLib:PrintInfo.obj
 0002:00015958       ??_C@_0BA@EMGHNHBI@ManufactureDate@ 00000000000dd958     UefiShellDebug1CommandsLib:PrintInfo.obj
 0002:00015968       ??_C@_0L@FHIBJDML@DeviceName@ 00000000000dd968     UefiShellDebug1CommandsLib:PrintInfo.obj
 0002:00015978       ??_C@_0P@NAOAONJL@DeviceCapacity@ 00000000000dd978     UefiShellDebug1CommandsLib:PrintInfo.obj
 0002:00015988       ??_C@_0O@PBABLEFL@DesignVoltage@ 00000000000dd988     UefiShellDebug1CommandsLib:PrintInfo.obj
 0002:00015998       ??_C@_0BC@OODDBNIJ@SBDSVersionNumber@ 00000000000dd998     UefiShellDebug1CommandsLib:PrintInfo.obj
 0002:000159b0       ??_C@_0BK@BLDMGBHN@MaximumErrorInBatteryData@ 00000000000dd9b0     UefiShellDebug1CommandsLib:PrintInfo.obj
 0002:000159d0       ??_C@_0BB@DCLMCCCP@SBDSSerialNumber@ 00000000000dd9d0     UefiShellDebug1CommandsLib:PrintInfo.obj
 0002:000159e8       ??_C@_0BE@EJNLLEMJ@SBDSDeviceChemistry@ 00000000000dd9e8     UefiShellDebug1CommandsLib:PrintInfo.obj
 0002:00015a00       ??_C@_0BJ@KCIBCEGB@DesignCapacityMultiplier@ 00000000000dda00     UefiShellDebug1CommandsLib:PrintInfo.obj
 0002:00015a20       ??_C@_0M@DJFOKPBB@OEMSpecific@ 00000000000dda20     UefiShellDebug1CommandsLib:PrintInfo.obj
 0002:00015a30       ??_C@_0L@NDDNCBN@ResetCount@ 00000000000dda30     UefiShellDebug1CommandsLib:PrintInfo.obj
 0002:00015a40       ??_C@_0L@ODMHPMJN@ResetLimit@ 00000000000dda40     UefiShellDebug1CommandsLib:PrintInfo.obj
 0002:00015a50       ??_C@_0O@EGBCLEGG@TimerInterval@ 00000000000dda50     UefiShellDebug1CommandsLib:PrintInfo.obj
 0002:00015a60       ??_C@_07MKALMBDJ@Timeout@  00000000000dda60     UefiShellDebug1CommandsLib:PrintInfo.obj
 0002:00015a68       ??_C@_0BK@LAOADDEK@NextScheduledPowerOnMonth@ 00000000000dda68     UefiShellDebug1CommandsLib:PrintInfo.obj
 0002:00015a88       ??_C@_0BP@BFMGCEHK@NextScheduledPowerOnDayOfMonth@ 00000000000dda88     UefiShellDebug1CommandsLib:PrintInfo.obj
 0002:00015aa8       ??_C@_0BJ@PNALOFHH@NextScheduledPowerOnHour@ 00000000000ddaa8     UefiShellDebug1CommandsLib:PrintInfo.obj
 0002:00015ac8       ??_C@_0BL@PFOKAJDD@NextScheduledPowerOnMinute@ 00000000000ddac8     UefiShellDebug1CommandsLib:PrintInfo.obj
 0002:00015ae8       ??_C@_0BL@HKFHEKHG@NextScheduledPowerOnSecond@ 00000000000ddae8     UefiShellDebug1CommandsLib:PrintInfo.obj
 0002:00015b08       ??_C@_0M@OHKMKKDH@Description@ 00000000000ddb08     UefiShellDebug1CommandsLib:PrintInfo.obj
 0002:00015b18       ??_C@_0N@DGPGOIBE@MaximumValue@ 00000000000ddb18     UefiShellDebug1CommandsLib:PrintInfo.obj
 0002:00015b28       ??_C@_0N@HGLJJAGC@MinimumValue@ 00000000000ddb28     UefiShellDebug1CommandsLib:PrintInfo.obj
 0002:00015b38       ??_C@_0L@KGPBCGJE@Resolution@ 00000000000ddb38     UefiShellDebug1CommandsLib:PrintInfo.obj
 0002:00015b48       ??_C@_09BKMALBOE@Tolerance@ 00000000000ddb48     UefiShellDebug1CommandsLib:PrintInfo.obj
 0002:00015b58       ??_C@_08NLCOAFEI@Accuracy@ 00000000000ddb58     UefiShellDebug1CommandsLib:PrintInfo.obj
 0002:00015b68       ??_C@_0L@CMCEPKPI@OEMDefined@ 00000000000ddb68     UefiShellDebug1CommandsLib:PrintInfo.obj
 0002:00015b78       ??_C@_0N@NKKHDHON@NominalValue@ 00000000000ddb78     UefiShellDebug1CommandsLib:PrintInfo.obj
 0002:00015b88       ??_C@_0BH@OAHLOFMP@TemperatureProbeHandle@ 00000000000ddb88     UefiShellDebug1CommandsLib:PrintInfo.obj
 0002:00015ba0       ??_C@_0BB@JNADELBP@CoolingUnitGroup@ 00000000000ddba0     UefiShellDebug1CommandsLib:PrintInfo.obj
 0002:00015bb8       ??_C@_0N@KPNPMFNH@NominalSpeed@ 00000000000ddbb8     UefiShellDebug1CommandsLib:PrintInfo.obj
 0002:00015bc8       ??_C@_0BB@PDMMMKBD@ManufacturerName@ 00000000000ddbc8     UefiShellDebug1CommandsLib:PrintInfo.obj
 0002:00015be0       ??_C@_07EODJIPPN@Address@  00000000000ddbe0     UefiShellDebug1CommandsLib:PrintInfo.obj
 0002:00015be8       ??_C@_0BH@JEDJGKMH@ManagementDeviceHandle@ 00000000000ddbe8     UefiShellDebug1CommandsLib:PrintInfo.obj
 0002:00015c00       ??_C@_0BA@CPMLFEDK@ComponentHandle@ 00000000000ddc00     UefiShellDebug1CommandsLib:PrintInfo.obj
 0002:00015c10       ??_C@_0BA@JCNCODMC@ThresholdHandle@ 00000000000ddc10     UefiShellDebug1CommandsLib:PrintInfo.obj
 0002:00015c20       ??_C@_0BK@LBKIMOJN@LowerThresholdNonCritical@ 00000000000ddc20     UefiShellDebug1CommandsLib:PrintInfo.obj
 0002:00015c40       ??_C@_0BK@CCJKGBMI@UpperThresholdNonCritical@ 00000000000ddc40     UefiShellDebug1CommandsLib:PrintInfo.obj
 0002:00015c60       ??_C@_0BH@NMAIJHFM@LowerThresholdCritical@ 00000000000ddc60     UefiShellDebug1CommandsLib:PrintInfo.obj
 0002:00015c78       ??_C@_0BH@FKDKGMLL@UpperThresholdCritical@ 00000000000ddc78     UefiShellDebug1CommandsLib:PrintInfo.obj
 0002:00015c90       ??_C@_0BN@CCIJPGKB@LowerThresholdNonRecoverable@ 00000000000ddc90     UefiShellDebug1CommandsLib:PrintInfo.obj
 0002:00015cb0       ??_C@_0BN@KJLGOLMP@UpperThresholdNonRecoverable@ 00000000000ddcb0     UefiShellDebug1CommandsLib:PrintInfo.obj
 0002:00015cd0       ??_C@_0BD@HKIFACCD@MaximumChannelLoad@ 00000000000ddcd0     UefiShellDebug1CommandsLib:PrintInfo.obj
 0002:00015ce8       ??_C@_0BC@BPJKFOHI@MemoryDeviceCount@ 00000000000ddce8     UefiShellDebug1CommandsLib:PrintInfo.obj
 0002:00015d00       ??_C@_0BA@IILNCDHF@I2CSlaveAddress@ 00000000000ddd00     UefiShellDebug1CommandsLib:PrintInfo.obj
 0002:00015d10       ??_C@_0BH@MHJAAFFN@NVStorageDeviceAddress@ 00000000000ddd10     UefiShellDebug1CommandsLib:PrintInfo.obj
 0002:00015d28       ??_C@_0M@BGEGAMBM@BaseAddress@ 00000000000ddd28     UefiShellDebug1CommandsLib:PrintInfo.obj
 0002:00015d38       ??_C@_0P@DONEEMPC@PowerUnitGroup@ 00000000000ddd38     UefiShellDebug1CommandsLib:PrintInfo.obj
 0002:00015d48       ??_C@_0P@PJJMPGNK@AssetTagNumber@ 00000000000ddd48     UefiShellDebug1CommandsLib:PrintInfo.obj
 0002:00015d58       ??_C@_0BA@NFKEAEEP@ModelPartNumber@ 00000000000ddd58     UefiShellDebug1CommandsLib:PrintInfo.obj
 0002:00015d68       ??_C@_0O@MEKHAACN@RevisionLevel@ 00000000000ddd68     UefiShellDebug1CommandsLib:PrintInfo.obj
 0002:00015d78       ??_C@_0BB@ELFGCFNP@MaxPowerCapacity@ 00000000000ddd78     UefiShellDebug1CommandsLib:PrintInfo.obj
 0002:00015d90       ??_C@_0BI@BNPKKMKF@InputVoltageProbeHandle@ 00000000000ddd90     UefiShellDebug1CommandsLib:PrintInfo.obj
 0002:00015da8       ??_C@_0BE@GDEOIKLD@CoolingDeviceHandle@ 00000000000ddda8     UefiShellDebug1CommandsLib:PrintInfo.obj
 0002:00015dc0       ??_C@_0BI@EEELGOPB@InputCurrentProbeHandle@ 00000000000dddc0     UefiShellDebug1CommandsLib:PrintInfo.obj
 0002:00015dd8       ??_C@_0CF@LKIGLGMK@NumberOfAdditionalInformationEn@ 00000000000dddd8     UefiShellDebug1CommandsLib:PrintInfo.obj
 0002:00015e00       ??_C@_06ENNEIMBA@String@   00000000000dde00     UefiShellDebug1CommandsLib:PrintInfo.obj
 0002:00015e08       ??_C@_05LPIJGKJ@Value@     00000000000dde08     UefiShellDebug1CommandsLib:PrintInfo.obj
 0002:00015e10       ??_C@_1DG@NDDCIEGL@?$AAR?$AAe?$AAf?$AAe?$AAr?$AAe?$AAn?$AAc?$AAe?$AA?5?$AAD?$AAe?$AAs?$AAi?$AAg@ 00000000000dde10     UefiShellDebug1CommandsLib:PrintInfo.obj
 0002:00015e48       ??_C@_1DI@JDFNBLFB@?$AAD?$AAe?$AAv?$AAi?$AAc?$AAe?$AA?5?$AAT?$AAy?$AAp?$AAe?$AA?5?$AAI?$AAn?$AAs@ 00000000000dde48     UefiShellDebug1CommandsLib:PrintInfo.obj
 0002:00015e80       ??_C@_1DI@CDIBPEJH@?$AAS?$AAe?$AAg?$AAm?$AAe?$AAn?$AAt?$AA?5?$AAG?$AAr?$AAo?$AAu?$AAp?$AA?5?$AAN@ 00000000000dde80     UefiShellDebug1CommandsLib:PrintInfo.obj
 0002:00015eb8       ??_C@_1CE@GMPDEIJE@?$AAB?$AAu?$AAs?$AA?5?$AAN?$AAu?$AAm?$AAb?$AAe?$AAr?$AA?3?$AA?5?$AA0?$AAx?$AA?$CF@ 00000000000ddeb8     UefiShellDebug1CommandsLib:PrintInfo.obj
 0002:00015ee0       ??_C@_1DM@KOBIEGBB@?$AAD?$AAe?$AAv?$AAi?$AAc?$AAe?$AA?1?$AAF?$AAu?$AAn?$AAc?$AAt?$AAi?$AAo?$AAn@ 00000000000ddee0     UefiShellDebug1CommandsLib:PrintInfo.obj
 0002:00015f20       ??_C@_0CA@GDHLOGDP@InterfaceTypeSpecificDataLength@ 00000000000ddf20     UefiShellDebug1CommandsLib:PrintInfo.obj
 0002:00015f40       ??_C@_1HE@POBEKFIN@?$AAW?$AAA?$AAR?$AAN?$AAI?$AAN?$AAG?$AA?3?$AA?5?$AAI?$AAn?$AAt?$AAe?$AAr?$AAf@ 00000000000ddf40     UefiShellDebug1CommandsLib:PrintInfo.obj
 0002:00015fb8       ??_C@_1DG@PLIDCCID@?$AAI?$AAn?$AAt?$AAe?$AAr?$AAf?$AAa?$AAc?$AAe?$AAT?$AAy?$AAp?$AAe?$AAS?$AAp@ 00000000000ddfb8     UefiShellDebug1CommandsLib:PrintInfo.obj
 0002:00015ff0       ??_C@_1EO@IAKJAADH@?$AAV?$AAe?$AAn?$AAd?$AAo?$AAr?$AA?5?$AAI?$AAD?$AA?5?$AA?$CI?$AAI?$AAA?$AAN?$AAA@ 00000000000ddff0     UefiShellDebug1CommandsLib:PrintInfo.obj
 0002:00016040       ??_C@_1FK@HAPCMNMA@?$AAP?$AAo?$AAi?$AAn?$AAt?$AAe?$AAr?$AA?5?$AAt?$AAo?$AA?5?$AAM?$AAM?$AAB?$AAI@ 00000000000de040     UefiShellDebug1CommandsLib:PrintInfo.obj
 0002:000160a0       ??_C@_1LE@CMDDMACG@?$AAF?$AAo?$AAr?$AA?5?$AAI?$AAn?$AAt?$AAe?$AAr?$AAf?$AAa?$AAc?$AAe?$AA?5?$AAt@ 00000000000de0a0     UefiShellDebug1CommandsLib:PrintInfo.obj
 0002:00016158       ??_C@_1DA@NBKDKFFD@?$AAA?$AAc?$AAt?$AAu?$AAa?$AAl?$AA?5?$AAv?$AAa?$AAl?$AAu?$AAe?$AA?5?$AAi?$AAs@ 00000000000de158     UefiShellDebug1CommandsLib:PrintInfo.obj
 0002:00016188       ??_C@_0BK@CACHABEP@InterfaceTypeSpecificData@ 00000000000de188     UefiShellDebug1CommandsLib:PrintInfo.obj
 0002:000161a8       ??_C@_08PJFDLDED@VendorID@ 00000000000de1a8     UefiShellDebug1CommandsLib:PrintInfo.obj
 0002:000161b8       ??_C@_0BB@GAHCGLGG@MajorSpecVersion@ 00000000000de1b8     UefiShellDebug1CommandsLib:PrintInfo.obj
 0002:000161d0       ??_C@_0BB@JJBNJBEK@MinorSpecVersion@ 00000000000de1d0     UefiShellDebug1CommandsLib:PrintInfo.obj
 0002:000161e8       ??_C@_0BB@EECEIOKK@FirmwareVersion1@ 00000000000de1e8     UefiShellDebug1CommandsLib:PrintInfo.obj
 0002:00016200       ??_C@_0BB@GPAJNNGJ@FirmwareVersion2@ 00000000000de200     UefiShellDebug1CommandsLib:PrintInfo.obj
 0002:00016218       ??_C@_0BG@JNJNBNKN@FirmwareComponentName@ 00000000000de218     UefiShellDebug1CommandsLib:PrintInfo.obj
 0002:00016230       ??_C@_0BA@HBHNNJFG@FirmwareVersion@ 00000000000de230     UefiShellDebug1CommandsLib:PrintInfo.obj
 0002:00016240       ??_C@_1CC@OEHHKNG@?$AAF?$AAr?$AAe?$AAe?$AA?9?$AAf?$AAo?$AAr?$AAm?$AA?5?$AAs?$AAt?$AAr?$AAi?$AAn@ 00000000000de240     UefiShellDebug1CommandsLib:PrintInfo.obj
 0002:00016268       ??_C@_1BI@JFMNGOOP@?$AAM?$AAA?$AAJ?$AAO?$AAR?$AA?4?$AAM?$AAI?$AAN?$AAO?$AAR@ 00000000000de268     UefiShellDebug1CommandsLib:PrintInfo.obj
 0002:00016280       ??_C@_1DE@HJBDNGKH@?$AA3?$AA2?$AA?9?$AAb?$AAi?$AAt?$AA?5?$AAh?$AAe?$AAx?$AAa?$AAd?$AAe?$AAc?$AAi@ 00000000000de280     UefiShellDebug1CommandsLib:PrintInfo.obj
 0002:000162b8       ??_C@_1DE@MCNJIEHL@?$AA6?$AA4?$AA?9?$AAb?$AAi?$AAt?$AA?5?$AAh?$AAe?$AAx?$AAa?$AAd?$AAe?$AAc?$AAi@ 00000000000de2b8     UefiShellDebug1CommandsLib:PrintInfo.obj
 0002:000162f0       ??_C@_1DC@KPBCCMGO@?$AAB?$AAI?$AAO?$AAS?$AA?5?$AAV?$AAe?$AAn?$AAd?$AAo?$AAr?$AA?1?$AAO?$AAE?$AAM@ 00000000000de2f0     UefiShellDebug1CommandsLib:PrintInfo.obj
 0002:00016328       ??_C@_1BC@BIAHJJFB@?$AAR?$AAe?$AAs?$AAe?$AAr?$AAv?$AAe?$AAd@ 00000000000de328     UefiShellDebug1CommandsLib:PrintInfo.obj
 0002:00016340       ??_C@_0L@JJLHCBE@FirmwareId@ 00000000000de340     UefiShellDebug1CommandsLib:PrintInfo.obj
 0002:00016350       ??_C@_1CI@PNBLKJAO@?$AAR?$AAF?$AAC?$AA4?$AA1?$AA2?$AA2?$AA?5?$AAU?$AAU?$AAI?$AAD?$AA?5?$AAs?$AAt@ 00000000000de350     UefiShellDebug1CommandsLib:PrintInfo.obj
 0002:00016378       ??_C@_0M@FEKFCCJH@ReleaseDate@ 00000000000de378     UefiShellDebug1CommandsLib:PrintInfo.obj
 0002:00016388       ??_C@_0BH@MPIKGCFJ@LowestSupportedVersion@ 00000000000de388     UefiShellDebug1CommandsLib:PrintInfo.obj
 0002:000163a0       ??_C@_09KBOOOOEB@ImageSize@ 00000000000de3a0     UefiShellDebug1CommandsLib:PrintInfo.obj
 0002:000163b0       ??_C@_0BJ@KOLPKIAL@AssociatedComponentCount@ 00000000000de3b0     UefiShellDebug1CommandsLib:PrintInfo.obj
 0002:000163d0       ??_C@_1BI@OMOKAPDO@?$AA?5?$AA?5?$AA?5?$AA?5?$AA0?$AAx?$AA?$CF?$AA0?$AA4?$AAX?$AA?5@ 00000000000de3d0     UefiShellDebug1CommandsLib:PrintInfo.obj
 0002:000163e8       ??_C@_1CC@FJPPHPAG@?$AAU?$AAE?$AAF?$AAI?$AA?5?$AAd?$AAe?$AAv?$AAi?$AAc?$AAe?$AA?5?$AAp?$AAa?$AAt@ 00000000000de3e8     UefiShellDebug1CommandsLib:PrintInfo.obj
 0002:00016410       ??_C@_1CI@KAOGHLPB@?$AAB?$AAI?$AAO?$AAS?$AA?5?$AAv?$AAe?$AAn?$AAd?$AAo?$AAr?$AA?5?$AAd?$AAe?$AAf@ 00000000000de410     UefiShellDebug1CommandsLib:PrintInfo.obj
 0002:00016438       ??_C@_1BI@OAFAIEAN@?$AAO?$AAE?$AAM?$AA?5?$AAd?$AAe?$AAf?$AAi?$AAn?$AAe?$AAd@ 00000000000de438     UefiShellDebug1CommandsLib:PrintInfo.obj
 0002:00016450       ??_C@_0BE@KBPLNGEK@StringPropertyValue@ 00000000000de450     UefiShellDebug1CommandsLib:PrintInfo.obj
 0002:00016468       ??_C@_0N@BIIAKMAO@ParentHandle@ 00000000000de468     UefiShellDebug1CommandsLib:PrintInfo.obj
 0002:00016478       ??_C@_1M@BFEKLHEO@?$AA8?$AA0?$AA8?$AA6?$AA?6@ 00000000000de478     UefiShellDebug1CommandsLib:PrintInfo.obj
 0002:00016488       ??_C@_1O@CFFCPEKH@?$AA8?$AA0?$AA2?$AA8?$AA6?$AA?6@ 00000000000de488     UefiShellDebug1CommandsLib:PrintInfo.obj
 0002:00016498       ??_C@_1M@NOBGGEOL@?$AA8?$AA0?$AA8?$AA7?$AA?6@ 00000000000de498     UefiShellDebug1CommandsLib:PrintInfo.obj
 0002:000164a8       ??_C@_1O@OOAOCHAC@?$AA8?$AA0?$AA2?$AA8?$AA7?$AA?6@ 00000000000de4a8     UefiShellDebug1CommandsLib:PrintInfo.obj
 0002:000164b8       ??_C@_1O@BMMEMDM@?$AA8?$AA0?$AA3?$AA8?$AA7?$AA?6@ 00000000000de4b8     UefiShellDebug1CommandsLib:PrintInfo.obj
 0002:000164c8       ??_C@_1O@ODBAFHEF@?$AA8?$AA0?$AA4?$AA8?$AA7?$AA?6@ 00000000000de4c8     UefiShellDebug1CommandsLib:PrintInfo.obj
 0002:000164d8       ??_C@_1BG@DBAGDDAO@?$AAM?$AA2?$AA?5?$AAF?$AAa?$AAm?$AAi?$AAl?$AAy?$AA?6@ 00000000000de4d8     UefiShellDebug1CommandsLib:PrintInfo.obj
 0002:000164f0       ??_C@_1CC@MPNELHD@?$AAI?$AAn?$AAt?$AAe?$AAl?$AA?5?$AAC?$AAe?$AAl?$AAe?$AAr?$AAo?$AAn?$AA?5?$AAM@ 00000000000de4f0     UefiShellDebug1CommandsLib:PrintInfo.obj
 0002:00016518       ??_C@_1CI@IFPKFDMJ@?$AAI?$AAn?$AAt?$AAe?$AAl?$AA?5?$AAP?$AAe?$AAn?$AAt?$AAi?$AAu?$AAm?$AA?5?$AA4@ 00000000000de518     UefiShellDebug1CommandsLib:PrintInfo.obj
 0002:00016540       ??_C@_1BG@ONMLJEEK@?$AAA?$AAM?$AAD?$AA?5?$AAD?$AAu?$AAr?$AAo?$AAn?$AA?6@ 00000000000de540     UefiShellDebug1CommandsLib:PrintInfo.obj
 0002:00016558       ??_C@_1BG@NBKICNH@?$AAK?$AA6?$AA?5?$AAF?$AAa?$AAm?$AAi?$AAl?$AAy?$AA?6@ 00000000000de558     UefiShellDebug1CommandsLib:PrintInfo.obj
 0002:00016570       ??_C@_1M@OEEKOJFE@?$AAK?$AA6?$AA?9?$AA2?$AA?6@ 00000000000de570     UefiShellDebug1CommandsLib:PrintInfo.obj
 0002:00016580       ??_C@_1M@CPBGDKPB@?$AAK?$AA6?$AA?9?$AA3?$AA?6@ 00000000000de580     UefiShellDebug1CommandsLib:PrintInfo.obj
 0002:00016590       ??_C@_1DK@FOMJPGAK@?$AAA?$AAM?$AAD?$AA?5?$AAA?$AAl?$AAt?$AAh?$AAo?$AAn?$AA?5?$AAP?$AAr?$AAo?$AAc@ 00000000000de590     UefiShellDebug1CommandsLib:PrintInfo.obj
 0002:000165d0       ??_C@_1CE@IEKOHBKD@?$AAA?$AAM?$AAD?$AA?5?$AA2?$AA9?$AA0?$AA0?$AA0?$AA?5?$AAF?$AAa?$AAm?$AAi?$AAl@ 00000000000de5d0     UefiShellDebug1CommandsLib:PrintInfo.obj
 0002:000165f8       ??_C@_1O@KEEMBADB@?$AAK?$AA6?$AA?9?$AA2?$AA?$CL?$AA?6@ 00000000000de5f8     UefiShellDebug1CommandsLib:PrintInfo.obj
 0002:00016608       ??_C@_1BM@CMFDIAEL@?$AAP?$AAo?$AAw?$AAe?$AAr?$AA?5?$AAP?$AAC?$AA?5?$AA6?$AA2?$AA0?$AA?6@ 00000000000de608     UefiShellDebug1CommandsLib:PrintInfo.obj
 0002:00016628       ??_C@_1BM@BKCFKOBO@?$AAP?$AAo?$AAw?$AAe?$AAr?$AA?5?$AAP?$AAC?$AA?5?$AA7?$AA0?$AA4?$AA?6@ 00000000000de628     UefiShellDebug1CommandsLib:PrintInfo.obj
 0002:00016648       ??_C@_1BM@MJFEOCGM@?$AAP?$AAo?$AAw?$AAe?$AAr?$AA?5?$AAP?$AAC?$AA?5?$AA7?$AA5?$AA0?$AA?6@ 00000000000de648     UefiShellDebug1CommandsLib:PrintInfo.obj
 0002:00016668       ??_C@_1DO@IMFJCMIO@?$AAI?$AAn?$AAt?$AAe?$AAl?$AA?$CI?$AAR?$AA?$CJ?$AA?5?$AAC?$AAo?$AAr?$AAe?$AA?$CI?$AAT@ 00000000000de668     UefiShellDebug1CommandsLib:PrintInfo.obj
 0002:000166b0       ??_C@_1EA@FLOKOMLP@?$AAI?$AAn?$AAt?$AAe?$AAl?$AA?$CI?$AAR?$AA?$CJ?$AA?5?$AAC?$AAo?$AAr?$AAe?$AA?$CI?$AAT@ 00000000000de6b0     UefiShellDebug1CommandsLib:PrintInfo.obj
 0002:000166f0       ??_C@_1EA@GEDEDBAO@?$AAI?$AAn?$AAt?$AAe?$AAl?$AA?$CI?$AAR?$AA?$CJ?$AA?5?$AAC?$AAo?$AAr?$AAe?$AA?$CI?$AAT@ 00000000000de6f0     UefiShellDebug1CommandsLib:PrintInfo.obj
 0002:00016730       ??_C@_1EA@HBHOHKGB@?$AAI?$AAn?$AAt?$AAe?$AAl?$AA?$CI?$AAR?$AA?$CJ?$AA?5?$AAC?$AAo?$AAr?$AAe?$AA?$CI?$AAT@ 00000000000de730     UefiShellDebug1CommandsLib:PrintInfo.obj
 0002:00016770       ??_C@_1BK@EILJHJBO@?$AAA?$AAl?$AAp?$AAh?$AAa?$AA?5?$AA2?$AA1?$AA0?$AA6?$AA4?$AA?6@ 00000000000de770     UefiShellDebug1CommandsLib:PrintInfo.obj
 0002:00016790       ??_C@_1BK@FHBNIBF@?$AAA?$AAl?$AAp?$AAh?$AAa?$AA?5?$AA2?$AA1?$AA0?$AA6?$AA6?$AA?6@ 00000000000de790     UefiShellDebug1CommandsLib:PrintInfo.obj
 0002:000167b0       ??_C@_1BK@KHHLBCCA@?$AAA?$AAl?$AAp?$AAh?$AAa?$AA?5?$AA2?$AA1?$AA1?$AA6?$AA4?$AA?6@ 00000000000de7b0     UefiShellDebug1CommandsLib:PrintInfo.obj
 0002:000167d0       ??_C@_1BO@BJHODJPO@?$AAA?$AAl?$AAp?$AAh?$AAa?$AA?5?$AA2?$AA1?$AA1?$AA6?$AA4?$AAP?$AAC?$AA?6@ 00000000000de7d0     UefiShellDebug1CommandsLib:PrintInfo.obj
 0002:000167f0       ??_C@_1BM@GLLDONGM@?$AAA?$AAl?$AAp?$AAh?$AAa?$AA?5?$AA2?$AA1?$AA1?$AA6?$AA4?$AAa?$AA?6@ 00000000000de7f0     UefiShellDebug1CommandsLib:PrintInfo.obj
 0002:00016810       ??_C@_1BK@EMEMKJCD@?$AAA?$AAl?$AAp?$AAh?$AAa?$AA?5?$AA2?$AA1?$AA2?$AA6?$AA4?$AA?6@ 00000000000de810     UefiShellDebug1CommandsLib:PrintInfo.obj
 0002:00016830       ??_C@_1BK@KDIOMCBN@?$AAA?$AAl?$AAp?$AAh?$AAa?$AA?5?$AA2?$AA1?$AA3?$AA6?$AA4?$AA?6@ 00000000000de830     UefiShellDebug1CommandsLib:PrintInfo.obj
 0002:00016850       ??_C@_1HC@BGNAJMPG@?$AAA?$AAM?$AAD?$AA?5?$AAT?$AAu?$AAr?$AAi?$AAo?$AAn?$AA?5?$AAI?$AAI?$AA?5?$AAU@ 00000000000de850     UefiShellDebug1CommandsLib:PrintInfo.obj
 0002:000168d0       ??_C@_1GG@GHONLEP@?$AAA?$AAM?$AAD?$AA?5?$AAT?$AAu?$AAr?$AAi?$AAo?$AAn?$AA?5?$AAI?$AAI?$AA?5?$AAD@ 00000000000de8d0     UefiShellDebug1CommandsLib:PrintInfo.obj
 0002:00016940       ??_C@_1FI@EDMINKLJ@?$AAA?$AAM?$AAD?$AA?5?$AAA?$AAl?$AAt?$AAh?$AAo?$AAn?$AA?5?$AAI?$AAI?$AA?5?$AAD@ 00000000000de940     UefiShellDebug1CommandsLib:PrintInfo.obj
 0002:000169a0       ??_C@_1EG@KMMBGHAG@?$AAA?$AAM?$AAD?$AA?5?$AAO?$AAp?$AAt?$AAe?$AAr?$AAo?$AAn?$AA?5?$AA6?$AA1?$AA0@ 00000000000de9a0     UefiShellDebug1CommandsLib:PrintInfo.obj
 0002:000169f0       ??_C@_1EG@FDFCFACA@?$AAA?$AAM?$AAD?$AA?5?$AAO?$AAp?$AAt?$AAe?$AAr?$AAo?$AAn?$AA?5?$AA4?$AA1?$AA0@ 00000000000de9f0     UefiShellDebug1CommandsLib:PrintInfo.obj
 0002:00016a40       ??_C@_1EG@NCLJCPKA@?$AAA?$AAM?$AAD?$AA?5?$AAO?$AAp?$AAt?$AAe?$AAr?$AAo?$AAn?$AA?5?$AA6?$AA2?$AA0@ 00000000000dea40     UefiShellDebug1CommandsLib:PrintInfo.obj
 0002:00016a90       ??_C@_1EG@CNCKBIIG@?$AAA?$AAM?$AAD?$AA?5?$AAO?$AAp?$AAt?$AAe?$AAr?$AAo?$AAn?$AA?5?$AA4?$AA2?$AA0@ 00000000000dea90     UefiShellDebug1CommandsLib:PrintInfo.obj
 0002:00016ad8       ??_C@_1BI@MPPDNMDI@?$AAM?$AAI?$AAP?$AAS?$AA?5?$AAR?$AA4?$AA0?$AA0?$AA0?$AA?6@ 00000000000dead8     UefiShellDebug1CommandsLib:PrintInfo.obj
 0002:00016af0       ??_C@_1BI@MLAGAMAF@?$AAM?$AAI?$AAP?$AAS?$AA?5?$AAR?$AA4?$AA2?$AA0?$AA0?$AA?6@ 00000000000deaf0     UefiShellDebug1CommandsLib:PrintInfo.obj
 0002:00016b08       ??_C@_1BI@MGBIHMEC@?$AAM?$AAI?$AAP?$AAS?$AA?5?$AAR?$AA4?$AA4?$AA0?$AA0?$AA?6@ 00000000000deb08     UefiShellDebug1CommandsLib:PrintInfo.obj
 0002:00016b20       ??_C@_1BI@MCONKMHP@?$AAM?$AAI?$AAP?$AAS?$AA?5?$AAR?$AA4?$AA6?$AA0?$AA0?$AA?6@ 00000000000deb20     UefiShellDebug1CommandsLib:PrintInfo.obj
 0002:00016b38       ??_C@_1BK@NGAFEHDF@?$AAM?$AAI?$AAP?$AAS?$AA?5?$AAR?$AA1?$AA0?$AA0?$AA0?$AA0?$AA?6@ 00000000000deb38     UefiShellDebug1CommandsLib:PrintInfo.obj
 0002:00016b58       ??_C@_1DA@HPBBECC@?$AAA?$AAM?$AAD?$AA?5?$AAC?$AA?9?$AAS?$AAe?$AAr?$AAi?$AAe?$AAs?$AA?5?$AAP?$AAr@ 00000000000deb58     UefiShellDebug1CommandsLib:PrintInfo.obj
 0002:00016b88       ??_C@_1DA@FCIIHFDC@?$AAA?$AAM?$AAD?$AA?5?$AAE?$AA?9?$AAS?$AAe?$AAr?$AAi?$AAe?$AAs?$AA?5?$AAP?$AAr@ 00000000000deb88     UefiShellDebug1CommandsLib:PrintInfo.obj
 0002:00016bb8       ??_C@_1DA@ICAJDGON@?$AAA?$AAM?$AAD?$AA?5?$AAA?$AA?9?$AAS?$AAe?$AAr?$AAi?$AAe?$AAs?$AA?5?$AAP?$AAr@ 00000000000debb8     UefiShellDebug1CommandsLib:PrintInfo.obj
 0002:00016be8       ??_C@_1DA@NHHAFHPN@?$AAA?$AAM?$AAD?$AA?5?$AAG?$AA?9?$AAS?$AAe?$AAr?$AAi?$AAe?$AAs?$AA?5?$AAP?$AAr@ 00000000000debe8     UefiShellDebug1CommandsLib:PrintInfo.obj
 0002:00016c18       ??_C@_1BI@CHKAHKIO@?$AAS?$AAu?$AAp?$AAe?$AAr?$AAS?$AAp?$AAa?$AAr?$AAc?$AA?6@ 00000000000dec18     UefiShellDebug1CommandsLib:PrintInfo.obj
 0002:00016c30       ??_C@_1BO@LDJKINIJ@?$AAm?$AAi?$AAc?$AAr?$AAo?$AAS?$AAp?$AAa?$AAr?$AAc?$AA?5?$AAI?$AAI?$AA?6@ 00000000000dec30     UefiShellDebug1CommandsLib:PrintInfo.obj
 0002:00016c50       ??_C@_1CC@MNCOKOHG@?$AAm?$AAi?$AAc?$AAr?$AAo?$AAS?$AAp?$AAa?$AAr?$AAc?$AA?5?$AAI?$AAI?$AAe?$AAp@ 00000000000dec50     UefiShellDebug1CommandsLib:PrintInfo.obj
 0002:00016c78       ??_C@_1BI@NOIOBHBG@?$AAU?$AAl?$AAt?$AAr?$AAa?$AAS?$AAp?$AAa?$AAr?$AAc?$AA?6@ 00000000000dec78     UefiShellDebug1CommandsLib:PrintInfo.obj
 0002:00016c90       ??_C@_1BO@KEJJICDJ@?$AAU?$AAl?$AAt?$AAr?$AAa?$AAS?$AAp?$AAa?$AAr?$AAc?$AA?5?$AAI?$AAI?$AA?6@ 00000000000dec90     UefiShellDebug1CommandsLib:PrintInfo.obj
 0002:00016cb0       ??_C@_1BO@IOMHKILF@?$AAU?$AAl?$AAt?$AAr?$AAa?$AAS?$AAp?$AAa?$AAr?$AAc?$AAI?$AAI?$AAi?$AA?6@ 00000000000decb0     UefiShellDebug1CommandsLib:PrintInfo.obj
 0002:00016cd0       ??_C@_1BO@IJGLKNID@?$AAU?$AAl?$AAt?$AAr?$AAa?$AAS?$AAp?$AAa?$AAr?$AAc?$AAI?$AAI?$AAI?$AA?6@ 00000000000decd0     UefiShellDebug1CommandsLib:PrintInfo.obj
 0002:00016cf0       ??_C@_1CA@FJBEAACG@?$AAU?$AAl?$AAt?$AAr?$AAa?$AAS?$AAp?$AAa?$AAr?$AAc?$AAI?$AAI?$AAI?$AAi?$AA?6@ 00000000000decf0     UefiShellDebug1CommandsLib:PrintInfo.obj
 0002:00016d10       ??_C@_1M@PDGDINFF@?$AA6?$AA8?$AAx?$AAx?$AA?6@ 00000000000ded10     UefiShellDebug1CommandsLib:PrintInfo.obj
 0002:00016d20       ??_C@_1O@OJIMPPEM@?$AA6?$AA8?$AA0?$AA0?$AA0?$AA?6@ 00000000000ded20     UefiShellDebug1CommandsLib:PrintInfo.obj
 0002:00016d30       ??_C@_1O@CFCGPPNC@?$AA6?$AA8?$AA0?$AA1?$AA0?$AA?6@ 00000000000ded30     UefiShellDebug1CommandsLib:PrintInfo.obj
 0002:00016d40       ??_C@_1O@KLKJPIDB@?$AA6?$AA8?$AA0?$AA2?$AA0?$AA?6@ 00000000000ded40     UefiShellDebug1CommandsLib:PrintInfo.obj
 0002:00016d50       ??_C@_1O@GHADPIKP@?$AA6?$AA8?$AA0?$AA3?$AA0?$AA?6@ 00000000000ded50     UefiShellDebug1CommandsLib:PrintInfo.obj
 0002:00016d60       ??_C@_1FM@FOHMLCBI@?$AAA?$AAM?$AAD?$AA?5?$AAA?$AAt?$AAh?$AAl?$AAo?$AAn?$AA?$CI?$AAT?$AAM?$AA?$CJ?$AA?5@ 00000000000ded60     UefiShellDebug1CommandsLib:PrintInfo.obj
 0002:00016dc0       ??_C@_1FA@FKKGBNEM@?$AAA?$AAM?$AAD?$AA?5?$AAO?$AAp?$AAt?$AAe?$AAr?$AAo?$AAn?$AA?$CI?$AAT?$AAM?$AA?$CJ@ 00000000000dedc0     UefiShellDebug1CommandsLib:PrintInfo.obj
 0002:00016e10       ??_C@_1EE@FCPDGCIF@?$AAA?$AAM?$AAD?$AA?5?$AAO?$AAp?$AAt?$AAe?$AAr?$AAo?$AAn?$AA?$CI?$AAT?$AAM?$AA?$CJ@ 00000000000dee10     UefiShellDebug1CommandsLib:PrintInfo.obj
 0002:00016e60       ??_C@_1EI@MKFEPIAG@?$AAA?$AAM?$AAD?$AA?5?$AAO?$AAp?$AAt?$AAe?$AAr?$AAo?$AAn?$AA?$CI?$AAT?$AAM?$AA?$CJ@ 00000000000dee60     UefiShellDebug1CommandsLib:PrintInfo.obj
 0002:00016eb0       ??_C@_1EE@HGHBDDLD@?$AAA?$AAM?$AAD?$AA?5?$AAO?$AAp?$AAt?$AAe?$AAr?$AAo?$AAn?$AA?$CI?$AAT?$AAM?$AA?$CJ@ 00000000000deeb0     UefiShellDebug1CommandsLib:PrintInfo.obj
 0002:00016ef8       ??_C@_1DE@NFIODHPM@?$AAA?$AAM?$AAD?$AA?5?$AAZ?$AAe?$AAn?$AA?5?$AAP?$AAr?$AAo?$AAc?$AAe?$AAs?$AAs@ 00000000000deef8     UefiShellDebug1CommandsLib:PrintInfo.obj
 0002:00016f30       ??_C@_1BO@BEBPPGMP@?$AAC?$AAr?$AAu?$AAs?$AAo?$AAe?$AA?5?$AAT?$AAM?$AA5?$AA0?$AA0?$AA0?$AA?6@ 00000000000def30     UefiShellDebug1CommandsLib:PrintInfo.obj
 0002:00016f50       ??_C@_1BO@PLCCFDCP@?$AAC?$AAr?$AAu?$AAs?$AAo?$AAe?$AA?5?$AAT?$AAM?$AA3?$AA0?$AA0?$AA0?$AA?6@ 00000000000def50     UefiShellDebug1CommandsLib:PrintInfo.obj
 0002:00016f70       ??_C@_1CC@LNLDLOHK@?$AAE?$AAf?$AAf?$AAi?$AAc?$AAe?$AAo?$AAn?$AA?5?$AAT?$AAM?$AA8?$AA0?$AA0?$AA0@ 00000000000def70     UefiShellDebug1CommandsLib:PrintInfo.obj
 0002:00016f98       ??_C@_1BC@BDBJDKEG@?$AAI?$AAt?$AAa?$AAn?$AAi?$AAu?$AAm?$AA?6@ 00000000000def98     UefiShellDebug1CommandsLib:PrintInfo.obj
 0002:00016fb0       ??_C@_1BM@NAEDFCPJ@?$AAA?$AAM?$AAD?$AA?5?$AAA?$AAt?$AAh?$AAl?$AAo?$AAn?$AA6?$AA4?$AA?6@ 00000000000defb0     UefiShellDebug1CommandsLib:PrintInfo.obj
 0002:00016fd0       ??_C@_1BK@JFKHHEGN@?$AAA?$AAM?$AAD?$AA?5?$AAO?$AAp?$AAt?$AAe?$AAr?$AAo?$AAn?$AA?6@ 00000000000defd0     UefiShellDebug1CommandsLib:PrintInfo.obj
 0002:00016ff0       ??_C@_1BK@GHNMOLDH@?$AAA?$AAM?$AAD?$AA?5?$AAS?$AAe?$AAm?$AAp?$AAr?$AAo?$AAn?$AA?6@ 00000000000deff0     UefiShellDebug1CommandsLib:PrintInfo.obj
 0002:00017010       ??_C@_1CK@FIAFKMGM@?$AAA?$AAM?$AAD?$AA?5?$AAT?$AAu?$AAr?$AAi?$AAo?$AAn?$AA6?$AA4?$AA?5?$AAM?$AAo@ 00000000000df010     UefiShellDebug1CommandsLib:PrintInfo.obj
 0002:00017040       ??_C@_1CO@LCENKIBJ@?$AAD?$AAu?$AAa?$AAl?$AA?9?$AAC?$AAo?$AAr?$AAe?$AA?5?$AAA?$AAM?$AAD?$AA?5?$AAO@ 00000000000df040     UefiShellDebug1CommandsLib:PrintInfo.obj
 0002:00017070       ??_C@_1DE@BFKEFMLO@?$AAA?$AAM?$AAD?$AA?5?$AAA?$AAt?$AAh?$AAl?$AAo?$AAn?$AA?5?$AA6?$AA4?$AAX?$AA2@ 00000000000df070     UefiShellDebug1CommandsLib:PrintInfo.obj
 0002:000170a8       ??_C@_1DA@PNPLGDEH@?$AAA?$AAM?$AAD?$AA?5?$AAT?$AAu?$AAr?$AAi?$AAo?$AAn?$AA?5?$AA6?$AA4?$AAX?$AA2@ 00000000000df0a8     UefiShellDebug1CommandsLib:PrintInfo.obj
 0002:000170d8       ??_C@_1BM@KILCHNJC@?$AAP?$AAA?$AA?9?$AAR?$AAI?$AAS?$AAC?$AA?5?$AA8?$AA5?$AA0?$AA0?$AA?6@ 00000000000df0d8     UefiShellDebug1CommandsLib:PrintInfo.obj
 0002:000170f8       ??_C@_1BM@EOJLLGNG@?$AAP?$AAA?$AA?9?$AAR?$AAI?$AAS?$AAC?$AA?5?$AA8?$AA0?$AA0?$AA0?$AA?6@ 00000000000df0f8     UefiShellDebug1CommandsLib:PrintInfo.obj
 0002:00017118       ??_C@_1CA@DKDFEKIM@?$AAP?$AAA?$AA?9?$AAR?$AAI?$AAS?$AAC?$AA?5?$AA7?$AA3?$AA0?$AA0?$AAL?$AAC?$AA?6@ 00000000000df118     UefiShellDebug1CommandsLib:PrintInfo.obj
 0002:00017138       ??_C@_1BM@DIPKPJJK@?$AAP?$AAA?$AA?9?$AAR?$AAI?$AAS?$AAC?$AA?5?$AA7?$AA2?$AA0?$AA0?$AA?6@ 00000000000df138     UefiShellDebug1CommandsLib:PrintInfo.obj
 0002:00017158       ??_C@_1CA@NLFLIOCB@?$AAP?$AAA?$AA?9?$AAR?$AAI?$AAS?$AAC?$AA?5?$AA7?$AA1?$AA0?$AA0?$AAL?$AAC?$AA?6@ 00000000000df158     UefiShellDebug1CommandsLib:PrintInfo.obj
 0002:00017178       ??_C@_1BM@NDMNECJJ@?$AAP?$AAA?$AA?9?$AAR?$AAI?$AAS?$AAC?$AA?5?$AA7?$AA1?$AA0?$AA0?$AA?6@ 00000000000df178     UefiShellDebug1CommandsLib:PrintInfo.obj
 0002:000171a0       ??_C@_1GM@LGNOEJOA@?$AAP?$AAe?$AAn?$AAt?$AAi?$AAu?$AAm?$AA?5?$AAI?$AAI?$AAI?$AA?5?$AAP?$AAr?$AAo@ 00000000000df1a0     UefiShellDebug1CommandsLib:PrintInfo.obj
 0002:00017210       ??_C@_1CK@COKBNKJM@?$AAP?$AAe?$AAn?$AAt?$AAi?$AAu?$AAm?$AA?5?$AA4?$AA?5?$AAp?$AAr?$AAo?$AAc?$AAe@ 00000000000df210     UefiShellDebug1CommandsLib:PrintInfo.obj
 0002:00017240       ??_C@_1CM@PBDLLDGD@?$AAI?$AAn?$AAt?$AAe?$AAl?$AA?5?$AAX?$AAe?$AAo?$AAn?$AA?5?$AAP?$AAr?$AAo?$AAc@ 00000000000df240     UefiShellDebug1CommandsLib:PrintInfo.obj
 0002:00017270       ??_C@_1BM@NCNDNNOI@?$AAA?$AAS?$AA4?$AA0?$AA0?$AA?5?$AAF?$AAa?$AAm?$AAi?$AAl?$AAy?$AA?6@ 00000000000df270     UefiShellDebug1CommandsLib:PrintInfo.obj
 0002:00017290       ??_C@_1DC@PFEAGGGB@?$AAI?$AAn?$AAt?$AAe?$AAl?$AA?5?$AAX?$AAe?$AAo?$AAn?$AA?5?$AAp?$AAr?$AAo?$AAc@ 00000000000df290     UefiShellDebug1CommandsLib:PrintInfo.obj
 0002:000172d0       ??_C@_1EA@BINOHLN@?$AAA?$AAM?$AAD?$AA?5?$AAA?$AAl?$AAt?$AAh?$AAo?$AAn?$AA?5?$AAX?$AAP?$AA?5?$AAP@ 00000000000df2d0     UefiShellDebug1CommandsLib:PrintInfo.obj
 0002:00017310       ??_C@_1EC@IFDBEIAC@?$AAA?$AAM?$AAD?$AA?5?$AAA?$AAl?$AAt?$AAh?$AAo?$AAn?$AA?5?$AAM?$AAP?$AA?5?$AAP@ 00000000000df310     UefiShellDebug1CommandsLib:PrintInfo.obj
 0002:00017358       ??_C@_1DG@BNHFBMCE@?$AAI?$AAn?$AAt?$AAe?$AAl?$AA?5?$AAI?$AAt?$AAa?$AAn?$AAi?$AAu?$AAm?$AA?5?$AA2@ 00000000000df358     UefiShellDebug1CommandsLib:PrintInfo.obj
 0002:00017390       ??_C@_1DE@MMFIDIPD@?$AAI?$AAn?$AAt?$AAe?$AAl?$AA?5?$AAP?$AAe?$AAn?$AAi?$AAu?$AAm?$AA?5?$AAM?$AA?5@ 00000000000df390     UefiShellDebug1CommandsLib:PrintInfo.obj
 0002:000173c8       ??_C@_1DG@EIKPMALL@?$AAI?$AAn?$AAt?$AAe?$AAl?$AA?5?$AAC?$AAe?$AAl?$AAe?$AAr?$AAo?$AAn?$AA?5?$AAD@ 00000000000df3c8     UefiShellDebug1CommandsLib:PrintInfo.obj
 0002:00017400       ??_C@_1DG@OCIJHOFC@?$AAI?$AAn?$AAt?$AAe?$AAl?$AA?5?$AAP?$AAe?$AAn?$AAt?$AAi?$AAu?$AAm?$AA?5?$AAD@ 00000000000df400     UefiShellDebug1CommandsLib:PrintInfo.obj
 0002:00017440       ??_C@_1FC@NAEIDNNM@?$AAI?$AAn?$AAt?$AAe?$AAl?$AA?5?$AAP?$AAe?$AAn?$AAt?$AAi?$AAu?$AAm?$AA?5?$AAP@ 00000000000df440     UefiShellDebug1CommandsLib:PrintInfo.obj
 0002:00017498       ??_C@_1DG@JLGLHAFK@?$AAI?$AAn?$AAt?$AAe?$AAl?$AA?5?$AAC?$AAo?$AAr?$AAe?$AA?5?$AAS?$AAo?$AAl?$AAo@ 00000000000df498     UefiShellDebug1CommandsLib:PrintInfo.obj
 0002:000174d0       ??_C@_1DI@JGEHJCPH@?$AAI?$AAn?$AAt?$AAe?$AAl?$AA?5?$AAC?$AAo?$AAr?$AAe?$AA?5?$AA2?$AA?5?$AAD?$AAu@ 00000000000df4d0     UefiShellDebug1CommandsLib:PrintInfo.obj
 0002:00017508       ??_C@_1BC@OPEHEBFA@?$AAI?$AAB?$AAM?$AA?5?$AA3?$AA9?$AA0?$AA?6@ 00000000000df508     UefiShellDebug1CommandsLib:PrintInfo.obj
 0002:00017520       ??_C@_17EJNDEOLN@?$AAG?$AA4?$AA?6@ 00000000000df520     UefiShellDebug1CommandsLib:PrintInfo.obj
 0002:00017528       ??_C@_17ICIPJNBI@?$AAG?$AA5?$AA?6@ 00000000000df528     UefiShellDebug1CommandsLib:PrintInfo.obj
 0002:00017530       ??_C@_17EBLOPLG@?$AAG?$AA6?$AA?6@ 00000000000df530     UefiShellDebug1CommandsLib:PrintInfo.obj
 0002:00017538       ??_C@_1BO@JNODFENM@?$AAz?$AAA?$AAr?$AAc?$AAh?$AAi?$AAt?$AAe?$AAc?$AAt?$AAu?$AAr?$AAe?$AA?6@ 00000000000df538     UefiShellDebug1CommandsLib:PrintInfo.obj
 0002:00017558       ??_C@_1DC@BMHNHMCB@?$AAI?$AAn?$AAt?$AAe?$AAl?$AA?5?$AAC?$AAo?$AAr?$AAe?$AA?5?$AAi?$AA5?$AA?5?$AAp@ 00000000000df558     UefiShellDebug1CommandsLib:PrintInfo.obj
 0002:00017590       ??_C@_1DC@CDKDKBJA@?$AAI?$AAn?$AAt?$AAe?$AAl?$AA?5?$AAC?$AAo?$AAr?$AAe?$AA?5?$AAi?$AA3?$AA?5?$AAp@ 00000000000df590     UefiShellDebug1CommandsLib:PrintInfo.obj
 0002:000175c8       ??_C@_1DC@GDMAMHED@?$AAI?$AAn?$AAt?$AAe?$AAl?$AA?5?$AAC?$AAo?$AAr?$AAe?$AA?5?$AAi?$AA9?$AA?5?$AAp@ 00000000000df5c8     UefiShellDebug1CommandsLib:PrintInfo.obj
 0002:00017600       ??_C@_1DA@FNMEEEGP@?$AAI?$AAn?$AAt?$AAe?$AAl?$AA?5?$AAX?$AAe?$AAo?$AAn?$AA?5?$AAD?$AA?5?$AAP?$AAr@ 00000000000df600     UefiShellDebug1CommandsLib:PrintInfo.obj
 0002:00017630       ??_C@_1BA@DPAOFKDF@?$AAV?$AAi?$AAa?$AAC?$AA7?$AAM?$AA?6@ 00000000000df630     UefiShellDebug1CommandsLib:PrintInfo.obj
 0002:00017640       ??_C@_1BA@BIABALPN@?$AAV?$AAi?$AAa?$AAC?$AA7?$AAD?$AA?6@ 00000000000df640     UefiShellDebug1CommandsLib:PrintInfo.obj
 0002:00017650       ??_C@_1O@KLIDCNLL@?$AAV?$AAi?$AAa?$AAC?$AA7?$AA?6@ 00000000000df650     UefiShellDebug1CommandsLib:PrintInfo.obj
 0002:00017660       ??_C@_1M@DBKOHNOL@?$AAE?$AAd?$AAe?$AAn?$AA?6@ 00000000000df660     UefiShellDebug1CommandsLib:PrintInfo.obj
 0002:00017670       ??_C@_1FK@HOMBONFK@?$AAM?$AAu?$AAl?$AAt?$AAi?$AA?9?$AAC?$AAo?$AAr?$AAe?$AA?5?$AAI?$AAn?$AAt?$AAe@ 00000000000df670     UefiShellDebug1CommandsLib:PrintInfo.obj
 0002:000176d0       ??_C@_1EA@OGNJEDMM@?$AAA?$AAM?$AAD?$AA?5?$AAP?$AAh?$AAe?$AAn?$AAo?$AAm?$AA?5?$AAI?$AAI?$AA?5?$AAP@ 00000000000df6d0     UefiShellDebug1CommandsLib:PrintInfo.obj
 0002:00017710       ??_C@_1EA@JCFCBKHL@?$AAA?$AAM?$AAD?$AA?5?$AAA?$AAl?$AAt?$AAh?$AAo?$AAn?$AA?5?$AAI?$AAI?$AA?5?$AAP@ 00000000000df710     UefiShellDebug1CommandsLib:PrintInfo.obj
 0002:00017750       ??_C@_1EO@MPMLOLPM@?$AAS?$AAi?$AAx?$AA?9?$AAC?$AAo?$AAr?$AAe?$AA?5?$AAA?$AAM?$AAD?$AA?5?$AAO?$AAp@ 00000000000df750     UefiShellDebug1CommandsLib:PrintInfo.obj
 0002:000177a0       ??_C@_1EA@MJCKMPOO@?$AAA?$AAM?$AAD?$AA?5?$AAS?$AAe?$AAm?$AAp?$AAr?$AAo?$AAn?$AA?5?$AAM?$AA?5?$AAP@ 00000000000df7a0     UefiShellDebug1CommandsLib:PrintInfo.obj
 0002:000177e0       ??_C@_1M@GCJABAPG@?$AAi?$AA8?$AA6?$AA0?$AA?6@ 00000000000df7e0     UefiShellDebug1CommandsLib:PrintInfo.obj
 0002:000177f0       ??_C@_1M@INFCHLMI@?$AAi?$AA9?$AA6?$AA0?$AA?6@ 00000000000df7f0     UefiShellDebug1CommandsLib:PrintInfo.obj
 0002:00017800       ??_C@_1JI@FMGLMFGO@?$AAI?$AAn?$AAd?$AAi?$AAc?$AAa?$AAt?$AAo?$AAr?$AA?5?$AAt?$AAo?$AA?5?$AAo?$AAb@ 00000000000df800     UefiShellDebug1CommandsLib:PrintInfo.obj
 0002:00017898       ??_C@_1O@FFALJHFK@?$AAA?$AAR?$AAM?$AAv?$AA7?$AA?6@ 00000000000df898     UefiShellDebug1CommandsLib:PrintInfo.obj
 0002:000178a8       ??_C@_1O@KEFNCFIP@?$AAA?$AAR?$AAM?$AAv?$AA8?$AA?6@ 00000000000df8a8     UefiShellDebug1CommandsLib:PrintInfo.obj
 0002:000178b8       ??_C@_1O@GPABPGCK@?$AAA?$AAR?$AAM?$AAv?$AA9?$AA?6@ 00000000000df8b8     UefiShellDebug1CommandsLib:PrintInfo.obj
 0002:000178c8       ??_C@_1M@MNICBENI@?$AAS?$AAH?$AA?9?$AA3?$AA?6@ 00000000000df8c8     UefiShellDebug1CommandsLib:PrintInfo.obj
 0002:000178d8       ??_C@_1M@NAIHCEGA@?$AAS?$AAH?$AA?9?$AA4?$AA?6@ 00000000000df8d8     UefiShellDebug1CommandsLib:PrintInfo.obj
 0002:000178e8       ??_C@_19KGHFPGHK@?$AAA?$AAR?$AAM?$AA?6@ 00000000000df8e8     UefiShellDebug1CommandsLib:PrintInfo.obj
 0002:000178f8       ??_C@_1BG@FGKDBBBD@?$AAS?$AAt?$AAr?$AAo?$AAn?$AAg?$AAA?$AAR?$AAM?$AA?6@ 00000000000df8f8     UefiShellDebug1CommandsLib:PrintInfo.obj
 0002:00017910       ??_C@_1M@HBBGCDAE@?$AA6?$AAx?$AA8?$AA6?$AA?6@ 00000000000df910     UefiShellDebug1CommandsLib:PrintInfo.obj
 0002:00017920       ??_C@_1BC@CAENEHEH@?$AAM?$AAe?$AAd?$AAi?$AAa?$AAG?$AAX?$AA?6@ 00000000000df920     UefiShellDebug1CommandsLib:PrintInfo.obj
 0002:00017938       ??_C@_19GAJHJJP@?$AAM?$AAI?$AAI?$AA?6@ 00000000000df938     UefiShellDebug1CommandsLib:PrintInfo.obj
 0002:00017948       ??_C@_1BC@GAGODIOP@?$AAW?$AAi?$AAn?$AAC?$AAh?$AAi?$AAp?$AA?6@ 00000000000df948     UefiShellDebug1CommandsLib:PrintInfo.obj
 0002:00017960       ??_C@_19DDLOCMOF@?$AAD?$AAS?$AAP?$AA?6@ 00000000000df960     UefiShellDebug1CommandsLib:PrintInfo.obj
 0002:00017970       ??_C@_1CC@OGDPKOEN@?$AAV?$AAi?$AAd?$AAe?$AAo?$AA?5?$AAP?$AAr?$AAo?$AAc?$AAe?$AAs?$AAs?$AAo?$AAr@ 00000000000df970     UefiShellDebug1CommandsLib:PrintInfo.obj
 0002:00017998       ??_C@_1BK@CPPDDCIM@?$AAR?$AAI?$AAS?$AAC?$AA?9?$AAV?$AA?5?$AAR?$AAV?$AA3?$AA2?$AA?6@ 00000000000df998     UefiShellDebug1CommandsLib:PrintInfo.obj
 0002:000179b8       ??_C@_1BK@LBEKNPPF@?$AAR?$AAI?$AAS?$AAC?$AA?9?$AAV?$AA?5?$AAR?$AAV?$AA6?$AA4?$AA?6@ 00000000000df9b8     UefiShellDebug1CommandsLib:PrintInfo.obj
 0002:000179d8       ??_C@_1BM@HNBLDPML@?$AAR?$AAI?$AAS?$AAC?$AA?9?$AAV?$AA?5?$AAR?$AAV?$AA1?$AA2?$AA8?$AA?6@ 00000000000df9d8     UefiShellDebug1CommandsLib:PrintInfo.obj
 0002:000179f8       ??_C@_1BG@EGICAOCI@?$AAL?$AAo?$AAo?$AAn?$AAg?$AAA?$AAr?$AAc?$AAh?$AA?6@ 00000000000df9f8     UefiShellDebug1CommandsLib:PrintInfo.obj
 0002:00017a10       ??_C@_1BG@NMEEOAAF@?$AAL?$AAo?$AAo?$AAn?$AAg?$AAs?$AAo?$AAn?$AA1?$AA?6@ 00000000000dfa10     UefiShellDebug1CommandsLib:PrintInfo.obj
 0002:00017a28       ??_C@_1BG@FKNAJCKL@?$AAL?$AAo?$AAo?$AAn?$AAg?$AAs?$AAo?$AAn?$AA2?$AA?6@ 00000000000dfa28     UefiShellDebug1CommandsLib:PrintInfo.obj
 0002:00017a40       ??_C@_1BG@JBIMEBAO@?$AAL?$AAo?$AAo?$AAn?$AAg?$AAs?$AAo?$AAn?$AA3?$AA?6@ 00000000000dfa40     UefiShellDebug1CommandsLib:PrintInfo.obj
 0002:00017a58       ??_C@_1BI@PIELPEDH@?$AAL?$AAo?$AAo?$AAn?$AAg?$AAs?$AAo?$AAn?$AA2?$AAK?$AA?6@ 00000000000dfa58     UefiShellDebug1CommandsLib:PrintInfo.obj
 0002:00017a70       ??_C@_1BI@JFHKNHMP@?$AAL?$AAo?$AAo?$AAn?$AAg?$AAs?$AAo?$AAn?$AA3?$AAA?$AA?6@ 00000000000dfa70     UefiShellDebug1CommandsLib:PrintInfo.obj
 0002:00017a88       ??_C@_1BI@BDOOKFGB@?$AAL?$AAo?$AAo?$AAn?$AAg?$AAs?$AAo?$AAn?$AA3?$AAB?$AA?6@ 00000000000dfa88     UefiShellDebug1CommandsLib:PrintInfo.obj
 0002:00017aa0       ??_C@_1BI@NILCHGME@?$AAL?$AAo?$AAo?$AAn?$AAg?$AAs?$AAo?$AAn?$AA3?$AAC?$AA?6@ 00000000000dfaa0     UefiShellDebug1CommandsLib:PrintInfo.obj
 0002:00017ab8       ??_C@_1BI@MFLHEGHM@?$AAL?$AAo?$AAo?$AAn?$AAg?$AAs?$AAo?$AAn?$AA3?$AAD?$AA?6@ 00000000000dfab8     UefiShellDebug1CommandsLib:PrintInfo.obj
 0002:00017ad0       ??_C@_1BI@OOLJFNJ@?$AAL?$AAo?$AAo?$AAn?$AAg?$AAs?$AAo?$AAn?$AA3?$AAE?$AA?6@ 00000000000dfad0     UefiShellDebug1CommandsLib:PrintInfo.obj
 0002:00017ae8       ??_C@_1CI@GNKADIOI@?$AAD?$AAu?$AAa?$AAl?$AAC?$AAo?$AAr?$AAe?$AAL?$AAo?$AAo?$AAn?$AAg?$AAs?$AAo@ 00000000000dfae8     UefiShellDebug1CommandsLib:PrintInfo.obj
 0002:00017b10       ??_C@_1CI@HENAEGIH@?$AAQ?$AAu?$AAa?$AAd?$AAC?$AAo?$AAr?$AAe?$AAL?$AAo?$AAo?$AAn?$AAg?$AAs?$AAo@ 00000000000dfb10     UefiShellDebug1CommandsLib:PrintInfo.obj
 0002:00017b38       ??_C@_1CK@BMLBJNGN@?$AAM?$AAu?$AAl?$AAt?$AAi?$AAC?$AAo?$AAr?$AAe?$AAL?$AAo?$AAo?$AAn?$AAg?$AAs@ 00000000000dfb38     UefiShellDebug1CommandsLib:PrintInfo.obj
 0002:00017b68       ??_C@_1CI@PCEEDECJ@?$AAQ?$AAu?$AAa?$AAd?$AAC?$AAo?$AAr?$AAe?$AAL?$AAo?$AAo?$AAn?$AAg?$AAs?$AAo@ 00000000000dfb68     UefiShellDebug1CommandsLib:PrintInfo.obj
 0002:00017b90       ??_C@_1CK@JKCFOPMD@?$AAM?$AAu?$AAl?$AAt?$AAi?$AAC?$AAo?$AAr?$AAe?$AAL?$AAo?$AAo?$AAn?$AAg?$AAs@ 00000000000dfb90     UefiShellDebug1CommandsLib:PrintInfo.obj
 0002:00017bc0       ??_C@_1CK@FBHJDMGG@?$AAM?$AAu?$AAl?$AAt?$AAi?$AAC?$AAo?$AAr?$AAe?$AAL?$AAo?$AAo?$AAn?$AAg?$AAs@ 00000000000dfbc0     UefiShellDebug1CommandsLib:PrintInfo.obj
 0002:00017bf0       ??_C@_1CK@EMHMAMNO@?$AAM?$AAu?$AAl?$AAt?$AAi?$AAC?$AAo?$AAr?$AAe?$AAL?$AAo?$AAo?$AAn?$AAg?$AAs@ 00000000000dfbf0     UefiShellDebug1CommandsLib:PrintInfo.obj
 0002:00017c20       ??_C@_1BI@FMCOFDKA@?$AAI?$AAn?$AAt?$AAe?$AAl?$AAC?$AAo?$AAr?$AAe?$AA3?$AA?6@ 00000000000dfc20     UefiShellDebug1CommandsLib:PrintInfo.obj
 0002:00017c38       ??_C@_1BI@IKHHLALN@?$AAI?$AAn?$AAt?$AAe?$AAl?$AAC?$AAo?$AAr?$AAe?$AA5?$AA?6@ 00000000000dfc38     UefiShellDebug1CommandsLib:PrintInfo.obj
 0002:00017c50       ??_C@_1BI@MHLPBBLG@?$AAI?$AAn?$AAt?$AAe?$AAl?$AAC?$AAo?$AAr?$AAe?$AA7?$AA?6@ 00000000000dfc50     UefiShellDebug1CommandsLib:PrintInfo.obj
 0002:00017c68       ??_C@_1BI@PNLFHAMG@?$AAI?$AAn?$AAt?$AAe?$AAl?$AAC?$AAo?$AAr?$AAe?$AA9?$AA?6@ 00000000000dfc68     UefiShellDebug1CommandsLib:PrintInfo.obj
 0002:00017c80       ??_C@_1CC@NACDHOFF@?$AAI?$AAn?$AAt?$AAe?$AAl?$AAC?$AAo?$AAr?$AAe?$AAU?$AAl?$AAt?$AAr?$AAa?$AA3@ 00000000000dfc80     UefiShellDebug1CommandsLib:PrintInfo.obj
 0002:00017ca8       ??_C@_1CC@GHKJNEI@?$AAI?$AAn?$AAt?$AAe?$AAl?$AAC?$AAo?$AAr?$AAe?$AAU?$AAl?$AAt?$AAr?$AAa?$AA5@ 00000000000dfca8     UefiShellDebug1CommandsLib:PrintInfo.obj
 0002:00017cd0       ??_C@_1CC@ELLCDMED@?$AAI?$AAn?$AAt?$AAe?$AAl?$AAC?$AAo?$AAr?$AAe?$AAU?$AAl?$AAt?$AAr?$AAa?$AA7@ 00000000000dfcd0     UefiShellDebug1CommandsLib:PrintInfo.obj
 0002:00017cf8       ??_C@_1CC@HBLIFNDD@?$AAI?$AAn?$AAt?$AAe?$AAl?$AAC?$AAo?$AAr?$AAe?$AAU?$AAl?$AAt?$AAr?$AAa?$AA9@ 00000000000dfcf8     UefiShellDebug1CommandsLib:PrintInfo.obj
 0002:00017d20       ??_C@_1FC@GDKAJBMP@?$AAT?$AAh?$AAe?$AA?5?$AAs?$AAy?$AAs?$AAt?$AAe?$AAm?$AA?5?$AAr?$AAe?$AAs?$AAe@ 00000000000dfd20     UefiShellDebug1CommandsLib:PrintInfo.obj
 0002:00017d80       ??_C@_1FE@CMLGLDEE@?$AAT?$AAh?$AAe?$AA?5?$AAs?$AAy?$AAs?$AAt?$AAe?$AAm?$AA?5?$AAr?$AAe?$AAs?$AAe@ 00000000000dfd80     UefiShellDebug1CommandsLib:PrintInfo.obj
 0002:00017dd8       ??_C@_1BI@HGBJBAKG@?$AAV?$AAe?$AAn?$AAd?$AAo?$AAr?$AA?3?$AA?5?$AA?$CF?$AAa?$AA?6@ 00000000000dfdd8     UefiShellDebug1CommandsLib:PrintInfo.obj
 0002:00017df0       ??_C@_1CE@KJFHFJLB@?$AAB?$AAI?$AAO?$AAS?$AA?5?$AAV?$AAe?$AAr?$AAs?$AAi?$AAo?$AAn?$AA?3?$AA?5?$AA?$CF@ 00000000000dfdf0     UefiShellDebug1CommandsLib:PrintInfo.obj
 0002:00017e20       ??_C@_1EK@DPFHFGHG@?$AAB?$AAI?$AAO?$AAS?$AA?5?$AAS?$AAt?$AAa?$AAr?$AAt?$AAi?$AAn?$AAg?$AA?5?$AAA@ 00000000000dfe20     UefiShellDebug1CommandsLib:PrintInfo.obj
 0002:00017e70       ??_C@_1CO@BCGFMJKD@?$AAB?$AAI?$AAO?$AAS?$AA?5?$AAR?$AAe?$AAl?$AAe?$AAa?$AAs?$AAe?$AA?5?$AAD?$AAa@ 00000000000dfe70     UefiShellDebug1CommandsLib:PrintInfo.obj
 0002:00017ea0       ??_C@_1DO@OEJOMCOI@?$AAS?$AAy?$AAs?$AAt?$AAe?$AAm?$AA?5?$AAB?$AAI?$AAO?$AAS?$AA?5?$AAM?$AAa?$AAj@ 00000000000dfea0     UefiShellDebug1CommandsLib:PrintInfo.obj
 0002:00017ee0       ??_C@_1DO@GDHDHBO@?$AAS?$AAy?$AAs?$AAt?$AAe?$AAm?$AA?5?$AAB?$AAI?$AAO?$AAS?$AA?5?$AAM?$AAi?$AAn@ 00000000000dfee0     UefiShellDebug1CommandsLib:PrintInfo.obj
 0002:00017f20       ??_C@_1GA@HGMJHCHH@?$AAE?$AAm?$AAb?$AAe?$AAd?$AAd?$AAe?$AAd?$AA?5?$AAC?$AAo?$AAn?$AAt?$AAr?$AAo@ 00000000000dff20     UefiShellDebug1CommandsLib:PrintInfo.obj
 0002:00017f80       ??_C@_1GA@JEGAIHIB@?$AAE?$AAm?$AAb?$AAe?$AAd?$AAd?$AAe?$AAd?$AA?5?$AAC?$AAo?$AAn?$AAt?$AAr?$AAo@ 00000000000dff80     UefiShellDebug1CommandsLib:PrintInfo.obj
 0002:00017fe0       ??_C@_15MMOGNHFI@?$AAM?$AAB@ 00000000000dffe0     UefiShellDebug1CommandsLib:PrintInfo.obj
 0002:00017fe8       ??_C@_15GNHNPEDO@?$AAG?$AAB@ 00000000000dffe8     UefiShellDebug1CommandsLib:PrintInfo.obj
 0002:00017ff0       ??_C@_0N@BBNLMPJO@Manufacturer@ 00000000000dfff0     UefiShellDebug1CommandsLib:PrintInfo.obj
 0002:00018000       ??_C@_15JKMGFKLP@?$AA?$CF?$AAa@ 00000000000e0000     UefiShellDebug1CommandsLib:PrintInfo.obj
 0002:00018008       ??_C@_1M@CIOKLEIM@?$AA?3?$AA?5?$AA?$CF?$AAa?$AA?6@ 00000000000e0008     UefiShellDebug1CommandsLib:PrintInfo.obj
 0002:00018018       ??_C@_0M@MNPNDAHP@ProductName@ 00000000000e0018     UefiShellDebug1CommandsLib:PrintInfo.obj
 0002:00018028       ??_C@_07NGFJPNPN@Version@  00000000000e0028     UefiShellDebug1CommandsLib:PrintInfo.obj
 0002:00018030       ??_C@_0N@FPJJBBNM@SerialNumber@ 00000000000e0030     UefiShellDebug1CommandsLib:PrintInfo.obj
 0002:00018040       ??_C@_04NDFIEGPL@Uuid@     00000000000e0040     UefiShellDebug1CommandsLib:PrintInfo.obj
 0002:00018048       ??_C@_09ODBEMGCH@SKUNumber@ 00000000000e0048     UefiShellDebug1CommandsLib:PrintInfo.obj
 0002:00018054       ??_C@_06BOFMEHLD@Family@   00000000000e0054     UefiShellDebug1CommandsLib:PrintInfo.obj
 0002:00018060       ??_C@_08FMONLMLE@AssetTag@ 00000000000e0060     UefiShellDebug1CommandsLib:PrintInfo.obj
 0002:00018070       ??_C@_0BC@OMHLHKAK@LocationInChassis@ 00000000000e0070     UefiShellDebug1CommandsLib:PrintInfo.obj
 0002:00018088       ??_C@_0O@CDHHDFJM@ChassisHandle@ 00000000000e0088     UefiShellDebug1CommandsLib:PrintInfo.obj
 0002:00018098       ??_C@_1BA@BDGGMDCP@?$AA?3?$AA?5?$AA0?$AAx?$AA?$CF?$AAx?$AA?6@ 00000000000e0098     UefiShellDebug1CommandsLib:PrintInfo.obj
 0002:000180a8       ??_C@_04KOACHJEN@Type@     00000000000e00a8     UefiShellDebug1CommandsLib:PrintInfo.obj
 0002:000180b0       ??_C@_1M@LAKNPEAB@?$AA?3?$AA?5?$AA?$CF?$AAu?$AA?6@ 00000000000e00b0     UefiShellDebug1CommandsLib:PrintInfo.obj
 0002:000180c0       ??_C@_0L@OBIIHLIL@OemDefined@ 00000000000e00c0     UefiShellDebug1CommandsLib:PrintInfo.obj
 0002:000180cc       ??_C@_06HCAKHJJK@Height@   00000000000e00cc     UefiShellDebug1CommandsLib:PrintInfo.obj
 0002:000180d8       ??_C@_0BD@KNMGNFOC@NumberofPowerCords@ 00000000000e00d8     UefiShellDebug1CommandsLib:PrintInfo.obj
 0002:000180f0       ??_C@_0BG@EPMALLNM@ContainedElementCount@ 00000000000e00f0     UefiShellDebug1CommandsLib:PrintInfo.obj
 0002:00018108       ??_C@_0BN@JOCNKJCF@ContainedElementRecordLength@ 00000000000e0108     UefiShellDebug1CommandsLib:PrintInfo.obj
 0002:00018128       ??_C@_1M@OLEMGGOE@?$AA?$CF?$AA0?$AA2?$AAX?$AA?5@ 00000000000e0128     UefiShellDebug1CommandsLib:PrintInfo.obj
 0002:00018138       ??_C@_1BO@CDAFANMB@?$AAR?$AAa?$AAc?$AAk?$AA?5?$AAT?$AAy?$AAp?$AAe?$AA?3?$AA?5?$AA?$CF?$AAx?$AA?6@ 00000000000e0138     UefiShellDebug1CommandsLib:PrintInfo.obj
 0002:00018158       ??_C@_1CC@IBGJJCEK@?$AAR?$AAa?$AAc?$AAk?$AA?5?$AAH?$AAe?$AAi?$AAg?$AAh?$AAt?$AA?3?$AA?5?$AA?$CF?$AAx@ 00000000000e0158     UefiShellDebug1CommandsLib:PrintInfo.obj
 0002:00018180       ??_C@_1DA@KGGOAIBL@?$AAS?$AAo?$AAc?$AAk?$AAe?$AAt?$AA?5?$AAD?$AAe?$AAs?$AAi?$AAg?$AAn?$AAa?$AAt@ 00000000000e0180     UefiShellDebug1CommandsLib:PrintInfo.obj
 0002:000181b0       ??_C@_1DI@ELBAAMBN@?$AAP?$AAr?$AAo?$AAc?$AAe?$AAs?$AAs?$AAo?$AAr?$AA?5?$AAM?$AAa?$AAn?$AAu?$AAf@ 00000000000e01b0     UefiShellDebug1CommandsLib:PrintInfo.obj
 0002:000181e8       ??_C@_1CO@GNIKGEEB@?$AAP?$AAr?$AAo?$AAc?$AAe?$AAs?$AAs?$AAo?$AAr?$AA?5?$AAV?$AAe?$AAr?$AAs?$AAi@ 00000000000e01e8     UefiShellDebug1CommandsLib:PrintInfo.obj
 0002:00018218       ??_C@_1CI@NGCBDILH@?$AAE?$AAx?$AAt?$AAe?$AAr?$AAn?$AAa?$AAl?$AA?5?$AAC?$AAl?$AAo?$AAc?$AAk?$AA?3@ 00000000000e0218     UefiShellDebug1CommandsLib:PrintInfo.obj
 0002:00018240       ??_C@_1BO@HGKEKLIA@?$AAM?$AAa?$AAx?$AA?5?$AAS?$AAp?$AAe?$AAe?$AAd?$AA?3?$AA?5?$AA?$CF?$AAu?$AA?6@ 00000000000e0240     UefiShellDebug1CommandsLib:PrintInfo.obj
 0002:00018260       ??_C@_1CG@KGEENJA@?$AAC?$AAu?$AAr?$AAr?$AAe?$AAn?$AAt?$AA?5?$AAS?$AAp?$AAe?$AAe?$AAd?$AA?3?$AA?5@ 00000000000e0260     UefiShellDebug1CommandsLib:PrintInfo.obj
 0002:00018288       ??_C@_1CO@CCELLHEG@?$AAL?$AA1?$AA?5?$AAC?$AAa?$AAc?$AAh?$AAe?$AA?5?$AAH?$AAa?$AAn?$AAd?$AAl?$AAe@ 00000000000e0288     UefiShellDebug1CommandsLib:PrintInfo.obj
 0002:000182b8       ??_C@_1CO@FMDDPPOA@?$AAL?$AA2?$AA?5?$AAC?$AAa?$AAc?$AAh?$AAe?$AA?5?$AAH?$AAa?$AAn?$AAd?$AAl?$AAe@ 00000000000e02b8     UefiShellDebug1CommandsLib:PrintInfo.obj
 0002:000182e8       ??_C@_1CO@HGBLMHIC@?$AAL?$AA3?$AA?5?$AAC?$AAa?$AAc?$AAh?$AAe?$AA?5?$AAH?$AAa?$AAn?$AAd?$AAl?$AAe@ 00000000000e02e8     UefiShellDebug1CommandsLib:PrintInfo.obj
 0002:00018318       ??_C@_1CG@COOLGAOF@?$AAS?$AAe?$AAr?$AAi?$AAa?$AAl?$AA?5?$AAN?$AAu?$AAm?$AAb?$AAe?$AAr?$AA?3?$AA?5@ 00000000000e0318     UefiShellDebug1CommandsLib:PrintInfo.obj
 0002:00018340       ??_C@_1BO@FKDMAPGK@?$AAA?$AAs?$AAs?$AAe?$AAt?$AA?5?$AAT?$AAa?$AAg?$AA?3?$AA?5?$AA?$CF?$AAa?$AA?6@ 00000000000e0340     UefiShellDebug1CommandsLib:PrintInfo.obj
 0002:00018360       ??_C@_1CC@PAJEONFE@?$AAP?$AAa?$AAr?$AAt?$AA?5?$AAN?$AAu?$AAm?$AAb?$AAe?$AAr?$AA?3?$AA?5?$AA?$CF?$AAa@ 00000000000e0360     UefiShellDebug1CommandsLib:PrintInfo.obj
 0002:00018388       ??_C@_1CA@EGNOIHGB@?$AAC?$AAo?$AAr?$AAe?$AA?5?$AAC?$AAo?$AAu?$AAn?$AAt?$AA?3?$AA?5?$AA?$CF?$AAu?$AA?6@ 00000000000e0388     UefiShellDebug1CommandsLib:PrintInfo.obj
 0002:000183a8       ??_C@_1CE@GNJONLKG@?$AAC?$AAo?$AAr?$AAe?$AA?5?$AAE?$AAn?$AAa?$AAb?$AAl?$AAe?$AAd?$AA?3?$AA?5?$AA?$CF@ 00000000000e03a8     UefiShellDebug1CommandsLib:PrintInfo.obj
 0002:000183d0       ??_C@_1CE@JFFJBLPL@?$AAT?$AAh?$AAr?$AAe?$AAa?$AAd?$AA?5?$AAC?$AAo?$AAu?$AAn?$AAt?$AA?3?$AA?5?$AA?$CF@ 00000000000e03d0     UefiShellDebug1CommandsLib:PrintInfo.obj
 0002:000183f8       ??_C@_1CE@EHBJNOEJ@?$AAC?$AAo?$AAr?$AAe?$AA?5?$AAC?$AAo?$AAu?$AAn?$AAt?$AA?5?$AA2?$AA?3?$AA?5?$AA?$CF@ 00000000000e03f8     UefiShellDebug1CommandsLib:PrintInfo.obj
 0002:00018420       ??_C@_1CI@JFOAGJGH@?$AAC?$AAo?$AAr?$AAe?$AA?5?$AAE?$AAn?$AAa?$AAb?$AAl?$AAe?$AAd?$AA?5?$AA2?$AA?3@ 00000000000e0420     UefiShellDebug1CommandsLib:PrintInfo.obj
 0002:00018448       ??_C@_1CI@KPFBDPP@?$AAT?$AAh?$AAr?$AAe?$AAa?$AAd?$AA?5?$AAC?$AAo?$AAu?$AAn?$AAt?$AA?5?$AA2?$AA?3@ 00000000000e0448     UefiShellDebug1CommandsLib:PrintInfo.obj
 0002:00018470       ??_C@_1CI@CAHCBGBA@?$AAT?$AAh?$AAr?$AAe?$AAa?$AAd?$AA?5?$AAE?$AAn?$AAa?$AAb?$AAl?$AAe?$AAd?$AA?3@ 00000000000e0470     UefiShellDebug1CommandsLib:PrintInfo.obj
 0002:00018498       ??_C@_1CC@IMCHNMFG@?$AAS?$AAo?$AAc?$AAk?$AAe?$AAt?$AA?5?$AAT?$AAy?$AAp?$AAe?$AA?3?$AA?5?$AA?$CF?$AAa@ 00000000000e0498     UefiShellDebug1CommandsLib:PrintInfo.obj
 0002:000184c0       ??_C@_0BI@HCBPJEAD@AssociatedMemorySlotNum@ 00000000000e04c0     UefiShellDebug1CommandsLib:PrintInfo.obj
 0002:000184d8       ??_C@_0BC@GCIFEBIL@SocketDesignation@ 00000000000e04d8     UefiShellDebug1CommandsLib:PrintInfo.obj
 0002:000184f0       ??_C@_0N@ODNILEPO@CurrentSpeed@ 00000000000e04f0     UefiShellDebug1CommandsLib:PrintInfo.obj
 0002:00018500       ??_C@_0BB@JDAJEIIK@MaximumCacheSize@ 00000000000e0500     UefiShellDebug1CommandsLib:PrintInfo.obj
 0002:00018518       ??_C@_0O@BJDNNDOA@InstalledSize@ 00000000000e0518     UefiShellDebug1CommandsLib:PrintInfo.obj
 0002:00018528       ??_C@_0BC@OLPHMDNB@SupportedSRAMType@ 00000000000e0528     UefiShellDebug1CommandsLib:PrintInfo.obj
 0002:00018540       ??_C@_0BA@CHMIDALO@CurrentSRAMType@ 00000000000e0540     UefiShellDebug1CommandsLib:PrintInfo.obj
 0002:00018550       ??_C@_0L@GKCEABFB@CacheSpeed@ 00000000000e0550     UefiShellDebug1CommandsLib:PrintInfo.obj
 0002:00018560       ??_C@_0BC@OAIODHAH@MaximumCacheSize2@ 00000000000e0560     UefiShellDebug1CommandsLib:PrintInfo.obj
 0002:00018578       ??_C@_0P@ENGDILNK@InstalledSize2@ 00000000000e0578     UefiShellDebug1CommandsLib:PrintInfo.obj
 0002:00018588       ??_C@_0BM@JBGCGAG@InternalReferenceDesignator@ 00000000000e0588     UefiShellDebug1CommandsLib:PrintInfo.obj
 0002:000185a8       ??_C@_1BE@ELLAGAB@?$AAI?$AAn?$AAt?$AAe?$AAr?$AAn?$AAa?$AAl?$AA?5@ 00000000000e05a8     UefiShellDebug1CommandsLib:PrintInfo.obj
 0002:000185c0       ??_C@_0BM@OAEDMMAI@ExternalReferenceDesignator@ 00000000000e05c0     UefiShellDebug1CommandsLib:PrintInfo.obj
 0002:000185e0       ??_C@_0BA@JKMEMADA@SlotDesignation@ 00000000000e05e0     UefiShellDebug1CommandsLib:PrintInfo.obj
 0002:000185f0       ??_C@_0BA@BMLFAHJE@SegmentGroupNum@ 00000000000e05f0     UefiShellDebug1CommandsLib:PrintInfo.obj
 0002:00018600       ??_C@_06KNDINCOD@BusNum@   00000000000e0600     UefiShellDebug1CommandsLib:PrintInfo.obj
 0002:00018608       ??_C@_0L@CPCJGBL@DevFuncNum@ 00000000000e0608     UefiShellDebug1CommandsLib:PrintInfo.obj
 0002:00018618       ??_C@_0N@EIPDDONP@DataBusWidth@ 00000000000e0618     UefiShellDebug1CommandsLib:PrintInfo.obj
 0002:00018628       ??_C@_0BC@HIAOFHP@PeerGroupingCount@ 00000000000e0628     UefiShellDebug1CommandsLib:PrintInfo.obj
 0002:00018640       ??_C@_1CA@MEEPCHDM@?$AAD?$AAe?$AAv?$AAi?$AAc?$AAe?$AA?5?$AAE?$AAn?$AAa?$AAb?$AAl?$AAe?$AAd?$AA?6@ 00000000000e0640     UefiShellDebug1CommandsLib:PrintInfo.obj
 0002:00018660       ??_C@_1CC@MLJLHBNL@?$AAD?$AAe?$AAv?$AAi?$AAc?$AAe?$AA?5?$AAD?$AAi?$AAs?$AAa?$AAb?$AAl?$AAe?$AAd@ 00000000000e0660     UefiShellDebug1CommandsLib:PrintInfo.obj
 0002:00018688       ??_C@_17IHFOHADP@?$AA?$CF?$AAa?$AA?6@ 00000000000e0688     UefiShellDebug1CommandsLib:PrintInfo.obj
 0002:00018690       ??_C@_0M@MPGNKAIN@StringCount@ 00000000000e0690     UefiShellDebug1CommandsLib:PrintInfo.obj
 0002:000186a0       ??_C@_0BF@JGHHIKJK@InstallableLanguages@ 00000000000e06a0     UefiShellDebug1CommandsLib:PrintInfo.obj
 0002:000186b8       ??_C@_05BOOEKJH@Flags@     00000000000e06b8     UefiShellDebug1CommandsLib:PrintInfo.obj
 0002:000186c0       ??_C@_08NKCLJDKG@Reserved@ 00000000000e06c0     UefiShellDebug1CommandsLib:PrintInfo.obj
 0002:000186d0       ??_C@_0BB@PDMACJCC@CurrentLanguages@ 00000000000e06d0     UefiShellDebug1CommandsLib:PrintInfo.obj
 0002:000186e8       ??_C@_09DOCDJBIG@GroupName@ 00000000000e06e8     UefiShellDebug1CommandsLib:PrintInfo.obj
 0002:000186f8       ??_C@_1CC@IANCIAGE@?$AAI?$AAt?$AAe?$AAm?$AAT?$AAy?$AAp?$AAe?$AA?5?$AA?$CF?$AAu?$AA?3?$AA?5?$AA?$CF?$AAu@ 00000000000e06f8     UefiShellDebug1CommandsLib:PrintInfo.obj
 0002:00018720       ??_C@_1CG@HBPOLCFH@?$AAI?$AAt?$AAe?$AAm?$AAH?$AAa?$AAn?$AAd?$AAl?$AAe?$AA?5?$AA?$CF?$AAu?$AA?3?$AA?5@ 00000000000e0720     UefiShellDebug1CommandsLib:PrintInfo.obj
 0002:00018748       ??_C@_0O@HKDDDLBN@LogAreaLength@ 00000000000e0748     UefiShellDebug1CommandsLib:PrintInfo.obj
 0002:00018758       ??_C@_0BF@GDDPPJHL@LogHeaderStartOffset@ 00000000000e0758     UefiShellDebug1CommandsLib:PrintInfo.obj
 0002:00018770       ??_C@_0BD@CAPEPFNK@LogDataStartOffset@ 00000000000e0770     UefiShellDebug1CommandsLib:PrintInfo.obj
 0002:00018788       ??_C@_0BE@NOKFPJBG@AccessMethodAddress@ 00000000000e0788     UefiShellDebug1CommandsLib:PrintInfo.obj
 0002:000187a0       ??_C@_0P@NPBNLBCA@LogChangeToken@ 00000000000e07a0     UefiShellDebug1CommandsLib:PrintInfo.obj
 0002:000187b0       ??_C@_0CE@KLHOMLO@NumberOfSupportedLogTypeDescrip@ 00000000000e07b0     UefiShellDebug1CommandsLib:PrintInfo.obj
 0002:000187d8       ??_C@_0BK@HHOAKNBO@LengthOfLogTypeDescriptor@ 00000000000e07d8     UefiShellDebug1CommandsLib:PrintInfo.obj
 0002:000187f8       ??_C@_0BA@GDFDNLEE@MaximumCapacity@ 00000000000e07f8     UefiShellDebug1CommandsLib:PrintInfo.obj
 0002:00018808       ??_C@_0BN@JFCNOMK@MemoryErrorInformationHandle@ 00000000000e0808     UefiShellDebug1CommandsLib:PrintInfo.obj
 0002:00018828       ??_C@_0BG@GGCPJPGF@NumberOfMemoryDevices@ 00000000000e0828     UefiShellDebug1CommandsLib:PrintInfo.obj
 0002:00018840       ??_C@_0BI@KHLPJKF@ExtendedMaximumCapacity@ 00000000000e0840     UefiShellDebug1CommandsLib:PrintInfo.obj
 0002:00018858       ??_C@_1BC@MBNHMLHO@?$AA?3?$AA?5?$AA0?$AAx?$AA?$CF?$AAl?$AAx?$AA?6@ 00000000000e0858     UefiShellDebug1CommandsLib:PrintInfo.obj
 0002:00018870       ??_C@_1EI@NABGLLKB@?$AAP?$AAh?$AAy?$AAs?$AAi?$AAc?$AAa?$AAl?$AA?5?$AAM?$AAe?$AAm?$AAo?$AAr?$AAy@ 00000000000e0870     UefiShellDebug1CommandsLib:PrintInfo.obj
 0002:000188c0       ??_C@_1EO@FIGCECHL@?$AAM?$AAe?$AAm?$AAo?$AAr?$AAy?$AA?5?$AAE?$AAr?$AAr?$AAo?$AAr?$AA?5?$AAI?$AAn@ 00000000000e08c0     UefiShellDebug1CommandsLib:PrintInfo.obj
 0002:00018910       ??_C@_1CG@LEIDDFGH@?$AAT?$AAo?$AAt?$AAa?$AAl?$AA?5?$AAW?$AAi?$AAd?$AAt?$AAh?$AA?3?$AA?5?$AA0?$AAx@ 00000000000e0910     UefiShellDebug1CommandsLib:PrintInfo.obj
 0002:00018938       ??_C@_1CE@OFIENBHE@?$AAD?$AAa?$AAt?$AAa?$AA?5?$AAW?$AAi?$AAd?$AAt?$AAh?$AA?3?$AA?5?$AA0?$AAx?$AA?$CF@ 00000000000e0938     UefiShellDebug1CommandsLib:PrintInfo.obj
 0002:0001895c       ??_C@_04EBKMHHBE@Size@     00000000000e095c     UefiShellDebug1CommandsLib:PrintInfo.obj
 0002:00018968       ??_C@_1CE@KOOMJGOG@?$AAD?$AAe?$AAv?$AAi?$AAc?$AAe?$AA?5?$AAS?$AAe?$AAt?$AA?3?$AA?5?$AA0?$AAx?$AA?$CF@ 00000000000e0968     UefiShellDebug1CommandsLib:PrintInfo.obj
 0002:00018990       ??_C@_1CI@JNMNIHFL@?$AAD?$AAe?$AAv?$AAi?$AAc?$AAe?$AA?5?$AAL?$AAo?$AAc?$AAa?$AAt?$AAo?$AAr?$AA?3@ 00000000000e0990     UefiShellDebug1CommandsLib:PrintInfo.obj
 0002:000189b8       ??_C@_1CE@JLONGHPJ@?$AAB?$AAa?$AAn?$AAk?$AA?5?$AAL?$AAo?$AAc?$AAa?$AAt?$AAo?$AAr?$AA?3?$AA?5?$AA?$CF@ 00000000000e09b8     UefiShellDebug1CommandsLib:PrintInfo.obj
 0002:000189dc       ??_C@_05HOIAGEJD@Speed@    00000000000e09dc     UefiShellDebug1CommandsLib:PrintInfo.obj
 0002:000189e8       ??_C@_0L@PLFFHFAH@Attributes@ 00000000000e09e8     UefiShellDebug1CommandsLib:PrintInfo.obj
 0002:000189f8       ??_C@_1CG@MMEDNAGI@?$AAE?$AAx?$AAt?$AAe?$AAn?$AAd?$AAe?$AAd?$AA?5?$AAS?$AAi?$AAz?$AAe?$AA?3?$AA?5@ 00000000000e09f8     UefiShellDebug1CommandsLib:PrintInfo.obj
 0002:00018a20       ??_C@_1DO@JMDAHFDH@?$AAC?$AAo?$AAn?$AAf?$AAi?$AAg?$AAu?$AAr?$AAe?$AAd?$AA?5?$AAM?$AAe?$AAm?$AAo@ 00000000000e0a20     UefiShellDebug1CommandsLib:PrintInfo.obj
 0002:00018a60       ??_C@_1CK@DDLIHMEF@?$AAM?$AAi?$AAn?$AAi?$AAm?$AAu?$AAm?$AA?5?$AAv?$AAo?$AAl?$AAt?$AAa?$AAg?$AAe@ 00000000000e0a60     UefiShellDebug1CommandsLib:PrintInfo.obj
 0002:00018a90       ??_C@_1CK@GHKJAOBJ@?$AAM?$AAa?$AAx?$AAi?$AAm?$AAu?$AAm?$AA?5?$AAv?$AAo?$AAl?$AAt?$AAa?$AAg?$AAe@ 00000000000e0a90     UefiShellDebug1CommandsLib:PrintInfo.obj
 0002:00018ac0       ??_C@_1DA@DDDCCOLD@?$AAC?$AAo?$AAn?$AAf?$AAi?$AAg?$AAu?$AAr?$AAe?$AAd?$AA?5?$AAv?$AAo?$AAl?$AAt@ 00000000000e0ac0     UefiShellDebug1CommandsLib:PrintInfo.obj
 0002:00018af0       ??_C@_1CM@FANBMOL@?$AAF?$AAi?$AAr?$AAm?$AAw?$AAa?$AAr?$AAe?$AA?5?$AAV?$AAe?$AAr?$AAs?$AAi?$AAo@ 00000000000e0af0     UefiShellDebug1CommandsLib:PrintInfo.obj
 0002:00018b20       ??_C@_1DM@PPCIDFBA@?$AAM?$AAo?$AAd?$AAu?$AAl?$AAe?$AA?5?$AAM?$AAa?$AAn?$AAu?$AAf?$AAa?$AAc?$AAt@ 00000000000e0b20     UefiShellDebug1CommandsLib:PrintInfo.obj
 0002:00018b60       ??_C@_1DC@LELLJMOD@?$AAM?$AAo?$AAd?$AAu?$AAl?$AAe?$AA?5?$AAP?$AAr?$AAo?$AAd?$AAu?$AAc?$AAt?$AA?5@ 00000000000e0b60     UefiShellDebug1CommandsLib:PrintInfo.obj
 0002:00018ba0       ??_C@_1GG@IKIEGKKL@?$AAM?$AAe?$AAm?$AAo?$AAr?$AAy?$AA?5?$AAS?$AAu?$AAb?$AAs?$AAy?$AAs?$AAt?$AAe@ 00000000000e0ba0     UefiShellDebug1CommandsLib:PrintInfo.obj
 0002:00018c10       ??_C@_1FM@HLKFJINL@?$AAM?$AAe?$AAm?$AAo?$AAr?$AAy?$AA?5?$AAS?$AAu?$AAb?$AAs?$AAy?$AAs?$AAt?$AAe@ 00000000000e0c10     UefiShellDebug1CommandsLib:PrintInfo.obj
 0002:00018c70       ??_C@_1DE@DGCEPNOI@?$AAN?$AAo?$AAn?$AA?9?$AAv?$AAo?$AAl?$AAa?$AAt?$AAi?$AAl?$AAe?$AA?5?$AAS?$AAi@ 00000000000e0c70     UefiShellDebug1CommandsLib:PrintInfo.obj
 0002:00018ca8       ??_C@_1CM@BACFMPIO@?$AAV?$AAo?$AAl?$AAa?$AAt?$AAi?$AAl?$AAe?$AA?5?$AAS?$AAi?$AAz?$AAe?$AA?3?$AA?5@ 00000000000e0ca8     UefiShellDebug1CommandsLib:PrintInfo.obj
 0002:00018cd8       ??_C@_1CG@GBDMFEL@?$AAC?$AAa?$AAc?$AAh?$AAe?$AA?5?$AAS?$AAi?$AAz?$AAe?$AA?3?$AA?5?$AA0?$AAx?$AA?$CF@ 00000000000e0cd8     UefiShellDebug1CommandsLib:PrintInfo.obj
 0002:00018d00       ??_C@_1CK@IMOBOOBB@?$AAL?$AAo?$AAg?$AAi?$AAc?$AAa?$AAl?$AA?5?$AAS?$AAi?$AAz?$AAe?$AA?3?$AA?5?$AA0@ 00000000000e0d00     UefiShellDebug1CommandsLib:PrintInfo.obj
 0002:00018d30       ??_C@_1CM@FNHKFMKN@?$AAE?$AAx?$AAt?$AAe?$AAn?$AAd?$AAe?$AAd?$AA?5?$AAS?$AAp?$AAe?$AAe?$AAd?$AA?3@ 00000000000e0d30     UefiShellDebug1CommandsLib:PrintInfo.obj
 0002:00018d60       ??_C@_1FA@BMOKCKKK@?$AAE?$AAx?$AAt?$AAe?$AAn?$AAd?$AAe?$AAd?$AA?5?$AAC?$AAo?$AAn?$AAf?$AAi?$AAg@ 00000000000e0d60     UefiShellDebug1CommandsLib:PrintInfo.obj
 0002:00018db0       ??_C@_1DK@LOPPDFGF@?$AAP?$AAM?$AAI?$AAC?$AA0?$AA?5?$AAM?$AAa?$AAn?$AAu?$AAf?$AAa?$AAc?$AAt?$AAu@ 00000000000e0db0     UefiShellDebug1CommandsLib:PrintInfo.obj
 0002:00018df0       ??_C@_1DK@HCOGBJBO@?$AAP?$AAM?$AAI?$AAC?$AA0?$AA?5?$AAR?$AAe?$AAv?$AAi?$AAs?$AAi?$AAo?$AAn?$AA?5@ 00000000000e0df0     UefiShellDebug1CommandsLib:PrintInfo.obj
 0002:00018e30       ??_C@_1DG@BBBOBCMC@?$AAR?$AAC?$AAD?$AA?5?$AAM?$AAa?$AAn?$AAu?$AAf?$AAa?$AAc?$AAt?$AAu?$AAr?$AAe@ 00000000000e0e30     UefiShellDebug1CommandsLib:PrintInfo.obj
 0002:00018e68       ??_C@_1DG@NNAHDOLJ@?$AAR?$AAC?$AAD?$AA?5?$AAR?$AAe?$AAv?$AAi?$AAs?$AAi?$AAo?$AAn?$AA?5?$AAN?$AAu@ 00000000000e0e68     UefiShellDebug1CommandsLib:PrintInfo.obj
 0002:00018ea0       ??_C@_15MDIDNHP@?$AA1?$AA9@ 00000000000e0ea0     UefiShellDebug1CommandsLib:EventLogInfo.obj
 0002:00018ea8       ??_C@_15PHKEAAFL@?$AA2?$AA0@ 00000000000e0ea8     UefiShellDebug1CommandsLib:EventLogInfo.obj
 0002:00018eb0       ??_C@_1FE@DLJCFBIL@?$AA?5?$AA?5?$AAB?$AAl?$AAo?$AAc?$AAk?$AAS?$AAi?$AAz?$AAe?$AA?3?$AA?5?$AA0?$AAx@ 00000000000e0eb0     UefiShellDebug1CommandsLib:Dblk.obj
 0002:00018f08       ??_C@_1BA@LKDHDFCB@?$AAB?$AAl?$AAo?$AAc?$AAk?$AAI?$AAo@ 00000000000e0f08     UefiShellDebug1CommandsLib:Dblk.obj
 0002:00018f20       ??_C@_0FA@JIHNMGPK@D?3?2develop?2Self_develop?2edk2?2Sh@ 00000000000e0f20     UefiShellDebug1CommandsLib:Dblk.obj
 0002:00018f70       ??_C@_17OFPFGFPE@?$AA?$CL?$AAN?$AAV@ 00000000000e0f70     UefiShellDebug1CommandsLib:DmpStore.obj
 0002:00018f78       ??_C@_1O@PDJDFCIH@?$AA?$CL?$AAR?$AAT?$AA?$CL?$AAB?$AAS@ 00000000000e0f78     UefiShellDebug1CommandsLib:DmpStore.obj
 0002:00018f88       ??_C@_17KFOJFFLN@?$AA?$CL?$AAB?$AAS@ 00000000000e0f88     UefiShellDebug1CommandsLib:DmpStore.obj
 0002:00018f90       ??_C@_17LMMOBBLO@?$AA?$CL?$AAH?$AAR@ 00000000000e0f90     UefiShellDebug1CommandsLib:DmpStore.obj
 0002:00018f98       ??_C@_17KMBPLAEE@?$AA?$CL?$AAA?$AAW@ 00000000000e0f98     UefiShellDebug1CommandsLib:DmpStore.obj
 0002:00018fa0       ??_C@_17LOKKBPKK@?$AA?$CL?$AAA?$AAT@ 00000000000e0fa0     UefiShellDebug1CommandsLib:DmpStore.obj
 0002:00018fa8       ??_C@_1BA@EOKOFGEP@?$AAI?$AAn?$AAv?$AAa?$AAl?$AAi?$AAd@ 00000000000e0fa8     UefiShellDebug1CommandsLib:DmpStore.obj
 0002:00018fc0       ??_C@_0FE@PGOFDDEO@D?3?2develop?2Self_develop?2edk2?2Sh@ 00000000000e0fc0     UefiShellDebug1CommandsLib:DmpStore.obj
 0002:00019018       ??_C@_0DI@CCDCGIJK@?$CIBufferSize?5?$CK?52?5?$CL?51?$CJ?5?$CK?5sizeof?5?$CI@ 00000000000e1018     UefiShellDebug1CommandsLib:DmpStore.obj
 0002:00019050       ??_C@_19LEFBDIFG@?$AA?9?$AAa?$AAl?$AAl@ 00000000000e1050     UefiShellDebug1CommandsLib:DmpStore.obj
 0002:00019060       ??_C@_1M@EOIAFNLN@?$AA?9?$AAg?$AAu?$AAi?$AAd@ 00000000000e1060     UefiShellDebug1CommandsLib:DmpStore.obj
 0002:00019070       ??_C@_1BC@PGLKLMOO@?$AA?9?$AAl?$AA?5?$AAo?$AAr?$AA?5?$AA?9?$AAs@ 00000000000e1070     UefiShellDebug1CommandsLib:DmpStore.obj
 0002:00019100       ??_C@_1BO@FHHPGHDB@?$AAP?$AAr?$AAe?$AA?5?$AA2?$AA?4?$AA0?$AA?5?$AAd?$AAe?$AAv?$AAi?$AAc?$AAe@ 00000000000e1100     UefiShellDebug1CommandsLib:Pci.obj
 0002:00019120       ??_C@_1DA@LLLBNMP@?$AAM?$AAa?$AAs?$AAs?$AA?5?$AAS?$AAt?$AAo?$AAr?$AAa?$AAg?$AAe?$AA?5?$AAC?$AAo@ 00000000000e1120     UefiShellDebug1CommandsLib:Pci.obj
 0002:00019150       ??_C@_1CG@DJOJHJK@?$AAN?$AAe?$AAt?$AAw?$AAo?$AAr?$AAk?$AA?5?$AAC?$AAo?$AAn?$AAt?$AAr?$AAo?$AAl@ 00000000000e1150     UefiShellDebug1CommandsLib:Pci.obj
 0002:00019178       ??_C@_1CG@JJENDPNP@?$AAD?$AAi?$AAs?$AAp?$AAl?$AAa?$AAy?$AA?5?$AAC?$AAo?$AAn?$AAt?$AAr?$AAo?$AAl@ 00000000000e1178     UefiShellDebug1CommandsLib:Pci.obj
 0002:000191a0       ??_C@_1CE@KMCFHDII@?$AAM?$AAu?$AAl?$AAt?$AAi?$AAm?$AAe?$AAd?$AAi?$AAa?$AA?5?$AAD?$AAe?$AAv?$AAi@ 00000000000e11a0     UefiShellDebug1CommandsLib:Pci.obj
 0002:000191c8       ??_C@_1CE@HHMPPPCO@?$AAM?$AAe?$AAm?$AAo?$AAr?$AAy?$AA?5?$AAC?$AAo?$AAn?$AAt?$AAr?$AAo?$AAl?$AAl@ 00000000000e11c8     UefiShellDebug1CommandsLib:Pci.obj
 0002:000191f0       ??_C@_1BM@PEBPFOIH@?$AAB?$AAr?$AAi?$AAd?$AAg?$AAe?$AA?5?$AAD?$AAe?$AAv?$AAi?$AAc?$AAe@ 00000000000e11f0     UefiShellDebug1CommandsLib:Pci.obj
 0002:00019210       ??_C@_1EE@OJMDAEND@?$AAS?$AAi?$AAm?$AAp?$AAl?$AAe?$AA?5?$AAC?$AAo?$AAm?$AAm?$AAu?$AAn?$AAi?$AAc@ 00000000000e1210     UefiShellDebug1CommandsLib:Pci.obj
 0002:00019258       ??_C@_1DA@JJPCHBJI@?$AAB?$AAa?$AAs?$AAe?$AA?5?$AAS?$AAy?$AAs?$AAt?$AAe?$AAm?$AA?5?$AAP?$AAe?$AAr@ 00000000000e1258     UefiShellDebug1CommandsLib:Pci.obj
 0002:00019288       ??_C@_1BM@IPNGOEEO@?$AAI?$AAn?$AAp?$AAu?$AAt?$AA?5?$AAD?$AAe?$AAv?$AAi?$AAc?$AAe?$AAs@ 00000000000e1288     UefiShellDebug1CommandsLib:Pci.obj
 0002:000192a8       ??_C@_1CC@BFNJJODO@?$AAD?$AAo?$AAc?$AAk?$AAi?$AAn?$AAg?$AA?5?$AAS?$AAt?$AAa?$AAt?$AAi?$AAo?$AAn@ 00000000000e12a8     UefiShellDebug1CommandsLib:Pci.obj
 0002:000192d0       ??_C@_1BG@EACBMCBE@?$AAP?$AAr?$AAo?$AAc?$AAe?$AAs?$AAs?$AAo?$AAr?$AAs@ 00000000000e12d0     UefiShellDebug1CommandsLib:Pci.obj
 0002:000192e8       ??_C@_1CO@FGNBEBNP@?$AAS?$AAe?$AAr?$AAi?$AAa?$AAl?$AA?5?$AAB?$AAu?$AAs?$AA?5?$AAC?$AAo?$AAn?$AAt@ 00000000000e12e8     UefiShellDebug1CommandsLib:Pci.obj
 0002:00019318       ??_C@_1CK@EGCGOPBE@?$AAW?$AAi?$AAr?$AAe?$AAl?$AAe?$AAs?$AAs?$AA?5?$AAC?$AAo?$AAn?$AAt?$AAr?$AAo@ 00000000000e1318     UefiShellDebug1CommandsLib:Pci.obj
 0002:00019348       ??_C@_1DG@MPIOKBPH@?$AAI?$AAn?$AAt?$AAe?$AAl?$AAl?$AAi?$AAg?$AAe?$AAn?$AAt?$AA?5?$AAI?$AAO?$AA?5@ 00000000000e1348     UefiShellDebug1CommandsLib:Pci.obj
 0002:00019380       ??_C@_1EK@IEOCACFF@?$AAS?$AAa?$AAt?$AAe?$AAl?$AAl?$AAi?$AAt?$AAe?$AA?5?$AAC?$AAo?$AAm?$AAm?$AAu@ 00000000000e1380     UefiShellDebug1CommandsLib:Pci.obj
 0002:000193d0       ??_C@_1EE@LDCDGNDM@?$AAE?$AAn?$AAc?$AAr?$AAy?$AAp?$AAt?$AAi?$AAo?$AAn?$AA?1?$AAD?$AAe?$AAc?$AAr@ 00000000000e13d0     UefiShellDebug1CommandsLib:Pci.obj
 0002:00019420       ??_C@_1GC@PAEFCGGN@?$AAD?$AAa?$AAt?$AAa?$AA?5?$AAA?$AAc?$AAq?$AAu?$AAi?$AAs?$AAi?$AAt?$AAi?$AAo@ 00000000000e1420     UefiShellDebug1CommandsLib:Pci.obj
 0002:00019488       ??_C@_1DA@IKKFKEGB@?$AAP?$AAr?$AAo?$AAc?$AAe?$AAs?$AAs?$AAi?$AAn?$AAg?$AA?5?$AAA?$AAc?$AAc?$AAe@ 00000000000e1488     UefiShellDebug1CommandsLib:Pci.obj
 0002:000194b8       ??_C@_1DM@FBKJCLED@?$AAN?$AAo?$AAn?$AA?9?$AAE?$AAs?$AAs?$AAe?$AAn?$AAt?$AAi?$AAa?$AAl?$AA?5?$AAI@ 00000000000e14b8     UefiShellDebug1CommandsLib:Pci.obj
 0002:00019500       ??_C@_1FG@FGDNODGF@?$AAD?$AAe?$AAv?$AAi?$AAc?$AAe?$AA?5?$AAd?$AAo?$AAe?$AAs?$AA?5?$AAn?$AAo?$AAt@ 00000000000e1500     UefiShellDebug1CommandsLib:Pci.obj
 0002:00019558       ??_C@_1DG@EIEHDMIH@?$AAA?$AAl?$AAl?$AA?5?$AAd?$AAe?$AAv?$AAi?$AAc?$AAe?$AAs?$AA?5?$AAo?$AAt?$AAh@ 00000000000e1558     UefiShellDebug1CommandsLib:Pci.obj
 0002:00019590       ??_C@_1CO@GHIDOIFO@?$AAV?$AAG?$AAA?$AA?9?$AAc?$AAo?$AAm?$AAp?$AAa?$AAt?$AAi?$AAb?$AAl?$AAe?$AA?5@ 00000000000e1590     UefiShellDebug1CommandsLib:Pci.obj
 0002:000195c0       ??_C@_19IFECACCC@?$AAS?$AAC?$AAS?$AAI@ 00000000000e15c0     UefiShellDebug1CommandsLib:Pci.obj
 0002:000195d0       ??_C@_1BO@CGNFEKHE@?$AAI?$AAD?$AAE?$AA?5?$AAc?$AAo?$AAn?$AAt?$AAr?$AAo?$AAl?$AAl?$AAe?$AAr@ 00000000000e15d0     UefiShellDebug1CommandsLib:Pci.obj
 0002:000195f0       ??_C@_1CO@OCPABPEM@?$AAF?$AAl?$AAo?$AAp?$AAp?$AAy?$AA?5?$AAd?$AAi?$AAs?$AAk?$AA?5?$AAc?$AAo?$AAn@ 00000000000e15f0     UefiShellDebug1CommandsLib:Pci.obj
 0002:00019620       ??_C@_1BO@EEOANELC@?$AAI?$AAP?$AAI?$AA?5?$AAc?$AAo?$AAn?$AAt?$AAr?$AAo?$AAl?$AAl?$AAe?$AAr@ 00000000000e1620     UefiShellDebug1CommandsLib:Pci.obj
 0002:00019640       ??_C@_1CA@LKIEKACD@?$AAR?$AAA?$AAI?$AAD?$AA?5?$AAc?$AAo?$AAn?$AAt?$AAr?$AAo?$AAl?$AAl?$AAe?$AAr@ 00000000000e1640     UefiShellDebug1CommandsLib:Pci.obj
 0002:00019660       ??_C@_1EG@LKIEOAKF@?$AAA?$AAT?$AAA?$AA?5?$AAc?$AAo?$AAn?$AAt?$AAr?$AAo?$AAl?$AAl?$AAe?$AAr?$AA?5@ 00000000000e1660     UefiShellDebug1CommandsLib:Pci.obj
 0002:000196a8       ??_C@_1CM@JHAKIJKJ@?$AAS?$AAe?$AAr?$AAi?$AAa?$AAl?$AA?5?$AAA?$AAT?$AAA?$AA?5?$AAc?$AAo?$AAn?$AAt@ 00000000000e16a8     UefiShellDebug1CommandsLib:Pci.obj
 0002:000196e0       ??_C@_1EO@DAJIOEPF@?$AAS?$AAe?$AAr?$AAi?$AAa?$AAl?$AA?5?$AAA?$AAt?$AAt?$AAa?$AAc?$AAh?$AAe?$AAd@ 00000000000e16e0     UefiShellDebug1CommandsLib:Pci.obj
 0002:00019730       ??_C@_1DM@PIFIGALG@?$AAN?$AAo?$AAn?$AA?9?$AAv?$AAo?$AAl?$AAa?$AAt?$AAi?$AAl?$AAe?$AA?5?$AAm?$AAe@ 00000000000e1730     UefiShellDebug1CommandsLib:Pci.obj
 0002:00019770       ??_C@_1FE@JNFDMGLF@?$AAU?$AAn?$AAi?$AAv?$AAe?$AAr?$AAs?$AAa?$AAl?$AA?5?$AAF?$AAl?$AAa?$AAs?$AAh@ 00000000000e1770     UefiShellDebug1CommandsLib:Pci.obj
 0002:000197c8       ??_C@_1DM@GMADEAE@?$AAO?$AAt?$AAh?$AAe?$AAr?$AA?5?$AAm?$AAa?$AAs?$AAs?$AA?5?$AAs?$AAt?$AAo?$AAr@ 00000000000e17c8     UefiShellDebug1CommandsLib:Pci.obj
 0002:00019808       ??_C@_1CI@MKGCMDAM@?$AAE?$AAt?$AAh?$AAe?$AAr?$AAn?$AAe?$AAt?$AA?5?$AAc?$AAo?$AAn?$AAt?$AAr?$AAo@ 00000000000e1808     UefiShellDebug1CommandsLib:Pci.obj
 0002:00019830       ??_C@_1CM@NBJAIACL@?$AAT?$AAo?$AAk?$AAe?$AAn?$AA?5?$AAr?$AAi?$AAn?$AAg?$AA?5?$AAc?$AAo?$AAn?$AAt@ 00000000000e1830     UefiShellDebug1CommandsLib:Pci.obj
 0002:00019860       ??_C@_1CA@IJNJEHLM@?$AAF?$AAD?$AAD?$AAI?$AA?5?$AAc?$AAo?$AAn?$AAt?$AAr?$AAo?$AAl?$AAl?$AAe?$AAr@ 00000000000e1860     UefiShellDebug1CommandsLib:Pci.obj
 0002:00019880       ??_C@_1BO@FANFKIBJ@?$AAA?$AAT?$AAM?$AA?5?$AAc?$AAo?$AAn?$AAt?$AAr?$AAo?$AAl?$AAl?$AAe?$AAr@ 00000000000e1880     UefiShellDebug1CommandsLib:Pci.obj
 0002:000198a0       ??_C@_1CA@MPFFIPGB@?$AAI?$AAS?$AAD?$AAN?$AA?5?$AAc?$AAo?$AAn?$AAt?$AAr?$AAo?$AAl?$AAl?$AAe?$AAr@ 00000000000e18a0     UefiShellDebug1CommandsLib:Pci.obj
 0002:000198c0       ??_C@_1CI@ODICNMOO@?$AAW?$AAo?$AAr?$AAl?$AAd?$AAF?$AAi?$AAp?$AA?5?$AAc?$AAo?$AAn?$AAt?$AAr?$AAo@ 00000000000e18c0     UefiShellDebug1CommandsLib:Pci.obj
 0002:000198e8       ??_C@_1DG@HDLKGLB@?$AAP?$AAI?$AAC?$AAM?$AAG?$AA?5?$AA2?$AA?4?$AA1?$AA4?$AA?5?$AAM?$AAu?$AAl?$AAt@ 00000000000e18e8     UefiShellDebug1CommandsLib:Pci.obj
 0002:00019920       ??_C@_1CM@POJFDLKO@?$AAI?$AAn?$AAf?$AAi?$AAn?$AAi?$AAB?$AAa?$AAn?$AAd?$AA?5?$AAc?$AAo?$AAn?$AAt@ 00000000000e1920     UefiShellDebug1CommandsLib:Pci.obj
 0002:00019950       ??_C@_1DC@POIFFGNG@?$AAO?$AAt?$AAh?$AAe?$AAr?$AA?5?$AAn?$AAe?$AAt?$AAw?$AAo?$AAr?$AAk?$AA?5?$AAc@ 00000000000e1950     UefiShellDebug1CommandsLib:Pci.obj
 0002:00019988       ??_C@_1CI@IOIIPJMI@?$AAV?$AAG?$AAA?$AA?1?$AA8?$AA5?$AA1?$AA4?$AA?5?$AAc?$AAo?$AAn?$AAt?$AAr?$AAo@ 00000000000e1988     UefiShellDebug1CommandsLib:Pci.obj
 0002:000199b0       ??_C@_1BO@ECBDAEIH@?$AAX?$AAG?$AAA?$AA?5?$AAc?$AAo?$AAn?$AAt?$AAr?$AAo?$AAl?$AAl?$AAe?$AAr@ 00000000000e19b0     UefiShellDebug1CommandsLib:Pci.obj
 0002:000199d0       ??_C@_1BM@BJPNGIJM@?$AA3?$AAD?$AA?5?$AAc?$AAo?$AAn?$AAt?$AAr?$AAo?$AAl?$AAl?$AAe?$AAr@ 00000000000e19d0     UefiShellDebug1CommandsLib:Pci.obj
 0002:000199f0       ??_C@_1DC@GEFGPOJD@?$AAO?$AAt?$AAh?$AAe?$AAr?$AA?5?$AAd?$AAi?$AAs?$AAp?$AAl?$AAa?$AAy?$AA?5?$AAc@ 00000000000e19f0     UefiShellDebug1CommandsLib:Pci.obj
 0002:00019a28       ??_C@_1BK@FPJMHJC@?$AAV?$AAi?$AAd?$AAe?$AAo?$AA?5?$AAd?$AAe?$AAv?$AAi?$AAc?$AAe@ 00000000000e1a28     UefiShellDebug1CommandsLib:Pci.obj
 0002:00019a48       ??_C@_1BK@GADOAHPL@?$AAA?$AAu?$AAd?$AAi?$AAo?$AA?5?$AAd?$AAe?$AAv?$AAi?$AAc?$AAe@ 00000000000e1a48     UefiShellDebug1CommandsLib:Pci.obj
 0002:00019a68       ??_C@_1DE@DHNAOJDN@?$AAC?$AAo?$AAm?$AAp?$AAu?$AAt?$AAe?$AAr?$AA?5?$AAT?$AAe?$AAl?$AAe?$AAp?$AAh@ 00000000000e1a68     UefiShellDebug1CommandsLib:Pci.obj
 0002:00019aa0       ??_C@_1CE@LALKIPBB@?$AAM?$AAi?$AAx?$AAe?$AAd?$AA?5?$AAm?$AAo?$AAd?$AAe?$AA?5?$AAd?$AAe?$AAv?$AAi@ 00000000000e1aa0     UefiShellDebug1CommandsLib:Pci.obj
 0002:00019ac8       ??_C@_1DA@JPDDOFFC@?$AAO?$AAt?$AAh?$AAe?$AAr?$AA?5?$AAm?$AAu?$AAl?$AAt?$AAi?$AAm?$AAe?$AAd?$AAi@ 00000000000e1ac8     UefiShellDebug1CommandsLib:Pci.obj
 0002:00019af8       ??_C@_1CM@CDONCKCE@?$AAR?$AAA?$AAM?$AA?5?$AAm?$AAe?$AAm?$AAo?$AAr?$AAy?$AA?5?$AAc?$AAo?$AAn?$AAt@ 00000000000e1af8     UefiShellDebug1CommandsLib:Pci.obj
 0002:00019b28       ??_C@_1DA@BLKLFNMJ@?$AAF?$AAl?$AAa?$AAs?$AAh?$AA?5?$AAm?$AAe?$AAm?$AAo?$AAr?$AAy?$AA?5?$AAc?$AAo@ 00000000000e1b28     UefiShellDebug1CommandsLib:Pci.obj
 0002:00019b58       ??_C@_1DA@BCCIDOP@?$AAO?$AAt?$AAh?$AAe?$AAr?$AA?5?$AAm?$AAe?$AAm?$AAo?$AAr?$AAy?$AA?5?$AAc?$AAo@ 00000000000e1b58     UefiShellDebug1CommandsLib:Pci.obj
 0002:00019b88       ??_C@_1CA@PJEDLLCL@?$AAH?$AAo?$AAs?$AAt?$AA?1?$AAP?$AAC?$AAI?$AA?5?$AAb?$AAr?$AAi?$AAd?$AAg?$AAe@ 00000000000e1b88     UefiShellDebug1CommandsLib:Pci.obj
 0002:00019ba8       ??_C@_1BO@KJACFBI@?$AAP?$AAC?$AAI?$AA?1?$AAI?$AAS?$AAA?$AA?5?$AAb?$AAr?$AAi?$AAd?$AAg?$AAe@ 00000000000e1ba8     UefiShellDebug1CommandsLib:Pci.obj
 0002:00019bc8       ??_C@_1CA@OGMGGONI@?$AAP?$AAC?$AAI?$AA?1?$AAE?$AAI?$AAS?$AAA?$AA?5?$AAb?$AAr?$AAi?$AAd?$AAg?$AAe@ 00000000000e1bc8     UefiShellDebug1CommandsLib:Pci.obj
 0002:00019be8       ??_C@_1DC@PGKAHCKF@?$AAP?$AAC?$AAI?$AA?1?$AAM?$AAi?$AAc?$AAr?$AAo?$AA?5?$AAC?$AAh?$AAa?$AAn?$AAn@ 00000000000e1be8     UefiShellDebug1CommandsLib:Pci.obj
 0002:00019c20       ??_C@_1BO@PKJLCILA@?$AAP?$AAC?$AAI?$AA?1?$AAP?$AAC?$AAI?$AA?5?$AAb?$AAr?$AAi?$AAd?$AAg?$AAe@ 00000000000e1c20     UefiShellDebug1CommandsLib:Pci.obj
 0002:00019c40       ??_C@_1CE@FCMDMIFD@?$AAP?$AAC?$AAI?$AA?1?$AAP?$AAC?$AAM?$AAC?$AAI?$AAA?$AA?5?$AAb?$AAr?$AAi?$AAd@ 00000000000e1c40     UefiShellDebug1CommandsLib:Pci.obj
 0002:00019c68       ??_C@_1BK@EAGDOIJJ@?$AAN?$AAu?$AAB?$AAu?$AAs?$AA?5?$AAb?$AAr?$AAi?$AAd?$AAg?$AAe@ 00000000000e1c68     UefiShellDebug1CommandsLib:Pci.obj
 0002:00019c88       ??_C@_1BO@ENOKOIAD@?$AAC?$AAa?$AAr?$AAd?$AAB?$AAu?$AAs?$AA?5?$AAb?$AAr?$AAi?$AAd?$AAg?$AAe@ 00000000000e1c88     UefiShellDebug1CommandsLib:Pci.obj
 0002:00019ca8       ??_C@_1BO@FMPPOIBL@?$AAR?$AAA?$AAC?$AAE?$AAw?$AAa?$AAy?$AA?5?$AAb?$AAr?$AAi?$AAd?$AAg?$AAe@ 00000000000e1ca8     UefiShellDebug1CommandsLib:Pci.obj
 0002:00019cd0       ??_C@_1EG@KGEAMFNP@?$AAS?$AAe?$AAm?$AAi?$AA?9?$AAt?$AAr?$AAa?$AAn?$AAs?$AAp?$AAa?$AAr?$AAe?$AAn@ 00000000000e1cd0     UefiShellDebug1CommandsLib:Pci.obj
 0002:00019d18       ??_C@_1DM@EABGMKAJ@?$AAI?$AAn?$AAf?$AAi?$AAn?$AAi?$AAB?$AAa?$AAn?$AAd?$AA?9?$AAt?$AAo?$AA?9?$AAP@ 00000000000e1d18     UefiShellDebug1CommandsLib:Pci.obj
 0002:00019d60       ??_C@_1EM@OLOAJOAL@?$AAA?$AAd?$AAv?$AAa?$AAn?$AAc?$AAe?$AAd?$AA?5?$AAS?$AAw?$AAi?$AAt?$AAc?$AAh@ 00000000000e1d60     UefiShellDebug1CommandsLib:Pci.obj
 0002:00019db0       ??_C@_1CE@NEKBIMIP@?$AAO?$AAt?$AAh?$AAe?$AAr?$AA?5?$AAb?$AAr?$AAi?$AAd?$AAg?$AAe?$AA?5?$AAt?$AAy@ 00000000000e1db0     UefiShellDebug1CommandsLib:Pci.obj
 0002:00019dd8       ??_C@_1CE@BGLBPGLN@?$AAS?$AAe?$AAr?$AAi?$AAa?$AAl?$AA?5?$AAc?$AAo?$AAn?$AAt?$AAr?$AAo?$AAl?$AAl@ 00000000000e1dd8     UefiShellDebug1CommandsLib:Pci.obj
 0002:00019e00       ??_C@_1BM@CJCKEIPF@?$AAP?$AAa?$AAr?$AAa?$AAl?$AAl?$AAe?$AAl?$AA?5?$AAp?$AAo?$AAr?$AAt@ 00000000000e1e00     UefiShellDebug1CommandsLib:Pci.obj
 0002:00019e20       ??_C@_1DI@PLEGPFLG@?$AAM?$AAu?$AAl?$AAt?$AAi?$AAp?$AAo?$AAr?$AAt?$AA?5?$AAs?$AAe?$AAr?$AAi?$AAa@ 00000000000e1e20     UefiShellDebug1CommandsLib:Pci.obj
 0002:00019e58       ??_C@_1M@MPNOMPAF@?$AAM?$AAo?$AAd?$AAe?$AAm@ 00000000000e1e58     UefiShellDebug1CommandsLib:Pci.obj
 0002:00019e68       ??_C@_1DO@IJFMBKM@?$AAG?$AAP?$AAI?$AAB?$AA?5?$AA?$CI?$AAI?$AAE?$AAE?$AAE?$AA?5?$AA4?$AA8?$AA8?$AA?4@ 00000000000e1e68     UefiShellDebug1CommandsLib:Pci.obj
 0002:00019ea8       ??_C@_1BG@LEINKDBM@?$AAS?$AAm?$AAa?$AAr?$AAt?$AA?5?$AAC?$AAa?$AAr?$AAd@ 00000000000e1ea8     UefiShellDebug1CommandsLib:Pci.obj
 0002:00019ec0       ??_C@_1DG@CJEOCFGB@?$AAO?$AAt?$AAh?$AAe?$AAr?$AA?5?$AAc?$AAo?$AAm?$AAm?$AAu?$AAn?$AAi?$AAc?$AAa@ 00000000000e1ec0     UefiShellDebug1CommandsLib:Pci.obj
 0002:00019ef8       ??_C@_17GOANHPCH@?$AAP?$AAI?$AAC@ 00000000000e1ef8     UefiShellDebug1CommandsLib:Pci.obj
 0002:00019f00       ??_C@_1BO@PFMOLIHG@?$AAD?$AAM?$AAA?$AA?5?$AAc?$AAo?$AAn?$AAt?$AAr?$AAo?$AAl?$AAl?$AAe?$AAr@ 00000000000e1f00     UefiShellDebug1CommandsLib:Pci.obj
 0002:00019f20       ??_C@_1BK@ENPFJMHF@?$AAS?$AAy?$AAs?$AAt?$AAe?$AAm?$AA?5?$AAt?$AAi?$AAm?$AAe?$AAr@ 00000000000e1f20     UefiShellDebug1CommandsLib:Pci.obj
 0002:00019f40       ??_C@_1BO@OGPEBAO@?$AAR?$AAT?$AAC?$AA?5?$AAc?$AAo?$AAn?$AAt?$AAr?$AAo?$AAl?$AAl?$AAe?$AAr@ 00000000000e1f40     UefiShellDebug1CommandsLib:Pci.obj
 0002:00019f60       ??_C@_1EA@CDECOACP@?$AAG?$AAe?$AAn?$AAe?$AAr?$AAi?$AAc?$AA?5?$AAP?$AAC?$AAI?$AA?5?$AAH?$AAo?$AAt@ 00000000000e1f60     UefiShellDebug1CommandsLib:Pci.obj
 0002:00019fa0       ??_C@_1CG@KIGJEEJF@?$AAS?$AAD?$AA?5?$AAH?$AAo?$AAs?$AAt?$AA?5?$AAc?$AAo?$AAn?$AAt?$AAr?$AAo?$AAl@ 00000000000e1fa0     UefiShellDebug1CommandsLib:Pci.obj
 0002:00019fc8       ??_C@_1M@LLNMNJMC@?$AAI?$AAO?$AAM?$AAM?$AAU@ 00000000000e1fc8     UefiShellDebug1CommandsLib:Pci.obj
 0002:00019fd8       ??_C@_1DK@FAENCBAC@?$AAR?$AAo?$AAo?$AAt?$AA?5?$AAC?$AAo?$AAm?$AAp?$AAl?$AAe?$AAx?$AA?5?$AAE?$AAv@ 00000000000e1fd8     UefiShellDebug1CommandsLib:Pci.obj
 0002:0001a018       ??_C@_1DA@EFOIJPG@?$AAO?$AAt?$AAh?$AAe?$AAr?$AA?5?$AAs?$AAy?$AAs?$AAt?$AAe?$AAm?$AA?5?$AAp?$AAe@ 00000000000e2018     UefiShellDebug1CommandsLib:Pci.obj
 0002:0001a048       ??_C@_1CI@BAKBKHNI@?$AAK?$AAe?$AAy?$AAb?$AAo?$AAa?$AAr?$AAd?$AA?5?$AAc?$AAo?$AAn?$AAt?$AAr?$AAo@ 00000000000e2048     UefiShellDebug1CommandsLib:Pci.obj
 0002:0001a070       ??_C@_1CA@KMFJBDH@?$AAD?$AAi?$AAg?$AAi?$AAt?$AAi?$AAz?$AAe?$AAr?$AA?5?$AA?$CI?$AAp?$AAe?$AAn?$AA?$CJ@ 00000000000e2070     UefiShellDebug1CommandsLib:Pci.obj
 0002:0001a090       ??_C@_1CC@FCDLEDHK@?$AAM?$AAo?$AAu?$AAs?$AAe?$AA?5?$AAc?$AAo?$AAn?$AAt?$AAr?$AAo?$AAl?$AAl?$AAe@ 00000000000e2090     UefiShellDebug1CommandsLib:Pci.obj
 0002:0001a0b8       ??_C@_1CG@DBNALJHF@?$AAS?$AAc?$AAa?$AAn?$AAn?$AAe?$AAr?$AA?5?$AAc?$AAo?$AAn?$AAt?$AAr?$AAo?$AAl@ 00000000000e20b8     UefiShellDebug1CommandsLib:Pci.obj
 0002:0001a0e0       ??_C@_1CI@JKMDFCJL@?$AAG?$AAa?$AAm?$AAe?$AAp?$AAo?$AAr?$AAt?$AA?5?$AAc?$AAo?$AAn?$AAt?$AAr?$AAo@ 00000000000e20e0     UefiShellDebug1CommandsLib:Pci.obj
 0002:0001a108       ??_C@_1CO@PNNLGBCE@?$AAO?$AAt?$AAh?$AAe?$AAr?$AA?5?$AAi?$AAn?$AAp?$AAu?$AAt?$AA?5?$AAc?$AAo?$AAn@ 00000000000e2108     UefiShellDebug1CommandsLib:Pci.obj
 0002:0001a138       ??_C@_1DA@BIIEBDGB@?$AAG?$AAe?$AAn?$AAe?$AAr?$AAi?$AAc?$AA?5?$AAd?$AAo?$AAc?$AAk?$AAi?$AAn?$AAg@ 00000000000e2138     UefiShellDebug1CommandsLib:Pci.obj
 0002:0001a168       ??_C@_1DM@GALPNCIO@?$AAO?$AAt?$AAh?$AAe?$AAr?$AA?5?$AAt?$AAy?$AAp?$AAe?$AA?5?$AAo?$AAf?$AA?5?$AAd@ 00000000000e2168     UefiShellDebug1CommandsLib:Pci.obj
 0002:0001a1a8       ??_C@_17KMPGFGLF@?$AA3?$AA8?$AA6@ 00000000000e21a8     UefiShellDebug1CommandsLib:Pci.obj
 0002:0001a1b0       ??_C@_17KGDDFPKM@?$AA4?$AA8?$AA6@ 00000000000e21b0     UefiShellDebug1CommandsLib:Pci.obj
 0002:0001a1b8       ??_C@_1BA@LAKFAPEC@?$AAP?$AAe?$AAn?$AAt?$AAi?$AAu?$AAm@ 00000000000e21b8     UefiShellDebug1CommandsLib:Pci.obj
 0002:0001a1c8       ??_C@_1M@CPFKKKDA@?$AAA?$AAl?$AAp?$AAh?$AAa@ 00000000000e21c8     UefiShellDebug1CommandsLib:Pci.obj
 0002:0001a1d8       ??_C@_1BA@NBCIJJH@?$AAP?$AAo?$AAw?$AAe?$AAr?$AAP?$AAC@ 00000000000e21d8     UefiShellDebug1CommandsLib:Pci.obj
 0002:0001a1e8       ??_C@_19JENFGKOE@?$AAM?$AAI?$AAP?$AAS@ 00000000000e21e8     UefiShellDebug1CommandsLib:Pci.obj
 0002:0001a1f8       ??_C@_1BK@NEHJAFMH@?$AAC?$AAo?$AA?9?$AAp?$AAr?$AAo?$AAc?$AAe?$AAs?$AAs?$AAo?$AAr@ 00000000000e21f8     UefiShellDebug1CommandsLib:Pci.obj
 0002:0001a218       ??_C@_1CA@GFOGEFGB@?$AAO?$AAt?$AAh?$AAe?$AAr?$AA?5?$AAp?$AAr?$AAo?$AAc?$AAe?$AAs?$AAs?$AAo?$AAr@ 00000000000e2218     UefiShellDebug1CommandsLib:Pci.obj
 0002:0001a238       ??_C@_1BE@DKFKNFJE@?$AAI?$AAE?$AAE?$AAE?$AA?5?$AA1?$AA3?$AA9?$AA4@ 00000000000e2238     UefiShellDebug1CommandsLib:Pci.obj
 0002:0001a250       ??_C@_1BG@OFHNADDF@?$AAA?$AAC?$AAC?$AAE?$AAS?$AAS?$AA?4?$AAb?$AAu?$AAs@ 00000000000e2250     UefiShellDebug1CommandsLib:Pci.obj
 0002:0001a268       ??_C@_17OIMGJBLC@?$AAS?$AAS?$AAA@ 00000000000e2268     UefiShellDebug1CommandsLib:Pci.obj
 0002:0001a270       ??_C@_1BM@FLLLFMPO@?$AAF?$AAi?$AAb?$AAr?$AAe?$AA?5?$AAC?$AAh?$AAa?$AAn?$AAn?$AAe?$AAl@ 00000000000e2270     UefiShellDebug1CommandsLib:Pci.obj
 0002:0001a290       ??_C@_1CM@OLOJIGK@?$AAS?$AAy?$AAs?$AAt?$AAe?$AAm?$AA?5?$AAM?$AAa?$AAn?$AAa?$AAg?$AAe?$AAm?$AAe@ 00000000000e2290     UefiShellDebug1CommandsLib:Pci.obj
 0002:0001a2c0       ??_C@_1BG@PKILJGBI@?$AAI?$AAn?$AAf?$AAi?$AAn?$AAi?$AAB?$AAa?$AAn?$AAd@ 00000000000e22c0     UefiShellDebug1CommandsLib:Pci.obj
 0002:0001a2d8       ??_C@_19HOCGEGCA@?$AAI?$AAP?$AAM?$AAI@ 00000000000e22d8     UefiShellDebug1CommandsLib:Pci.obj
 0002:0001a2f0       ??_C@_1EM@LAEBEEFJ@?$AAS?$AAE?$AAR?$AAC?$AAO?$AAS?$AA?5?$AAI?$AAn?$AAt?$AAe?$AAr?$AAf?$AAa?$AAc@ 00000000000e22f0     UefiShellDebug1CommandsLib:Pci.obj
 0002:0001a340       ??_C@_1O@IIICKMFI@?$AAC?$AAA?$AAN?$AAb?$AAu?$AAs@ 00000000000e2340     UefiShellDebug1CommandsLib:Pci.obj
 0002:0001a350       ??_C@_1BO@FPNLADDK@?$AAO?$AAt?$AAh?$AAe?$AAr?$AA?5?$AAb?$AAu?$AAs?$AA?5?$AAt?$AAy?$AAp?$AAe@ 00000000000e2350     UefiShellDebug1CommandsLib:Pci.obj
 0002:0001a370       ??_C@_1DG@DBOMLJPI@?$AAi?$AAR?$AAD?$AAA?$AA?5?$AAc?$AAo?$AAm?$AAp?$AAa?$AAt?$AAi?$AAb?$AAl?$AAe@ 00000000000e2370     UefiShellDebug1CommandsLib:Pci.obj
 0002:0001a3a8       ??_C@_1BM@FGMCDKAO@?$AAR?$AAF?$AA?5?$AAc?$AAo?$AAn?$AAt?$AAr?$AAo?$AAl?$AAl?$AAe?$AAr@ 00000000000e23a8     UefiShellDebug1CommandsLib:Pci.obj
 0002:0001a3c8       ??_C@_1BE@BGEOEKA@?$AAB?$AAr?$AAo?$AAa?$AAd?$AAb?$AAa?$AAn?$AAd@ 00000000000e23c8     UefiShellDebug1CommandsLib:Pci.obj
 0002:0001a3e0       ??_C@_1DG@HAKEKOOP@?$AAE?$AAt?$AAh?$AAe?$AAr?$AAn?$AAe?$AAt?$AA?5?$AA?$CI?$AA8?$AA0?$AA2?$AA?4?$AA1@ 00000000000e23e0     UefiShellDebug1CommandsLib:Pci.obj
 0002:0001a418       ??_C@_1DK@LKPANDDE@?$AAE?$AAt?$AAh?$AAe?$AAr?$AAn?$AAe?$AAt?$AA?5?$AA?$CI?$AA8?$AA0?$AA2?$AA?4?$AA1@ 00000000000e2418     UefiShellDebug1CommandsLib:Pci.obj
 0002:0001a460       ??_C@_1EE@PIAOLOPJ@?$AAO?$AAt?$AAh?$AAe?$AAr?$AA?5?$AAt?$AAy?$AAp?$AAe?$AA?5?$AAo?$AAf?$AA?5?$AAw@ 00000000000e2460     UefiShellDebug1CommandsLib:Pci.obj
 0002:0001a4a8       ??_C@_1CC@MJHFFKLA@?$AAI?$AA2?$AAO?$AA?5?$AAA?$AAr?$AAc?$AAh?$AAi?$AAt?$AAe?$AAc?$AAt?$AAu?$AAr@ 00000000000e24a8     UefiShellDebug1CommandsLib:Pci.obj
 0002:0001a4cc       ??_C@_15DHEEEEMD@?$AAT?$AAV@ 00000000000e24cc     UefiShellDebug1CommandsLib:Pci.obj
 0002:0001a4d8       ??_C@_1M@CHJDJLFF@?$AAA?$AAu?$AAd?$AAi?$AAo@ 00000000000e24d8     UefiShellDebug1CommandsLib:Pci.obj
 0002:0001a4e8       ??_C@_1M@DKLMFINE@?$AAV?$AAo?$AAi?$AAc?$AAe@ 00000000000e24e8     UefiShellDebug1CommandsLib:Pci.obj
 0002:0001a500       ??_C@_1FC@PHCKLFJE@?$AAO?$AAt?$AAh?$AAe?$AAr?$AA?5?$AAs?$AAa?$AAt?$AAe?$AAl?$AAl?$AAi?$AAt?$AAe@ 00000000000e2500     UefiShellDebug1CommandsLib:Pci.obj
 0002:0001a560       ??_C@_1EI@GIMDOGOI@?$AAN?$AAe?$AAt?$AAw?$AAo?$AAr?$AAk?$AA?5?$AA?$CG?$AA?5?$AAc?$AAo?$AAm?$AAp?$AAu@ 00000000000e2560     UefiShellDebug1CommandsLib:Pci.obj
 0002:0001a5a8       ??_C@_1DM@IIOOLDOK@?$AAE?$AAn?$AAt?$AAe?$AAr?$AAt?$AAa?$AAi?$AAn?$AAm?$AAe?$AAn?$AAt?$AA?5?$AAE@ 00000000000e25a8     UefiShellDebug1CommandsLib:Pci.obj
 0002:0001a5e8       ??_C@_1CM@JNEDPPDM@?$AAO?$AAt?$AAh?$AAe?$AAr?$AA?5?$AAE?$AAn?$AAc?$AAr?$AAy?$AAp?$AAt?$AA?1?$AAD@ 00000000000e25e8     UefiShellDebug1CommandsLib:Pci.obj
 0002:0001a618       ??_C@_1BK@OAGPPFHN@?$AAD?$AAP?$AAI?$AAO?$AA?5?$AAm?$AAo?$AAd?$AAu?$AAl?$AAe?$AAs@ 00000000000e2618     UefiShellDebug1CommandsLib:Pci.obj
 0002:0001a638       ??_C@_1CK@LCFFEOGH@?$AAP?$AAe?$AAr?$AAf?$AAo?$AAr?$AAm?$AAa?$AAn?$AAc?$AAe?$AA?5?$AAC?$AAo?$AAu@ 00000000000e2638     UefiShellDebug1CommandsLib:Pci.obj
 0002:0001a670       ??_C@_1JC@NCFHMIHP@?$AAC?$AAo?$AAm?$AAm?$AAu?$AAn?$AAi?$AAc?$AAa?$AAt?$AAi?$AAo?$AAn?$AAs?$AA?5@ 00000000000e2670     UefiShellDebug1CommandsLib:Pci.obj
 0002:0001a708       ??_C@_1CA@JGEMEBBN@?$AAM?$AAa?$AAn?$AAa?$AAg?$AAe?$AAm?$AAe?$AAn?$AAt?$AA?5?$AAc?$AAa?$AAr?$AAd@ 00000000000e2708     UefiShellDebug1CommandsLib:Pci.obj
 0002:0001a728       ??_C@_1DG@DKBFJFCP@?$AAO?$AAt?$AAh?$AAe?$AAr?$AA?5?$AAD?$AAA?$AAQ?$AA?5?$AA?$CG?$AA?5?$AAS?$AAP?$AA?5@ 00000000000e2728     UefiShellDebug1CommandsLib:Pci.obj
 0002:0001a760       ??_C@_1CO@NDPDJMEK@?$AAP?$AAr?$AAo?$AAc?$AAe?$AAs?$AAs?$AAi?$AAn?$AAg?$AA?5?$AAA?$AAc?$AAc?$AAe@ 00000000000e2760     UefiShellDebug1CommandsLib:Pci.obj
 0002:0001a790       ??_C@_1EO@GLBMBJBC@?$AAN?$AAo?$AAn?$AA?9?$AAE?$AAs?$AAs?$AAe?$AAn?$AAt?$AAi?$AAa?$AAl?$AA?5?$AAI@ 00000000000e2790     UefiShellDebug1CommandsLib:Pci.obj
 0002:0001a7e0       ??_C@_1CA@LOKELNGO@?$AAS?$AAC?$AAS?$AAI?$AA?5?$AAc?$AAo?$AAn?$AAt?$AAr?$AAo?$AAl?$AAl?$AAe?$AAr@ 00000000000e27e0     UefiShellDebug1CommandsLib:Pci.obj
 0002:0001a800       ??_C@_1EE@BFEKJLPP@?$AAS?$AAC?$AAS?$AAI?$AA?5?$AAs?$AAt?$AAo?$AAr?$AAa?$AAg?$AAe?$AA?5?$AAd?$AAe@ 00000000000e2800     UefiShellDebug1CommandsLib:Pci.obj
 0002:0001a848       ??_C@_1DM@BJOLKNOM@?$AAS?$AAC?$AAS?$AAI?$AA?5?$AAc?$AAo?$AAn?$AAt?$AAr?$AAo?$AAl?$AAl?$AAe?$AAr@ 00000000000e2848     UefiShellDebug1CommandsLib:Pci.obj
 0002:0001a890       ??_C@_1GC@PCIOGEHB@?$AAS?$AAC?$AAS?$AAI?$AA?5?$AAs?$AAt?$AAo?$AAr?$AAa?$AAg?$AAe?$AA?5?$AAd?$AAe@ 00000000000e2890     UefiShellDebug1CommandsLib:Pci.obj
 0002:0001a900       ??_C@_1EG@FADCFPJB@?$AAS?$AAC?$AAS?$AAI?$AA?5?$AAs?$AAt?$AAo?$AAr?$AAa?$AAg?$AAe?$AA?5?$AAd?$AAe@ 00000000000e2900     UefiShellDebug1CommandsLib:Pci.obj
 0002:0001a948       ??_C@_1BG@GFFPFKKJ@?$AAO?$AAM?$AA?9?$AAp?$AAr?$AAi?$AAm?$AAa?$AAr?$AAy@ 00000000000e2948     UefiShellDebug1CommandsLib:Pci.obj
 0002:0001a960       ??_C@_1BG@FONPODPB@?$AAP?$AAI?$AA?9?$AAp?$AAr?$AAi?$AAm?$AAa?$AAr?$AAy@ 00000000000e2960     UefiShellDebug1CommandsLib:Pci.obj
 0002:0001a978       ??_C@_1BM@FDOGPGGG@?$AAO?$AAM?$AA?1?$AAP?$AAI?$AA?9?$AAp?$AAr?$AAi?$AAm?$AAa?$AAr?$AAy@ 00000000000e2978     UefiShellDebug1CommandsLib:Pci.obj
 0002:0001a998       ??_C@_1BK@IDONELAO@?$AAO?$AAM?$AA?9?$AAs?$AAe?$AAc?$AAo?$AAn?$AAd?$AAa?$AAr?$AAy@ 00000000000e2998     UefiShellDebug1CommandsLib:Pci.obj
 0002:0001a9b8       ??_C@_1DC@HICNPOMK@?$AAO?$AAM?$AA?9?$AAp?$AAr?$AAi?$AAm?$AAa?$AAr?$AAy?$AA?0?$AA?5?$AAO?$AAM?$AA?9@ 00000000000e29b8     UefiShellDebug1CommandsLib:Pci.obj
 0002:0001a9f0       ??_C@_1DC@HABNGELM@?$AAP?$AAI?$AA?9?$AAp?$AAr?$AAi?$AAm?$AAa?$AAr?$AAy?$AA?0?$AA?5?$AAO?$AAM?$AA?9@ 00000000000e29f0     UefiShellDebug1CommandsLib:Pci.obj
 0002:0001aa28       ??_C@_1DI@BICDKEO@?$AAO?$AAM?$AA?1?$AAP?$AAI?$AA?9?$AAp?$AAr?$AAi?$AAm?$AAa?$AAr?$AAy?$AA?0?$AA?5@ 00000000000e2a28     UefiShellDebug1CommandsLib:Pci.obj
 0002:0001aa60       ??_C@_1DC@DGJDGNHH@?$AAO?$AAM?$AA?9?$AAp?$AAr?$AAi?$AAm?$AAa?$AAr?$AAy?$AA?0?$AA?5?$AAP?$AAI?$AA?9@ 00000000000e2a60     UefiShellDebug1CommandsLib:Pci.obj
 0002:0001aa98       ??_C@_1DC@DOKDPHAB@?$AAP?$AAI?$AA?9?$AAp?$AAr?$AAi?$AAm?$AAa?$AAr?$AAy?$AA?0?$AA?5?$AAP?$AAI?$AA?9@ 00000000000e2a98     UefiShellDebug1CommandsLib:Pci.obj
 0002:0001aad0       ??_C@_1DI@EPDMKJPD@?$AAO?$AAM?$AA?1?$AAP?$AAI?$AA?9?$AAp?$AAr?$AAi?$AAm?$AAa?$AAr?$AAy?$AA?0?$AA?5@ 00000000000e2ad0     UefiShellDebug1CommandsLib:Pci.obj
 0002:0001ab08       ??_C@_1DI@BKJODIMD@?$AAO?$AAM?$AA?9?$AAp?$AAr?$AAi?$AAm?$AAa?$AAr?$AAy?$AA?0?$AA?5?$AAO?$AAM?$AA?1@ 00000000000e2b08     UefiShellDebug1CommandsLib:Pci.obj
 0002:0001ab40       ??_C@_1DI@KCGLEALH@?$AAP?$AAI?$AA?9?$AAp?$AAr?$AAi?$AAm?$AAa?$AAr?$AAy?$AA?0?$AA?5?$AAO?$AAM?$AA?1@ 00000000000e2b40     UefiShellDebug1CommandsLib:Pci.obj
 0002:0001ab78       ??_C@_1DO@MNACHKJK@?$AAO?$AAM?$AA?1?$AAP?$AAI?$AA?9?$AAp?$AAr?$AAi?$AAm?$AAa?$AAr?$AAy?$AA?0?$AA?5@ 00000000000e2b78     UefiShellDebug1CommandsLib:Pci.obj
 0002:0001abb8       ??_C@_1CG@PPNKKIGM@?$AAM?$AAa?$AAs?$AAt?$AAe?$AAr?$AA?0?$AA?5?$AAO?$AAM?$AA?9?$AAp?$AAr?$AAi?$AAm@ 00000000000e2bb8     UefiShellDebug1CommandsLib:Pci.obj
 0002:0001abe0       ??_C@_1CG@MEFKBBDE@?$AAM?$AAa?$AAs?$AAt?$AAe?$AAr?$AA?0?$AA?5?$AAP?$AAI?$AA?9?$AAp?$AAr?$AAi?$AAm@ 00000000000e2be0     UefiShellDebug1CommandsLib:Pci.obj
 0002:0001ac08       ??_C@_1CM@KDEABHD@?$AAM?$AAa?$AAs?$AAt?$AAe?$AAr?$AA?0?$AA?5?$AAO?$AAM?$AA?1?$AAP?$AAI?$AA?9?$AAp@ 00000000000e2c08     UefiShellDebug1CommandsLib:Pci.obj
 0002:0001ac38       ??_C@_1CK@CCBAOENA@?$AAM?$AAa?$AAs?$AAt?$AAe?$AAr?$AA?0?$AA?5?$AAO?$AAM?$AA?9?$AAs?$AAe?$AAc?$AAo@ 00000000000e2c38     UefiShellDebug1CommandsLib:Pci.obj
 0002:0001ac70       ??_C@_1EC@BNMCFFBJ@?$AAM?$AAa?$AAs?$AAt?$AAe?$AAr?$AA?0?$AA?5?$AAO?$AAM?$AA?9?$AAp?$AAr?$AAi?$AAm@ 00000000000e2c70     UefiShellDebug1CommandsLib:Pci.obj
 0002:0001acc0       ??_C@_1EC@BFPCMPGP@?$AAM?$AAa?$AAs?$AAt?$AAe?$AAr?$AA?0?$AA?5?$AAP?$AAI?$AA?9?$AAp?$AAr?$AAi?$AAm@ 00000000000e2cc0     UefiShellDebug1CommandsLib:Pci.obj
 0002:0001ad10       ??_C@_1EI@FCNPKCON@?$AAM?$AAa?$AAs?$AAt?$AAe?$AAr?$AA?0?$AA?5?$AAO?$AAM?$AA?1?$AAP?$AAI?$AA?9?$AAp@ 00000000000e2d10     UefiShellDebug1CommandsLib:Pci.obj
 0002:0001ad60       ??_C@_1EC@FDHMMGKE@?$AAM?$AAa?$AAs?$AAt?$AAe?$AAr?$AA?0?$AA?5?$AAO?$AAM?$AA?9?$AAp?$AAr?$AAi?$AAm@ 00000000000e2d60     UefiShellDebug1CommandsLib:Pci.obj
 0002:0001adb0       ??_C@_1EC@FLEMFMNC@?$AAM?$AAa?$AAs?$AAt?$AAe?$AAr?$AA?0?$AA?5?$AAP?$AAI?$AA?9?$AAp?$AAr?$AAi?$AAm@ 00000000000e2db0     UefiShellDebug1CommandsLib:Pci.obj
 0002:0001ae00       ??_C@_1EI@BMGBDBFA@?$AAM?$AAa?$AAs?$AAt?$AAe?$AAr?$AA?0?$AA?5?$AAO?$AAM?$AA?1?$AAP?$AAI?$AA?9?$AAp@ 00000000000e2e00     UefiShellDebug1CommandsLib:Pci.obj
 0002:0001ae50       ??_C@_1EI@EJMDKAGA@?$AAM?$AAa?$AAs?$AAt?$AAe?$AAr?$AA?0?$AA?5?$AAO?$AAM?$AA?9?$AAp?$AAr?$AAi?$AAm@ 00000000000e2e50     UefiShellDebug1CommandsLib:Pci.obj
 0002:0001aea0       ??_C@_1EI@PBDGNIBE@?$AAM?$AAa?$AAs?$AAt?$AAe?$AAr?$AA?0?$AA?5?$AAP?$AAI?$AA?9?$AAp?$AAr?$AAi?$AAm@ 00000000000e2ea0     UefiShellDebug1CommandsLib:Pci.obj
 0002:0001aef0       ??_C@_1EO@OEGBDCJN@?$AAM?$AAa?$AAs?$AAt?$AAe?$AAr?$AA?0?$AA?5?$AAO?$AAM?$AA?1?$AAP?$AAI?$AA?9?$AAp@ 00000000000e2ef0     UefiShellDebug1CommandsLib:Pci.obj
 0002:0001af40       ??_C@_1CA@KDAMFDGL@?$AAS?$AAi?$AAn?$AAg?$AAl?$AAe?$AA?5?$AAs?$AAt?$AAe?$AAp?$AAp?$AAi?$AAn?$AAg@ 00000000000e2f40     UefiShellDebug1CommandsLib:Pci.obj
 0002:0001af60       ??_C@_1CK@LBNIIJOF@?$AAC?$AAo?$AAn?$AAt?$AAi?$AAn?$AAu?$AAo?$AAu?$AAs?$AA?5?$AAo?$AAp?$AAe?$AAr@ 00000000000e2f60     UefiShellDebug1CommandsLib:Pci.obj
 0002:0001af90       ??_C@_19PIKFENDK@?$AAA?$AAH?$AAC?$AAI@ 00000000000e2f90     UefiShellDebug1CommandsLib:Pci.obj
 0002:0001afa0       ??_C@_1CG@LEHKELII@?$AAS?$AAe?$AAr?$AAi?$AAa?$AAl?$AA?5?$AAS?$AAt?$AAo?$AAr?$AAa?$AAg?$AAe?$AA?5@ 00000000000e2fa0     UefiShellDebug1CommandsLib:Pci.obj
 0002:0001afc8       ??_C@_1BC@GJKECLHO@?$AAO?$AAb?$AAs?$AAo?$AAl?$AAe?$AAt?$AAe@ 00000000000e2fc8     UefiShellDebug1CommandsLib:Pci.obj
 0002:0001afe0       ??_C@_1O@IJMMOBJI@?$AAN?$AAV?$AAM?$AAH?$AAC?$AAI@ 00000000000e2fe0     UefiShellDebug1CommandsLib:Pci.obj
 0002:0001aff0       ??_C@_1BI@OAKFAAAF@?$AAN?$AAV?$AAM?$AA?5?$AAE?$AAx?$AAp?$AAr?$AAe?$AAs?$AAs@ 00000000000e2ff0     UefiShellDebug1CommandsLib:Pci.obj
 0002:0001b008       ??_C@_1O@JFDJLKLO@?$AAU?$AAF?$AAS?$AAH?$AAC?$AAI@ 00000000000e3008     UefiShellDebug1CommandsLib:Pci.obj
 0002:0001b018       ??_C@_1BO@LDKLHGIO@?$AAV?$AAG?$AAA?$AA?5?$AAc?$AAo?$AAm?$AAp?$AAa?$AAt?$AAi?$AAb?$AAl?$AAe@ 00000000000e3018     UefiShellDebug1CommandsLib:Pci.obj
 0002:0001b038       ??_C@_1CA@LKBFLGHB@?$AA8?$AA5?$AA1?$AA4?$AA?5?$AAc?$AAo?$AAm?$AAp?$AAa?$AAt?$AAi?$AAb?$AAl?$AAe@ 00000000000e3038     UefiShellDebug1CommandsLib:Pci.obj
 0002:0001b058       ??_C@_1CG@BDOIBFMC@?$AAS?$AAu?$AAb?$AAt?$AAr?$AAa?$AAc?$AAt?$AAi?$AAv?$AAe?$AA?5?$AAd?$AAe?$AAc@ 00000000000e3058     UefiShellDebug1CommandsLib:Pci.obj
 0002:0001b080       ??_C@_1GM@BAGIKEEJ@?$AAP?$AAr?$AAi?$AAm?$AAa?$AAr?$AAy?$AA?5?$AAP?$AAC?$AAI?$AA?5?$AAb?$AAu?$AAs@ 00000000000e3080     UefiShellDebug1CommandsLib:Pci.obj
 0002:0001b0f0       ??_C@_1HA@EIOBAMFG@?$AAS?$AAe?$AAc?$AAo?$AAn?$AAd?$AAa?$AAr?$AAy?$AA?5?$AAP?$AAC?$AAI?$AA?5?$AAb@ 00000000000e30f0     UefiShellDebug1CommandsLib:Pci.obj
 0002:0001b160       ??_C@_1O@KKPPJBFG@?$AAC?$AAu?$AAs?$AAt?$AAo?$AAm@ 00000000000e3160     UefiShellDebug1CommandsLib:Pci.obj
 0002:0001b170       ??_C@_1CO@KMFHKOFL@?$AAA?$AAS?$AAI?$AA?9?$AAS?$AAI?$AAG?$AA?5?$AAD?$AAe?$AAf?$AAi?$AAn?$AAe?$AAd@ 00000000000e3170     UefiShellDebug1CommandsLib:Pci.obj
 0002:0001b1a0       ??_C@_1CM@BOFGGGIA@?$AAG?$AAe?$AAn?$AAe?$AAr?$AAi?$AAc?$AA?5?$AAX?$AAT?$AA?9?$AAc?$AAo?$AAm?$AAp@ 00000000000e31a0     UefiShellDebug1CommandsLib:Pci.obj
 0002:0001b1d0       ??_C@_1CC@CIGAJBCK@?$AA1?$AA6?$AA4?$AA5?$AA0?$AA?9?$AAc?$AAo?$AAm?$AAp?$AAa?$AAt?$AAi?$AAb?$AAl@ 00000000000e31d0     UefiShellDebug1CommandsLib:Pci.obj
 0002:0001b1f8       ??_C@_1CC@BEAAHCCC@?$AA1?$AA6?$AA5?$AA5?$AA0?$AA?9?$AAc?$AAo?$AAm?$AAp?$AAa?$AAt?$AAi?$AAb?$AAl@ 00000000000e31f8     UefiShellDebug1CommandsLib:Pci.obj
 0002:0001b220       ??_C@_1CC@FAKBFHDK@?$AA1?$AA6?$AA6?$AA5?$AA0?$AA?9?$AAc?$AAo?$AAm?$AAp?$AAa?$AAt?$AAi?$AAb?$AAl@ 00000000000e3220     UefiShellDebug1CommandsLib:Pci.obj
 0002:0001b248       ??_C@_1CC@GMMBLEDC@?$AA1?$AA6?$AA7?$AA5?$AA0?$AA?9?$AAc?$AAo?$AAm?$AAp?$AAa?$AAt?$AAi?$AAb?$AAl@ 00000000000e3248     UefiShellDebug1CommandsLib:Pci.obj
 0002:0001b270       ??_C@_1CC@OBJFADAL@?$AA1?$AA6?$AA8?$AA5?$AA0?$AA?9?$AAc?$AAo?$AAm?$AAp?$AAa?$AAt?$AAi?$AAb?$AAl@ 00000000000e3270     UefiShellDebug1CommandsLib:Pci.obj
 0002:0001b298       ??_C@_1CC@NNPFOAAD@?$AA1?$AA6?$AA9?$AA5?$AA0?$AA?9?$AAc?$AAo?$AAm?$AAp?$AAa?$AAt?$AAi?$AAb?$AAl@ 00000000000e3298     UefiShellDebug1CommandsLib:Pci.obj
 0002:0001b2c0       ??_C@_1BO@IFLLGKJH@?$AAB?$AAi?$AA?9?$AAd?$AAi?$AAr?$AAe?$AAc?$AAt?$AAi?$AAo?$AAn?$AAa?$AAl@ 00000000000e32c0     UefiShellDebug1CommandsLib:Pci.obj
 0002:0001b2e0       ??_C@_1CE@MAJJBDCC@?$AAE?$AAC?$AAP?$AA?5?$AA1?$AA?4?$AAX?$AA?9?$AAc?$AAo?$AAm?$AAp?$AAl?$AAi?$AAa@ 00000000000e32e0     UefiShellDebug1CommandsLib:Pci.obj
 0002:0001b308       ??_C@_1BE@DNKMAGKP@?$AAI?$AAE?$AAE?$AAE?$AA?5?$AA1?$AA2?$AA8?$AA4@ 00000000000e3308     UefiShellDebug1CommandsLib:Pci.obj
 0002:0001b320       ??_C@_1EI@FJLDGOLD@?$AAI?$AAE?$AAE?$AAE?$AA?5?$AA1?$AA2?$AA8?$AA4?$AA?5?$AAt?$AAa?$AAr?$AAg?$AAe@ 00000000000e3320     UefiShellDebug1CommandsLib:Pci.obj
 0002:0001b368       ??_C@_1BA@NGANLLNB@?$AAG?$AAe?$AAn?$AAe?$AAr?$AAi?$AAc@ 00000000000e3368     UefiShellDebug1CommandsLib:Pci.obj
 0002:0001b378       ??_C@_1CO@OBFAMHI@?$AAH?$AAa?$AAy?$AAe?$AAs?$AA?9?$AAc?$AAo?$AAm?$AAp?$AAa?$AAt?$AAi?$AAb?$AAl@ 00000000000e3378     UefiShellDebug1CommandsLib:Pci.obj
 0002:0001b3a8       ??_C@_1CO@MCLPAMOG@?$AAH?$AAa?$AAy?$AAe?$AAs?$AA?9?$AAc?$AAo?$AAm?$AAp?$AAa?$AAt?$AAi?$AAb?$AAl@ 00000000000e33a8     UefiShellDebug1CommandsLib:Pci.obj
 0002:0001b3d8       ??_C@_1CO@EMDAALAF@?$AAH?$AAa?$AAy?$AAe?$AAs?$AA?9?$AAc?$AAo?$AAm?$AAp?$AAa?$AAt?$AAi?$AAb?$AAl@ 00000000000e33d8     UefiShellDebug1CommandsLib:Pci.obj
 0002:0001b408       ??_C@_1CO@IAJKALJL@?$AAH?$AAa?$AAy?$AAe?$AAs?$AA?9?$AAc?$AAo?$AAm?$AAp?$AAa?$AAt?$AAi?$AAb?$AAl@ 00000000000e3408     UefiShellDebug1CommandsLib:Pci.obj
 0002:0001b438       ??_C@_1BK@FEJNPFJI@?$AAG?$AAe?$AAn?$AAe?$AAr?$AAi?$AAc?$AA?5?$AA8?$AA2?$AA5?$AA9@ 00000000000e3438     UefiShellDebug1CommandsLib:Pci.obj
 0002:0001b458       ??_C@_1BA@GKPFOHFO@?$AAI?$AAO?$AA?5?$AAA?$AAP?$AAI?$AAC@ 00000000000e3458     UefiShellDebug1CommandsLib:Pci.obj
 0002:0001b470       ??_C@_1EA@DHDEDKEO@?$AAI?$AAO?$AA?$CI?$AAx?$AA?$CJ?$AA?5?$AAA?$AAP?$AAI?$AAC?$AA?5?$AAi?$AAn?$AAt?$AAe@ 00000000000e3470     UefiShellDebug1CommandsLib:Pci.obj
 0002:0001b4b0       ??_C@_1BK@GCBLGBLG@?$AAG?$AAe?$AAn?$AAe?$AAr?$AAi?$AAc?$AA?5?$AA8?$AA2?$AA3?$AA7@ 00000000000e34b0     UefiShellDebug1CommandsLib:Pci.obj
 0002:0001b4d0       ??_C@_1BK@KGPHCNEF@?$AAG?$AAe?$AAn?$AAe?$AAr?$AAi?$AAc?$AA?5?$AA8?$AA2?$AA5?$AA4@ 00000000000e34d0     UefiShellDebug1CommandsLib:Pci.obj
 0002:0001b4f0       ??_C@_1DA@CHHIFNOJ@?$AAU?$AAs?$AAi?$AAn?$AAg?$AA?5?$AA1?$AA3?$AA9?$AA4?$AA?5?$AAO?$AAp?$AAe?$AAn@ 00000000000e34f0     UefiShellDebug1CommandsLib:Pci.obj
 0002:0001b520       ??_C@_19NGOAGMKI@?$AAU?$AAH?$AAC?$AAI@ 00000000000e3520     UefiShellDebug1CommandsLib:Pci.obj
 0002:0001b530       ??_C@_19OGGMHNIJ@?$AAO?$AAH?$AAC?$AAI@ 00000000000e3530     UefiShellDebug1CommandsLib:Pci.obj
 0002:0001b540       ??_C@_19PBEOONEA@?$AAE?$AAH?$AAC?$AAI@ 00000000000e3540     UefiShellDebug1CommandsLib:Pci.obj
 0002:0001b550       ??_C@_19GMEDOEMI@?$AAx?$AAH?$AAC?$AAI@ 00000000000e3550     UefiShellDebug1CommandsLib:Pci.obj
 0002:0001b560       ??_C@_1EE@DFNHODEM@?$AAN?$AAo?$AA?5?$AAs?$AAp?$AAe?$AAc?$AAi?$AAf?$AAi?$AAc?$AA?5?$AAp?$AAr?$AAo@ 00000000000e3560     UefiShellDebug1CommandsLib:Pci.obj
 0002:0001b5a8       ??_C@_1CM@KHPKJIHG@?$AA?$CI?$AAN?$AAo?$AAt?$AA?5?$AAH?$AAo?$AAs?$AAt?$AA?5?$AAC?$AAo?$AAn?$AAt?$AAr@ 00000000000e35a8     UefiShellDebug1CommandsLib:Pci.obj
 0002:0001b5d8       ??_C@_19FNDINBIJ@?$AAS?$AAM?$AAI?$AAC@ 00000000000e35d8     UefiShellDebug1CommandsLib:Pci.obj
 0002:0001b5e8       ??_C@_1DE@JKDCGLGM@?$AAK?$AAe?$AAy?$AAb?$AAo?$AAa?$AAr?$AAd?$AA?5?$AAC?$AAo?$AAn?$AAt?$AAr?$AAo@ 00000000000e35e8     UefiShellDebug1CommandsLib:Pci.obj
 0002:0001b620       ??_C@_1BO@NEKAJCNL@?$AAB?$AAl?$AAo?$AAc?$AAk?$AA?5?$AAT?$AAr?$AAa?$AAn?$AAs?$AAf?$AAe?$AAr@ 00000000000e3620     UefiShellDebug1CommandsLib:Pci.obj
 0002:0001b640       ??_C@_1CO@JPLPKLME@?$AAC?$AAo?$AAn?$AAs?$AAu?$AAm?$AAe?$AAr?$AA?5?$AAI?$AAR?$AA?5?$AAc?$AAo?$AAn@ 00000000000e3640     UefiShellDebug1CommandsLib:Pci.obj
 0002:0001b670       ??_C@_1CK@HPJMCFFA@?$AAU?$AAW?$AAB?$AA?5?$AAR?$AAa?$AAd?$AAi?$AAo?$AA?5?$AAc?$AAo?$AAn?$AAt?$AAr@ 00000000000e3670     UefiShellDebug1CommandsLib:Pci.obj
 0002:0001b6a0       ??_C@_1DG@ENMJNAED@?$AAM?$AAe?$AAs?$AAs?$AAa?$AAg?$AAe?$AA?5?$AAF?$AAI?$AAF?$AAO?$AA?5?$AAa?$AAt@ 00000000000e36a0     UefiShellDebug1CommandsLib:Pci.obj
 0002:0001b6d8       ??_C@_1BE@FIGOEEEG@?$AAU?$AAN?$AAD?$AAE?$AAF?$AAI?$AAN?$AAE?$AAD@ 00000000000e36d8     UefiShellDebug1CommandsLib:Pci.obj
 0002:0001b6f0       ??_C@_1BK@BKCDPFHG@?$AA?$CF?$AAs?$AA?5?$AA?9?$AA?5?$AA?$CF?$AAs?$AA?5?$AA?9?$AA?5?$AA?$CF?$AAs@ 00000000000e36f0     UefiShellDebug1CommandsLib:Pci.obj
 0002:0001b710       ??_C@_1BA@JNCDCOGG@?$AA?$CF?$AAs?$AA?5?$AA?9?$AA?5?$AA?$CF?$AAs@ 00000000000e3710     UefiShellDebug1CommandsLib:Pci.obj
 0002:0001b720       ??_C@_17IJAEJBBF@?$AA?9?$AAe?$AAc@ 00000000000e3720     UefiShellDebug1CommandsLib:Pci.obj
 0002:0001b728       ??_C@_1CK@LGAIPNNI@?$AAP?$AAC?$AAI?$AA?5?$AAE?$AAx?$AAp?$AAr?$AAe?$AAs?$AAs?$AA?5?$AAE?$AAn?$AAd@ 00000000000e3728     UefiShellDebug1CommandsLib:Pci.obj
 0002:0001b758       ??_C@_1DI@NBAABCOO@?$AAL?$AAe?$AAg?$AAa?$AAc?$AAy?$AA?5?$AAP?$AAC?$AAI?$AA?5?$AAE?$AAx?$AAp?$AAr@ 00000000000e3758     UefiShellDebug1CommandsLib:Pci.obj
 0002:0001b790       ??_C@_1BK@NFFICGLM@?$AAU?$AAn?$AAk?$AAn?$AAo?$AAw?$AAn?$AA?5?$AAT?$AAy?$AAp?$AAe@ 00000000000e3790     UefiShellDebug1CommandsLib:Pci.obj
 0002:0001b7b0       ??_C@_1EM@KJGCONCC@?$AAR?$AAo?$AAo?$AAt?$AA?5?$AAP?$AAo?$AAr?$AAt?$AA?5?$AAo?$AAf?$AA?5?$AAP?$AAC@ 00000000000e37b0     UefiShellDebug1CommandsLib:Pci.obj
 0002:0001b800       ??_C@_1EI@DOOOOBJL@?$AAU?$AAp?$AAs?$AAt?$AAr?$AAe?$AAa?$AAm?$AA?5?$AAP?$AAo?$AAr?$AAt?$AA?5?$AAo@ 00000000000e3800     UefiShellDebug1CommandsLib:Pci.obj
 0002:0001b850       ??_C@_1EM@LHMEPGPD@?$AAD?$AAo?$AAw?$AAn?$AAs?$AAt?$AAr?$AAe?$AAa?$AAm?$AA?5?$AAP?$AAo?$AAr?$AAt@ 00000000000e3850     UefiShellDebug1CommandsLib:Pci.obj
 0002:0001b8a0       ??_C@_1EA@IGKOLDOG@?$AAP?$AAC?$AAI?$AA?5?$AAE?$AAx?$AAp?$AAr?$AAe?$AAs?$AAs?$AA?5?$AAt?$AAo?$AA?5@ 00000000000e38a0     UefiShellDebug1CommandsLib:Pci.obj
 0002:0001b8e0       ??_C@_1EA@KFIDJNJK@?$AAP?$AAC?$AAI?$AA?1?$AAP?$AAC?$AAI?$AA?9?$AAX?$AA?5?$AAt?$AAo?$AA?5?$AAP?$AAC@ 00000000000e38e0     UefiShellDebug1CommandsLib:Pci.obj
 0002:0001b920       ??_C@_1EC@DNMCNNFH@?$AAR?$AAo?$AAo?$AAt?$AA?5?$AAC?$AAo?$AAm?$AAp?$AAl?$AAe?$AAx?$AA?5?$AAI?$AAn@ 00000000000e3920     UefiShellDebug1CommandsLib:Pci.obj
 0002:0001b968       ??_C@_1BO@IAHCGMHK@?$AAL?$AAe?$AAs?$AAs?$AA?5?$AAt?$AAh?$AAa?$AAn?$AA?5?$AA6?$AA4?$AAn?$AAs@ 00000000000e3968     UefiShellDebug1CommandsLib:Pci.obj
 0002:0001b988       ??_C@_1DA@HJJJPCKH@?$AA6?$AA4?$AAn?$AAs?$AA?5?$AAt?$AAo?$AA?5?$AAl?$AAe?$AAs?$AAs?$AA?5?$AAt?$AAh@ 00000000000e3988     UefiShellDebug1CommandsLib:Pci.obj
 0002:0001b9b8       ??_C@_1DC@HICECCOG@?$AA1?$AA2?$AA8?$AAn?$AAs?$AA?5?$AAt?$AAo?$AA?5?$AAl?$AAe?$AAs?$AAs?$AA?5?$AAt@ 00000000000e39b8     UefiShellDebug1CommandsLib:Pci.obj
 0002:0001b9f0       ??_C@_1DC@PFEAEAJO@?$AA2?$AA5?$AA6?$AAn?$AAs?$AA?5?$AAt?$AAo?$AA?5?$AAl?$AAe?$AAs?$AAs?$AA?5?$AAt@ 00000000000e39f0     UefiShellDebug1CommandsLib:Pci.obj
 0002:0001ba28       ??_C@_1CO@FDINLBAE@?$AA5?$AA1?$AA2?$AAn?$AAs?$AA?5?$AAt?$AAo?$AA?5?$AAl?$AAe?$AAs?$AAs?$AA?5?$AAt@ 00000000000e3a28     UefiShellDebug1CommandsLib:Pci.obj
 0002:0001ba58       ??_C@_1CK@DFGAJBII@?$AA1?$AAu?$AAs?$AA?5?$AAt?$AAo?$AA?5?$AAl?$AAe?$AAs?$AAs?$AA?5?$AAt?$AAh?$AAa@ 00000000000e3a58     UefiShellDebug1CommandsLib:Pci.obj
 0002:0001ba88       ??_C@_1BA@MBKFBMOB@?$AA2?$AAu?$AAs?$AA?9?$AA4?$AAu?$AAs@ 00000000000e3a88     UefiShellDebug1CommandsLib:Pci.obj
 0002:0001ba98       ??_C@_1BM@IHLKEDHF@?$AAM?$AAo?$AAr?$AAe?$AA?5?$AAt?$AAh?$AAa?$AAn?$AA?5?$AA4?$AAu?$AAs@ 00000000000e3a98     UefiShellDebug1CommandsLib:Pci.obj
 0002:0001bab8       ??_C@_1BM@NEKPKDDJ@?$AAL?$AAe?$AAs?$AAs?$AA?5?$AAt?$AAh?$AAa?$AAn?$AA?5?$AA1?$AAu?$AAs@ 00000000000e3ab8     UefiShellDebug1CommandsLib:Pci.obj
 0002:0001bad8       ??_C@_1CK@MLDEBDHM@?$AA2?$AAu?$AAs?$AA?5?$AAt?$AAo?$AA?5?$AAl?$AAe?$AAs?$AAs?$AA?5?$AAt?$AAh?$AAa@ 00000000000e3ad8     UefiShellDebug1CommandsLib:Pci.obj
 0002:0001bb08       ??_C@_1CK@OMOMBANF@?$AA4?$AAu?$AAs?$AA?5?$AAt?$AAo?$AA?5?$AAl?$AAe?$AAs?$AAs?$AA?5?$AAt?$AAh?$AAa@ 00000000000e3b08     UefiShellDebug1CommandsLib:Pci.obj
 0002:0001bb38       ??_C@_1CM@DHLMOLKA@?$AA8?$AAu?$AAs?$AA?5?$AAt?$AAo?$AA?5?$AAl?$AAe?$AAs?$AAs?$AA?5?$AAt?$AAh?$AAa@ 00000000000e3b38     UefiShellDebug1CommandsLib:Pci.obj
 0002:0001bb68       ??_C@_1CO@FGMGHCAD@?$AA1?$AA6?$AAu?$AAs?$AA?5?$AAt?$AAo?$AA?5?$AAl?$AAe?$AAs?$AAs?$AA?5?$AAt?$AAh@ 00000000000e3b68     UefiShellDebug1CommandsLib:Pci.obj
 0002:0001bb98       ??_C@_1BE@CACIEDEC@?$AA3?$AA2?$AAu?$AAs?$AA?9?$AA6?$AA4?$AAu?$AAs@ 00000000000e3b98     UefiShellDebug1CommandsLib:Pci.obj
 0002:0001bbb0       ??_C@_1BO@PDIMOEAC@?$AAM?$AAo?$AAr?$AAe?$AA?5?$AAt?$AAh?$AAa?$AAn?$AA?5?$AA6?$AA4?$AAu?$AAs@ 00000000000e3bb0     UefiShellDebug1CommandsLib:Pci.obj
 0002:0001bbd0       ??_C@_1BC@FGCJDNHA@?$AAD?$AAi?$AAs?$AAa?$AAb?$AAl?$AAe?$AAd@ 00000000000e3bd0     UefiShellDebug1CommandsLib:Pci.obj
 0002:0001bbe8       ??_C@_1CE@MOLMINKE@?$AAL?$AA0?$AAs?$AA?5?$AAE?$AAn?$AAt?$AAr?$AAy?$AA?5?$AAE?$AAn?$AAa?$AAb?$AAl@ 00000000000e3be8     UefiShellDebug1CommandsLib:Pci.obj
 0002:0001bc10       ??_C@_1CC@EGKEAOOB@?$AAL?$AA1?$AA?5?$AAE?$AAn?$AAt?$AAr?$AAy?$AA?5?$AAE?$AAn?$AAa?$AAb?$AAl?$AAe@ 00000000000e3c10     UefiShellDebug1CommandsLib:Pci.obj
 0002:0001bc38       ??_C@_1DC@OOCMPFKO@?$AAL?$AA0?$AAs?$AA?5?$AAa?$AAn?$AAd?$AA?5?$AAL?$AA1?$AA?5?$AAE?$AAn?$AAt?$AAr@ 00000000000e3c38     UefiShellDebug1CommandsLib:Pci.obj
 0002:0001bc70       ??_C@_19NNEJIBDF@?$AA1?$AA?4?$AA0?$AAx@ 00000000000e3c70     UefiShellDebug1CommandsLib:Pci.obj
 0002:0001bc80       ??_C@_19PJNHDJKO@?$AA0?$AA?4?$AA1?$AAx@ 00000000000e3c80     UefiShellDebug1CommandsLib:Pci.obj
 0002:0001bc90       ??_C@_1M@CFPHDDPB@?$AA0?$AA?4?$AA0?$AA1?$AAx@ 00000000000e3c90     UefiShellDebug1CommandsLib:Pci.obj
 0002:0001bca0       ??_C@_1O@PIABEHFE@?$AA0?$AA?4?$AA0?$AA0?$AA1?$AAx@ 00000000000e3ca0     UefiShellDebug1CommandsLib:Pci.obj
 0002:0001bcb0       ??_C@_15GLMKGGNF@?$AAO?$AAn@ 00000000000e3cb0     UefiShellDebug1CommandsLib:Pci.obj
 0002:0001bcb8       ??_C@_1M@ICNEFBLJ@?$AAB?$AAl?$AAi?$AAn?$AAk@ 00000000000e3cb8     UefiShellDebug1CommandsLib:Pci.obj
 0002:0001bcc8       ??_C@_17KKIALEEP@?$AAO?$AAf?$AAf@ 00000000000e3cc8     UefiShellDebug1CommandsLib:Pci.obj
 0002:0001bcd0       ??_C@_1BBM@JHICLPHO@?$AA?6?$AAE?$AAr?$AAr?$AAo?$AAr?$AA?3?$AA?5?$AAR?$AAe?$AAq?$AAu?$AAe?$AAs?$AAt@ 00000000000e3cd0     UefiShellDebug1CommandsLib:Pci.obj
 0002:0001bdf0       ??_C@_0EP@NKCCJBMM@D?3?2develop?2Self_develop?2edk2?2Sh@ 00000000000e3df0     UefiShellDebug1CommandsLib:Pci.obj
 0002:0001be40       ??_C@_1JI@DIBCOKEL@?$AA?$AN?$AA?6?$AA?$CF?$AAH?$AAS?$AAt?$AAa?$AAr?$AAt?$AA?5?$AAd?$AAu?$AAm?$AAp?$AAi@ 00000000000e3e40     UefiShellDebug1CommandsLib:Pci.obj
 0002:0001bee0       ??_C@_1GC@IOBLCMJB@?$AA?5?$AA?5?$AAC?$AAa?$AAp?$AAa?$AAb?$AAi?$AAl?$AAi?$AAt?$AAy?$AA?5?$AAV?$AAe@ 00000000000e3ee0     UefiShellDebug1CommandsLib:Pci.obj
 0002:0001bf50       ??_C@_1FK@OIGKJCNB@?$AA?5?$AA?5?$AAD?$AAe?$AAv?$AAi?$AAc?$AAe?$AA?1?$AAP?$AAo?$AAr?$AAt?$AAT?$AAy@ 00000000000e3f50     UefiShellDebug1CommandsLib:Pci.obj
 0002:0001bfb0       ??_C@_1FK@KEMDJDCE@?$AA?5?$AA?5?$AAS?$AAl?$AAo?$AAt?$AA?5?$AAI?$AAm?$AAp?$AAl?$AAe?$AAm?$AAe?$AAn@ 00000000000e3fb0     UefiShellDebug1CommandsLib:Pci.obj
 0002:0001c010       ??_C@_1GC@FONILIJO@?$AA?5?$AA?5?$AAI?$AAn?$AAt?$AAe?$AAr?$AAr?$AAu?$AAp?$AAt?$AA?5?$AAM?$AAe?$AAs@ 00000000000e4010     UefiShellDebug1CommandsLib:Pci.obj
 0002:0001c080       ??_C@_1FK@NPFDPGMM@?$AA?5?$AA?5?$AAM?$AAa?$AAx?$AA_?$AAP?$AAa?$AAy?$AAl?$AAo?$AAa?$AAd?$AA_?$AAS@ 00000000000e4080     UefiShellDebug1CommandsLib:Pci.obj
 0002:0001c0e0       ??_C@_1BO@OLMPP@?$AA?$CF?$AAE?$AA?$CF?$AAd?$AA?5?$AAb?$AAy?$AAt?$AAe?$AAs?$AA?$CF?$AAN?$AA?$AN?$AA?6@ 00000000000e40e0     UefiShellDebug1CommandsLib:Pci.obj
 0002:0001c100       ??_C@_1BM@CDEMNAKC@?$AA?$CF?$AAE?$AAU?$AAn?$AAk?$AAn?$AAo?$AAw?$AAn?$AA?$CF?$AAN?$AA?$AN?$AA?6@ 00000000000e4100     UefiShellDebug1CommandsLib:Pci.obj
 0002:0001c120       ??_C@_1GK@FMJEGDJO@?$AA?5?$AA?5?$AAP?$AAh?$AAa?$AAn?$AAt?$AAo?$AAm?$AA?5?$AAF?$AAu?$AAn?$AAc?$AAt@ 00000000000e4120     UefiShellDebug1CommandsLib:Pci.obj
 0002:0001c190       ??_C@_1JK@GDJHHFPD@?$AA?5?$AA?5?$AAE?$AAx?$AAt?$AAe?$AAn?$AAd?$AAe?$AAd?$AA?5?$AAT?$AAa?$AAg?$AA?5@ 00000000000e4190     UefiShellDebug1CommandsLib:Pci.obj
 0002:0001c230       ??_C@_1FK@DEGMCBMF@?$AA?5?$AA?5?$AAE?$AAn?$AAd?$AAp?$AAo?$AAi?$AAn?$AAt?$AA?5?$AAL?$AA0?$AAs?$AA?5@ 00000000000e4230     UefiShellDebug1CommandsLib:Pci.obj
 0002:0001c290       ??_C@_1CO@KHCIHDMD@?$AA?$CF?$AAE?$AAM?$AAa?$AAx?$AAi?$AAm?$AAu?$AAm?$AA?5?$AAo?$AAf?$AA?5?$AA?$CF?$AAd@ 00000000000e4290     UefiShellDebug1CommandsLib:Pci.obj
 0002:0001c2c0       ??_C@_1CO@IOKCHEEC@?$AA?$CF?$AAE?$AAM?$AAa?$AAx?$AAi?$AAm?$AAu?$AAm?$AA?5?$AAo?$AAf?$AA?5?$AA?$CF?$AAd@ 00000000000e42c0     UefiShellDebug1CommandsLib:Pci.obj
 0002:0001c2f0       ??_C@_1BO@DEAGGBCC@?$AA?$CF?$AAE?$AAN?$AAo?$AA?5?$AAl?$AAi?$AAm?$AAi?$AAt?$AA?$CF?$AAN?$AA?$AN?$AA?6@ 00000000000e42f0     UefiShellDebug1CommandsLib:Pci.obj
 0002:0001c310       ??_C@_1FK@IEAAEIBG@?$AA?5?$AA?5?$AAE?$AAn?$AAd?$AAp?$AAo?$AAi?$AAn?$AAt?$AA?5?$AAL?$AA1?$AA?5?$AAA@ 00000000000e4310     UefiShellDebug1CommandsLib:Pci.obj
 0002:0001c370       ??_C@_1GK@GIGLEIEC@?$AA?5?$AA?5?$AAR?$AAo?$AAl?$AAe?$AA?9?$AAb?$AAa?$AAs?$AAe?$AAd?$AA?5?$AAE?$AAr@ 00000000000e4370     UefiShellDebug1CommandsLib:Pci.obj
 0002:0001c3e0       ??_C@_1HC@CBDBOADF@?$AA?5?$AA?5?$AAC?$AAa?$AAp?$AAt?$AAu?$AAr?$AAe?$AAd?$AA?5?$AAS?$AAl?$AAo?$AAt@ 00000000000e43e0     UefiShellDebug1CommandsLib:Pci.obj
 0002:0001c460       ??_C@_1GK@NGJPMHJI@?$AA?5?$AA?5?$AAC?$AAa?$AAp?$AAt?$AAu?$AAr?$AAe?$AAd?$AA?5?$AAS?$AAl?$AAo?$AAt@ 00000000000e4460     UefiShellDebug1CommandsLib:Pci.obj
 0002:0001c4d0       ??_C@_1GK@JIFHJGKP@?$AA?5?$AA?5?$AAF?$AAu?$AAn?$AAc?$AAt?$AAi?$AAo?$AAn?$AA?5?$AAL?$AAe?$AAv?$AAe@ 00000000000e44d0     UefiShellDebug1CommandsLib:Pci.obj
 0002:0001c540       ??_C@_1GK@FGJNFMLD@?$AA?5?$AA?5?$AAC?$AAo?$AAr?$AAr?$AAe?$AAc?$AAt?$AAa?$AAb?$AAl?$AAe?$AA?5?$AAE@ 00000000000e4540     UefiShellDebug1CommandsLib:Pci.obj
 0002:0001c5b0       ??_C@_1GK@ENPGOHN@?$AA?5?$AA?5?$AAN?$AAo?$AAn?$AA?9?$AAF?$AAa?$AAt?$AAa?$AAl?$AA?5?$AAE?$AAr?$AAr@ 00000000000e45b0     UefiShellDebug1CommandsLib:Pci.obj
 0002:0001c620       ??_C@_1GK@KNGICADE@?$AA?5?$AA?5?$AAF?$AAa?$AAt?$AAa?$AAl?$AA?5?$AAE?$AAr?$AAr?$AAo?$AAr?$AA?5?$AAR@ 00000000000e4620     UefiShellDebug1CommandsLib:Pci.obj
 0002:0001c690       ??_C@_1GK@PEFNOOJJ@?$AA?5?$AA?5?$AAU?$AAn?$AAs?$AAu?$AAp?$AAp?$AAo?$AAr?$AAt?$AAe?$AAd?$AA?5?$AAR@ 00000000000e4690     UefiShellDebug1CommandsLib:Pci.obj
 0002:0001c700       ??_C@_1GK@KNAFJEEN@?$AA?5?$AA?5?$AAE?$AAn?$AAa?$AAb?$AAl?$AAe?$AA?5?$AAR?$AAe?$AAl?$AAa?$AAx?$AAe@ 00000000000e4700     UefiShellDebug1CommandsLib:Pci.obj
 0002:0001c770       ??_C@_1FK@DOIMONG@?$AA?5?$AA?5?$AAM?$AAa?$AAx?$AA_?$AAP?$AAa?$AAy?$AAl?$AAo?$AAa?$AAd?$AA_?$AAS@ 00000000000e4770     UefiShellDebug1CommandsLib:Pci.obj
 0002:0001c7d0       ??_C@_1GK@NDFLOBEB@?$AA?5?$AA?5?$AAE?$AAx?$AAt?$AAe?$AAn?$AAd?$AAe?$AAd?$AA?5?$AAT?$AAa?$AAg?$AA?5@ 00000000000e47d0     UefiShellDebug1CommandsLib:Pci.obj
 0002:0001c840       ??_C@_1GK@JOCEMCGI@?$AA?5?$AA?5?$AAP?$AAh?$AAa?$AAn?$AAt?$AAo?$AAm?$AA?5?$AAF?$AAu?$AAn?$AAc?$AAt@ 00000000000e4840     UefiShellDebug1CommandsLib:Pci.obj
 0002:0001c8b0       ??_C@_1GK@DIPPPKNF@?$AA?5?$AA?5?$AAA?$AAu?$AAx?$AAi?$AAl?$AAi?$AAa?$AAr?$AAy?$AA?5?$AA?$CI?$AAA?$AAU@ 00000000000e48b0     UefiShellDebug1CommandsLib:Pci.obj
 0002:0001c920       ??_C@_1GK@BHBAOJJF@?$AA?5?$AA?5?$AAE?$AAn?$AAa?$AAb?$AAl?$AAe?$AA?5?$AAN?$AAo?$AA?5?$AAS?$AAn?$AAo@ 00000000000e4920     UefiShellDebug1CommandsLib:Pci.obj
 0002:0001c990       ??_C@_1FK@LLANKGGK@?$AA?5?$AA?5?$AAM?$AAa?$AAx?$AA_?$AAR?$AAe?$AAa?$AAd?$AA_?$AAR?$AAe?$AAq?$AAu@ 00000000000e4990     UefiShellDebug1CommandsLib:Pci.obj
 0002:0001c9f0       ??_C@_1GG@OFHJCJFD@?$AA?5?$AA?5?$AAB?$AAr?$AAi?$AAd?$AAg?$AAe?$AA?5?$AAC?$AAo?$AAn?$AAf?$AAi?$AAg@ 00000000000e49f0     UefiShellDebug1CommandsLib:Pci.obj
 0002:0001ca60       ??_C@_1GK@BINMDEJF@?$AA?5?$AA?5?$AAC?$AAo?$AAr?$AAr?$AAe?$AAc?$AAt?$AAa?$AAb?$AAl?$AAe?$AA?5?$AAE@ 00000000000e4a60     UefiShellDebug1CommandsLib:Pci.obj
 0002:0001cad0       ??_C@_1GK@EDPIDOEM@?$AA?5?$AA?5?$AAN?$AAo?$AAn?$AA?9?$AAF?$AAa?$AAt?$AAa?$AAl?$AA?5?$AAE?$AAr?$AAr@ 00000000000e4ad0     UefiShellDebug1CommandsLib:Pci.obj
 0002:0001cb40       ??_C@_1GK@MNNNPGMB@?$AA?5?$AA?5?$AAF?$AAa?$AAt?$AAa?$AAl?$AA?5?$AAE?$AAr?$AAr?$AAo?$AAr?$AA?5?$AAD@ 00000000000e4b40     UefiShellDebug1CommandsLib:Pci.obj
 0002:0001cbb0       ??_C@_1GK@BJCBKOPC@?$AA?5?$AA?5?$AAU?$AAn?$AAs?$AAu?$AAp?$AAp?$AAo?$AAr?$AAt?$AAe?$AAd?$AA?5?$AAR@ 00000000000e4bb0     UefiShellDebug1CommandsLib:Pci.obj
 0002:0001cc20       ??_C@_1GK@HPMFLNAP@?$AA?5?$AA?5?$AAA?$AAU?$AAX?$AA?5?$AAP?$AAo?$AAw?$AAe?$AAr?$AA?5?$AAD?$AAe?$AAt@ 00000000000e4c20     UefiShellDebug1CommandsLib:Pci.obj
 0002:0001cc90       ??_C@_1GK@LEJACGLB@?$AA?5?$AA?5?$AAT?$AAr?$AAa?$AAn?$AAs?$AAa?$AAc?$AAt?$AAi?$AAo?$AAn?$AAs?$AA?5@ 00000000000e4c90     UefiShellDebug1CommandsLib:Pci.obj
 0002:0001cd00       ??_C@_1BC@MMFGJKJK@?$AA2?$AA?4?$AA5?$AA?5?$AAG?$AAT?$AA?1?$AAs@ 00000000000e4d00     UefiShellDebug1CommandsLib:Pci.obj
 0002:0001cd18       ??_C@_1BC@KJNLPOJD@?$AA5?$AA?4?$AA0?$AA?5?$AAG?$AAT?$AA?1?$AAs@ 00000000000e4d18     UefiShellDebug1CommandsLib:Pci.obj
 0002:0001cd30       ??_C@_1BC@FKHADBHI@?$AA8?$AA?4?$AA0?$AA?5?$AAG?$AAT?$AA?1?$AAs@ 00000000000e4d30     UefiShellDebug1CommandsLib:Pci.obj
 0002:0001cd48       ??_C@_1BE@LEMOLHFJ@?$AA1?$AA6?$AA?4?$AA0?$AA?5?$AAG?$AAT?$AA?1?$AAs@ 00000000000e4d48     UefiShellDebug1CommandsLib:Pci.obj
 0002:0001cd60       ??_C@_1BE@HFKIBGND@?$AA3?$AA2?$AA?4?$AA0?$AA?5?$AAG?$AAT?$AA?1?$AAs@ 00000000000e4d60     UefiShellDebug1CommandsLib:Pci.obj
 0002:0001cd78       ??_C@_1BE@FAFOHKEJ@?$AA6?$AA4?$AA?4?$AA0?$AA?5?$AAG?$AAT?$AA?1?$AAs@ 00000000000e4d78     UefiShellDebug1CommandsLib:Pci.obj
 0002:0001cd90       ??_C@_1HO@BFOKIJPF@?$AA?5?$AA?5?$AAM?$AAa?$AAx?$AAi?$AAm?$AAu?$AAm?$AA?5?$AAL?$AAi?$AAn?$AAk?$AA?5@ 00000000000e4d90     UefiShellDebug1CommandsLib:Pci.obj
 0002:0001ce10       ??_C@_1IA@FKPHADIH@?$AA?5?$AA?5?$AAM?$AAa?$AAx?$AAi?$AAm?$AAu?$AAm?$AA?5?$AAL?$AAi?$AAn?$AAk?$AA?5@ 00000000000e4e10     UefiShellDebug1CommandsLib:Pci.obj
 0002:0001ce90       ??_C@_17LLDFHKAN@?$AAN?$AAo?$AAt@ 00000000000e4e90     UefiShellDebug1CommandsLib:Pci.obj
 0002:0001ce98       ??_C@_17JJBPPPOL@?$AAL?$AA0?$AAs@ 00000000000e4e98     UefiShellDebug1CommandsLib:Pci.obj
 0002:0001cea0       ??_C@_15HODAALIP@?$AAL?$AA1@ 00000000000e4ea0     UefiShellDebug1CommandsLib:Pci.obj
 0002:0001cea8       ??_C@_1BG@HHFHFDGH@?$AAL?$AA0?$AAs?$AA?5?$AAa?$AAn?$AAd?$AA?5?$AAL?$AA1@ 00000000000e4ea8     UefiShellDebug1CommandsLib:Pci.obj
 0002:0001cec0       ??_C@_1JC@POMDGFJL@?$AA?5?$AA?5?$AAA?$AAc?$AAt?$AAi?$AAv?$AAe?$AA?5?$AAS?$AAt?$AAa?$AAt?$AAe?$AA?5@ 00000000000e4ec0     UefiShellDebug1CommandsLib:Pci.obj
 0002:0001cf60       ??_C@_1HO@NKEIDOOB@?$AA?5?$AA?5?$AAL?$AA0?$AAs?$AA?5?$AAE?$AAx?$AAi?$AAt?$AA?5?$AAL?$AAa?$AAt?$AAe@ 00000000000e4f60     UefiShellDebug1CommandsLib:Pci.obj
 0002:0001cfe0       ??_C@_1HO@BLGJHOAB@?$AA?5?$AA?5?$AAL?$AA1?$AA?5?$AAE?$AAx?$AAi?$AAt?$AA?5?$AAL?$AAa?$AAt?$AAe?$AAn@ 00000000000e4fe0     UefiShellDebug1CommandsLib:Pci.obj
 0002:0001d060       ??_C@_1HO@HGACLBBN@?$AA?5?$AA?5?$AAC?$AAl?$AAo?$AAc?$AAk?$AA?5?$AAP?$AAo?$AAw?$AAe?$AAr?$AA?5?$AAM@ 00000000000e5060     UefiShellDebug1CommandsLib:Pci.obj
 0002:0001d0e0       ??_C@_1HO@MGNBADFC@?$AA?5?$AA?5?$AAS?$AAu?$AAr?$AAp?$AAr?$AAi?$AAs?$AAe?$AA?5?$AAD?$AAo?$AAw?$AAn@ 00000000000e50e0     UefiShellDebug1CommandsLib:Pci.obj
 0002:0001d160       ??_C@_1HO@EKMMKHE@?$AA?5?$AA?5?$AAD?$AAa?$AAt?$AAa?$AA?5?$AAL?$AAi?$AAn?$AAk?$AA?5?$AAL?$AAa?$AAy@ 00000000000e5160     UefiShellDebug1CommandsLib:Pci.obj
 0002:0001d1e0       ??_C@_1HO@BLBMJKEI@?$AA?5?$AA?5?$AAL?$AAi?$AAn?$AAk?$AA?5?$AAB?$AAa?$AAn?$AAd?$AAw?$AAi?$AAd?$AAt@ 00000000000e51e0     UefiShellDebug1CommandsLib:Pci.obj
 0002:0001d260       ??_C@_1IG@BGGCJOF@?$AA?5?$AA?5?$AAP?$AAo?$AAr?$AAt?$AA?5?$AAN?$AAu?$AAm?$AAb?$AAe?$AAr?$AA?$CI?$AA3@ 00000000000e5260     UefiShellDebug1CommandsLib:Pci.obj
 0002:0001d2f0       ??_C@_1HO@PGCJOKAE@?$AA?5?$AA?5?$AAA?$AAc?$AAt?$AAi?$AAv?$AAe?$AA?5?$AAS?$AAt?$AAa?$AAt?$AAe?$AA?5@ 00000000000e52f0     UefiShellDebug1CommandsLib:Pci.obj
 0002:0001d370       ??_C@_1II@IFDMMLML@?$AA?5?$AA?5?$AAR?$AAe?$AAa?$AAd?$AA?5?$AAC?$AAo?$AAm?$AAp?$AAl?$AAe?$AAt?$AAi@ 00000000000e5370     UefiShellDebug1CommandsLib:Pci.obj
 0002:0001d400       ??_C@_1HO@KENJMJBG@?$AA?5?$AA?5?$AAL?$AAi?$AAn?$AAk?$AA?5?$AAD?$AAi?$AAs?$AAa?$AAb?$AAl?$AAe?$AA?$CI@ 00000000000e5400     UefiShellDebug1CommandsLib:Pci.obj
 0002:0001d480       ??_C@_1HO@EOPOHPHO@?$AA?5?$AA?5?$AAC?$AAo?$AAm?$AAm?$AAo?$AAn?$AA?5?$AAC?$AAl?$AAo?$AAc?$AAk?$AA?5@ 00000000000e5480     UefiShellDebug1CommandsLib:Pci.obj
 0002:0001d500       ??_C@_1HO@PCFCBCBK@?$AA?5?$AA?5?$AAE?$AAx?$AAt?$AAe?$AAn?$AAd?$AAe?$AAd?$AA?5?$AAS?$AAy?$AAn?$AAc@ 00000000000e5500     UefiShellDebug1CommandsLib:Pci.obj
 0002:0001d580       ??_C@_1HO@ONMDCMJB@?$AA?5?$AA?5?$AAE?$AAn?$AAa?$AAb?$AAl?$AAe?$AA?5?$AAC?$AAl?$AAo?$AAc?$AAk?$AA?5@ 00000000000e5580     UefiShellDebug1CommandsLib:Pci.obj
 0002:0001d600       ??_C@_1HO@KLHLOFFG@?$AA?5?$AA?5?$AAH?$AAa?$AAr?$AAd?$AAw?$AAa?$AAr?$AAe?$AA?5?$AAA?$AAu?$AAt?$AAo@ 00000000000e5600     UefiShellDebug1CommandsLib:Pci.obj
 0002:0001d680       ??_C@_1HO@OLNOLBIG@?$AA?5?$AA?5?$AAL?$AAi?$AAn?$AAk?$AA?5?$AAB?$AAa?$AAn?$AAd?$AAw?$AAi?$AAd?$AAt@ 00000000000e5680     UefiShellDebug1CommandsLib:Pci.obj
 0002:0001d700       ??_C@_1HO@CKJDBHKB@?$AA?5?$AA?5?$AAL?$AAi?$AAn?$AAk?$AA?5?$AAA?$AAu?$AAt?$AAo?$AAn?$AAo?$AAm?$AAo@ 00000000000e5700     UefiShellDebug1CommandsLib:Pci.obj
 0002:0001d780       ??_C@_1HO@FACFEDDH@?$AA?5?$AA?5?$AAC?$AAu?$AAr?$AAr?$AAe?$AAn?$AAt?$AA?5?$AAL?$AAi?$AAn?$AAk?$AA?5@ 00000000000e5780     UefiShellDebug1CommandsLib:Pci.obj
 0002:0001d800       ??_C@_1IA@FLJDNCHJ@?$AA?5?$AA?5?$AAN?$AAe?$AAg?$AAo?$AAt?$AAi?$AAa?$AAt?$AAe?$AAd?$AA?5?$AAL?$AAi@ 00000000000e5800     UefiShellDebug1CommandsLib:Pci.obj
 0002:0001d880       ??_C@_1HO@GEMKBANG@?$AA?5?$AA?5?$AAL?$AAi?$AAn?$AAk?$AA?5?$AAT?$AAr?$AAa?$AAi?$AAn?$AAi?$AAn?$AAg@ 00000000000e5880     UefiShellDebug1CommandsLib:Pci.obj
 0002:0001d900       ??_C@_1HO@EJKKKOMM@?$AA?5?$AA?5?$AAS?$AAl?$AAo?$AAt?$AA?5?$AAC?$AAl?$AAo?$AAc?$AAk?$AA?5?$AAC?$AAo@ 00000000000e5900     UefiShellDebug1CommandsLib:Pci.obj
 0002:0001d980       ??_C@_1HO@OCIHIJDB@?$AA?5?$AA?5?$AAD?$AAa?$AAt?$AAa?$AA?5?$AAL?$AAi?$AAn?$AAk?$AA?5?$AAL?$AAa?$AAy@ 00000000000e5980     UefiShellDebug1CommandsLib:Pci.obj
 0002:0001da00       ??_C@_1HO@GNJLEODF@?$AA?5?$AA?5?$AAL?$AAi?$AAn?$AAk?$AA?5?$AAB?$AAa?$AAn?$AAd?$AAw?$AAi?$AAd?$AAt@ 00000000000e5a00     UefiShellDebug1CommandsLib:Pci.obj
 0002:0001da80       ??_C@_1HO@IJPBBAJC@?$AA?5?$AA?5?$AAL?$AAi?$AAn?$AAk?$AA?5?$AAA?$AAu?$AAt?$AAo?$AAn?$AAo?$AAm?$AAo@ 00000000000e5a80     UefiShellDebug1CommandsLib:Pci.obj
 0002:0001db00       ??_C@_1HO@JJFLBGML@?$AA?5?$AA?5?$AAA?$AAt?$AAt?$AAe?$AAn?$AAt?$AAi?$AAo?$AAn?$AA?5?$AAB?$AAu?$AAt@ 00000000000e5b00     UefiShellDebug1CommandsLib:Pci.obj
 0002:0001db80       ??_C@_1HO@IEGGKKNI@?$AA?5?$AA?5?$AAP?$AAo?$AAw?$AAe?$AAr?$AA?5?$AAC?$AAo?$AAn?$AAt?$AAr?$AAo?$AAl@ 00000000000e5b80     UefiShellDebug1CommandsLib:Pci.obj
 0002:0001dc00       ??_C@_1HO@JLADNJFD@?$AA?5?$AA?5?$AAM?$AAR?$AAL?$AA?5?$AAS?$AAe?$AAn?$AAs?$AAo?$AAr?$AA?5?$AAP?$AAr@ 00000000000e5c00     UefiShellDebug1CommandsLib:Pci.obj
 0002:0001dc80       ??_C@_1HO@DIFAEIHC@?$AA?5?$AA?5?$AAA?$AAt?$AAt?$AAe?$AAn?$AAt?$AAi?$AAo?$AAn?$AA?5?$AAI?$AAn?$AAd@ 00000000000e5c80     UefiShellDebug1CommandsLib:Pci.obj
 0002:0001dd00       ??_C@_1HO@BCFFALPG@?$AA?5?$AA?5?$AAP?$AAo?$AAw?$AAe?$AAr?$AA?5?$AAI?$AAn?$AAd?$AAi?$AAc?$AAa?$AAt@ 00000000000e5d00     UefiShellDebug1CommandsLib:Pci.obj
 0002:0001dd80       ??_C@_1HO@MCHNEOFL@?$AA?5?$AA?5?$AAH?$AAo?$AAt?$AA?9?$AAP?$AAl?$AAu?$AAg?$AA?5?$AAS?$AAu?$AAr?$AAp@ 00000000000e5d80     UefiShellDebug1CommandsLib:Pci.obj
 0002:0001de00       ??_C@_1HO@GGDJFIAL@?$AA?5?$AA?5?$AAH?$AAo?$AAt?$AA?9?$AAP?$AAl?$AAu?$AAg?$AA?5?$AAC?$AAa?$AAp?$AAa@ 00000000000e5e00     UefiShellDebug1CommandsLib:Pci.obj
 0002:0001de80       ??_C@_1IG@ELHKLOAO@?$AA?5?$AA?5?$AAS?$AAl?$AAo?$AAt?$AA?5?$AAP?$AAo?$AAw?$AAe?$AAr?$AA?5?$AAL?$AAi@ 00000000000e5e80     UefiShellDebug1CommandsLib:Pci.obj
 0002:0001df10       ??_C@_1HO@POKCLING@?$AA?5?$AA?5?$AAS?$AAl?$AAo?$AAt?$AA?5?$AAP?$AAo?$AAw?$AAe?$AAr?$AA?5?$AAL?$AAi@ 00000000000e5f10     UefiShellDebug1CommandsLib:Pci.obj
 0002:0001df90       ??_C@_1HO@LPCJLOLK@?$AA?5?$AA?5?$AAE?$AAl?$AAe?$AAc?$AAt?$AAr?$AAo?$AAm?$AAe?$AAc?$AAh?$AAa?$AAn@ 00000000000e5f90     UefiShellDebug1CommandsLib:Pci.obj
 0002:0001e010       ??_C@_1HO@CHMPHHCK@?$AA?5?$AA?5?$AAN?$AAo?$AA?5?$AAC?$AAo?$AAm?$AAm?$AAa?$AAn?$AAd?$AA?5?$AAC?$AAo@ 00000000000e6010     UefiShellDebug1CommandsLib:Pci.obj
 0002:0001e090       ??_C@_1HO@FFMFLOGE@?$AA?5?$AA?5?$AAP?$AAh?$AAy?$AAs?$AAi?$AAc?$AAa?$AAl?$AA?5?$AAS?$AAl?$AAo?$AAt@ 00000000000e6090     UefiShellDebug1CommandsLib:Pci.obj
 0002:0001e110       ??_C@_1HO@CHENGLMM@?$AA?5?$AA?5?$AAA?$AAt?$AAt?$AAe?$AAn?$AAt?$AAi?$AAo?$AAn?$AA?5?$AAB?$AAu?$AAt@ 00000000000e6110     UefiShellDebug1CommandsLib:Pci.obj
 0002:0001e190       ??_C@_1HO@IMMNLBNA@?$AA?5?$AA?5?$AAP?$AAo?$AAw?$AAe?$AAr?$AA?5?$AAF?$AAa?$AAu?$AAl?$AAt?$AA?5?$AAD@ 00000000000e6190     UefiShellDebug1CommandsLib:Pci.obj
 0002:0001e210       ??_C@_1HO@OOACDIEJ@?$AA?5?$AA?5?$AAM?$AAR?$AAL?$AA?5?$AAS?$AAe?$AAn?$AAs?$AAo?$AAr?$AA?5?$AAC?$AAh@ 00000000000e6210     UefiShellDebug1CommandsLib:Pci.obj
 0002:0001e290       ??_C@_1HO@NFCLABLC@?$AA?5?$AA?5?$AAP?$AAr?$AAe?$AAs?$AAe?$AAn?$AAc?$AAe?$AA?5?$AAD?$AAe?$AAt?$AAe@ 00000000000e6290     UefiShellDebug1CommandsLib:Pci.obj
 0002:0001e310       ??_C@_1HO@CBGCGHCH@?$AA?5?$AA?5?$AAC?$AAo?$AAm?$AAm?$AAa?$AAn?$AAd?$AA?5?$AAC?$AAo?$AAm?$AAp?$AAl@ 00000000000e6310     UefiShellDebug1CommandsLib:Pci.obj
 0002:0001e390       ??_C@_1HO@OFHDEMPC@?$AA?5?$AA?5?$AAH?$AAo?$AAt?$AA?9?$AAP?$AAl?$AAu?$AAg?$AA?5?$AAI?$AAn?$AAt?$AAe@ 00000000000e6390     UefiShellDebug1CommandsLib:Pci.obj
 0002:0001e410       ??_C@_1HO@CBADMLH@?$AA?5?$AA?5?$AAA?$AAt?$AAt?$AAe?$AAn?$AAt?$AAi?$AAo?$AAn?$AA?5?$AAI?$AAn?$AAd@ 00000000000e6410     UefiShellDebug1CommandsLib:Pci.obj
 0002:0001e490       ??_C@_1HO@LPIMLJDE@?$AA?5?$AA?5?$AAP?$AAo?$AAw?$AAe?$AAr?$AA?5?$AAI?$AAn?$AAd?$AAi?$AAc?$AAa?$AAt@ 00000000000e6490     UefiShellDebug1CommandsLib:Pci.obj
 0002:0001e510       ??_C@_1HO@LKCCCMED@?$AA?5?$AA?5?$AAP?$AAo?$AAw?$AAe?$AAr?$AA?5?$AAC?$AAo?$AAn?$AAt?$AAr?$AAo?$AAl@ 00000000000e6510     UefiShellDebug1CommandsLib:Pci.obj
 0002:0001e590       ??_C@_1BA@EGOAMDOM@?$AAO?$AAf?$AAf?$AA?$CF?$AAN?$AA?$AN?$AA?6@ 00000000000e6590     UefiShellDebug1CommandsLib:Pci.obj
 0002:0001e5a0       ??_C@_1O@LOEKJBNI@?$AAO?$AAn?$AA?$CF?$AAN?$AA?$AN?$AA?6@ 00000000000e65a0     UefiShellDebug1CommandsLib:Pci.obj
 0002:0001e5b0       ??_C@_1HO@LFHFGPOF@?$AA?5?$AA?5?$AAE?$AAl?$AAe?$AAc?$AAt?$AAr?$AAo?$AAm?$AAe?$AAc?$AAh?$AAa?$AAn@ 00000000000e65b0     UefiShellDebug1CommandsLib:Pci.obj
 0002:0001e630       ??_C@_1HO@PLMJPIOI@?$AA?5?$AA?5?$AAD?$AAa?$AAt?$AAa?$AA?5?$AAL?$AAi?$AAn?$AAk?$AA?5?$AAL?$AAa?$AAy@ 00000000000e6630     UefiShellDebug1CommandsLib:Pci.obj
 0002:0001e6b0       ??_C@_1GE@ODBNHABI@?$AA?5?$AA?5?$AAA?$AAt?$AAt?$AAe?$AAn?$AAt?$AAi?$AAo?$AAn?$AA?5?$AAB?$AAu?$AAt@ 00000000000e66b0     UefiShellDebug1CommandsLib:Pci.obj
 0002:0001e720       ??_C@_1GE@DDHGKGBN@?$AA?5?$AA?5?$AAP?$AAo?$AAw?$AAe?$AAr?$AA?5?$AAF?$AAa?$AAu?$AAl?$AAt?$AA?5?$AAD@ 00000000000e6720     UefiShellDebug1CommandsLib:Pci.obj
 0002:0001e790       ??_C@_1GE@MLGNJMHN@?$AA?5?$AA?5?$AAM?$AAR?$AAL?$AA?5?$AAS?$AAe?$AAn?$AAs?$AAo?$AAr?$AA?5?$AAC?$AAh@ 00000000000e6790     UefiShellDebug1CommandsLib:Pci.obj
 0002:0001e800       ??_C@_1GE@EJGOJMEO@?$AA?5?$AA?5?$AAP?$AAr?$AAe?$AAs?$AAe?$AAn?$AAc?$AAe?$AA?5?$AAD?$AAe?$AAt?$AAe@ 00000000000e6800     UefiShellDebug1CommandsLib:Pci.obj
 0002:0001e870       ??_C@_1GE@MAOPPEGL@?$AA?5?$AA?5?$AAC?$AAo?$AAm?$AAm?$AAa?$AAn?$AAd?$AA?5?$AAC?$AAo?$AAm?$AAp?$AAl@ 00000000000e6870     UefiShellDebug1CommandsLib:Pci.obj
 0002:0001e8e0       ??_C@_1GA@PBCKMNIP@?$AA?5?$AA?5?$AAM?$AAR?$AAL?$AA?5?$AAS?$AAe?$AAn?$AAs?$AAo?$AAr?$AA?5?$AAS?$AAt@ 00000000000e68e0     UefiShellDebug1CommandsLib:Pci.obj
 0002:0001e940       ??_C@_1BI@EGGCEED@?$AA?5?$AAO?$AAp?$AAe?$AAn?$AAe?$AAd?$AA?$CF?$AAN?$AA?$AN?$AA?6@ 00000000000e6940     UefiShellDebug1CommandsLib:Pci.obj
 0002:0001e958       ??_C@_1BI@CPJMLOMF@?$AA?5?$AAC?$AAl?$AAo?$AAs?$AAe?$AAd?$AA?$CF?$AAN?$AA?$AN?$AA?6@ 00000000000e6958     UefiShellDebug1CommandsLib:Pci.obj
 0002:0001e970       ??_C@_1FE@IDHMEKEC@?$AA?5?$AA?5?$AAP?$AAr?$AAe?$AAs?$AAe?$AAn?$AAc?$AAe?$AA?5?$AAD?$AAe?$AAt?$AAe@ 00000000000e6970     UefiShellDebug1CommandsLib:Pci.obj
 0002:0001e9c8       ??_C@_1DG@HDMNCNJO@?$AA?$CF?$AAE?$AAC?$AAa?$AAr?$AAd?$AA?5?$AAP?$AAr?$AAe?$AAs?$AAe?$AAn?$AAt?$AA?5@ 00000000000e69c8     UefiShellDebug1CommandsLib:Pci.obj
 0002:0001ea00       ??_C@_1CC@JDGBFIHB@?$AA?$CF?$AAE?$AAS?$AAl?$AAo?$AAt?$AA?5?$AAE?$AAm?$AAp?$AAt?$AAy?$AA?$CF?$AAN?$AA?$AN@ 00000000000e6a00     UefiShellDebug1CommandsLib:Pci.obj
 0002:0001ea30       ??_C@_1JA@FGMPOLDD@?$AA?5?$AA?5?$AAE?$AAl?$AAe?$AAc?$AAt?$AAr?$AAo?$AAm?$AAe?$AAc?$AAh?$AAa?$AAn@ 00000000000e6a30     UefiShellDebug1CommandsLib:Pci.obj
 0002:0001eac0       ??_C@_1BI@HMKJPJJJ@?$AAE?$AAn?$AAg?$AAa?$AAg?$AAe?$AAd?$AA?$CF?$AAN?$AA?$AN?$AA?6@ 00000000000e6ac0     UefiShellDebug1CommandsLib:Pci.obj
 0002:0001ead8       ??_C@_1BO@IMCIBJBI@?$AAD?$AAi?$AAs?$AAe?$AAn?$AAg?$AAa?$AAg?$AAe?$AAd?$AA?$CF?$AAN?$AA?$AN?$AA?6@ 00000000000e6ad8     UefiShellDebug1CommandsLib:Pci.obj
 0002:0001eb00       ??_C@_1GE@IGGKHOAG@?$AA?5?$AA?5?$AAD?$AAa?$AAt?$AAa?$AA?5?$AAL?$AAi?$AAn?$AAk?$AA?5?$AAL?$AAa?$AAy@ 00000000000e6b00     UefiShellDebug1CommandsLib:Pci.obj
 0002:0001eb70       ??_C@_1HC@JBPDHMHJ@?$AA?5?$AA?5?$AAS?$AAy?$AAs?$AAt?$AAe?$AAm?$AA?5?$AAE?$AAr?$AAr?$AAo?$AAr?$AA?5@ 00000000000e6b70     UefiShellDebug1CommandsLib:Pci.obj
 0002:0001ebf0       ??_C@_1HC@JLDOKAK@?$AA?5?$AA?5?$AAS?$AAy?$AAs?$AAt?$AAe?$AAm?$AA?5?$AAE?$AAr?$AAr?$AAo?$AAr?$AA?5@ 00000000000e6bf0     UefiShellDebug1CommandsLib:Pci.obj
 0002:0001ec70       ??_C@_1HC@NCFIIDHK@?$AA?5?$AA?5?$AAS?$AAy?$AAs?$AAt?$AAe?$AAm?$AA?5?$AAE?$AAr?$AAr?$AAo?$AAr?$AA?5@ 00000000000e6c70     UefiShellDebug1CommandsLib:Pci.obj
 0002:0001ecf0       ??_C@_1HC@PBPODCFJ@?$AA?5?$AA?5?$AAP?$AAM?$AAE?$AA?5?$AAI?$AAn?$AAt?$AAe?$AAr?$AAr?$AAu?$AAp?$AAt@ 00000000000e6cf0     UefiShellDebug1CommandsLib:Pci.obj
 0002:0001ed70       ??_C@_1HC@JCCDDEEI@?$AA?5?$AA?5?$AAC?$AAR?$AAS?$AA?5?$AAS?$AAo?$AAf?$AAt?$AAw?$AAa?$AAr?$AAe?$AA?5@ 00000000000e6d70     UefiShellDebug1CommandsLib:Pci.obj
 0002:0001edf0       ??_C@_1HC@OIKKOENE@?$AA?5?$AA?5?$AAC?$AAR?$AAS?$AA?5?$AAS?$AAo?$AAf?$AAt?$AAw?$AAa?$AAr?$AAe?$AA?5@ 00000000000e6df0     UefiShellDebug1CommandsLib:Pci.obj
 0002:0001ee70       ??_C@_1HK@BNFJOPIN@?$AA?5?$AA?5?$AAP?$AAM?$AAE?$AA?5?$AAR?$AAe?$AAq?$AAu?$AAe?$AAs?$AAt?$AAe?$AAr@ 00000000000e6e70     UefiShellDebug1CommandsLib:Pci.obj
 0002:0001eef0       ??_C@_1HC@JILFODAC@?$AA?5?$AA?5?$AAP?$AAM?$AAE?$AA?5?$AAS?$AAt?$AAa?$AAt?$AAu?$AAs?$AA?$CI?$AA1?$AA6@ 00000000000e6ef0     UefiShellDebug1CommandsLib:Pci.obj
 0002:0001ef70       ??_C@_1HC@BBKGBKAD@?$AA?5?$AA?5?$AAP?$AAM?$AAE?$AA?5?$AAP?$AAe?$AAn?$AAd?$AAi?$AAn?$AAg?$AA?$CI?$AA1@ 00000000000e6f70     UefiShellDebug1CommandsLib:Pci.obj
 0002:0001eff0       ??_C@_1JK@KBMBBAMM@?$AAU?$AAn?$AAk?$AAn?$AAo?$AAw?$AAn?$AA?5?$AAP?$AAC?$AAI?$AAe?$AA?5?$AAe?$AAx@ 00000000000e6ff0     UefiShellDebug1CommandsLib:Pci.obj
 0002:0001f090       ??_C@_1FK@DDPMPKMG@?$AA?$AN?$AA?6?$AAP?$AAc?$AAi?$AA?5?$AAE?$AAx?$AAp?$AAr?$AAe?$AAs?$AAs?$AA?5?$AAd@ 00000000000e7090     UefiShellDebug1CommandsLib:Pci.obj
 0002:0001f130       ??_C@_1BA@GHOECOCL@?$AAD?$AAe?$AAf?$AAa?$AAu?$AAl?$AAt@ 00000000000e7130     UefiShellDebug1CommandsLib:SerMode.obj
 0002:0001f140       ??_C@_0FD@GJNHACFG@D?3?2develop?2Self_develop?2edk2?2Sh@ 00000000000e7140     UefiShellDebug1CommandsLib:SerMode.obj
 0002:0001f198       ??_C@_17MEBIPGDC@?$AA?9?$AAb?$AAs@ 00000000000e7198     UefiShellDebug1CommandsLib:SetVar.obj
 0002:0001f1a0       ??_C@_17FKBJMMBA@?$AA?9?$AAr?$AAt@ 00000000000e71a0     UefiShellDebug1CommandsLib:SetVar.obj
 0002:0001f1a8       ??_C@_17IEAEMGHL@?$AA?9?$AAn?$AAv@ 00000000000e71a8     UefiShellDebug1CommandsLib:SetVar.obj
 0002:0001f1b0       ??_C@_15KHFHDPFH@?$AA?9?$AA?9@ 00000000000e71b0     UefiShellDebug1CommandsLib:SetVar.obj
 0002:0001f1b8       ??_C@_0BJ@BGGCNBNB@TempData?5?$CB?$DN?5?$CI?$CIvoid?5?$CK?$CJ?50?$CJ@ 00000000000e71b8     UefiShellDebug1CommandsLib:SetVar.obj
 0002:0001f1e0       ??_C@_0FC@PMOALKFI@D?3?2develop?2Self_develop?2edk2?2Sh@ 00000000000e71e0     UefiShellDebug1CommandsLib:SetVar.obj
 0002:0001f238       ??_C@_1M@OMOAGDNC@?$AA?$CF?$AA0?$AA2?$AAx?$AA?5@ 00000000000e7238     UefiShellDebug1CommandsLib:SetVar.obj
 0002:0001f2a0       ??_C@_1M@CBPNGAOL@?$AA?9?$AAm?$AAm?$AAi?$AAo@ 00000000000e72a0     UefiShellDebug1CommandsLib:Mm.obj
 0002:0001f2b0       ??_C@_19HMENBLLE@?$AA?9?$AAm?$AAe?$AAm@ 00000000000e72b0     UefiShellDebug1CommandsLib:Mm.obj
 0002:0001f2c0       ??_C@_17LEBAOONG@?$AA?9?$AAi?$AAo@ 00000000000e72c0     UefiShellDebug1CommandsLib:Mm.obj
 0002:0001f2c8       ??_C@_19MCMIELAE@?$AA?9?$AAp?$AAc?$AAi@ 00000000000e72c8     UefiShellDebug1CommandsLib:Mm.obj
 0002:0001f2d8       ??_C@_1M@IJJKJIOF@?$AA?9?$AAp?$AAc?$AAi?$AAe@ 00000000000e72d8     UefiShellDebug1CommandsLib:Mm.obj
 0002:0001f2e8       ??_C@_0CA@PIKCEAPG@PciRootBridgeIo?5?$CB?$DN?5?$CI?$CIvoid?5?$CK?$CJ?50?$CJ@ 00000000000e72e8     UefiShellDebug1CommandsLib:Mm.obj
 0002:0001f310       ??_C@_0EO@NODPKCIE@D?3?2develop?2Self_develop?2edk2?2Sh@ 00000000000e7310     UefiShellDebug1CommandsLib:Mm.obj
 0002:0001f360       mShellMmAccessTypeStr      00000000000e7360     UefiShellDebug1CommandsLib:Mm.obj
 0002:0001f370       mShellMmRootBridgeIoWidth  00000000000e7370     UefiShellDebug1CommandsLib:Mm.obj
 0002:0001f370       mShellMmCpuIoWidth         00000000000e7370     UefiShellDebug1CommandsLib:Mm.obj
 0002:0001f3a0       mShellMmMaxNumber          00000000000e73a0     UefiShellDebug1CommandsLib:Mm.obj
 0002:0001f470       ??_C@_0FG@IPBOFGEF@D?3?2develop?2Self_develop?2edk2?2Sh@ 00000000000e7470     UefiShellDebug1CommandsLib:LoadPciRom.obj
 0002:0001f4c8       ??_C@_0L@FFCHGHLE@loadpcirom@ 00000000000e74c8     UefiShellDebug1CommandsLib:LoadPciRom.obj
 0002:0001f4d8       ??_C@_1O@GODHEIDH@?$AA?$CF?$AAs?$AA?$FL?$AA?$CF?$AAd?$AA?$FN@ 00000000000e74d8     UefiShellDebug1CommandsLib:LoadPciRom.obj
 0002:0001f508       ??_C@_1CE@KILBNFLH@?$AAR?$AAt?$AAP?$AAr?$AAo?$AAp?$AAe?$AAr?$AAt?$AAi?$AAe?$AAs?$AAT?$AAa?$AAb@ 00000000000e7508     UefiShellDebug1CommandsLib:Dmem.obj
 0002:0001f530       ??_C@_1BO@EOGHFKKG@?$AAA?$AAU?$AAT?$AAH?$AAE?$AAN?$AAT?$AAI?$AAC?$AAA?$AAT?$AAI?$AAO?$AAN@ 00000000000e7530     UefiShellDebug1CommandsLib:Dmem.obj
 0002:0001f550       ??_C@_1BM@HKLKAGDB@?$AAA?$AAU?$AAT?$AAH?$AA_?$AAU?$AAN?$AAT?$AAE?$AAS?$AAT?$AAE?$AAD@ 00000000000e7550     UefiShellDebug1CommandsLib:Dmem.obj
 0002:0001f570       ??_C@_1CA@FDHEKDNO@?$AAA?$AAU?$AAT?$AAH?$AA_?$AAS?$AAI?$AAG?$AA_?$AAF?$AAA?$AAI?$AAL?$AAE?$AAD@ 00000000000e7570     UefiShellDebug1CommandsLib:Dmem.obj
 0002:0001f590       ??_C@_1CA@FIBDOGKC@?$AAA?$AAU?$AAT?$AAH?$AA_?$AAS?$AAI?$AAG?$AA_?$AAP?$AAA?$AAS?$AAS?$AAE?$AAD@ 00000000000e7590     UefiShellDebug1CommandsLib:Dmem.obj
 0002:0001f5b0       ??_C@_1CG@FHMAOOKD@?$AAA?$AAU?$AAT?$AAH?$AA_?$AAS?$AAI?$AAG?$AA_?$AAN?$AAO?$AAT?$AA_?$AAF?$AAO@ 00000000000e75b0     UefiShellDebug1CommandsLib:Dmem.obj
 0002:0001f5d8       ??_C@_1BO@LDPKBOMD@?$AAA?$AAU?$AAT?$AAH?$AA_?$AAS?$AAI?$AAG?$AA_?$AAF?$AAO?$AAU?$AAN?$AAD@ 00000000000e75d8     UefiShellDebug1CommandsLib:Dmem.obj
 0002:0001f5f8       ??_C@_1BM@EMGBIINO@?$AAP?$AAO?$AAL?$AAI?$AAC?$AAY?$AA_?$AAF?$AAA?$AAI?$AAL?$AAE?$AAD@ 00000000000e75f8     UefiShellDebug1CommandsLib:Dmem.obj
 0002:0001f618       ??_C@_1BI@INIEPMCL@?$AAI?$AAN?$AAI?$AAT?$AAI?$AAA?$AAL?$AAI?$AAZ?$AAE?$AAD@ 00000000000e7618     UefiShellDebug1CommandsLib:Dmem.obj
 0002:0001f630       ??_C@_1BO@BBPIOFH@?$AAi?$AAn?$AAv?$AAa?$AAl?$AAi?$AAd?$AA?5?$AAa?$AAc?$AAt?$AAi?$AAo?$AAn@ 00000000000e7630     UefiShellDebug1CommandsLib:Dmem.obj
 0002:0001f650       ??_C@_1CI@COOKDEFM@?$AAI?$AAm?$AAa?$AAg?$AAe?$AAE?$AAx?$AAe?$AAc?$AAu?$AAt?$AAi?$AAo?$AAn?$AAT@ 00000000000e7650     UefiShellDebug1CommandsLib:Dmem.obj
 0002:0001f680       ??_C@_1FA@MBAOEPCF@?$AAE?$AAF?$AAI?$AA_?$AAC?$AAO?$AAN?$AAF?$AAO?$AAR?$AAM?$AAA?$AAN?$AAC?$AAE@ 00000000000e7680     UefiShellDebug1CommandsLib:Dmem.obj
 0002:0001f6d0       ??_C@_1CA@CLLNCEHI@?$AAU?$AAn?$AAk?$AAn?$AAo?$AAw?$AAn?$AA_?$AAP?$AAr?$AAo?$AAf?$AAi?$AAl?$AAe@ 00000000000e76d0     UefiShellDebug1CommandsLib:Dmem.obj
 0002:0001f6f0       ??_C@_1EO@KNFJIBCF@?$AAE?$AAF?$AAI?$AA_?$AAC?$AAO?$AAN?$AAF?$AAO?$AAR?$AAM?$AAA?$AAN?$AAC?$AAE@ 00000000000e76f0     UefiShellDebug1CommandsLib:Dmem.obj
 0002:0001f740       ??_C@_1BC@OFBMHHCE@?$AAE?$AAB?$AAB?$AAR?$AA_?$AA2?$AA?4?$AA1@ 00000000000e7740     UefiShellDebug1CommandsLib:Dmem.obj
 0002:0001f758       ??_C@_1BC@PHKJNIMK@?$AAE?$AAB?$AAB?$AAR?$AA_?$AA2?$AA?4?$AA2@ 00000000000e7758     UefiShellDebug1CommandsLib:Dmem.obj
 0002:0001f770       ??_C@_1DC@FFIMOOEH@?$AAC?$AAo?$AAm?$AAf?$AAo?$AAr?$AAm?$AAa?$AAn?$AAc?$AAe?$AAP?$AAr?$AAo?$AAf@ 00000000000e7770     UefiShellDebug1CommandsLib:Dmem.obj
 0002:0001f7a8       ??_C@_0BO@BHALIBBB@AddressArray?$FLEDstSmbiosTable?$FN@ 00000000000e77a8     UefiShellDebug1CommandsLib:Dmem.obj
 0002:0001f7d0       ??_C@_0FA@EBFAEJIC@D?3?2develop?2Self_develop?2edk2?2Sh@ 00000000000e77d0     UefiShellDebug1CommandsLib:Dmem.obj
 0002:0001f850       ??_C@_0FJ@PHGAEEG@D?3?2develop?2Self_develop?2edk2?2Sh@ 00000000000e7850     UefiShellDebug1CommandsLib:EfiDecompress.obj
 0002:0001f8b0       ??_C@_0FH@KJMFIPN@D?3?2develop?2Self_develop?2edk2?2Sh@ 00000000000e78b0     UefiShellDebug1CommandsLib:EfiCompress.obj
 0002:0001f908       ??_C@_0CC@BIMOOGMB@?$CILoopVar3?$CL2?$CJ?5?$DM?5?$CI2?5?$CK?5?$CI16?5?$CL?53?$CJ?5?9?5@ 00000000000e7908     UefiShellDebug1CommandsLib:Compress.obj
 0002:0001f930       ??_C@_0FE@HLAEABMM@D?3?2develop?2Self_develop?2edk2?2Sh@ 00000000000e7930     UefiShellDebug1CommandsLib:Compress.obj
 0002:0001f988       ??_C@_0BI@DNEPNPFI@?$CILoopVar3?$CL2?$CJ?5?$DM?5?$CI16?5?$CL?53?$CJ@ 00000000000e7988     UefiShellDebug1CommandsLib:Compress.obj
 0002:0001f9a0       ??_C@_1BG@ONNMFNLD@?$AAL?$AAo?$AAa?$AAd?$AAe?$AAr?$AAC?$AAo?$AAd?$AAe@ 00000000000e79a0     UefiShellDebug1CommandsLib:MemMap.obj
 0002:0001f9b8       ??_C@_1BG@JGDOMBDE@?$AAL?$AAo?$AAa?$AAd?$AAe?$AAr?$AAD?$AAa?$AAt?$AAa@ 00000000000e79b8     UefiShellDebug1CommandsLib:MemMap.obj
 0002:0001f9d0       ??_C@_1CA@MLPCNJJP@?$AAB?$AAo?$AAo?$AAt?$AAS?$AAe?$AAr?$AAv?$AAi?$AAc?$AAe?$AAC?$AAo?$AAd?$AAe@ 00000000000e79d0     UefiShellDebug1CommandsLib:MemMap.obj
 0002:0001f9f0       ??_C@_1CA@LABAEFBI@?$AAB?$AAo?$AAo?$AAt?$AAS?$AAe?$AAr?$AAv?$AAi?$AAc?$AAe?$AAD?$AAa?$AAt?$AAa@ 00000000000e79f0     UefiShellDebug1CommandsLib:MemMap.obj
 0002:0001fa10       ??_C@_1BI@EBGKLBD@?$AAR?$AAu?$AAn?$AAt?$AAi?$AAm?$AAe?$AAC?$AAo?$AAd?$AAe@ 00000000000e7a10     UefiShellDebug1CommandsLib:MemMap.obj
 0002:0001fa28       ??_C@_1BI@HPPEDHJE@?$AAR?$AAu?$AAn?$AAt?$AAi?$AAm?$AAe?$AAD?$AAa?$AAt?$AAa@ 00000000000e7a28     UefiShellDebug1CommandsLib:MemMap.obj
 0002:0001fa40       ??_C@_1BE@CAHOJKIB@?$AAA?$AAv?$AAa?$AAi?$AAl?$AAa?$AAb?$AAl?$AAe@ 00000000000e7a40     UefiShellDebug1CommandsLib:MemMap.obj
 0002:0001fa58       ??_C@_1BO@OJOJFIDB@?$AAU?$AAn?$AAu?$AAs?$AAa?$AAb?$AAl?$AAe?$AAM?$AAe?$AAm?$AAo?$AAr?$AAy@ 00000000000e7a58     UefiShellDebug1CommandsLib:MemMap.obj
 0002:0001fa78       ??_C@_1CE@DGJMEDIF@?$AAA?$AAC?$AAP?$AAI?$AAR?$AAe?$AAc?$AAl?$AAa?$AAi?$AAm?$AAM?$AAe?$AAm?$AAo@ 00000000000e7a78     UefiShellDebug1CommandsLib:MemMap.obj
 0002:0001faa0       ??_C@_1BM@IPNFINFC@?$AAA?$AAC?$AAP?$AAI?$AAM?$AAe?$AAm?$AAo?$AAr?$AAy?$AAN?$AAV?$AAS@ 00000000000e7aa0     UefiShellDebug1CommandsLib:MemMap.obj
 0002:0001fac0       ??_C@_1BO@MMNAAJFN@?$AAM?$AAe?$AAm?$AAo?$AAr?$AAy?$AAM?$AAa?$AAp?$AAp?$AAe?$AAd?$AAI?$AAO@ 00000000000e7ac0     UefiShellDebug1CommandsLib:MemMap.obj
 0002:0001fae0       ??_C@_1DA@BPOEHKFH@?$AAM?$AAe?$AAm?$AAo?$AAr?$AAy?$AAM?$AAa?$AAp?$AAp?$AAe?$AAd?$AAI?$AAO?$AAP@ 00000000000e7ae0     UefiShellDebug1CommandsLib:MemMap.obj
 0002:0001fb10       ??_C@_1BA@EEMHHNB@?$AAP?$AAa?$AAl?$AAC?$AAo?$AAd?$AAe@ 00000000000e7b10     UefiShellDebug1CommandsLib:MemMap.obj
 0002:0001fb20       ??_C@_1BG@MKKGAOAK@?$AAP?$AAe?$AAr?$AAs?$AAi?$AAs?$AAt?$AAe?$AAn?$AAt@ 00000000000e7b20     UefiShellDebug1CommandsLib:MemMap.obj
 0002:0001fb38       ??_C@_1BG@CDGJHJEC@?$AAU?$AAn?$AAa?$AAc?$AAc?$AAe?$AAp?$AAt?$AAe?$AAd@ 00000000000e7b38     UefiShellDebug1CommandsLib:MemMap.obj
 0002:0001fb50       ??_C@_1BA@EMMEAIMB@?$AAB?$AAS?$AA_?$AAC?$AAo?$AAd?$AAe@ 00000000000e7b50     UefiShellDebug1CommandsLib:MemMap.obj
 0002:0001fb60       ??_C@_1BA@DHCGJEEG@?$AAB?$AAS?$AA_?$AAD?$AAa?$AAt?$AAa@ 00000000000e7b60     UefiShellDebug1CommandsLib:MemMap.obj
 0002:0001fb70       ??_C@_1BA@MPCOJMJP@?$AAR?$AAT?$AA_?$AAC?$AAo?$AAd?$AAe@ 00000000000e7b70     UefiShellDebug1CommandsLib:MemMap.obj
 0002:0001fb80       ??_C@_1BA@LEMMAABI@?$AAR?$AAT?$AA_?$AAD?$AAa?$AAt?$AAa@ 00000000000e7b80     UefiShellDebug1CommandsLib:MemMap.obj
 0002:0001fb90       ??_C@_1BC@BDMOIILF@?$AAU?$AAn?$AAu?$AAs?$AAa?$AAb?$AAl?$AAe@ 00000000000e7b90     UefiShellDebug1CommandsLib:MemMap.obj
 0002:0001fba8       ??_C@_1BE@EDJNJKGN@?$AAA?$AAC?$AAP?$AAI?$AA_?$AAR?$AAe?$AAc?$AAl@ 00000000000e7ba8     UefiShellDebug1CommandsLib:MemMap.obj
 0002:0001fbc0       ??_C@_1BC@DHCLLEHL@?$AAA?$AAC?$AAP?$AAI?$AA_?$AAN?$AAV?$AAS@ 00000000000e7bc0     UefiShellDebug1CommandsLib:MemMap.obj
 0002:0001fbd8       ??_C@_19COIJNPGK@?$AAM?$AAM?$AAI?$AAO@ 00000000000e7bd8     UefiShellDebug1CommandsLib:MemMap.obj
 0002:0001fbe8       ??_C@_1BE@ICAKKMEC@?$AAM?$AAM?$AAI?$AAO?$AA_?$AAP?$AAo?$AAr?$AAt@ 00000000000e7be8     UefiShellDebug1CommandsLib:MemMap.obj
 0002:0001fc00       ??_C@_0FC@KJLMMAHF@D?3?2develop?2Self_develop?2edk2?2Sh@ 00000000000e7c00     UefiShellDebug1CommandsLib:MemMap.obj
 0002:0001fc58       ??_C@_0N@NCOLDFBP@Version?5?$DN?$DN?51@ 00000000000e7c58     UefiShellDebug1CommandsLib:MemMap.obj
 0002:0001fc90       ??_C@_0FA@GBNEKMAF@D?3?2develop?2Self_develop?2edk2?2Sh@ 00000000000e7c90     UefiShellDebug1CommandsLib:Mode.obj
 0002:0001fce0       ??_C@_1CA@EBDIENLF@?$AA?$CF?$AAs?$AA?3?$AA?5?$AA?$CF?$AAs?$AA?$AN?$AA?6?$AA?5?$AA?5?$AA?$CF?$AA0?$AA8?$AAx?$AA?3@ 00000000000e7ce0     UefiShellDebug1CommandsLib:Comp.obj
 0002:0001fd00       ??_C@_1M@FHJLFHFE@?$AA?5?$AA?$CF?$AA0?$AA2?$AAx@ 00000000000e7d00     UefiShellDebug1CommandsLib:Comp.obj
 0002:0001fd10       ??_C@_1M@OCBDMJIC@?$AA?5?$AA?5?$AA?5?$AA?5?$AA?$CK@ 00000000000e7d10     UefiShellDebug1CommandsLib:Comp.obj
 0002:0001fd20       ??_C@_17CBEIKNLC@?$AA?$CK?$AA?$AN?$AA?6@ 00000000000e7d20     UefiShellDebug1CommandsLib:Comp.obj
 0002:0001fd30       ??_C@_0FA@FLDMBCIE@D?3?2develop?2Self_develop?2edk2?2Sh@ 00000000000e7d30     UefiShellDebug1CommandsLib:Comp.obj
 0002:0001fd80       ??_C@_17IIFKAHCJ@?$AAa?$AAl?$AAl@ 00000000000e7d80     UefiShellDebug1CommandsLib:Comp.obj
 0002:0001fd88       ??_C@_1M@OBGMLAOD@?$AAF?$AAi?$AAl?$AAe?$AA1@ 00000000000e7d88     UefiShellDebug1CommandsLib:Comp.obj
 0002:0001fd98       ??_C@_1M@PDNJBPAN@?$AAF?$AAi?$AAl?$AAe?$AA2@ 00000000000e7d98     UefiShellDebug1CommandsLib:Comp.obj
 0002:0001fde0       ??_C@_0FD@JBNACGLM@D?3?2develop?2Self_develop?2edk2?2Sh@ 00000000000e7de0     UefiShellDebug1CommandsLib:SetSize.obj
 0002:0001fe38       ??_C@_1BC@PMCLIFFJ@?$AAI?$AAn?$AAs?$AAt?$AAa?$AAl?$AAl?$AA1@ 00000000000e7e38     UefiShellInstall1CommandsLib:UefiShellInstall1CommandsLib.obj
 0002:0001fe50       ??_C@_1O@IPFBFMHG@?$AAs?$AAt?$AAa?$AAt?$AAi?$AAc@ 00000000000e7e50     UefiShellNetwork1CommandsLib:Ifconfig.obj
 0002:0001fe60       ??_C@_19CCCIFFOF@?$AAd?$AAh?$AAc?$AAp@ 00000000000e7e60     UefiShellNetwork1CommandsLib:Ifconfig.obj
 0002:0001fe70       ??_C@_17IFAIOPIP@?$AAd?$AAn?$AAs@ 00000000000e7e70     UefiShellNetwork1CommandsLib:Ifconfig.obj
 0002:0001fe78       ??_C@_0L@CLILBPOD@Size?5?$DM?$DN?532@ 00000000000e7e78     UefiShellNetwork1CommandsLib:Ifconfig.obj
 0002:0001fe90       ??_C@_0FG@GAKEMJMM@D?3?2develop?2Self_develop?2edk2?2Sh@ 00000000000e7e90     UefiShellNetwork1CommandsLib:Ifconfig.obj
 0002:0001fee8       ??_C@_1CG@GCGMOFLL@?$AAM?$AAe?$AAd?$AAi?$AAa?$AA?5?$AAd?$AAi?$AAs?$AAc?$AAo?$AAn?$AAn?$AAe?$AAc@ 00000000000e7ee8     UefiShellNetwork1CommandsLib:Ifconfig.obj
 0002:0001ff10       ??_C@_1BM@ODGIMFHP@?$AAM?$AAe?$AAd?$AAi?$AAa?$AA?5?$AAp?$AAr?$AAe?$AAs?$AAe?$AAn?$AAt@ 00000000000e7f10     UefiShellNetwork1CommandsLib:Ifconfig.obj
 0002:0001ff30       ??_C@_1CI@GOABMHNO@?$AAM?$AAe?$AAd?$AAi?$AAa?$AA?5?$AAs?$AAt?$AAa?$AAt?$AAe?$AA?5?$AAu?$AAn?$AAk@ 00000000000e7f30     UefiShellNetwork1CommandsLib:Ifconfig.obj
 0002:0001ff58       ??_C@_1BA@DPNEJNHG@?$AAS?$AAu?$AAb?$AAn?$AAe?$AAt?$AA?5@ 00000000000e7f58     UefiShellNetwork1CommandsLib:Ifconfig.obj
 0002:0001ff68       ??_C@_1BA@GLEDMPLM@?$AAN?$AAe?$AAt?$AAm?$AAa?$AAs?$AAk@ 00000000000e7f68     UefiShellNetwork1CommandsLib:Ifconfig.obj
 0002:0001ff78       ??_C@_1BA@LCJJAKKF@?$AAG?$AAa?$AAt?$AAe?$AAw?$AAa?$AAy@ 00000000000e7f78     UefiShellNetwork1CommandsLib:Ifconfig.obj
 0002:0001ff88       ??_C@_1BC@BHCGFBDA@?$AAi?$AAf?$AAc?$AAo?$AAn?$AAf?$AAi?$AAg@ 00000000000e7f88     UefiShellNetwork1CommandsLib:Ifconfig.obj
 0002:0001ffa0       ??_C@_0BI@GONLCNCH@Private?5?$CB?$DN?5?$CI?$CIvoid?5?$CK?$CJ?50?$CJ@ 00000000000e7fa0     UefiShellNetwork1CommandsLib:Ifconfig.obj
 0002:0001ffd0       ??_C@_17HMPMOCEB@?$AA?9?$AA_?$AAs@ 00000000000e7fd0     UefiShellNetwork1CommandsLib:Ping.obj
 0002:0001ffd8       ??_C@_1M@FLGNCPGP@?$AA?9?$AA_?$AAi?$AAp?$AA6@ 00000000000e7fd8     UefiShellNetwork1CommandsLib:Ping.obj
 0002:0001ffe8       ??_C@_0DD@HLEHBLHL@Private?9?$DOProtocolPointers?4Trans@ 00000000000e7fe8     UefiShellNetwork1CommandsLib:Ping.obj
 0002:00020020       ??_C@_0FC@LACPCNDG@D?3?2develop?2Self_develop?2edk2?2Sh@ 00000000000e8020     UefiShellNetwork1CommandsLib:Ping.obj
 0002:00020078       ??_C@_0BH@BFEOOCHJ@Private?9?$DOIpChoice?5?$DN?$DN?51@ 00000000000e8078     UefiShellNetwork1CommandsLib:Ping.obj
 0002:00020090       ??_C@_19LBJHAIBB@?$AAp?$AAi?$AAn?$AAg@ 00000000000e8090     UefiShellNetwork1CommandsLib:Ping.obj
 0002:000200a0       ??_C@_0BG@OBJJIHME@EfiSb?5?$CB?$DN?5?$CI?$CIvoid?5?$CK?$CJ?50?$CJ@ 00000000000e80a0     UefiShellNetwork1CommandsLib:Ping.obj
 0002:000200b8       ??_C@_0DH@LHHIJKOH@sizeof?5?$CIEFI_IPv4_ADDRESS?$CJ?5?$DM?$DN?5si@ 00000000000e80b8     UefiShellNetwork1CommandsLib:Ping.obj
 0002:000200f0       ??_C@_0EH@GFLFCDAN@sizeof?5?$CIEFI_IP4_COMPLETION_TOKE@ 00000000000e80f0     UefiShellNetwork1CommandsLib:Ping.obj
 0002:000201a0       ??_C@_1BC@GCDGEHJC@?$AAn?$AAe?$AAt?$AAw?$AAo?$AAr?$AAk?$AA1@ 00000000000e81a0     UefiShellNetwork1CommandsLib:UefiShellNetwork1CommandsLib.obj
 0002:000201b8       gShellNetwork1FileName     00000000000e81b8     UefiShellNetwork1CommandsLib:UefiShellNetwork1CommandsLib.obj
 0002:00020228       __volatile_metadata        00000000000e8228     <linker-defined>
 0003:00000000       m16Size                    00000000000e9000     BaseLib:Thunk16.obj
 0003:00000002       mThunk16Attr               00000000000e9002     BaseLib:Thunk16.obj
 0003:00000004       m16Gdt                     00000000000e9004     BaseLib:Thunk16.obj
 0003:00000006       m16GdtrBase                00000000000e9006     BaseLib:Thunk16.obj
 0003:00000008       mTransition                00000000000e9008     BaseLib:Thunk16.obj
 0003:00000010       gEfiStatusCodeSpecificDataGuid 00000000000e9010     Shell:AutoGen.obj
 0003:00000020       gEfiDriverDiagnostics2ProtocolGuid 00000000000e9020     Shell:AutoGen.obj
 0003:00000030       gEfiResetArchProtocolGuid  00000000000e9030     Shell:AutoGen.obj
 0003:00000040       gEfiAdapterInfoUndiIpv6SupportGuid 00000000000e9040     Shell:AutoGen.obj
 0003:00000050       gEfiMmAccessProtocolGuid   00000000000e9050     Shell:AutoGen.obj
 0003:00000060       gEfiMmStatusCodeProtocolGuid 00000000000e9060     Shell:AutoGen.obj
 0003:00000070       gEfiI2cMasterProtocolGuid  00000000000e9070     Shell:AutoGen.obj
 0003:00000080       gEfiAuthenticationInfoProtocolGuid 00000000000e9080     Shell:AutoGen.obj
 0003:00000090       gEfiMpServiceProtocolGuid  00000000000e9090     Shell:AutoGen.obj
 0003:000000a0       gEfiSecurityPolicyProtocolGuid 00000000000e90a0     Shell:AutoGen.obj
 0003:000000b0       gEfiDriverHealthProtocolGuid 00000000000e90b0     Shell:AutoGen.obj
 0003:000000c0       gEfiDns4ServiceBindingProtocolGuid 00000000000e90c0     Shell:AutoGen.obj
 0003:000000d0       gEfiBluetoothIoProtocolGuid 00000000000e90d0     Shell:AutoGen.obj
 0003:000000e0       gEfiUserCredentialProtocolGuid 00000000000e90e0     Shell:AutoGen.obj
 0003:000000f0       gEfiDhcp6ServiceBindingProtocolGuid 00000000000e90f0     Shell:AutoGen.obj
 0003:00000100       gEfiPciRootBridgeIoProtocolGuid 00000000000e9100     Shell:AutoGen.obj
 0003:00000110       gEfiGlobalVariableGuid     00000000000e9110     Shell:AutoGen.obj
 0003:00000120       gEfiMmRscHandlerProtocolGuid 00000000000e9120     Shell:AutoGen.obj
 0003:00000130       gEfiAdapterInfoSanMacAddressGuid 00000000000e9130     Shell:AutoGen.obj
 0003:00000140       gEfiJsonConfigDataTableGuid 00000000000e9140     Shell:AutoGen.obj
 0003:00000150       gEfiRestProtocolGuid       00000000000e9150     Shell:AutoGen.obj
 0003:00000160       gEfiVirtualCdGuid          00000000000e9160     Shell:AutoGen.obj
 0003:00000170       gEfiSmmCommunicationProtocolGuid 00000000000e9170     Shell:AutoGen.obj
 0003:00000180       gEfiStatusCodeRuntimeProtocolGuid 00000000000e9180     Shell:AutoGen.obj
 0003:00000190       gEfiSmartCardReaderProtocolGuid 00000000000e9190     Shell:AutoGen.obj
 0003:000001a0       gEfiPkcs7VerifyProtocolGuid 00000000000e91a0     Shell:AutoGen.obj
 0003:000001b0       gEfiSecurityArchProtocolGuid 00000000000e91b0     Shell:AutoGen.obj
 0003:000001c0       gEfiBluetoothHcProtocolGuid 00000000000e91c0     Shell:AutoGen.obj
 0003:000001d0       gEfiDiskInfoProtocolGuid   00000000000e91d0     Shell:AutoGen.obj
 0003:000001e0       gEfiFirmwareVolumeBlockProtocolGuid 00000000000e91e0     Shell:AutoGen.obj
 0003:000001f0       gEfiEraseBlockProtocolGuid 00000000000e91f0     Shell:AutoGen.obj
 0003:00000200       gEfiIpSecProtocolGuid      00000000000e9200     Shell:AutoGen.obj
 0003:00000210       gEfiDriverDiagnosticsProtocolGuid 00000000000e9210     Shell:AutoGen.obj
 0003:00000220       gEfiConsoleOutDeviceGuid   00000000000e9220     Shell:AutoGen.obj
 0003:00000230       gEfiRamDiskProtocolGuid    00000000000e9230     Shell:AutoGen.obj
 0003:00000240       gEfiI2cHostProtocolGuid    00000000000e9240     Shell:AutoGen.obj
 0003:00000250       gEfiI2cIoProtocolGuid      00000000000e9250     Shell:AutoGen.obj
 0003:00000260       gEfiPxeBaseCodeProtocolGuid 00000000000e9260     Shell:AutoGen.obj
 0003:00000270       gShellLevel2HiiGuid        00000000000e9270     Shell:AutoGen.obj
 0003:00000280       gEfiEdidDiscoveredProtocolGuid 00000000000e9280     Shell:AutoGen.obj
 0003:00000290       ShellStrings               00000000000e9290     Shell:AutoGen.obj
 0003:00000848       gEfiEapProtocolGuid        00000000000e9848     Shell:AutoGen.obj
 0003:00000858       gEfiWatchdogTimerArchProtocolGuid 00000000000e9858     Shell:AutoGen.obj
 0003:00000868       gEfiExtScsiPassThruProtocolGuid 00000000000e9868     Shell:AutoGen.obj
 0003:00000878       gEfiMmSxDispatchProtocolGuid 00000000000e9878     Shell:AutoGen.obj
 0003:00000888       gEfiMmGpiDispatchProtocolGuid 00000000000e9888     Shell:AutoGen.obj
 0003:00000898       gEfiSmmUsbDispatch2ProtocolGuid 00000000000e9898     Shell:AutoGen.obj
 0003:000008a8       gEfiDns4ProtocolGuid       00000000000e98a8     Shell:AutoGen.obj
 0003:000008b8       gEfiLoadedImageDevicePathProtocolGuid 00000000000e98b8     Shell:AutoGen.obj
 0003:000008c8       gEfiIScsiInitiatorNameProtocolGuid 00000000000e98c8     Shell:AutoGen.obj
 0003:000008d8       gShellBcfgHiiGuid          00000000000e98d8     Shell:AutoGen.obj
 0003:000008e8       gEfiUnicodeCollation2ProtocolGuid 00000000000e98e8     Shell:AutoGen.obj
 0003:000008f8       gEfiDriverSupportedEfiVersionProtocolGuid 00000000000e98f8     Shell:AutoGen.obj
 0003:00000908       gEfiKmsProtocolGuid        00000000000e9908     Shell:AutoGen.obj
 0003:00000918       gEfiMpsTableGuid           00000000000e9918     Shell:AutoGen.obj
 0003:00000928       gEfiSmmStatusCodeProtocolGuid 00000000000e9928     Shell:AutoGen.obj
 0003:00000938       gEfiTlsProtocolGuid        00000000000e9938     Shell:AutoGen.obj
 0003:00000948       gEfiAtaPassThruProtocolGuid 00000000000e9948     Shell:AutoGen.obj
 0003:00000958       gEfiJsonCapsuleResultTableGuid 00000000000e9958     Shell:AutoGen.obj
 0003:00000968       gEfiRngProtocolGuid        00000000000e9968     Shell:AutoGen.obj
 0003:00000978       gEfiBdsArchProtocolGuid    00000000000e9978     Shell:AutoGen.obj
 0003:00000988       gEfiDxeMmReadyToLockProtocolGuid 00000000000e9988     Shell:AutoGen.obj
 0003:00000998       gEfiSupplicantProtocolGuid 00000000000e9998     Shell:AutoGen.obj
 0003:000009a8       gEfiMtftp4ProtocolGuid     00000000000e99a8     Shell:AutoGen.obj
 0003:000009b8       gEfiHiiPackageListProtocolGuid 00000000000e99b8     Shell:AutoGen.obj
 0003:000009c8       gEfiComponentName2ProtocolGuid 00000000000e99c8     Shell:AutoGen.obj
 0003:000009d8       gEfiIncompatiblePciDeviceSupportProtocolGuid 00000000000e99d8     Shell:AutoGen.obj
 0003:000009e8       gEfiPersistentVirtualDiskGuid 00000000000e99e8     Shell:AutoGen.obj
 0003:000009f8       gEfiPartTypeLegacyMbrGuid  00000000000e99f8     Shell:AutoGen.obj
 0003:00000a08       gEfiBlockIo2ProtocolGuid   00000000000e9a08     Shell:AutoGen.obj
 0003:00000a18       gEfiHash2ServiceBindingProtocolGuid 00000000000e9a18     Shell:AutoGen.obj
 0003:00000a28       gEfiSupplicantServiceBindingProtocolGuid 00000000000e9a28     Shell:AutoGen.obj
 0003:00000a38       gEfiImageSecurityDatabaseGuid 00000000000e9a38     Shell:AutoGen.obj
 0003:00000a48       gEfiVariableWriteArchProtocolGuid 00000000000e9a48     Shell:AutoGen.obj
 0003:00000a58       gEfiSdMmcPassThruProtocolGuid 00000000000e9a58     Shell:AutoGen.obj
 0003:00000a68       gEfiEapManagementProtocolGuid 00000000000e9a68     Shell:AutoGen.obj
 0003:00000a78       gEfiRegularExpressionProtocolGuid 00000000000e9a78     Shell:AutoGen.obj
 0003:00000a88       gEfiTlsServiceBindingProtocolGuid 00000000000e9a88     Shell:AutoGen.obj
 0003:00000a98       gEfiHttpProtocolGuid       00000000000e9a98     Shell:AutoGen.obj
 0003:00000aa8       gPcdProtocolGuid           00000000000e9aa8     Shell:AutoGen.obj
 0003:00000ab8       gEfiDxeSmmReadyToLockProtocolGuid 00000000000e9ab8     Shell:AutoGen.obj
 0003:00000ac8       gEfiSmmCpuProtocolGuid     00000000000e9ac8     Shell:AutoGen.obj
 0003:00000ad8       gEfiAdapterInformationProtocolGuid 00000000000e9ad8     Shell:AutoGen.obj
 0003:00000ae8       gEfiSimpleTextOutProtocolGuid 00000000000e9ae8     Shell:AutoGen.obj
 0003:00000af8       gEfiVTUTF8Guid             00000000000e9af8     Shell:AutoGen.obj
 0003:00000b08       gEfiLoadFileProtocolGuid   00000000000e9b08     Shell:AutoGen.obj
 0003:00000b18       gEfiConfigKeywordHandlerProtocolGuid 00000000000e9b18     Shell:AutoGen.obj
 0003:00000b28       gEfiCapsuleArchProtocolGuid 00000000000e9b28     Shell:AutoGen.obj
 0003:00000b38       gEfiSmbusHcProtocolGuid    00000000000e9b38     Shell:AutoGen.obj
 0003:00000b48       gEfiDeferredImageLoadProtocolGuid 00000000000e9b48     Shell:AutoGen.obj
 0003:00000b58       gEfiUsb2HcProtocolGuid     00000000000e9b58     Shell:AutoGen.obj
 0003:00000b68       gEfiShellDynamicCommandProtocolGuid 00000000000e9b68     Shell:AutoGen.obj
 0003:00000b78       gEfiMtftp6ServiceBindingProtocolGuid 00000000000e9b78     Shell:AutoGen.obj
 0003:00000b88       gEfiDhcp6ProtocolGuid      00000000000e9b88     Shell:AutoGen.obj
 0003:00000b98       gEfiFileSystemInfoGuid     00000000000e9b98     Shell:AutoGen.obj
 0003:00000ba8       gEfiSimplePointerProtocolGuid 00000000000e9ba8     Shell:AutoGen.obj
 0003:00000bb8       gEfiSmmCpuIo2ProtocolGuid  00000000000e9bb8     Shell:AutoGen.obj
 0003:00000bc8       gEfiMmCpuIoProtocolGuid    00000000000e9bc8     Shell:AutoGen.obj
 0003:00000bd8       gEfiMmBaseProtocolGuid     00000000000e9bd8     Shell:AutoGen.obj
 0003:00000be8       gEfiRestExProtocolGuid     00000000000e9be8     Shell:AutoGen.obj
 0003:00000bf8       gEfiUserCredential2ProtocolGuid 00000000000e9bf8     Shell:AutoGen.obj
 0003:00000c08       gEfiDriverConfiguration2ProtocolGuid 00000000000e9c08     Shell:AutoGen.obj
 0003:00000c18       gShellLevel1HiiGuid        00000000000e9c18     Shell:AutoGen.obj
 0003:00000c28       gEfiHiiImageExProtocolGuid 00000000000e9c28     Shell:AutoGen.obj
 0003:00000c38       gEfiSerialIoProtocolGuid   00000000000e9c38     Shell:AutoGen.obj
 0003:00000c48       gEfiDiskIoProtocolGuid     00000000000e9c48     Shell:AutoGen.obj
 0003:00000c58       gEfiVlanConfigProtocolGuid 00000000000e9c58     Shell:AutoGen.obj
 0003:00000c68       gEfiShellEnvironment2ExtGuid 00000000000e9c68     Shell:AutoGen.obj
 0003:00000c78       gEfiPciHotPlugRequestProtocolGuid 00000000000e9c78     Shell:AutoGen.obj
 0003:00000c88       gEfiNetworkInterfaceIdentifierProtocolGuid_31 00000000000e9c88     Shell:AutoGen.obj
 0003:00000c98       gEfiMmReadyToLockProtocolGuid 00000000000e9c98     Shell:AutoGen.obj
 0003:00000ca8       gEfiFirmwareVolumeBlock2ProtocolGuid 00000000000e9ca8     Shell:AutoGen.obj
 0003:00000cb8       gEfiGetPcdInfoProtocolGuid 00000000000e9cb8     Shell:AutoGen.obj
 0003:00000cc8       gEfiFileInfoGuid           00000000000e9cc8     Shell:AutoGen.obj
 0003:00000cd8       gEfiHashServiceBindingProtocolGuid 00000000000e9cd8     Shell:AutoGen.obj
 0003:00000ce8       gEfiSioControlProtocolGuid 00000000000e9ce8     Shell:AutoGen.obj
 0003:00000cf8       gEfiUartDevicePathGuid     00000000000e9cf8     Shell:AutoGen.obj
 0003:00000d08       gEfiEbcProtocolGuid        00000000000e9d08     Shell:AutoGen.obj
 0003:00000d18       gEfiSmmRscHandlerProtocolGuid 00000000000e9d18     Shell:AutoGen.obj
 0003:00000d28       gEfiConfProfilesEbbrSpec22Guid 00000000000e9d28     Shell:AutoGen.obj
 0003:00000d38       gEfiDhcp4ServiceBindingProtocolGuid 00000000000e9d38     Shell:AutoGen.obj
 0003:00000d48       gEfiNvmExpressPassThruProtocolGuid 00000000000e9d48     Shell:AutoGen.obj
 0003:00000d58       gEfiJsonCapsuleDataTableGuid 00000000000e9d58     Shell:AutoGen.obj
 0003:00000d68       gEfiRtPropertiesTableGuid  00000000000e9d68     Shell:AutoGen.obj
 0003:00000d78       gEfiVT100Guid              00000000000e9d78     Shell:AutoGen.obj
 0003:00000d88       gEfiDevicePathProtocolGuid 00000000000e9d88     Shell:AutoGen.obj
 0003:00000d98       gEfiDriverFamilyOverrideProtocolGuid 00000000000e9d98     Shell:AutoGen.obj
 0003:00000da8       gEfiPciIoProtocolGuid      00000000000e9da8     Shell:AutoGen.obj
 0003:00000db8       gEfiLoadedImageProtocolGuid 00000000000e9db8     Shell:AutoGen.obj
 0003:00000dc8       gEfiPciHostBridgeResourceAllocationProtocolGuid 00000000000e9dc8     Shell:AutoGen.obj
 0003:00000dd8       gEfiSmmGpiDispatch2ProtocolGuid 00000000000e9dd8     Shell:AutoGen.obj
 0003:00000de8       gEfiStandardErrorDeviceGuid 00000000000e9de8     Shell:AutoGen.obj
 0003:00000df8       gShellDebug1HiiGuid        00000000000e9df8     Shell:AutoGen.obj
 0003:00000e08       gEfiFirmwareVolume2ProtocolGuid 00000000000e9e08     Shell:AutoGen.obj
 0003:00000e18       gEfiMemoryAttributesTableGuid 00000000000e9e18     Shell:AutoGen.obj
 0003:00000e28       gEfiWiFi2ProtocolGuid      00000000000e9e28     Shell:AutoGen.obj
 0003:00000e38       gEfiIp6ConfigProtocolGuid  00000000000e9e38     Shell:AutoGen.obj
 0003:00000e48       gEfiBootManagerPolicyProtocolGuid 00000000000e9e48     Shell:AutoGen.obj
 0003:00000e58       gEfiMmPowerButtonDispatchProtocolGuid 00000000000e9e58     Shell:AutoGen.obj
 0003:00000e68       gEfiSmbiosProtocolGuid     00000000000e9e68     Shell:AutoGen.obj
 0003:00000e78       gEfiSimpleNetworkProtocolGuid 00000000000e9e78     Shell:AutoGen.obj
 0003:00000e88       gEfiCallerBaseName         00000000000e9e88     Shell:AutoGen.obj
 0003:00000e90       gEfiSmmIoTrapDispatch2ProtocolGuid 00000000000e9e90     Shell:AutoGen.obj
 0003:00000ea0       gEfiBusSpecificDriverOverrideProtocolGuid 00000000000e9ea0     Shell:AutoGen.obj
 0003:00000eb0       gEfiIpSec2ProtocolGuid     00000000000e9eb0     Shell:AutoGen.obj
 0003:00000ec0       gEfiDevicePathToTextProtocolGuid 00000000000e9ec0     Shell:AutoGen.obj
 0003:00000ed0       gEfiIsaHcProtocolGuid      00000000000e9ed0     Shell:AutoGen.obj
 0003:00000ee0       gEfiLegacyRegion2ProtocolGuid 00000000000e9ee0     Shell:AutoGen.obj
 0003:00000ef0       gEfiUsbFunctionIoProtocolGuid 00000000000e9ef0     Shell:AutoGen.obj
 0003:00000f00       gEfiHiiConfigRoutingProtocolGuid 00000000000e9f00     Shell:AutoGen.obj
 0003:00000f10       gEfiI2cBusConfigurationManagementProtocolGuid 00000000000e9f10     Shell:AutoGen.obj
 0003:00000f20       gEfiAcpi10TableGuid        00000000000e9f20     Shell:AutoGen.obj
 0003:00000f30       gEfiEapConfigurationProtocolGuid 00000000000e9f30     Shell:AutoGen.obj
 0003:00000f40       gEfiWiFiProtocolGuid       00000000000e9f40     Shell:AutoGen.obj
 0003:00000f50       gEfiMmSwDispatchProtocolGuid 00000000000e9f50     Shell:AutoGen.obj
 0003:00000f60       gEfiS3SmmSaveStateProtocolGuid 00000000000e9f60     Shell:AutoGen.obj
 0003:00000f70       gEfiPciOverrideProtocolGuid 00000000000e9f70     Shell:AutoGen.obj
 0003:00000f80       gEfiPcdProtocolGuid        00000000000e9f80     Shell:AutoGen.obj
 0003:00000f90       gEfiSimpleTextInputExProtocolGuid 00000000000e9f90     Shell:AutoGen.obj
 0003:00000fa0       gShellDriver1HiiGuid       00000000000e9fa0     Shell:AutoGen.obj
 0003:00000fb0       gEfiHiiPopupProtocolGuid   00000000000e9fb0     Shell:AutoGen.obj
 0003:00000fc0       gEfiHttpUtilitiesProtocolGuid 00000000000e9fc0     Shell:AutoGen.obj
 0003:00000fd0       gEfiFirmwareManagementProtocolGuid 00000000000e9fd0     Shell:AutoGen.obj
 0003:00000fe0       gEfiSmmPowerButtonDispatch2ProtocolGuid 00000000000e9fe0     Shell:AutoGen.obj
 0003:00000ff0       gShellNetwork1HiiGuid      00000000000e9ff0     Shell:AutoGen.obj
 0003:00001000       gEfiDns6ServiceBindingProtocolGuid 00000000000ea000     Shell:AutoGen.obj
 0003:00001010       gEfiSimpleTextInProtocolGuid 00000000000ea010     Shell:AutoGen.obj
 0003:00001020       gEfiFtp4ServiceBindingProtocolGuid 00000000000ea020     Shell:AutoGen.obj
 0003:00001030       gEfiPxeBaseCodeCallbackProtocolGuid 00000000000ea030     Shell:AutoGen.obj
 0003:00001040       gEfiUdp4ServiceBindingProtocolGuid 00000000000ea040     Shell:AutoGen.obj
 0003:00001050       gEfiStatusCodeDataTypeDebugGuid 00000000000ea050     Shell:AutoGen.obj
 0003:00001060       gEfiUsbIoProtocolGuid      00000000000ea060     Shell:AutoGen.obj
 0003:00001070       gEfiResetNotificationProtocolGuid 00000000000ea070     Shell:AutoGen.obj
 0003:00001080       gEfiAdapterInfoNetworkBootGuid 00000000000ea080     Shell:AutoGen.obj
 0003:00001090       gEfiIp4Config2ProtocolGuid 00000000000ea090     Shell:AutoGen.obj
 0003:000010a0       gEfiCpuArchProtocolGuid    00000000000ea0a0     Shell:AutoGen.obj
 0003:000010b0       gEfiPartitionInfoProtocolGuid 00000000000ea0b0     Shell:AutoGen.obj
 0003:000010c0       gEfiSmmControl2ProtocolGuid 00000000000ea0c0     Shell:AutoGen.obj
 0003:000010d0       gEfiBlockIoCryptoProtocolGuid 00000000000ea0d0     Shell:AutoGen.obj
 0003:000010e0       gEfiPlatformToDriverConfigurationProtocolGuid 00000000000ea0e0     Shell:AutoGen.obj
 0003:000010f0       gEfiHiiImageProtocolGuid   00000000000ea0f0     Shell:AutoGen.obj
 0003:00001100       gEfiBisProtocolGuid        00000000000ea100     Shell:AutoGen.obj
 0003:00001110       gEfiMtftp6ProtocolGuid     00000000000ea110     Shell:AutoGen.obj
 0003:00001120       gEfiS3SaveStateProtocolGuid 00000000000ea120     Shell:AutoGen.obj
 0003:00001130       gEfiSioProtocolGuid        00000000000ea130     Shell:AutoGen.obj
 0003:00001140       gEfiDevicePathUtilitiesProtocolGuid 00000000000ea140     Shell:AutoGen.obj
 0003:00001150       gEfiIp4ServiceBindingProtocolGuid 00000000000ea150     Shell:AutoGen.obj
 0003:00001160       gEfiI2cEnumerateProtocolGuid 00000000000ea160     Shell:AutoGen.obj
 0003:00001170       gEfiDebugImageInfoTableGuid 00000000000ea170     Shell:AutoGen.obj
 0003:00001180       gEfiPciEnumerationCompleteProtocolGuid 00000000000ea180     Shell:AutoGen.obj
 0003:00001190       gEfiDevicePathFromTextProtocolGuid 00000000000ea190     Shell:AutoGen.obj
 0003:000011a0       gEfiGraphicsOutputProtocolGuid 00000000000ea1a0     Shell:AutoGen.obj
 0003:000011b0       gEfiTapeIoProtocolGuid     00000000000ea1b0     Shell:AutoGen.obj
 0003:000011c0       gEfiUdp6ProtocolGuid       00000000000ea1c0     Shell:AutoGen.obj
 0003:000011d0       gEfiShellParametersProtocolGuid 00000000000ea1d0     Shell:AutoGen.obj
 0003:000011e0       gEfiHiiDatabaseProtocolGuid 00000000000ea1e0     Shell:AutoGen.obj
 0003:000011f0       gEfiRedfishDiscoverProtocolGuid 00000000000ea1f0     Shell:AutoGen.obj
 0003:00001200       gEfiRscHandlerProtocolGuid 00000000000ea200     Shell:AutoGen.obj
 0003:00001210       gEfiSimpleFileSystemProtocolGuid 00000000000ea210     Shell:AutoGen.obj
 0003:00001220       gEfiSmbios3TableGuid       00000000000ea220     Shell:AutoGen.obj
 0003:00001230       gEfiMmCommunicationProtocolGuid 00000000000ea230     Shell:AutoGen.obj
 0003:00001240       gEfiMmStandbyButtonDispatchProtocolGuid 00000000000ea240     Shell:AutoGen.obj
 0003:00001250       gEfiHiiStringProtocolGuid  00000000000ea250     Shell:AutoGen.obj
 0003:00001260       gEfiPciHotPlugInitProtocolGuid 00000000000ea260     Shell:AutoGen.obj
 0003:00001270       gEfiUdp6ServiceBindingProtocolGuid 00000000000ea270     Shell:AutoGen.obj
 0003:00001280       gEfiIp6ServiceBindingProtocolGuid 00000000000ea280     Shell:AutoGen.obj
 0003:00001290       gEfiBluetoothConfigProtocolGuid 00000000000ea290     Shell:AutoGen.obj
 0003:000012a0       gEfiSmartCardEdgeProtocolGuid 00000000000ea2a0     Shell:AutoGen.obj
 0003:000012b0       gEfiTimestampProtocolGuid  00000000000ea2b0     Shell:AutoGen.obj
 0003:000012c0       gEfiTcg2ProtocolGuid       00000000000ea2c0     Shell:AutoGen.obj
 0003:000012d0       gEfiNetworkInterfaceIdentifierProtocolGuid 00000000000ea2d0     Shell:AutoGen.obj
 0003:000012e0       gEfiVT100PlusGuid          00000000000ea2e0     Shell:AutoGen.obj
 0003:000012f0       gEfiRuntimeArchProtocolGuid 00000000000ea2f0     Shell:AutoGen.obj
 0003:00001300       gEfiEapManagement2ProtocolGuid 00000000000ea300     Shell:AutoGen.obj
 0003:00001310       gEfiAcpiTableProtocolGuid  00000000000ea310     Shell:AutoGen.obj
 0003:00001320       gEfiBluetoothLeConfigProtocolGuid 00000000000ea320     Shell:AutoGen.obj
 0003:00001330       gEfiAcpiSdtProtocolGuid    00000000000ea330     Shell:AutoGen.obj
 0003:00001340       gEfiSmbiosTableGuid        00000000000ea340     Shell:AutoGen.obj
 0003:00001350       gEfiMetronomeArchProtocolGuid 00000000000ea350     Shell:AutoGen.obj
 0003:00001360       gEfiShellEnvironment2Guid  00000000000ea360     Shell:AutoGen.obj
 0003:00001370       gEfiSmmReadyToLockProtocolGuid 00000000000ea370     Shell:AutoGen.obj
 0003:00001380       gEfiPartTypeSystemPartGuid 00000000000ea380     Shell:AutoGen.obj
 0003:00001390       gEfiDns6ProtocolGuid       00000000000ea390     Shell:AutoGen.obj
 0003:000013a0       gFdtTableGuid              00000000000ea3a0     Shell:AutoGen.obj
 0003:000013b0       gEfiScsiPassThruProtocolGuid 00000000000ea3b0     Shell:AutoGen.obj
 0003:000013c0       gEfiEdidActiveProtocolGuid 00000000000ea3c0     Shell:AutoGen.obj
 0003:000013d0       gEfiHiiConfigAccessProtocolGuid 00000000000ea3d0     Shell:AutoGen.obj
 0003:000013e0       gEfiTimerArchProtocolGuid  00000000000ea3e0     Shell:AutoGen.obj
 0003:000013f0       gEfiHttpServiceBindingProtocolGuid 00000000000ea3f0     Shell:AutoGen.obj
 0003:00001400       gEfiHobListGuid            00000000000ea400     Shell:AutoGen.obj
 0003:00001410       gEfiUserManagerProtocolGuid 00000000000ea410     Shell:AutoGen.obj
 0003:00001420       gEfiHiiImageDecoderProtocolGuid 00000000000ea420     Shell:AutoGen.obj
 0003:00001430       gEfiIp4ProtocolGuid        00000000000ea430     Shell:AutoGen.obj
 0003:00001440       gEfiDebugPortProtocolGuid  00000000000ea440     Shell:AutoGen.obj
 0003:00001450       gEfiBluetoothAttributeProtocolGuid 00000000000ea450     Shell:AutoGen.obj
 0003:00001460       gEfiMmPciRootBridgeIoProtocolGuid 00000000000ea460     Shell:AutoGen.obj
 0003:00001470       gEfiPciPlatformProtocolGuid 00000000000ea470     Shell:AutoGen.obj
 0003:00001480       gEfiAdapterInfoMediaStateGuid 00000000000ea480     Shell:AutoGen.obj
 0003:00001490       gEfiDriverConfigurationProtocolGuid 00000000000ea490     Shell:AutoGen.obj
 0003:000014a0       gEfiConsoleInDeviceGuid    00000000000ea4a0     Shell:AutoGen.obj
 0003:000014b0       gEfiSmmPeriodicTimerDispatch2ProtocolGuid 00000000000ea4b0     Shell:AutoGen.obj
 0003:000014c0       gEfiTcgProtocolGuid        00000000000ea4c0     Shell:AutoGen.obj
 0003:000014d0       gEfiHash2ProtocolGuid      00000000000ea4d0     Shell:AutoGen.obj
 0003:000014e0       gShellVariableGuid         00000000000ea4e0     Shell:AutoGen.obj
 0003:000014f0       gEfiDiskIo2ProtocolGuid    00000000000ea4f0     Shell:AutoGen.obj
 0003:00001500       gEfiManagedNetworkServiceBindingProtocolGuid 00000000000ea500     Shell:AutoGen.obj
 0003:00001510       gEfiHashProtocolGuid       00000000000ea510     Shell:AutoGen.obj
 0003:00001520       gEfiDebugSupportProtocolGuid 00000000000ea520     Shell:AutoGen.obj
 0003:00001530       gEfiFormBrowser2ProtocolGuid 00000000000ea530     Shell:AutoGen.obj
 0003:00001540       gEfiSystemResourceTableGuid 00000000000ea540     Shell:AutoGen.obj
 0003:00001550       gEfiBluetoothAttributeServiceBindingProtocolGuid 00000000000ea550     Shell:AutoGen.obj
 0003:00001560       gEfiMtftp4ServiceBindingProtocolGuid 00000000000ea560     Shell:AutoGen.obj
 0003:00001570       gEfiDriverBindingProtocolGuid 00000000000ea570     Shell:AutoGen.obj
 0003:00001580       gShellAliasGuid            00000000000ea580     Shell:AutoGen.obj
 0003:00001590       gEfiMmConfigurationProtocolGuid 00000000000ea590     Shell:AutoGen.obj
 0003:000015a0       gEfiShellProtocolGuid      00000000000ea5a0     Shell:AutoGen.obj
 0003:000015b0       gEfiArpServiceBindingProtocolGuid 00000000000ea5b0     Shell:AutoGen.obj
 0003:000015c0       gEfiRealTimeClockArchProtocolGuid 00000000000ea5c0     Shell:AutoGen.obj
 0003:000015d0       gEfiUdp4ProtocolGuid       00000000000ea5d0     Shell:AutoGen.obj
 0003:000015e0       gEfiConfProfilesUefiSpecGuid 00000000000ea5e0     Shell:AutoGen.obj
 0003:000015f0       gEfiIp6ProtocolGuid        00000000000ea5f0     Shell:AutoGen.obj
 0003:00001600       gEfiHttpBootCallbackProtocolGuid 00000000000ea600     Shell:AutoGen.obj
 0003:00001610       gEfiCpuIo2ProtocolGuid     00000000000ea610     Shell:AutoGen.obj
 0003:00001620       gEfiSecurity2ArchProtocolGuid 00000000000ea620     Shell:AutoGen.obj
 0003:00001630       gEfiAcpi20TableGuid        00000000000ea630     Shell:AutoGen.obj
 0003:00001640       gEfiSmmEndOfDxeProtocolGuid 00000000000ea640     Shell:AutoGen.obj
 0003:00001650       gEfiFtp4ProtocolGuid       00000000000ea650     Shell:AutoGen.obj
 0003:00001660       gEfiTcp4ServiceBindingProtocolGuid 00000000000ea660     Shell:AutoGen.obj
 0003:00001670       gEfiVirtualDiskGuid        00000000000ea670     Shell:AutoGen.obj
 0003:00001680       gEfiMmUsbDispatchProtocolGuid 00000000000ea680     Shell:AutoGen.obj
 0003:00001690       gEfiMmCpuProtocolGuid      00000000000ea690     Shell:AutoGen.obj
 0003:000016a0       gEfiIdeControllerInitProtocolGuid 00000000000ea6a0     Shell:AutoGen.obj
 0003:000016b0       gEfiStorageSecurityCommandProtocolGuid 00000000000ea6b0     Shell:AutoGen.obj
 0003:000016c0       gEfiMonotonicCounterArchProtocolGuid 00000000000ea6c0     Shell:AutoGen.obj
 0003:000016d0       gEfiComponentNameProtocolGuid 00000000000ea6d0     Shell:AutoGen.obj
 0003:000016e0       gEfiMmControlProtocolGuid  00000000000ea6e0     Shell:AutoGen.obj
 0003:000016f0       gEfiBlockIoProtocolGuid    00000000000ea6f0     Shell:AutoGen.obj
 0003:00001700       gEfiSmmBase2ProtocolGuid   00000000000ea700     Shell:AutoGen.obj
 0003:00001710       gEfiPlatformDriverOverrideProtocolGuid 00000000000ea710     Shell:AutoGen.obj
 0003:00001720       gEfiDxeServicesTableGuid   00000000000ea720     Shell:AutoGen.obj
 0003:00001730       gEfiScsiIoProtocolGuid     00000000000ea730     Shell:AutoGen.obj
 0003:00001740       gEfiSasDevicePathGuid      00000000000ea740     Shell:AutoGen.obj
 0003:00001750       gEfiDecompressProtocolGuid 00000000000ea750     Shell:AutoGen.obj
 0003:00001760       gEfiPersistentVirtualCdGuid 00000000000ea760     Shell:AutoGen.obj
 0003:00001770       gEfiSmmSxDispatch2ProtocolGuid 00000000000ea770     Shell:AutoGen.obj
 0003:00001780       gEfiSmmStandbyButtonDispatch2ProtocolGuid 00000000000ea780     Shell:AutoGen.obj
 0003:00001790       gEfiTlsConfigurationProtocolGuid 00000000000ea790     Shell:AutoGen.obj
 0003:000017a0       gEfiCallerIdGuid           00000000000ea7a0     Shell:AutoGen.obj
 0003:000017b0       gEfiIsaHcServiceBindingProtocolGuid 00000000000ea7b0     Shell:AutoGen.obj
 0003:000017c0       gEfiDhcp4ProtocolGuid      00000000000ea7c0     Shell:AutoGen.obj
 0003:000017d0       gEfiConfProfilesTableGuid  00000000000ea7d0     Shell:AutoGen.obj
 0003:000017e0       gEfiMmEndOfDxeProtocolGuid 00000000000ea7e0     Shell:AutoGen.obj
 0003:000017f0       gEfiSmmAccess2ProtocolGuid 00000000000ea7f0     Shell:AutoGen.obj
 0003:00001800       gEfiUfsDeviceConfigProtocolGuid 00000000000ea800     Shell:AutoGen.obj
 0003:00001810       gGetPcdInfoProtocolGuid    00000000000ea810     Shell:AutoGen.obj
 0003:00001820       gEfiSmmSwDispatch2ProtocolGuid 00000000000ea820     Shell:AutoGen.obj
 0003:00001830       gEfiTcp6ServiceBindingProtocolGuid 00000000000ea830     Shell:AutoGen.obj
 0003:00001840       gEfiSmmPciRootBridgeIoProtocolGuid 00000000000ea840     Shell:AutoGen.obj
 0003:00001850       gEfiSmmConfigurationProtocolGuid 00000000000ea850     Shell:AutoGen.obj
 0003:00001860       gEfiManagedNetworkProtocolGuid 00000000000ea860     Shell:AutoGen.obj
 0003:00001870       gEfiPcAnsiGuid             00000000000ea870     Shell:AutoGen.obj
 0003:00001880       gEfiEdidOverrideProtocolGuid 00000000000ea880     Shell:AutoGen.obj
 0003:00001890       gEfiIpSecConfigProtocolGuid 00000000000ea890     Shell:AutoGen.obj
 0003:000018a0       gEfiMmPeriodicTimerDispatchProtocolGuid 00000000000ea8a0     Shell:AutoGen.obj
 0003:000018b0       gEfiArpProtocolGuid        00000000000ea8b0     Shell:AutoGen.obj
 0003:000018c0       gEfiTcp6ProtocolGuid       00000000000ea8c0     Shell:AutoGen.obj
 0003:000018d0       gEfiShellInterfaceGuid     00000000000ea8d0     Shell:AutoGen.obj
 0003:000018e0       gEfiConfProfilesEbbrSpec21Guid 00000000000ea8e0     Shell:AutoGen.obj
 0003:000018f0       gEdkiiVariablePolicyProtocolGuid 00000000000ea8f0     Shell:AutoGen.obj
 0003:00001900       gEfiAbsolutePointerProtocolGuid 00000000000ea900     Shell:AutoGen.obj
 0003:00001910       gEfiTcp4ProtocolGuid       00000000000ea910     Shell:AutoGen.obj
 0003:00001920       gEfiVariableArchProtocolGuid 00000000000ea920     Shell:AutoGen.obj
 0003:00001930       gEfiHiiFontProtocolGuid    00000000000ea930     Shell:AutoGen.obj
 0003:00001940       gEfiMmIoTrapDispatchProtocolGuid 00000000000ea940     Shell:AutoGen.obj
 0003:00001950       gEfiLoadFile2ProtocolGuid  00000000000ea950     Shell:AutoGen.obj
 0003:00001960       gEfiBluetoothIoServiceBindingProtocolGuid 00000000000ea960     Shell:AutoGen.obj
 0003:00001970       gShellLevel3HiiGuid        00000000000ea970     Shell:AutoGen.obj
 0003:00001980       gHandleParsingHiiGuid      00000000000ea980     Shell:AutoGen.obj
 0003:00001990       mShellManHiiDevicePath     00000000000ea990     Shell:ShellManParser.obj
 0003:000019b0       FileInterfaceNulFile       00000000000ea9b0     Shell:FileHandleWrappers.obj
 0003:00001a30       FileInterfaceStdOut        00000000000eaa30     Shell:FileHandleWrappers.obj
 0003:00001ab0       FileInterfaceStdIn         00000000000eaab0     Shell:FileHandleWrappers.obj
 0003:00001b30       FileInterfaceStdErr        00000000000eab30     Shell:FileHandleWrappers.obj
 0003:00001bb0       mShellProtocol             00000000000eabb0     Shell:ShellProtocol.obj
 0003:00001d20       ShellInfoObject            00000000000ead20     Shell:Shell.obj
 0003:00001e60       mUefiDevicePathLibDevPathFromTextTable 00000000000eae60     UefiDevicePathLib:DevicePathFromText.obj
 0003:000023d0       EmptyParamList             00000000000eb3d0     UefiShellLib:UefiShellLib.obj
 0003:000023e0       SfoParamList               00000000000eb3e0     UefiShellLib:UefiShellLib.obj
 0003:00002400       UefiHandleParsingLibStrings 00000000000eb400     UefiHandleParsingLib:AutoGen.obj
 0003:00006970       mBmLoadOptionName          00000000000ef970     UefiBootManagerLib:BmLoadOption.obj
 0003:00006990       mMTDName                   00000000000ef990     UefiShellCommandLib:ConsistMapping.obj
 0003:000069e0       DevPathConsistMappingTable 00000000000ef9e0     UefiShellCommandLib:ConsistMapping.obj
 0003:00006bd8       SupportLevel               00000000000efbd8     UefiShellCommandLib:UefiShellCommandLib.obj
 0003:00006c00       UefiShellBcfgCommandLibStrings 00000000000efc00     UefiShellBcfgCommandLib:AutoGen.obj
 0003:00009c40       gIp4AllMasks               00000000000f2c40     DxeNetLib:DxeNetLib.obj
 0003:00009cd0       UefiShellLevel2CommandsLibStrings 00000000000f2cd0     UefiShellLevel2CommandsLib:AutoGen.obj
 0003:0001d6c0       mDayOfMonth                00000000001066c0     UefiShellLevel2CommandsLib:Ls.obj
 0003:0001d720       UefiShellLevel1CommandsLibStrings 0000000000106720     UefiShellLevel1CommandsLib:AutoGen.obj
 0003:00025d90       UefiShellLevel3CommandsLibStrings 000000000010ed90     UefiShellLevel3CommandsLib:AutoGen.obj
 0003:0002e140       UefiShellDriver1CommandsLibStrings 0000000000117140     UefiShellDriver1CommandsLib:AutoGen.obj
 0003:0003ac48       mGuidDataLen               0000000000123c48     UefiShellDriver1CommandsLib:Dh.obj
 0003:0003acc0       UefiShellDebug1CommandsLibStrings 0000000000123cc0     UefiShellDebug1CommandsLib:AutoGen.obj
 0003:0005c4f0       HMainEditorConst           00000000001454f0     UefiShellDebug1CommandsLib:MainHexEditor.obj
 0003:0005c540       HexMainMenuHelpInfo        0000000000145540     UefiShellDebug1CommandsLib:MainHexEditor.obj
 0003:0005c570       HexMainControlBasedMenuFunctions 0000000000145570     UefiShellDebug1CommandsLib:MainHexEditor.obj
 0003:0005c650       HBufferImageConst          0000000000145650     UefiShellDebug1CommandsLib:BufferImage.obj
 0003:0005c6d0       MainControlBasedMenuFunctions 00000000001456d0     UefiShellDebug1CommandsLib:MainTextEditor.obj
 0003:0005c7a8       MainMenuHelpInfo           00000000001457a8     UefiShellDebug1CommandsLib:MainTextEditor.obj
 0003:0005c7e0       MainMenuItems              00000000001457e0     UefiShellDebug1CommandsLib:MainTextEditor.obj
 0003:0005c890       MainEditorConst            0000000000145890     UefiShellDebug1CommandsLib:MainTextEditor.obj
 0003:0005c8e0       FileBufferConst            00000000001458e0     UefiShellDebug1CommandsLib:FileBuffer.obj
 0003:0005c968       gShowType                  0000000000145968     UefiShellDebug1CommandsLib:SmbiosView.obj
 0003:0005c970       SESecurityStatusTable      0000000000145970     UefiShellDebug1CommandsLib:QueryTable.obj
 0003:0005c9c0       MemoryDeviceFormFactorTable 00000000001459c0     UefiShellDebug1CommandsLib:QueryTable.obj
 0003:0005caf0       MDAddressTypeTable         0000000000145af0     UefiShellDebug1CommandsLib:QueryTable.obj
 0003:0005cb40       FirmwareInventoryStateTable 0000000000145b40     UefiShellDebug1CommandsLib:QueryTable.obj
 0003:0005cbc0       McErrorCorrectCapabilityTable 0000000000145bc0     UefiShellDebug1CommandsLib:QueryTable.obj
 0003:0005cc20       CacheAssociativityTable    0000000000145c20     UefiShellDebug1CommandsLib:QueryTable.obj
 0003:0005cd00       TemperatureProbeLocTable   0000000000145d00     UefiShellDebug1CommandsLib:QueryTable.obj
 0003:0005cdb0       ProcessorUpgradeTable      0000000000145db0     UefiShellDebug1CommandsLib:QueryTable.obj
 0003:0005d320       MDTypeTable                0000000000146320     UefiShellDebug1CommandsLib:QueryTable.obj
 0003:0005d3f0       MemoryDeviceTypeTable      00000000001463f0     UefiShellDebug1CommandsLib:QueryTable.obj
 0003:0005d610       TemperatureProbeStatusTable 0000000000146610     UefiShellDebug1CommandsLib:QueryTable.obj
 0003:0005d670       MemoryModuleVoltageTable   0000000000146670     UefiShellDebug1CommandsLib:QueryTable.obj
 0003:0005d6a0       SystemSlotLengthTable      00000000001466a0     UefiShellDebug1CommandsLib:QueryTable.obj
 0003:0005d6e0       StructureTypeInfoTable     00000000001466e0     UefiShellDebug1CommandsLib:QueryTable.obj
 0003:0005d9d0       BaseBoardFeatureFlagsTable 00000000001469d0     UefiShellDebug1CommandsLib:QueryTable.obj
 0003:0005da20       PMAErrorCorrectionTypesTable 0000000000146a20     UefiShellDebug1CommandsLib:QueryTable.obj
 0003:0005da90       MemoryDeviceTypeDetailTable 0000000000146a90     UefiShellDebug1CommandsLib:QueryTable.obj
 0003:0005db70       MemoryErrorOperationTable  0000000000146b70     UefiShellDebug1CommandsLib:QueryTable.obj
 0003:0005dbc0       SystemEnclosureTypeTable   0000000000146bc0     UefiShellDebug1CommandsLib:QueryTable.obj
 0003:0005de00       PointingDeviceTypeTable    0000000000146e00     UefiShellDebug1CommandsLib:QueryTable.obj
 0003:0005de70       SELVarDataFormatTypeTable  0000000000146e70     UefiShellDebug1CommandsLib:QueryTable.obj
 0003:0005df00       PMAUseTable                0000000000146f00     UefiShellDebug1CommandsLib:QueryTable.obj
 0003:0005df70       VPStatusTable              0000000000146f70     UefiShellDebug1CommandsLib:QueryTable.obj
 0003:0005e020       ECPStatusTable             0000000000147020     UefiShellDebug1CommandsLib:QueryTable.obj
 0003:0005e080       CacheSRAMTypeTable         0000000000147080     UefiShellDebug1CommandsLib:QueryTable.obj
 0003:0005e0f0       SlotCharacteristics2Table  00000000001470f0     UefiShellDebug1CommandsLib:QueryTable.obj
 0003:0005e170       ProcessorArchitectureTypesTable 0000000000147170     UefiShellDebug1CommandsLib:QueryTable.obj
 0003:0005e220       MemoryErrorTypeTable       0000000000147220     UefiShellDebug1CommandsLib:QueryTable.obj
 0003:0005e300       ECPLocTable                0000000000147300     UefiShellDebug1CommandsLib:QueryTable.obj
 0003:0005e3b0       SystemEnclosureStatusTable 00000000001473b0     UefiShellDebug1CommandsLib:QueryTable.obj
 0003:0005e410       MemoryDeviceMemoryTechnologyTable 0000000000147410     UefiShellDebug1CommandsLib:QueryTable.obj
 0003:0005e490       ProcessorCharacteristicsTable 0000000000147490     UefiShellDebug1CommandsLib:QueryTable.obj
 0003:0005e520       PMALocationTable           0000000000147520     UefiShellDebug1CommandsLib:QueryTable.obj
 0003:0005e610       MemoryErrorGranularityTable 0000000000147610     UefiShellDebug1CommandsLib:QueryTable.obj
 0003:0005e650       PostResultsBitmapDw2Table  0000000000147650     UefiShellDebug1CommandsLib:QueryTable.obj
 0003:0005e850       McErrorDetectMethodTable   0000000000147850     UefiShellDebug1CommandsLib:QueryTable.obj
 0003:0005e8d0       SELTypesTable              00000000001478d0     UefiShellDebug1CommandsLib:QueryTable.obj
 0003:0005ea80       SystemWakeupTypeTable      0000000000147a80     UefiShellDebug1CommandsLib:QueryTable.obj
 0003:0005eb00       SystemSlotPhysicalWidthTable 0000000000147b00     UefiShellDebug1CommandsLib:QueryTable.obj
 0003:0005ebe0       McInterleaveSupportTable   0000000000147be0     UefiShellDebug1CommandsLib:QueryTable.obj
 0003:0005ec50       PostResultsBitmapDw1Table  0000000000147c50     UefiShellDebug1CommandsLib:QueryTable.obj
 0003:0005ee50       SystemSlotTypeTable        0000000000147e50     UefiShellDebug1CommandsLib:QueryTable.obj
 0003:0005f340       PortTypeTable              0000000000148340     UefiShellDebug1CommandsLib:QueryTable.obj
 0003:0005f5b0       MemoryChannelTypeTable     00000000001485b0     UefiShellDebug1CommandsLib:QueryTable.obj
 0003:0005f5f0       SlotCharacteristics1Table  00000000001485f0     UefiShellDebug1CommandsLib:QueryTable.obj
 0003:0005f670       CacheSystemCacheTypeTable  0000000000148670     UefiShellDebug1CommandsLib:QueryTable.obj
 0003:0005f6c0       SystemSlotHeightTable      00000000001486c0     UefiShellDebug1CommandsLib:QueryTable.obj
 0003:0005f710       PortConnectorTypeTable     0000000000148710     UefiShellDebug1CommandsLib:QueryTable.obj
 0003:0005f9b0       CoolingDeviceTypeTable     00000000001489b0     UefiShellDebug1CommandsLib:QueryTable.obj
 0003:0005fa60       SystemSlotInformationTable 0000000000148a60     UefiShellDebug1CommandsLib:QueryTable.obj
 0003:0005fad0       OnboardDeviceTypesTable    0000000000148ad0     UefiShellDebug1CommandsLib:QueryTable.obj
 0003:0005fbd0       IPMIDIBMCInterfaceTypeTable 0000000000148bd0     UefiShellDebug1CommandsLib:QueryTable.obj
 0003:0005fc30       McMemorySpeedsTable        0000000000148c30     UefiShellDebug1CommandsLib:QueryTable.obj
 0003:0005fc80       PointingDeviceInterfaceTable 0000000000148c80     UefiShellDebug1CommandsLib:QueryTable.obj
 0003:0005fd30       BaseBoardBoardTypeTable    0000000000148d30     UefiShellDebug1CommandsLib:QueryTable.obj
 0003:0005fe00       CacheErrCorrectingTypeTable 0000000000148e00     UefiShellDebug1CommandsLib:QueryTable.obj
 0003:0005fe60       SELSysManagementTypesTable 0000000000148e60     UefiShellDebug1CommandsLib:QueryTable.obj
 0003:0005ff60       SystemSlotDataBusWidthTable 0000000000148f60     UefiShellDebug1CommandsLib:QueryTable.obj
 0003:00060040       SystemSlotCurrentUsageTable 0000000000149040     UefiShellDebug1CommandsLib:QueryTable.obj
 0003:00060090       MemoryDeviceMemoryOperatingModeCapabilityTable 0000000000149090     UefiShellDebug1CommandsLib:QueryTable.obj
 0003:000600e0       MmErrorStatusTable         00000000001490e0     UefiShellDebug1CommandsLib:QueryTable.obj
 0003:00060110       PBDeviceChemistryTable     0000000000149110     UefiShellDebug1CommandsLib:QueryTable.obj
 0003:00060190       MCHostInterfaceTypeTable   0000000000149190     UefiShellDebug1CommandsLib:QueryTable.obj
 0003:000601c0       VPLocationTable            00000000001491c0     UefiShellDebug1CommandsLib:QueryTable.obj
 0003:00060220       MmMemoryTypeTable          0000000000149220     UefiShellDebug1CommandsLib:QueryTable.obj
 0003:000602d0       FirmwareInventoryCharTable 00000000001492d0     UefiShellDebug1CommandsLib:QueryTable.obj
 0003:000602f0       CoolingDeviceStatusTable   00000000001492f0     UefiShellDebug1CommandsLib:QueryTable.obj
 0003:00060350       ProcessorTypeTable         0000000000149350     UefiShellDebug1CommandsLib:QueryTable.obj
 0003:000603b0       PCIBlankEntry              00000000001493b0     UefiShellDebug1CommandsLib:Pci.obj
 0003:000603e0       PcieExplainList            00000000001493e0     UefiShellDebug1CommandsLib:Pci.obj
 0003:00060660       PCIPIFClass_0801           0000000000149660     UefiShellDebug1CommandsLib:Pci.obj
 0003:000606c0       PCIPIFClass_0701           00000000001496c0     UefiShellDebug1CommandsLib:Pci.obj
 0003:00060750       PCISubClass_0a             0000000000149750     UefiShellDebug1CommandsLib:Pci.obj
 0003:000607a0       PCIPIFClass_0101           00000000001497a0     UefiShellDebug1CommandsLib:Pci.obj
 0003:00060ab8       SlotPwrLmtScaleTable       0000000000149ab8     UefiShellDebug1CommandsLib:Pci.obj
 0003:00060ae0       gClassStringList           0000000000149ae0     UefiShellDebug1CommandsLib:Pci.obj
 0003:00060cf0       PCISubClass_01             0000000000149cf0     UefiShellDebug1CommandsLib:Pci.obj
 0003:00060e10       L1LatencyStrTable          0000000000149e10     UefiShellDebug1CommandsLib:Pci.obj
 0003:00060e50       PCIPIFClass_0800           0000000000149e50     UefiShellDebug1CommandsLib:Pci.obj
 0003:00060ee0       PCIPIFClass_0100           0000000000149ee0     UefiShellDebug1CommandsLib:Pci.obj
 0003:00060f70       L0sLatencyStrTable         0000000000149f70     UefiShellDebug1CommandsLib:Pci.obj
 0003:00060fb0       PCISubClass_07             0000000000149fb0     UefiShellDebug1CommandsLib:Pci.obj
 0003:00061070       PCISubClass_06             000000000014a070     UefiShellDebug1CommandsLib:Pci.obj
 0003:000611c0       PCIPIFClass_060b           000000000014a1c0     UefiShellDebug1CommandsLib:Pci.obj
 0003:00061210       PCIPIFClass_0c03           000000000014a210     UefiShellDebug1CommandsLib:Pci.obj
 0003:000612c0       PCISubClass_05             000000000014a2c0     UefiShellDebug1CommandsLib:Pci.obj
 0003:00061320       PCIPIFClass_0703           000000000014a320     UefiShellDebug1CommandsLib:Pci.obj
 0003:000613b0       PCISubClass_0e             000000000014a3b0     UefiShellDebug1CommandsLib:Pci.obj
 0003:000613e0       DevicePortTypeTable        000000000014a3e0     UefiShellDebug1CommandsLib:Pci.obj
 0003:00061440       PCIPIFClass_0108           000000000014a440     UefiShellDebug1CommandsLib:Pci.obj
 0003:000614a0       PCIPIFClass_0d01           000000000014a4a0     UefiShellDebug1CommandsLib:Pci.obj
 0003:000614f0       PCIPIFClass_0107           000000000014a4f0     UefiShellDebug1CommandsLib:Pci.obj
 0003:00061540       PCIPIFClass_0106           000000000014a540     UefiShellDebug1CommandsLib:Pci.obj
 0003:000615a0       PCISubClass_11             000000000014a5a0     UefiShellDebug1CommandsLib:Pci.obj
 0003:00061630       PCISubClass_02             000000000014a630     UefiShellDebug1CommandsLib:Pci.obj
 0003:00061720       PCIPIFClass_0803           000000000014a720     UefiShellDebug1CommandsLib:Pci.obj
 0003:00061780       PCISubClass_0c             000000000014a780     UefiShellDebug1CommandsLib:Pci.obj
 0003:000618a0       PCISubClass_09             000000000014a8a0     UefiShellDebug1CommandsLib:Pci.obj
 0003:00061950       PCIPIFClass_0802           000000000014a950     UefiShellDebug1CommandsLib:Pci.obj
 0003:000619b0       PCISubClass_03             000000000014a9b0     UefiShellDebug1CommandsLib:Pci.obj
 0003:00061a30       PCIPIFClass_0604           000000000014aa30     UefiShellDebug1CommandsLib:Pci.obj
 0003:00061a78       PCISubClass_12             000000000014aa78     UefiShellDebug1CommandsLib:Pci.obj
 0003:00061aa8       ASPMCtrlStrTable           000000000014aaa8     UefiShellDebug1CommandsLib:Pci.obj
 0003:00061ad0       PCISubClass_0f             000000000014aad0     UefiShellDebug1CommandsLib:Pci.obj
 0003:00061b60       PCIPIFClass_0c00           000000000014ab60     UefiShellDebug1CommandsLib:Pci.obj
 0003:00061ba8       PCISubClass_13             000000000014aba8     UefiShellDebug1CommandsLib:Pci.obj
 0003:00061be0       PCIPIFClass_0c07           000000000014abe0     UefiShellDebug1CommandsLib:Pci.obj
 0003:00061c40       PCIPIFClass_0904           000000000014ac40     UefiShellDebug1CommandsLib:Pci.obj
 0003:00061c90       PCIPIFClass_0609           000000000014ac90     UefiShellDebug1CommandsLib:Pci.obj
 0003:00061ce0       PCIPIFClass_0109           000000000014ace0     UefiShellDebug1CommandsLib:Pci.obj
 0003:00061d30       PCIPIFClass_0700           000000000014ad30     UefiShellDebug1CommandsLib:Pci.obj
 0003:00061df0       PCISubClass_04             000000000014adf0     UefiShellDebug1CommandsLib:Pci.obj
 0003:00061e80       PCISubClass_00             000000000014ae80     UefiShellDebug1CommandsLib:Pci.obj
 0003:00061ed0       PCIPIFClass_0e00           000000000014aed0     UefiShellDebug1CommandsLib:Pci.obj
 0003:00061f20       PCIPIFClass_0300           000000000014af20     UefiShellDebug1CommandsLib:Pci.obj
 0003:00061f70       PCISubClass_08             000000000014af70     UefiShellDebug1CommandsLib:Pci.obj
 0003:00062060       PCISubClass_10             000000000014b060     UefiShellDebug1CommandsLib:Pci.obj
 0003:000620c0       PCISubClass_0b             000000000014b0c0     UefiShellDebug1CommandsLib:Pci.obj
 0003:000621a0       PCISubClass_0d             000000000014b1a0     UefiShellDebug1CommandsLib:Pci.obj
 0003:00062278       IndicatorTable             000000000014b278     UefiShellDebug1CommandsLib:Pci.obj
 0003:000622a0       PCIPIFClass_0105           000000000014b2a0     UefiShellDebug1CommandsLib:Pci.obj
 0003:00062460       UefiShellNetwork1CommandsLibStrings 000000000014b460     UefiShellNetwork1CommandsLib:AutoGen.obj
 0003:00064b10       mIfConfigCheckList         000000000014db10     UefiShellNetwork1CommandsLib:Ifconfig.obj
 0003:00064b70       mSetCheckList              000000000014db70     UefiShellNetwork1CommandsLib:Ifconfig.obj
 0003:00064be0       __security_cookie          000000000014dbe0     StackCheckLibNull:StackCheckLibNullMsvc.obj
 0003:00064be8       mShellManHiiHandle         000000000014dbe8     Shell:ShellManParser.obj
 0003:00064bf0       mShellManDriverHandle      000000000014dbf0     Shell:ShellManParser.obj
 0003:00064bf8       AsciiRedirection           000000000014dbf8     Shell:ShellParametersProtocol.obj
 0003:00064c00       mReportStatusCodeLibStatusCodeProtocol 000000000014dc00     DxeReportStatusCodeLib:ReportStatusCodeLib.obj
 0003:00064c10       gST                        000000000014dc10     UefiBootServicesTableLib:UefiBootServicesTableLib.obj
 0003:00064c18       gImageHandle               000000000014dc18     UefiBootServicesTableLib:UefiBootServicesTableLib.obj
 0003:00064c20       gBS                        000000000014dc20     UefiBootServicesTableLib:UefiBootServicesTableLib.obj
 0003:00064c28       gRT                        000000000014dc28     UefiRuntimeServicesTableLib:UefiRuntimeServicesTableLib.obj
 0003:00064c30       gHiiDatabase               000000000014dc30     UefiHiiServicesLib:UefiHiiServicesLib.obj
 0003:00064c38       gHiiString                 000000000014dc38     UefiHiiServicesLib:UefiHiiServicesLib.obj
 0003:00064c40       gHiiFont                   000000000014dc40     UefiHiiServicesLib:UefiHiiServicesLib.obj
 0003:00064c48       gHiiConfigRouting          000000000014dc48     UefiHiiServicesLib:UefiHiiServicesLib.obj
 0003:00064c50       gHiiImage                  000000000014dc50     UefiHiiServicesLib:UefiHiiServicesLib.obj
 0003:00064c58       mHobList                   000000000014dc58     DxeHobLib:HobLib.obj
 0003:00064c68       gDS                        000000000014dc68     DxeServicesTableLib:DxeServicesTableLib.obj
 0003:00064c70       mHandleList                000000000014dc70     UefiHandleParsingLib:UefiHandleParsingLib.obj
 0003:00064c98       mHandleParsingHiiHandle    000000000014dc98     UefiHandleParsingLib:UefiHandleParsingLib.obj
 0003:00064ca0       gUnicodeCollation          000000000014dca0     UefiShellCommandLib:UefiShellCommandLib.obj
 0003:00064ca8       gShellCurMapping           000000000014dca8     UefiShellCommandLib:UefiShellCommandLib.obj
 0003:00064cc8       mZeroIp4Addr               000000000014dcc8     DxeNetLib:DxeNetLib.obj
 0003:00064cd0       gShellLevel2HiiHandle      000000000014dcd0     UefiShellLevel2CommandsLib:UefiShellLevel2CommandsLib.obj
 0003:00064cd8       gShellLevel1HiiHandle      000000000014dcd8     UefiShellLevel1CommandsLib:UefiShellLevel1CommandsLib.obj
 0003:00064ce0       gShellLevel3HiiHandle      000000000014dce0     UefiShellLevel3CommandsLib:UefiShellLevel3CommandsLib.obj
 0003:00064ce8       gInReconnect               000000000014dce8     UefiShellDriver1CommandsLib:UefiShellDriver1CommandsLib.obj
 0003:00064cf0       gShellDriver1HiiHandle     000000000014dcf0     UefiShellDriver1CommandsLib:UefiShellDriver1CommandsLib.obj
 0003:00064cf8       HMemImageConst             000000000014dcf8     UefiShellDebug1CommandsLib:MemImage.obj
 0003:00064d10       HFileImageConst            000000000014dd10     UefiShellDebug1CommandsLib:FileImage.obj
 0003:00064d88       HDiskImageConst            000000000014dd88     UefiShellDebug1CommandsLib:DiskImage.obj
 0003:00064da8       HClipBoardConst            000000000014dda8     UefiShellDebug1CommandsLib:Clipboard.obj
 0003:00064db8       Title                      000000000014ddb8     UefiShellDebug1CommandsLib:EditTitleBar.obj
 0003:00064dc0       gShellDebug1HiiHandle      000000000014ddc0     UefiShellDebug1CommandsLib:UefiShellDebug1CommandsLib.obj
 0003:00067450       mConfigSpace               0000000000150450     UefiShellDebug1CommandsLib:Pci.obj
 0003:00067458       mHuffmanDepth              0000000000150458     UefiShellDebug1CommandsLib:Compress.obj
 0003:00067468       gShellNetwork1HiiHandle    0000000000150468     UefiShellNetwork1CommandsLib:UefiShellNetwork1CommandsLib.obj
 0003:00067470       SmbiosMinorVersion         0000000000150470     <common>
 0003:00067478       mNumberOfSmbios64BitStructures 0000000000150478     <common>
 0003:00067480       SmbiosMajorVersion         0000000000150480     <common>
 0003:00067488       mSmbios64BitTableLength    0000000000150488     <common>
 0003:00067490       mTextInEx                  0000000000150490     <common>
 0003:00067498       mReturnString              0000000000150498     <common>
 0003:000674a0       StringSize                 00000000001504a0     <common>
 0003:000674a8       mPrompt                    00000000001504a8     <common>
 0003:000674b0       StatusStringChanged        00000000001504b0     <common>
 0003:000674b8       StatusString               00000000001504b8     <common>
 0003:000674c0       StatusBarNeedRefresh       00000000001504c0     <common>
 0003:000674c8       MenuItems                  00000000001504c8     <common>
 0003:000674d0       NumItems                   00000000001504d0     <common>
 0003:000674d8       ControlBasedMenuFunctions  00000000001504d8     <common>
 0003:000674e0       FileBuffer                 00000000001504e0     <common>
 0003:00067558       FileBufferMouseNeedRefresh 0000000000150558     <common>
 0003:00067560       FileBufferBackupVar        0000000000150560     <common>
 0003:000675d8       FileBufferOnlyLineNeedRefresh 00000000001505d8     <common>
 0003:000675d9       FileBufferNeedRefresh      00000000001505d9     <common>
 0003:000675da       EditorFirst                00000000001505da     <common>
 0003:000675db       EditorMouseAction          00000000001505db     <common>
 0003:000675dc       OriginalColors             00000000001505dc     <common>
 0003:000675e0       EditorExit                 00000000001505e0     <common>
 0003:00067600       MainEditor                 0000000000150600     <common>
 0003:00067648       OriginalMode               0000000000150648     <common>
 0003:00067660       HBufferImageBackupVar      0000000000150660     <common>
 0003:000676e0       HBufferImage               00000000001506e0     <common>
 0003:00067758       HBufferImageNeedRefresh    0000000000150758     <common>
 0003:00067759       HBufferImageOnlyLineNeedRefresh 0000000000150759     <common>
 0003:0006775a       HBufferImageMouseNeedRefresh 000000000015075a     <common>
 0003:00067760       HClipBoard                 0000000000150760     <common>
 0003:00067780       HDiskImage                 0000000000150780     <common>
 0003:000677a0       HDiskImageBackupVar        00000000001507a0     <common>
 0003:000677c0       HFileImageBackupVar        00000000001507c0     <common>
 0003:000677e0       HFileImage                 00000000001507e0     <common>
 0003:000677f8       HOriginalColors            00000000001507f8     <common>
 0003:00067800       HOriginalMode              0000000000150800     <common>
 0003:00067808       HEditorMouseAction         0000000000150808     <common>
 0003:00067809       HEditorExit                0000000000150809     <common>
 0003:0006780a       HEditorFirst               000000000015080a     <common>
 0003:00067820       HMainEditorBackupVar       0000000000150820     <common>
 0003:00067880       HMainEditor                0000000000150880     <common>
 0003:000678e0       HMemImage                  00000000001508e0     <common>
 0003:00067900       HMemImageBackupVar         0000000000150900     <common>
 0003:00067920       gShellMapList              0000000000150920     <common>
 0003:00067950       mGuidListCount             0000000000150950     <common>
 0003:00067958       mGuidList                  0000000000150958     <common>
 0003:00067960       FileFunctionMap            0000000000150960     <common>
 0003:000679b0       mEfiShellEnvironment2      00000000001509b0     <common>
 0003:000679b8       mEfiShellInterface         00000000001509b8     <common>
 0003:000679c0       mUnicodeCollationProtocol  00000000001509c0     <common>
 0003:000679c8       mEfiShellEnvironment2Handle 00000000001509c8     <common>
 0003:000679d0       gEfiShellParametersProtocol 00000000001509d0     <common>
 0003:000679d8       gEfiShellProtocol          00000000001509d8     <common>
 0003:000679e0       gShellEnvVarList           00000000001509e0     <common>

 entry point at        0001:0004bfa0

 Static symbols

 0001:000000a9       rn16_ok                    00000000000110a9     BaseLib:RdRand.obj
 0001:000000bb       rn32_ok                    00000000000110bb     BaseLib:RdRand.obj
 0001:000000cd       rn64_ok                    00000000000110cd     BaseLib:RdRand.obj
 0001:000000fa       PvalidateExit              00000000000110fa     BaseLib:Pvalidate.obj
 0001:0000013a       InternalX86DisablePaging64.0 000000000001113a     BaseLib:DisablePaging64.obj
 0001:00000161       mTransitionEnd             0000000000011161     BaseLib:DisablePaging64.obj
 0001:000001d9       TdVmCall.no_return_data    00000000000111d9     BaseLib:TdVmcall.obj
 0001:0000024b       TdCall.exit                000000000001124b     BaseLib:TdCall.obj
 0001:00000733       CetDone                    0000000000011733     BaseLib:SetJump.obj
 0001:000007f0       CetDone                    00000000000117f0     BaseLib:LongJump.obj
 0001:0000087f       AsmCpuid.0                 000000000001187f     BaseLib:CpuId.obj
 0001:00000884       AsmCpuid.1                 0000000000011884     BaseLib:CpuId.obj
 0001:0000088b       AsmCpuid.2                 000000000001188b     BaseLib:CpuId.obj
 0001:00000894       AsmCpuid.3                 0000000000011894     BaseLib:CpuId.obj
 0001:000008b5       AsmCpuidEx.0               00000000000118b5     BaseLib:CpuIdEx.obj
 0001:000008bc       AsmCpuidEx.1               00000000000118bc     BaseLib:CpuIdEx.obj
 0001:000008c3       AsmCpuidEx.2               00000000000118c3     BaseLib:CpuIdEx.obj
 0001:000008cc       AsmCpuidEx.3               00000000000118cc     BaseLib:CpuIdEx.obj
 0001:000008d0       SavedGdt                   00000000000118d0     BaseLib:Thunk16.obj
 0001:000008da       _BackFromUserCode          00000000000118da     BaseLib:Thunk16.obj
 0001:000008e2       _BackFromUserCode.Base     00000000000118e2     BaseLib:Thunk16.obj
 0001:000008f6       _BackFromUserCode.ThunkAttrEnd 00000000000118f6     BaseLib:Thunk16.obj
 0001:00000903       _BackFromUserCode.1        0000000000011903     BaseLib:Thunk16.obj
 0001:0000090e       _BackFromUserCode.2        000000000001190e     BaseLib:Thunk16.obj
 0001:00000944       _BackFromUserCode.SavedCr4End 0000000000011944     BaseLib:Thunk16.obj
 0001:00000960       _BackFromUserCode.SavedCr0End 0000000000011960     BaseLib:Thunk16.obj
 0001:0000096b       _BackFromUserCode.X64JmpEnd 000000000001196b     BaseLib:Thunk16.obj
 0001:00000976       _BackFromUserCode.SavedSpEnd 0000000000011976     BaseLib:Thunk16.obj
 0001:00000978       _EntryPoint                0000000000011978     BaseLib:Thunk16.obj
 0001:0000097e       _16Gdtr                    000000000001197e     BaseLib:Thunk16.obj
 0001:00000980       _16GdtrBase                0000000000011980     BaseLib:Thunk16.obj
 0001:00000988       _16Idtr                    0000000000011988     BaseLib:Thunk16.obj
 0001:0000098e       _ToUserCode                000000000001198e     BaseLib:Thunk16.obj
 0001:000009b6       _ToUserCode.Base           00000000000119b6     BaseLib:Thunk16.obj
 0001:000009c5       _ToUserCode.RealMode       00000000000119c5     BaseLib:Thunk16.obj
 0001:000009e0       _NullSeg                   00000000000119e0     BaseLib:Thunk16.obj
 0001:000009e8       _16Code                    00000000000119e8     BaseLib:Thunk16.obj
 0001:000009f0       _16Data                    00000000000119f0     BaseLib:Thunk16.obj
 0001:000009f8       _32Data                    00000000000119f8     BaseLib:Thunk16.obj
 0001:00000ab4       InternalAsmThunk16.RetFromRealMode 0000000000011ab4     BaseLib:Thunk16.obj
 0001:0000bf0c       NestingEnabled             000000000001cf0c f   Shell:ShellProtocol.obj
 0001:0002f8d4       PopulateCommonData         00000000000408d4 f   VariablePolicyHelperLib:VariablePolicyHelperLib.obj
 0001:00038d30       DevicePathProtocolDumpInformationEx 0000000000049d30 f   UefiHandleParsingLib:UefiHandleParsingLib.obj
 0001:00044f58       UniqueNameCompare          0000000000055f58 f   UefiShellCommandLib:UefiShellCommandLib.obj
 0001:00044fa0       UniqueNameAliasCompare     0000000000055fa0 f   UefiShellCommandLib:UefiShellCommandLib.obj
 0001:00063ed0       CopyListOfCommandNamesWithDynamic 0000000000074ed0 f   UefiShellLevel3CommandsLib:Help.obj
 0001:0006903c       ParseBufferConfig          000000000007a03c f   UefiShellDriver1CommandsLib:DrvCfg.obj
 0001:00073cbc       ConnectConsoles            0000000000084cbc f   UefiShellDriver1CommandsLib:Connect.obj
 0001:000742f8       ConnectFromEfiVariable     00000000000852f8 f   UefiShellDriver1CommandsLib:Connect.obj
 0001:000973cc       $LN227                     00000000000a83cc     UefiShellDebug1CommandsLib:PrintInfo.obj
 0001:000a91e0       DisplayRtProperties        00000000000ba1e0 f   UefiShellDebug1CommandsLib:Dmem.obj
 0001:000a97cc       DisplayImageExecutionEntries 00000000000ba7cc f   UefiShellDebug1CommandsLib:Dmem.obj
 0001:000a9888       DisplayConformanceProfiles 00000000000ba888 f   UefiShellDebug1CommandsLib:Dmem.obj
 0001:000a9a74       DisplaySystemTable         00000000000baa74 f   UefiShellDebug1CommandsLib:Dmem.obj
 0001:000ae28c       ParseMemoryDescriptors     00000000000bf28c f   UefiShellDebug1CommandsLib:MemMap.obj
 0001:000afb10       FileBufferInit             00000000000c0b10 f   UefiShellDebug1CommandsLib:Comp.obj
 0001:000afb50       FileBufferUninit           00000000000c0b50 f   UefiShellDebug1CommandsLib:Comp.obj
 0001:000afb88       FileBufferReadByte         00000000000c0b88 f   UefiShellDebug1CommandsLib:Comp.obj
 0002:00001838       mScriptExtension           00000000000c9838     Shell:Shell.obj
 0002:00001848       mExecutableExtensions      00000000000c9848     Shell:Shell.obj
 0002:00001860       mStartupScript             00000000000c9860     Shell:Shell.obj
 0002:00002200       Hex                        00000000000ca200     UefiShellCommandLib:UefiShellCommandLib.obj
 0002:00006e60       EfiIsaIoProtocolGuid       00000000000cee60     UefiHandleParsingLib:UefiHandleParsingLib.obj
 0002:00006e70       WinNtThunkProtocolGuid     00000000000cee70     UefiHandleParsingLib:UefiHandleParsingLib.obj
 0002:00006e80       mGuidStringListNT          00000000000cee80     UefiHandleParsingLib:UefiHandleParsingLib.obj
 0002:00006ee0       EfiIsaAcpiProtocolGuid     00000000000ceee0     UefiHandleParsingLib:UefiHandleParsingLib.obj
 0002:00006ef0       WinNtSerialPortGuid        00000000000ceef0     UefiHandleParsingLib:UefiHandleParsingLib.obj
 0002:00006f00       WinNtIoProtocolGuid        00000000000cef00     UefiHandleParsingLib:UefiHandleParsingLib.obj
 0002:00006f10       VersionStringSize          00000000000cef10     UefiHandleParsingLib:UefiHandleParsingLib.obj
 0002:00006f20       mGuidStringList            00000000000cef20     UefiHandleParsingLib:UefiHandleParsingLib.obj
 0002:000095c0       mFileName                  00000000000d15c0     UefiShellBcfgCommandLib:UefiShellBcfgCommandLib.obj
 0002:000095e0       ParamList                  00000000000d15e0     UefiShellBcfgCommandLib:UefiShellBcfgCommandLib.obj
 0002:00009798       ParamList                  00000000000d1798     UefiShellLevel2CommandsLib:Vol.obj
 0002:00009894       AllFiles                   00000000000d1894     UefiShellLevel2CommandsLib:Attrib.obj
 0002:000098a0       AttribParamList            00000000000d18a0     UefiShellLevel2CommandsLib:Attrib.obj
 0002:00009b20       ParamList                  00000000000d1b20     UefiShellLevel2CommandsLib:Rm.obj
 0002:00009c18       ParamList                  00000000000d1c18     UefiShellLevel2CommandsLib:Parse.obj
 0002:00009d60       ParamList                  00000000000d1d60     UefiShellLevel2CommandsLib:Cp.obj
 0002:00009f18       SetParamList               00000000000d1f18     UefiShellLevel2CommandsLib:Set.obj
 0002:0000a060       ResetParamList             00000000000d2060     UefiShellLevel2CommandsLib:Reset.obj
 0002:0000a190       MapParamList               00000000000d2190     UefiShellLevel2CommandsLib:Map.obj
 0002:0000a4c0       LsParamList                00000000000d24c0     UefiShellLevel2CommandsLib:Ls.obj
 0002:0000a590       LoadParamList              00000000000d2590     UefiShellLevel2CommandsLib:Load.obj
 0002:0000a6d0       TimeZoneList               00000000000d26d0     UefiShellLevel2CommandsLib:TimeDate.obj
 0002:0000a760       TimeZoneParamList3         00000000000d2760     UefiShellLevel2CommandsLib:TimeDate.obj
 0002:0000a7a0       TimeParamList2             00000000000d27a0     UefiShellLevel2CommandsLib:TimeDate.obj
 0002:0000a7c0       TimeZoneParamList2         00000000000d27c0     UefiShellLevel2CommandsLib:TimeDate.obj
 0002:0000a7f0       TimeParamList3             00000000000d27f0     UefiShellLevel2CommandsLib:TimeDate.obj
 0002:0000b010       ParamList                  00000000000d3010     UefiShellLevel1CommandsLib:Exit.obj
 0002:0000b030       mFileName                  00000000000d3030     UefiShellLevel1CommandsLib:UefiShellLevel1CommandsLib.obj
 0002:0000b1e0       ParamList                  00000000000d31e0     UefiShellLevel3CommandsLib:Help.obj
 0002:0000b308       ParamList                  00000000000d3308     UefiShellLevel3CommandsLib:Pause.obj
 0002:0000b3a0       ParamList                  00000000000d33a0     UefiShellLevel3CommandsLib:Echo.obj
 0002:0000b458       ParamList                  00000000000d3458     UefiShellLevel3CommandsLib:Alias.obj
 0002:0000b4e8       ParamList                  00000000000d34e8     UefiShellLevel3CommandsLib:Cls.obj
 0002:0000b600       ParamList                  00000000000d3600     UefiShellLevel3CommandsLib:Ver.obj
 0002:0000b6a8       ParamList                  00000000000d36a8     UefiShellLevel3CommandsLib:Touch.obj
 0002:0000b750       ParamList                  00000000000d3750     UefiShellLevel3CommandsLib:Type.obj
 0002:0000b850       mFileName                  00000000000d3850     UefiShellDriver1CommandsLib:UefiShellDriver1CommandsLib.obj
 0002:0000ba90       ParamListPreHii            00000000000d3a90     UefiShellDriver1CommandsLib:DrvCfg.obj
 0002:0000baf0       ParamListHii               00000000000d3af0     UefiShellDriver1CommandsLib:DrvCfg.obj
 0002:0000bc10       ParamList                  00000000000d3c10     UefiShellDriver1CommandsLib:DevTree.obj
 0002:0000bc98       ParamList                  00000000000d3c98     UefiShellDriver1CommandsLib:Drivers.obj
 0002:0000be80       ParamList                  00000000000d3e80     UefiShellDriver1CommandsLib:Dh.obj
 0002:0000c030       ParamList                  00000000000d4030     UefiShellDriver1CommandsLib:DrvDiag.obj
 0002:0000c100       ParamList                  00000000000d4100     UefiShellDriver1CommandsLib:Unload.obj
 0002:0000c198       ParamList                  00000000000d4198     UefiShellDriver1CommandsLib:Reconnect.obj
 0002:0000c280       ParamList                  00000000000d4280     UefiShellDriver1CommandsLib:Disconnect.obj
 0002:0000c320       StringExclusive            00000000000d4320     UefiShellDriver1CommandsLib:OpenInfo.obj
 0002:0000c338       StringTestProt             00000000000d4338     UefiShellDriver1CommandsLib:OpenInfo.obj
 0002:0000c350       StringChild                00000000000d4350     UefiShellDriver1CommandsLib:OpenInfo.obj
 0002:0000c368       StringGetProt              00000000000d4368     UefiShellDriver1CommandsLib:OpenInfo.obj
 0002:0000c380       StringUnknown              00000000000d4380     UefiShellDriver1CommandsLib:OpenInfo.obj
 0002:0000c398       StringDriverEx             00000000000d4398     UefiShellDriver1CommandsLib:OpenInfo.obj
 0002:0000c3b0       StringDriver               00000000000d43b0     UefiShellDriver1CommandsLib:OpenInfo.obj
 0002:0000c3c8       StringHandProt             00000000000d43c8     UefiShellDriver1CommandsLib:OpenInfo.obj
 0002:0000c470       ParamList                  00000000000d4470     UefiShellDriver1CommandsLib:Devices.obj
 0002:0000c588       ParamList                  00000000000d4588     UefiShellDriver1CommandsLib:Connect.obj
 0002:0000cdc0       ParamList                  00000000000d4dc0     UefiShellDebug1CommandsLib:HexEdit.obj
 0002:0000d978       mFileName                  00000000000d5978     UefiShellDebug1CommandsLib:UefiShellDebug1CommandsLib.obj
 0002:0000dd30       ParamList                  00000000000d5d30     UefiShellDebug1CommandsLib:SmbiosView.obj
 0002:00019090       ParamList                  00000000000e1090     UefiShellDebug1CommandsLib:DmpStore.obj
 0002:0001f0f0       ParamList                  00000000000e70f0     UefiShellDebug1CommandsLib:Pci.obj
 0002:0001f250       ParamList                  00000000000e7250     UefiShellDebug1CommandsLib:SetVar.obj
 0002:0001f3f0       ParamList                  00000000000e73f0     UefiShellDebug1CommandsLib:Mm.obj
 0002:0001f4e8       ParamList                  00000000000e74e8     UefiShellDebug1CommandsLib:LoadPciRom.obj
 0002:0001f820       ParamList                  00000000000e7820     UefiShellDebug1CommandsLib:Dmem.obj
 0002:0001fc68       MemoryPageArray            00000000000e7c68     UefiShellDebug1CommandsLib:MemMap.obj
 0002:0001fda8       ParamList                  00000000000e7da8     UefiShellDebug1CommandsLib:Comp.obj
 0002:0001ffb8       PermanentString            00000000000e7fb8     UefiShellNetwork1CommandsLib:Ifconfig.obj
 0002:00020140       PingParamList              00000000000e8140     UefiShellNetwork1CommandsLib:Ping.obj
 0003:0003ac30       CfgGuidList                0000000000123c30     UefiShellDriver1CommandsLib:DrvCfg.obj
 0003:0003ac70       DiagGuidList               0000000000123c70     UefiShellDriver1CommandsLib:DrvDiag.obj
 0003:0003ac88       EfiVariableNames           0000000000123c88     UefiShellDriver1CommandsLib:Connect.obj
 0003:0005c958       mSmbiosStruct              0000000000145958     UefiShellDebug1CommandsLib:LibSmbiosView.obj
 0003:0005c960       mSmbios64BitStruct         0000000000145960     UefiShellDebug1CommandsLib:LibSmbiosView.obj
 0003:000622f0       GuidArray                  000000000014b2f0     UefiShellDebug1CommandsLib:Dmem.obj
 0003:00062370       ShortNameEfiMemory         000000000014b370     UefiShellDebug1CommandsLib:MemMap.obj
 0003:000623e0       FullNameEfiMemory          000000000014b3e0     UefiShellDebug1CommandsLib:MemMap.obj
 0003:00064c08       mDeadLoopComparator        000000000014dc08     BaseLib:CpuDeadLoop.obj
 0003:00064c60       mUnicodeCollation          000000000014dc60     UefiSortLib:UefiSortLib.obj
 0003:00064cb0       mFsMaxCount                000000000014dcb0     UefiShellCommandLib:UefiShellCommandLib.obj
 0003:00064cb8       mBlkMaxCount               000000000014dcb8     UefiShellCommandLib:UefiShellCommandLib.obj
 0003:00064cc0       gShellBcfgHiiHandle        000000000014dcc0     UefiShellBcfgCommandLib:UefiShellBcfgCommandLib.obj
 0003:00064dd0       m_SmbiosStruct             000000000014ddd0     UefiShellDebug1CommandsLib:LibSmbiosView.obj
 0003:00064dd8       m_Smbios64BitStruct        000000000014ddd8     UefiShellDebug1CommandsLib:LibSmbiosView.obj
 0003:00064de0       mAliasList                 000000000014dde0     UefiShellCommandLib:UefiShellCommandLib.obj
 0003:00064e00       mExitRequested             000000000014de00     UefiShellCommandLib:UefiShellCommandLib.obj
 0003:00064e01       mExitScript                000000000014de01     UefiShellCommandLib:UefiShellCommandLib.obj
 0003:00064e02       mEchoState                 000000000014de02     UefiShellCommandLib:UefiShellCommandLib.obj
 0003:00064e08       mExitCode                  000000000014de08     UefiShellCommandLib:UefiShellCommandLib.obj
 0003:00064e10       mScriptList                000000000014de10     UefiShellCommandLib:UefiShellCommandLib.obj
 0003:00064e28       mProfileList               000000000014de28     UefiShellCommandLib:UefiShellCommandLib.obj
 0003:00064e30       mCommandList               000000000014de30     UefiShellCommandLib:UefiShellCommandLib.obj
 0003:00064e70       mProfileListSize           000000000014de70     UefiShellCommandLib:UefiShellCommandLib.obj
 0003:00064e78       mFileHandleList            000000000014de78     UefiShellCommandLib:UefiShellCommandLib.obj
 0003:00064e90       mCLen                      000000000014de90     UefiShellDebug1CommandsLib:Compress.obj
 0003:00065090       mText                      000000000014e090     UefiShellDebug1CommandsLib:Compress.obj
 0003:00065098       mRemainder                 000000000014e098     UefiShellDebug1CommandsLib:Compress.obj
 0003:000650a0       mTFreq                     000000000014e0a0     UefiShellDebug1CommandsLib:Compress.obj
 0003:000650ec       mMatchLen                  000000000014e0ec     UefiShellDebug1CommandsLib:Compress.obj
 0003:000650f0       mSortPtr                   000000000014e0f0     UefiShellDebug1CommandsLib:Compress.obj
 0003:000650f8       mChildCount                000000000014e0f8     UefiShellDebug1CommandsLib:Compress.obj
 0003:00065100       mHeap                      000000000014e100     UefiShellDebug1CommandsLib:Compress.obj
 0003:00065500       mCFreq                     000000000014e500     UefiShellDebug1CommandsLib:Compress.obj
 0003:00065cf8       mBuf                       000000000014ecf8     UefiShellDebug1CommandsLib:Compress.obj
 0003:00065d00       mCCode                     000000000014ed00     UefiShellDebug1CommandsLib:Compress.obj
 0003:000660fc       mAvail                     000000000014f0fc     UefiShellDebug1CommandsLib:Compress.obj
 0003:00066100       mPTCode                    000000000014f100     UefiShellDebug1CommandsLib:Compress.obj
 0003:00066128       mPFreq                     000000000014f128     UefiShellDebug1CommandsLib:Compress.obj
 0003:00066160       mHeapSize                  000000000014f160     UefiShellDebug1CommandsLib:Compress.obj
 0003:00066164       ?CPos@?1??CompressOutput@@9@9 000000000014f164     UefiShellDebug1CommandsLib:Compress.obj
 0003:00066168       mDstUpperLimit             000000000014f168     UefiShellDebug1CommandsLib:Compress.obj
 0003:00066170       mFreq                      000000000014f170     UefiShellDebug1CommandsLib:Compress.obj
 0003:00066178       mPTLen                     000000000014f178     UefiShellDebug1CommandsLib:Compress.obj
 0003:00066190       mLeft                      000000000014f190     UefiShellDebug1CommandsLib:Compress.obj
 0003:00066988       mPosition                  000000000014f988     UefiShellDebug1CommandsLib:Compress.obj
 0003:00066990       mOutputPos                 000000000014f990     UefiShellDebug1CommandsLib:Compress.obj
 0003:00066994       mOrigSize                  000000000014f994     UefiShellDebug1CommandsLib:Compress.obj
 0003:00066998       mLenCnt                    000000000014f998     UefiShellDebug1CommandsLib:Compress.obj
 0003:000669bc       mTempInt32                 000000000014f9bc     UefiShellDebug1CommandsLib:Compress.obj
 0003:000669c0       mCrcTable                  000000000014f9c0     UefiShellDebug1CommandsLib:Compress.obj
 0003:00066bc0       mLen                       000000000014fbc0     UefiShellDebug1CommandsLib:Compress.obj
 0003:00066bc8       mParent                    000000000014fbc8     UefiShellDebug1CommandsLib:Compress.obj
 0003:00066bd0       mBitCount                  000000000014fbd0     UefiShellDebug1CommandsLib:Compress.obj
 0003:00066bd4       mMatchPos                  000000000014fbd4     UefiShellDebug1CommandsLib:Compress.obj
 0003:00066bd8       mSrcUpperLimit             000000000014fbd8     UefiShellDebug1CommandsLib:Compress.obj
 0003:00066be0       mSrc                       000000000014fbe0     UefiShellDebug1CommandsLib:Compress.obj
 0003:00066be8       mLevel                     000000000014fbe8     UefiShellDebug1CommandsLib:Compress.obj
 0003:00066bf0       mCompSize                  000000000014fbf0     UefiShellDebug1CommandsLib:Compress.obj
 0003:00066bf4       mCrc                       000000000014fbf4     UefiShellDebug1CommandsLib:Compress.obj
 0003:00066bf8       mDst                       000000000014fbf8     UefiShellDebug1CommandsLib:Compress.obj
 0003:00066c00       mPrev                      000000000014fc00     UefiShellDebug1CommandsLib:Compress.obj
 0003:00066c08       mPos                       000000000014fc08     UefiShellDebug1CommandsLib:Compress.obj
 0003:00066c0c       mSubBitBuf                 000000000014fc0c     UefiShellDebug1CommandsLib:Compress.obj
 0003:00066c10       mRight                     000000000014fc10     UefiShellDebug1CommandsLib:Compress.obj
 0003:00067408       mOutputMask                0000000000150408     UefiShellDebug1CommandsLib:Compress.obj
 0003:0006740c       ?CheckConflict@?1??IfConfigRetriveCheckListByName@@9@9 000000000015040c     UefiShellNetwork1CommandsLib:Ifconfig.obj
 0003:00067410       ?CheckDuplicate@?1??IfConfigRetriveCheckListByName@@9@9 0000000000150410     UefiShellNetwork1CommandsLib:Ifconfig.obj
 0003:00067418       mDstString                 0000000000150418     UefiShellNetwork1CommandsLib:Ping.obj
 0003:00067420       mSrcString                 0000000000150420     UefiShellNetwork1CommandsLib:Ping.obj
 0003:00067428       mSmbiosTable               0000000000150428     UefiShellDebug1CommandsLib:LibSmbiosView.obj
 0003:00067430       mSmbios64BitTable          0000000000150430     UefiShellDebug1CommandsLib:LibSmbiosView.obj
 0003:00067438       mInit                      0000000000150438     UefiShellDebug1CommandsLib:LibSmbiosView.obj
 0003:00067439       m64Init                    0000000000150439     UefiShellDebug1CommandsLib:LibSmbiosView.obj
 0003:00067440       mStatisticsTable           0000000000150440     UefiShellDebug1CommandsLib:SmbiosView.obj
 0003:00067448       mSmbios64BitStatisticsTable 0000000000150448     UefiShellDebug1CommandsLib:SmbiosView.obj
 0003:0006745c       mBufSiz                    000000000015045c     UefiShellDebug1CommandsLib:Compress.obj
 0003:00067460       mNext                      0000000000150460     UefiShellDebug1CommandsLib:Compress.obj
 0005:00000000       $unwind$BmGetDevicePathSizeEx 0000000000156000     UefiBootManagerLib:BmLoadOption.obj
 0005:00000000       $unwind$BmStrSizeEx        0000000000156000     UefiBootManagerLib:BmLoadOption.obj
 0005:00000000       $unwind$UefiHiiServicesLibConstructor 0000000000156000     UefiHiiServicesLib:UefiHiiServicesLib.obj
 0005:00000000       $unwind$StringNoCaseCompare 0000000000156000     UefiSortLib:UefiSortLib.obj
 0005:00000000       $unwind$MmioWrite16        0000000000156000     BaseIoLibIntrinsic:IoLib.obj
 0005:00000000       $unwind$MmioWrite64        0000000000156000     BaseIoLibIntrinsic:IoLib.obj
 0005:00000000       $unwind$IoWrite16          0000000000156000     BaseIoLibIntrinsic:IoLibMsc.obj
 0005:00000000       $unwind$IsNodeAtEnd        0000000000156000     BaseLib:LinkedList.obj
 0005:00000000       $unwind$IsNull             0000000000156000     BaseLib:LinkedList.obj
 0005:00000000       $unwind$SwapListEntries    0000000000156000     BaseLib:LinkedList.obj
 0005:00000000       $unwind$MultU64x64         0000000000156000     BaseLib:MultU64x64.obj
 0005:00000000       $unwind$StrnLenS           0000000000156000     BaseLib:SafeString.obj
 0005:00000000       $unwind$StrStr             0000000000156000     BaseLib:String.obj
 0005:00000000       $unwind$OrderedCollectionInit 0000000000156000     BaseOrderedCollectionRedBlackTreeLib:BaseOrderedCollectionRedBlackTreeLib.obj
 0005:00000000       $unwind$SPrintLength       0000000000156000     BasePrintLib:PrintLib.obj
 0005:00000000       $unwind$DxeServicesTableLibConstructor 0000000000156000     DxeServicesTableLib:DxeServicesTableLib.obj
 0005:00000000       $unwind$_ModuleEntryPoint  0000000000156000     UefiApplicationEntryPoint:ApplicationEntryPoint.obj
 0005:00000000       $unwind$CatIPv4Address     0000000000156000     UefiDevicePathLib:DevicePathToText.obj
 0005:00000000       $unwind$FileHandleFindFirstFile 0000000000156000     UefiFileHandleLib:UefiFileHandleLib.obj
 0005:00000000       $unwind$FileHandleGetSize  0000000000156000     UefiFileHandleLib:UefiFileHandleLib.obj
 0005:00000000       $unwind$FileHandleSetSize  0000000000156000     UefiFileHandleLib:UefiFileHandleLib.obj
 0005:00000000       $unwind$EfiGetSystemConfigurationTable 0000000000156000     UefiLib:UefiLib.obj
 0005:00000000       $unwind$NetLibStrToIp4     0000000000156000     DxeNetLib:DxeNetLib.obj
 0005:00000000       $unwind$NetLibStrToIp6     0000000000156000     DxeNetLib:DxeNetLib.obj
 0005:00000000       $unwind$ProcessLibraryConstructorList 0000000000156000     Shell:AutoGen.obj
 0005:00000000       $unwind$ProcessLibraryDestructorList 0000000000156000     Shell:AutoGen.obj
 0005:00000000       $unwind$ConsoleLoggerInstall 0000000000156000     Shell:ConsoleLogger.obj
 0005:00000000       $unwind$ConsoleLoggerOutputStringSplit 0000000000156000     Shell:ConsoleLogger.obj
 0005:00000000       $unwind$FileBasedSimpleTextInReadKeyStroke 0000000000156000     Shell:ConsoleWrappers.obj
 0005:00000000       $unwind$FileBasedSimpleTextOutOutputString 0000000000156000     Shell:ConsoleWrappers.obj
 0005:00000000       $unwind$IsValidEnvironmentVariableName 0000000000156000     Shell:Shell.obj
 0005:00000000       $unwind$SearchPathForFile  0000000000156000     Shell:ShellManParser.obj
 0005:00000000       $unwind$EfiShellGetGuidFromName 0000000000156000     Shell:ShellProtocol.obj
 0005:00000000       $unwind$EfiShellGetGuidName 0000000000156000     Shell:ShellProtocol.obj
 0005:00000000       $unwind$EfiShellOpenRoot   0000000000156000     Shell:ShellProtocol.obj
 0005:00000000       $unwind$EfiShellSetMap     0000000000156000     Shell:ShellProtocol.obj
 0005:00000000       $unwind$GetStringNameFromGuid 0000000000156000     UefiHandleParsingLib:UefiHandleParsingLib.obj
 0005:00000000       $unwind$HandleParsingLibDestructor 0000000000156000     UefiHandleParsingLib:UefiHandleParsingLib.obj
 0005:00000000       $unwind$AppendCSDNum       0000000000156000     UefiShellCommandLib:ConsistMapping.obj
 0005:00000000       $unwind$DevPathCompareDefault 0000000000156000     UefiShellCommandLib:ConsistMapping.obj
 0005:00000000       $unwind$DevPathComparePci  0000000000156000     UefiShellCommandLib:ConsistMapping.obj
 0005:00000000       $unwind$ConvertEfiFileProtocolToShellHandle 0000000000156000     UefiShellCommandLib:UefiShellCommandLib.obj
 0005:00000000       $unwind$ShellCommandLibConstructor 0000000000156000     UefiShellCommandLib:UefiShellCommandLib.obj
 0005:00000000       $unwind$UniqueNameAliasCompare 0000000000156000     UefiShellCommandLib:UefiShellCommandLib.obj
 0005:00000000       $unwind$UniqueNameCompare  0000000000156000     UefiShellCommandLib:UefiShellCommandLib.obj
 0005:00000000       $unwind$GetBaseName        0000000000156000     UefiShellDebug1CommandsLib:Dmem.obj
 0005:00000000       $unwind$LineCat            0000000000156000     UefiShellDebug1CommandsLib:FileBuffer.obj
 0005:00000000       $unwind$LibGetSmbiosString 0000000000156000     UefiShellDebug1CommandsLib:LibSmbiosView.obj
 0005:00000000       $unwind$GetSystemConfigurationTable 0000000000156000     UefiShellDebug1CommandsLib:UefiShellDebug1CommandsLib.obj
 0005:00000000       $unwind$InternalIsAliasOnList 0000000000156000     UefiShellLevel1CommandsLib:For.obj
 0005:00000000       $unwind$InternalRemoveAliasFromList 0000000000156000     UefiShellLevel1CommandsLib:For.obj
 0005:00000000       $unwind$IsCurrentFileSystem 0000000000156000     UefiShellLevel2CommandsLib:Cd.obj
 0005:00000000       $unwind$ShellLevel2StripQuotes 0000000000156000     UefiShellLevel2CommandsLib:UefiShellLevel2CommandsLib.obj
 0005:00000000       $unwind$InternalShellStripQuotes 0000000000156000     UefiShellLib:UefiShellLib.obj
 0005:00000000       $unwind$ShellCommandLineCheckDuplicate 0000000000156000     UefiShellLib:UefiShellLib.obj
 0005:00000000       $unwind$ShellCommandLineGetFlag 0000000000156000     UefiShellLib:UefiShellLib.obj
 0005:00000000       $unwind$ShellCommandLineGetRawValue 0000000000156000     UefiShellLib:UefiShellLib.obj
 0005:00000000       $unwind$ShellCommandLineGetValue 0000000000156000     UefiShellLib:UefiShellLib.obj
 0005:00000000       $unwind$ShellLibDestructor 0000000000156000     UefiShellLib:UefiShellLib.obj
 0005:00000008       $unwind$EfiBootManagerVariableToLoadOption 0000000000156008     UefiBootManagerLib:BmLoadOption.obj
 0005:00000008       $unwind$StringCompare      0000000000156008     UefiSortLib:UefiSortLib.obj
 0005:00000008       $unwind$IoWrite64          0000000000156008     BaseIoLibIntrinsic:IoLib.obj
 0005:00000008       $unwind$TdIoWrite16        0000000000156008     BaseIoLibIntrinsic:IoLibInternalTdxNull.obj
 0005:00000008       $unwind$TdMmioWrite16      0000000000156008     BaseIoLibIntrinsic:IoLibInternalTdxNull.obj
 0005:00000008       $unwind$TdMmioWrite64      0000000000156008     BaseIoLibIntrinsic:IoLibInternalTdxNull.obj
 0005:00000008       $unwind$LShiftU64          0000000000156008     BaseLib:LShiftU64.obj
 0005:00000008       $unwind$GetNextNode        0000000000156008     BaseLib:LinkedList.obj
 0005:00000008       $unwind$GetPreviousNode    0000000000156008     BaseLib:LinkedList.obj
 0005:00000008       $unwind$InsertHeadList     0000000000156008     BaseLib:LinkedList.obj
 0005:00000008       $unwind$InsertTailList     0000000000156008     BaseLib:LinkedList.obj
 0005:00000008       $unwind$RShiftU64          0000000000156008     BaseLib:RShiftU64.obj
 0005:00000008       $unwind$StrnSizeS          0000000000156008     BaseLib:SafeString.obj
 0005:00000008       $unwind$StrCmp             0000000000156008     BaseLib:String.obj
 0005:00000008       $unwind$WriteUnaligned16   0000000000156008     BaseLib:Unaligned.obj
 0005:00000008       $unwind$WriteUnaligned64   0000000000156008     BaseLib:Unaligned.obj
 0005:00000008       $unwind$InternalMemZeroMem 0000000000156008     BaseMemoryLib:MemLibGeneric.obj
 0005:00000008       $unwind$CopyGuid           0000000000156008     BaseMemoryLib:MemLibGuid.obj
 0005:00000008       $unwind$ZeroMem            0000000000156008     BaseMemoryLib:ZeroMemWrapper.obj
 0005:00000008       $unwind$RedBlackTreeRotateLeft 0000000000156008     BaseOrderedCollectionRedBlackTreeLib:BaseOrderedCollectionRedBlackTreeLib.obj
 0005:00000008       $unwind$RedBlackTreeRotateRight 0000000000156008     BaseOrderedCollectionRedBlackTreeLib:BaseOrderedCollectionRedBlackTreeLib.obj
 0005:00000008       $unwind$HobLibConstructor  0000000000156008     DxeHobLib:HobLib.obj
 0005:00000008       $unwind$UefiBootServicesTableLibConstructor 0000000000156008     UefiBootServicesTableLib:UefiBootServicesTableLib.obj
 0005:00000008       $unwind$GetNextDeviceNodeStr 0000000000156008     UefiDevicePathLib:DevicePathFromText.obj
 0005:00000008       $unwind$Strtoi64           0000000000156008     UefiDevicePathLib:DevicePathFromText.obj
 0005:00000008       $unwind$CatNetworkProtocol 0000000000156008     UefiDevicePathLib:DevicePathToText.obj
 0005:00000008       $unwind$SetDevicePathNodeLength 0000000000156008     UefiDevicePathLib:DevicePathUtilities.obj
 0005:00000008       $unwind$AppendDevicePath   0000000000156008     UefiDevicePathLib:UefiDevicePathLib.obj
 0005:00000008       $unwind$AppendDevicePathNode 0000000000156008     UefiDevicePathLib:UefiDevicePathLib.obj
 0005:00000008       $unwind$GetNextDevicePathInstance 0000000000156008     UefiDevicePathLib:UefiDevicePathLib.obj
 0005:00000008       $unwind$FileHandleGetPosition 0000000000156008     UefiFileHandleLib:UefiFileHandleLib.obj
 0005:00000008       $unwind$FileHandleSetInfo  0000000000156008     UefiFileHandleLib:UefiFileHandleLib.obj
 0005:00000008       $unwind$FileHandleSetPosition 0000000000156008     UefiFileHandleLib:UefiFileHandleLib.obj
 0005:00000008       $unwind$AllocateCopyPool   0000000000156008     UefiMemoryAllocationLib:MemoryAllocationLib.obj
 0005:00000008       $unwind$UefiRuntimeServicesTableLibConstructor 0000000000156008     UefiRuntimeServicesTableLib:UefiRuntimeServicesTableLib.obj
 0005:00000008       $unwind$ProcessModuleEntryPointList 0000000000156008     Shell:AutoGen.obj
 0005:00000008       $unwind$ConInWaitForKey    0000000000156008     Shell:ConsoleWrappers.obj
 0005:00000008       $unwind$FileInterfaceFileGetPosition 0000000000156008     Shell:FileHandleWrappers.obj
 0005:00000008       $unwind$FileInterfaceFileSetPosition 0000000000156008     Shell:FileHandleWrappers.obj
 0005:00000008       $unwind$IsCommand          0000000000156008     Shell:Shell.obj
 0005:00000008       $unwind$EfiShellRegisterGuidName 0000000000156008     Shell:ShellProtocol.obj
 0005:00000008       $unwind$BcfgLibraryUnregisterBcfgCommand 0000000000156008     UefiShellBcfgCommandLib:UefiShellBcfgCommandLib.obj
 0005:00000008       $unwind$HClipBoardSet      0000000000156008     UefiShellDebug1CommandsLib:Clipboard.obj
 0005:00000008       $unwind$UefiShellDebug1CommandsLibDestructor 0000000000156008     UefiShellDebug1CommandsLib:UefiShellDebug1CommandsLib.obj
 0005:00000008       $unwind$UefiShellDriver1CommandsLibDestructor 0000000000156008     UefiShellDriver1CommandsLib:UefiShellDriver1CommandsLib.obj
 0005:00000008       $unwind$ShellInstall1CommandsLibConstructor 0000000000156008     UefiShellInstall1CommandsLib:UefiShellInstall1CommandsLib.obj
 0005:00000008       $unwind$ShellInstall1CommandsLibDestructor 0000000000156008     UefiShellInstall1CommandsLib:UefiShellInstall1CommandsLib.obj
 0005:00000008       $unwind$ShellLevel1CommandsLibDestructor 0000000000156008     UefiShellLevel1CommandsLib:UefiShellLevel1CommandsLib.obj
 0005:00000008       $unwind$ShellLevel2CommandsLibDestructor 0000000000156008     UefiShellLevel2CommandsLib:UefiShellLevel2CommandsLib.obj
 0005:00000008       $unwind$ShellLevel3CommandsLibDestructor 0000000000156008     UefiShellLevel3CommandsLib:UefiShellLevel3CommandsLib.obj
 0005:00000008       $unwind$ShellCreateDirectory 0000000000156008     UefiShellLib:UefiShellLib.obj
 0005:00000008       $unwind$ShellGetFilePosition 0000000000156008     UefiShellLib:UefiShellLib.obj
 0005:00000008       $unwind$ShellGetFileSize   0000000000156008     UefiShellLib:UefiShellLib.obj
 0005:00000008       $unwind$ShellLibConstructor 0000000000156008     UefiShellLib:UefiShellLib.obj
 0005:00000008       $unwind$ShellSetFileInfo   0000000000156008     UefiShellLib:UefiShellLib.obj
 0005:00000008       $unwind$ShellSetFilePosition 0000000000156008     UefiShellLib:UefiShellLib.obj
 0005:00000008       $unwind$ShellNetwork1CommandsLibDestructor 0000000000156008     UefiShellNetwork1CommandsLib:UefiShellNetwork1CommandsLib.obj
 0005:00000010       $unwind$DevicePathCompare  0000000000156010     UefiSortLib:UefiSortLib.obj
 0005:00000010       $unwind$CompareGuid        0000000000156010     BaseMemoryLib:MemLibGuid.obj
 0005:00000010       $unwind$ConvertFromTextUsbClass 0000000000156010     UefiDevicePathLib:DevicePathFromText.obj
 0005:00000010       $unwind$UefiDevicePathLibAppendDevicePath 0000000000156010     UefiDevicePathLib:DevicePathUtilities.obj
 0005:00000010       $unwind$UefiDevicePathLibAppendDevicePathNode 0000000000156010     UefiDevicePathLib:DevicePathUtilities.obj
 0005:00000010       $unwind$AppendStringToHistory 0000000000156010     Shell:ConsoleLogger.obj
 0005:00000010       $unwind$CreateSimpleTextInOnFile 0000000000156010     Shell:ConsoleWrappers.obj
 0005:00000010       $unwind$GetDevicePathsForImageAndFile 0000000000156010     Shell:Shell.obj
 0005:00000010       $unwind$CreatePopulateInstallShellParametersProtocol 0000000000156010     Shell:ShellParametersProtocol.obj
 0005:00000010       $unwind$EfiShellOpenRootByHandle 0000000000156010     Shell:ShellProtocol.obj
 0005:00000010       $unwind$GetAllMappingGuids 0000000000156010     UefiHandleParsingLib:UefiHandleParsingLib.obj
 0005:00000010       $unwind$GetStringNameFromHandle 0000000000156010     UefiHandleParsingLib:UefiHandleParsingLib.obj
 0005:00000010       $unwind$GetDevicePathForDriverHandle 0000000000156010     UefiShellBcfgCommandLib:UefiShellBcfgCommandLib.obj
 0005:00000010       $unwind$InputBarPrintInput 0000000000156010     UefiShellDebug1CommandsLib:EditInputBar.obj
 0005:00000010       $unwind$FileBufferMovePosition 0000000000156010     UefiShellDebug1CommandsLib:FileBuffer.obj
 0005:00000010       $unwind$HBufferImageBufferToList 0000000000156010     UefiShellDebug1CommandsLib:BufferImage.obj
 0005:00000010       $unwind$PrintInterpretedExtendedCompatibilityAcs 0000000000156010     UefiShellDebug1CommandsLib:Pci.obj
 0005:00000010       $unwind$PrintInterpretedExtendedCompatibilityAlternateProtocol 0000000000156010     UefiShellDebug1CommandsLib:Pci.obj
 0005:00000010       $unwind$PrintInterpretedExtendedCompatibilityAri 0000000000156010     UefiShellDebug1CommandsLib:Pci.obj
 0005:00000010       $unwind$PrintInterpretedExtendedCompatibilityAts 0000000000156010     UefiShellDebug1CommandsLib:Pci.obj
 0005:00000010       $unwind$PrintInterpretedExtendedCompatibilityDataLinkFeature 0000000000156010     UefiShellDebug1CommandsLib:Pci.obj
 0005:00000010       $unwind$PrintInterpretedExtendedCompatibilityDataObjectExchange 0000000000156010     UefiShellDebug1CommandsLib:Pci.obj
 0005:00000010       $unwind$PrintInterpretedExtendedCompatibilityIntegrityEncryption 0000000000156010     UefiShellDebug1CommandsLib:Pci.obj
 0005:00000010       $unwind$PrintInterpretedExtendedCompatibilityL1PmSubstates 0000000000156010     UefiShellDebug1CommandsLib:Pci.obj
 0005:00000010       $unwind$PrintInterpretedExtendedCompatibilityLatencyToleranceReporting 0000000000156010     UefiShellDebug1CommandsLib:Pci.obj
 0005:00000010       $unwind$PrintInterpretedExtendedCompatibilityLinkControl 0000000000156010     UefiShellDebug1CommandsLib:Pci.obj
 0005:00000010       $unwind$PrintInterpretedExtendedCompatibilityLinkDeclaration 0000000000156010     UefiShellDebug1CommandsLib:Pci.obj
 0005:00000010       $unwind$PrintInterpretedExtendedCompatibilityPTM 0000000000156010     UefiShellDebug1CommandsLib:Pci.obj
 0005:00000010       $unwind$PrintInterpretedExtendedCompatibilityPasid 0000000000156010     UefiShellDebug1CommandsLib:Pci.obj
 0005:00000010       $unwind$PrintInterpretedExtendedCompatibilityPowerBudgeting 0000000000156010     UefiShellDebug1CommandsLib:Pci.obj
 0005:00000010       $unwind$PrintInterpretedExtendedCompatibilityPri 0000000000156010     UefiShellDebug1CommandsLib:Pci.obj
 0005:00000010       $unwind$PrintInterpretedExtendedCompatibilityResizeableBar 0000000000156010     UefiShellDebug1CommandsLib:Pci.obj
 0005:00000010       $unwind$PrintInterpretedExtendedCompatibilityTph 0000000000156010     UefiShellDebug1CommandsLib:Pci.obj
 0005:00000010       $unwind$GetDriverImageName 0000000000156010     UefiShellDriver1CommandsLib:Dh.obj
 0005:00000010       $unwind$ShellCommandRunShift 0000000000156010     UefiShellLevel1CommandsLib:Shift.obj
 0005:00000010       $unwind$ReplaceDriveWithCwd 0000000000156010     UefiShellLevel2CommandsLib:Cd.obj
 0005:00000010       $unwind$AddMappingFromMapping 0000000000156010     UefiShellLevel2CommandsLib:Map.obj
 0005:00000010       $unwind$PerformSingleMappingDelete 0000000000156010     UefiShellLevel2CommandsLib:Map.obj
 0005:00000010       $unwind$InternalShellConvertFileListType 0000000000156010     UefiShellLib:UefiShellLib.obj
 0005:00000010       $unwind$ShellFileHandleReturnLine 0000000000156010     UefiShellLib:UefiShellLib.obj
 0005:00000010       $unwind$ShellFindFilePathEx 0000000000156010     UefiShellLib:UefiShellLib.obj
 0005:00000018       $unwind$HiiRemovePackages  0000000000156018     UefiHiiLib:HiiLib.obj
 0005:00000018       $unwind$MmioRead16         0000000000156018     BaseIoLibIntrinsic:IoLib.obj
 0005:00000018       $unwind$MmioRead32         0000000000156018     BaseIoLibIntrinsic:IoLib.obj
 0005:00000018       $unwind$MmioRead64         0000000000156018     BaseIoLibIntrinsic:IoLib.obj
 0005:00000018       $unwind$MmioRead8          0000000000156018     BaseIoLibIntrinsic:IoLib.obj
 0005:00000018       $unwind$IoRead16           0000000000156018     BaseIoLibIntrinsic:IoLibMsc.obj
 0005:00000018       $unwind$IoRead32           0000000000156018     BaseIoLibIntrinsic:IoLibMsc.obj
 0005:00000018       $unwind$IoRead8            0000000000156018     BaseIoLibIntrinsic:IoLibMsc.obj
 0005:00000018       $unwind$IsListEmpty        0000000000156018     BaseLib:LinkedList.obj
 0005:00000018       $unwind$InternalMathSwapBytes64 0000000000156018     BaseLib:Math64.obj
 0005:00000018       $unwind$AsciiStrLen        0000000000156018     BaseLib:String.obj
 0005:00000018       $unwind$InternalIsHexaDecimalDigitCharacter 0000000000156018     BaseLib:String.obj
 0005:00000018       $unwind$StrDecimalToUint64 0000000000156018     BaseLib:String.obj
 0005:00000018       $unwind$StrDecimalToUintn  0000000000156018     BaseLib:String.obj
 0005:00000018       $unwind$StrHexToUint64     0000000000156018     BaseLib:String.obj
 0005:00000018       $unwind$StrHexToUintn      0000000000156018     BaseLib:String.obj
 0005:00000018       $unwind$StrLen             0000000000156018     BaseLib:String.obj
 0005:00000018       $unwind$RedBlackTreeRecursiveCheck 0000000000156018     BaseOrderedCollectionRedBlackTreeLib:BaseOrderedCollectionRedBlackTreeLib.obj
 0005:00000018       $unwind$DevPathFromText1394 0000000000156018     UefiDevicePathLib:DevicePathFromText.obj
 0005:00000018       $unwind$DevPathFromTextBluetooth 0000000000156018     UefiDevicePathLib:DevicePathFromText.obj
 0005:00000018       $unwind$DevPathFromTextCtrl 0000000000156018     UefiDevicePathLib:DevicePathFromText.obj
 0005:00000018       $unwind$DevPathFromTextDebugPort 0000000000156018     UefiDevicePathLib:DevicePathFromText.obj
 0005:00000018       $unwind$DevPathFromTextEmmc 0000000000156018     UefiDevicePathLib:DevicePathFromText.obj
 0005:00000018       $unwind$DevPathFromTextFilePath 0000000000156018     UefiDevicePathLib:DevicePathFromText.obj
 0005:00000018       $unwind$DevPathFromTextFv  0000000000156018     UefiDevicePathLib:DevicePathFromText.obj
 0005:00000018       $unwind$DevPathFromTextFvFile 0000000000156018     UefiDevicePathLib:DevicePathFromText.obj
 0005:00000018       $unwind$DevPathFromTextI2O 0000000000156018     UefiDevicePathLib:DevicePathFromText.obj
 0005:00000018       $unwind$DevPathFromTextMedia 0000000000156018     UefiDevicePathLib:DevicePathFromText.obj
 0005:00000018       $unwind$DevPathFromTextPath 0000000000156018     UefiDevicePathLib:DevicePathFromText.obj
 0005:00000018       $unwind$DevPathFromTextPcCard 0000000000156018     UefiDevicePathLib:DevicePathFromText.obj
 0005:00000018       $unwind$DevPathFromTextSd  0000000000156018     UefiDevicePathLib:DevicePathFromText.obj
 0005:00000018       $unwind$DevPathFromTextUartFlowCtrl 0000000000156018     UefiDevicePathLib:DevicePathFromText.obj
 0005:00000018       $unwind$DevPathFromTextUnit 0000000000156018     UefiDevicePathLib:DevicePathFromText.obj
 0005:00000018       $unwind$DevPathFromTextUsbAudio 0000000000156018     UefiDevicePathLib:DevicePathFromText.obj
 0005:00000018       $unwind$DevPathFromTextUsbCDCControl 0000000000156018     UefiDevicePathLib:DevicePathFromText.obj
 0005:00000018       $unwind$DevPathFromTextUsbCDCData 0000000000156018     UefiDevicePathLib:DevicePathFromText.obj
 0005:00000018       $unwind$DevPathFromTextUsbClass 0000000000156018     UefiDevicePathLib:DevicePathFromText.obj
 0005:00000018       $unwind$DevPathFromTextUsbDeviceFirmwareUpdate 0000000000156018     UefiDevicePathLib:DevicePathFromText.obj
 0005:00000018       $unwind$DevPathFromTextUsbDiagnostic 0000000000156018     UefiDevicePathLib:DevicePathFromText.obj
 0005:00000018       $unwind$DevPathFromTextUsbHID 0000000000156018     UefiDevicePathLib:DevicePathFromText.obj
 0005:00000018       $unwind$DevPathFromTextUsbHub 0000000000156018     UefiDevicePathLib:DevicePathFromText.obj
 0005:00000018       $unwind$DevPathFromTextUsbImage 0000000000156018     UefiDevicePathLib:DevicePathFromText.obj
 0005:00000018       $unwind$DevPathFromTextUsbIrdaBridge 0000000000156018     UefiDevicePathLib:DevicePathFromText.obj
 0005:00000018       $unwind$DevPathFromTextUsbMassStorage 0000000000156018     UefiDevicePathLib:DevicePathFromText.obj
 0005:00000018       $unwind$DevPathFromTextUsbPrinter 0000000000156018     UefiDevicePathLib:DevicePathFromText.obj
 0005:00000018       $unwind$DevPathFromTextUsbSmartCard 0000000000156018     UefiDevicePathLib:DevicePathFromText.obj
 0005:00000018       $unwind$DevPathFromTextUsbTestAndMeasurement 0000000000156018     UefiDevicePathLib:DevicePathFromText.obj
 0005:00000018       $unwind$DevPathFromTextUsbVideo 0000000000156018     UefiDevicePathLib:DevicePathFromText.obj
 0005:00000018       $unwind$DevPathFromTextUsbWireless 0000000000156018     UefiDevicePathLib:DevicePathFromText.obj
 0005:00000018       $unwind$DevPathFromTextVenPcAnsi 0000000000156018     UefiDevicePathLib:DevicePathFromText.obj
 0005:00000018       $unwind$DevPathFromTextVenUtf8 0000000000156018     UefiDevicePathLib:DevicePathFromText.obj
 0005:00000018       $unwind$DevPathFromTextVenVt100 0000000000156018     UefiDevicePathLib:DevicePathFromText.obj
 0005:00000018       $unwind$DevPathFromTextVenVt100Plus 0000000000156018     UefiDevicePathLib:DevicePathFromText.obj
 0005:00000018       $unwind$DevPathFromTextVlan 0000000000156018     UefiDevicePathLib:DevicePathFromText.obj
 0005:00000018       $unwind$EisaIdFromText     0000000000156018     UefiDevicePathLib:DevicePathFromText.obj
 0005:00000018       $unwind$IsDevicePathEnd    0000000000156018     UefiDevicePathLib:DevicePathUtilities.obj
 0005:00000018       $unwind$IsDevicePathEndType 0000000000156018     UefiDevicePathLib:DevicePathUtilities.obj
 0005:00000018       $unwind$UefiDevicePathLibDuplicateDevicePath 0000000000156018     UefiDevicePathLib:DevicePathUtilities.obj
 0005:00000018       $unwind$UefiDevicePathLibGetDevicePathSize 0000000000156018     UefiDevicePathLib:DevicePathUtilities.obj
 0005:00000018       $unwind$DevicePathFromHandle 0000000000156018     UefiDevicePathLib:DevicePathUtilitiesDxeSmm.obj
 0005:00000018       $unwind$FileHandleClose    0000000000156018     UefiFileHandleLib:UefiFileHandleLib.obj
 0005:00000018       $unwind$FileHandleDelete   0000000000156018     UefiFileHandleLib:UefiFileHandleLib.obj
 0005:00000018       $unwind$FileHandleIsDirectory 0000000000156018     UefiFileHandleLib:UefiFileHandleLib.obj
 0005:00000018       $unwind$FreePool           0000000000156018     UefiMemoryAllocationLib:MemoryAllocationLib.obj
 0005:00000018       $unwind$NetIp6IsLinkLocalAddr 0000000000156018     DxeNetLib:DxeNetLib.obj
 0005:00000018       $unwind$NetIp6IsUnspecifiedAddr 0000000000156018     DxeNetLib:DxeNetLib.obj
 0005:00000018       $unwind$ConsoleLoggerResetBuffers 0000000000156018     Shell:ConsoleLogger.obj
 0005:00000018       $unwind$ConsoleLoggerUninstall 0000000000156018     Shell:ConsoleLogger.obj
 0005:00000018       $unwind$CloseSimpleTextInOnFile 0000000000156018     Shell:ConsoleWrappers.obj
 0005:00000018       $unwind$CloseSimpleTextOutOnFile 0000000000156018     Shell:ConsoleWrappers.obj
 0005:00000018       $unwind$FileInterfaceEnvDelete 0000000000156018     Shell:FileHandleWrappers.obj
 0005:00000018       $unwind$FileInterfaceFileClose 0000000000156018     Shell:FileHandleWrappers.obj
 0005:00000018       $unwind$FileInterfaceFileDelete 0000000000156018     Shell:FileHandleWrappers.obj
 0005:00000018       $unwind$AddBufferToFreeList 0000000000156018     Shell:Shell.obj
 0005:00000018       $unwind$ProcessCommandLineToFinal 0000000000156018     Shell:Shell.obj
 0005:00000018       $unwind$ShellConvertAlias  0000000000156018     Shell:Shell.obj
 0005:00000018       $unwind$ShellSubstituteVariables 0000000000156018     Shell:Shell.obj
 0005:00000018       $unwind$VerifySplit        0000000000156018     Shell:Shell.obj
 0005:00000018       $unwind$FreeEnvironmentVariableList 0000000000156018     Shell:ShellEnvVar.obj
 0005:00000018       $unwind$ShellRemvoeEnvVarFromList 0000000000156018     Shell:ShellEnvVar.obj
 0005:00000018       $unwind$GetManFileName     0000000000156018     Shell:ShellManParser.obj
 0005:00000018       $unwind$CalculateEfiHdrCrc 0000000000156018     Shell:ShellParametersProtocol.obj
 0005:00000018       $unwind$CleanUpShellParametersProtocol 0000000000156018     Shell:ShellParametersProtocol.obj
 0005:00000018       $unwind$FindEndOfParameter 0000000000156018     Shell:ShellParametersProtocol.obj
 0005:00000018       $unwind$FixFileName        0000000000156018     Shell:ShellParametersProtocol.obj
 0005:00000018       $unwind$FixVarName         0000000000156018     Shell:ShellParametersProtocol.obj
 0005:00000018       $unwind$CleanUpShellProtocol 0000000000156018     Shell:ShellProtocol.obj
 0005:00000018       $unwind$EfiShellDeleteFileByName 0000000000156018     Shell:ShellProtocol.obj
 0005:00000018       $unwind$EfiShellFreeFileList 0000000000156018     Shell:ShellProtocol.obj
 0005:00000018       $unwind$InternalShellGetNodeFromGuid 0000000000156018     UefiHandleParsingLib:UefiHandleParsingLib.obj
 0005:00000018       $unwind$IsHIDevicePathNode 0000000000156018     UefiShellCommandLib:ConsistMapping.obj
 0005:00000018       $unwind$ShellCommandConsistMappingUnInitialize 0000000000156018     UefiShellCommandLib:ConsistMapping.obj
 0005:00000018       $unwind$ShellCommandFindMapItem 0000000000156018     UefiShellCommandLib:ConsistMapping.obj
 0005:00000018       $unwind$DeleteScriptFileStruct 0000000000156018     UefiShellCommandLib:UefiShellCommandLib.obj
 0005:00000018       $unwind$FreeBufferList     0000000000156018     UefiShellCommandLib:UefiShellCommandLib.obj
 0005:00000018       $unwind$FreeFileHandleList 0000000000156018     UefiShellCommandLib:UefiShellCommandLib.obj
 0005:00000018       $unwind$ShellCommandDynamicCommandExists 0000000000156018     UefiShellCommandLib:UefiShellCommandLib.obj
 0005:00000018       $unwind$ShellCommandGetCommandHelp 0000000000156018     UefiShellCommandLib:UefiShellCommandLib.obj
 0005:00000018       $unwind$ShellCommandGetDynamicCommandHelp 0000000000156018     UefiShellCommandLib:UefiShellCommandLib.obj
 0005:00000018       $unwind$ShellCommandGetInternalCommandHelp 0000000000156018     UefiShellCommandLib:UefiShellCommandLib.obj
 0005:00000018       $unwind$ShellCommandGetManFileNameHandler 0000000000156018     UefiShellCommandLib:UefiShellCommandLib.obj
 0005:00000018       $unwind$ShellCommandIsCommandOnInternalList 0000000000156018     UefiShellCommandLib:UefiShellCommandLib.obj
 0005:00000018       $unwind$ShellCommandIsOnAliasList 0000000000156018     UefiShellCommandLib:UefiShellCommandLib.obj
 0005:00000018       $unwind$ShellCommandSetNewScript 0000000000156018     UefiShellCommandLib:UefiShellCommandLib.obj
 0005:00000018       $unwind$ShellFileHandleGetPath 0000000000156018     UefiShellCommandLib:UefiShellCommandLib.obj
 0005:00000018       $unwind$ShellFileHandleRemove 0000000000156018     UefiShellCommandLib:UefiShellCommandLib.obj
 0005:00000018       $unwind$Split              0000000000156018     UefiShellDebug1CommandsLib:Compress.obj
 0005:00000018       $unwind$MenuBarDispatchControlHotKey 0000000000156018     UefiShellDebug1CommandsLib:EditMenuBar.obj
 0005:00000018       $unwind$MenuBarDispatchFunctionKey 0000000000156018     UefiShellDebug1CommandsLib:EditMenuBar.obj
 0005:00000018       $unwind$MenuBarInit        0000000000156018     UefiShellDebug1CommandsLib:EditMenuBar.obj
 0005:00000018       $unwind$FileBufferAddChar  0000000000156018     UefiShellDebug1CommandsLib:FileBuffer.obj
 0005:00000018       $unwind$FileBufferDoCharInput 0000000000156018     UefiShellDebug1CommandsLib:FileBuffer.obj
 0005:00000018       $unwind$FileBufferHandleInput 0000000000156018     UefiShellDebug1CommandsLib:FileBuffer.obj
 0005:00000018       $unwind$LineDup            0000000000156018     UefiShellDebug1CommandsLib:Misc.obj
 0005:00000018       $unwind$HBufferImageDoCharInput 0000000000156018     UefiShellDebug1CommandsLib:BufferImage.obj
 0005:00000018       $unwind$HBufferImageHandleInput 0000000000156018     UefiShellDebug1CommandsLib:BufferImage.obj
 0005:00000018       $unwind$ExplainPcieCapReg  0000000000156018     UefiShellDebug1CommandsLib:Pci.obj
 0005:00000018       $unwind$ExplainPcieDeviceControl 0000000000156018     UefiShellDebug1CommandsLib:Pci.obj
 0005:00000018       $unwind$ExplainPcieLinkControl 0000000000156018     UefiShellDebug1CommandsLib:Pci.obj
 0005:00000018       $unwind$ExplainPcieLinkStatus 0000000000156018     UefiShellDebug1CommandsLib:Pci.obj
 0005:00000018       $unwind$IsStringOfHexNibbles 0000000000156018     UefiShellDebug1CommandsLib:SetVar.obj
 0005:00000018       $unwind$IsValidFileName    0000000000156018     UefiShellDebug1CommandsLib:UefiShellDebug1CommandsLib.obj
 0005:00000018       $unwind$DumpLoadedImageProtocolInfo 0000000000156018     UefiShellDriver1CommandsLib:Unload.obj
 0005:00000018       $unwind$ReturnUintn        0000000000156018     UefiShellLevel1CommandsLib:For.obj
 0005:00000018       $unwind$IsValidProfile     0000000000156018     UefiShellLevel1CommandsLib:If.obj
 0005:00000018       $unwind$GetDeviceMediaType 0000000000156018     UefiShellLevel2CommandsLib:Map.obj
 0005:00000018       $unwind$IsRemoveableDevice 0000000000156018     UefiShellLevel2CommandsLib:Map.obj
 0005:00000018       $unwind$InternalPrintTo    0000000000156018     UefiShellLib:UefiShellLib.obj
 0005:00000018       $unwind$ShellCloseFileMetaArg 0000000000156018     UefiShellLib:UefiShellLib.obj
 0005:00000018       $unwind$ShellCommandLineFreeVarList 0000000000156018     UefiShellLib:UefiShellLib.obj
 0005:00000018       $unwind$ShellCommandLineGetCount 0000000000156018     UefiShellLib:UefiShellLib.obj
 0005:00000018       $unwind$ShellDeleteFileByName 0000000000156018     UefiShellLib:UefiShellLib.obj
 0005:00000018       $unwind$ShellFileExists    0000000000156018     UefiShellLib:UefiShellLib.obj
 0005:00000018       $unwind$ShellIsFile        0000000000156018     UefiShellLib:UefiShellLib.obj
 0005:00000018       $unwind$ShellIsFileInPath  0000000000156018     UefiShellLib:UefiShellLib.obj
 0005:00000018       $unwind$ShellStrToUintn    0000000000156018     UefiShellLib:UefiShellLib.obj
 0005:00000018       $unwind$FreeArgList        0000000000156018     UefiShellNetwork1CommandsLib:Ifconfig.obj
 0005:00000018       $unwind$IfConfig           0000000000156018     UefiShellNetwork1CommandsLib:Ifconfig.obj
 0005:00000018       $unwind$PingNetIp4IsUnspecifiedAddr 0000000000156018     UefiShellNetwork1CommandsLib:Ping.obj
 0005:00000018       $unwind$PingSendEchoRequest 0000000000156018     UefiShellNetwork1CommandsLib:Ping.obj
 0005:00000020       $unwind$DebugPrint         0000000000156020     PeiDxeDebugLibReportStatusCode:DebugLib.obj
 0005:00000020       $unwind$InternalSafeStringNoAsciiStrOverlap 0000000000156020     BaseLib:SafeString.obj
 0005:00000020       $unwind$InternalSafeStringNoStrOverlap 0000000000156020     BaseLib:SafeString.obj
 0005:00000020       $unwind$AsciiSPrint        0000000000156020     BasePrintLib:PrintLib.obj
 0005:00000020       $unwind$AsciiVSPrint       0000000000156020     BasePrintLib:PrintLib.obj
 0005:00000020       $unwind$UnicodeSPrint      0000000000156020     BasePrintLib:PrintLib.obj
 0005:00000020       $unwind$UnicodeVSPrint     0000000000156020     BasePrintLib:PrintLib.obj
 0005:00000020       $unwind$UnicodeValueToStringS 0000000000156020     BasePrintLib:PrintLib.obj
 0005:00000020       $unwind$DevPathRelativeOffsetRange 0000000000156020     UefiDevicePathLib:DevicePathToText.obj
 0005:00000020       $unwind$DevPathToText1394  0000000000156020     UefiDevicePathLib:DevicePathToText.obj
 0005:00000020       $unwind$DevPathToTextAcpi  0000000000156020     UefiDevicePathLib:DevicePathToText.obj
 0005:00000020       $unwind$DevPathToTextBmc   0000000000156020     UefiDevicePathLib:DevicePathToText.obj
 0005:00000020       $unwind$DevPathToTextController 0000000000156020     UefiDevicePathLib:DevicePathToText.obj
 0005:00000020       $unwind$DevPathToTextDns   0000000000156020     UefiDevicePathLib:DevicePathToText.obj
 0005:00000020       $unwind$DevPathToTextEmmc  0000000000156020     UefiDevicePathLib:DevicePathToText.obj
 0005:00000020       $unwind$DevPathToTextFibre 0000000000156020     UefiDevicePathLib:DevicePathToText.obj
 0005:00000020       $unwind$DevPathToTextFibreEx 0000000000156020     UefiDevicePathLib:DevicePathToText.obj
 0005:00000020       $unwind$DevPathToTextFilePath 0000000000156020     UefiDevicePathLib:DevicePathToText.obj
 0005:00000020       $unwind$DevPathToTextFv    0000000000156020     UefiDevicePathLib:DevicePathToText.obj
 0005:00000020       $unwind$DevPathToTextFvFile 0000000000156020     UefiDevicePathLib:DevicePathToText.obj
 0005:00000020       $unwind$DevPathToTextI2O   0000000000156020     UefiDevicePathLib:DevicePathToText.obj
 0005:00000020       $unwind$DevPathToTextIPv4  0000000000156020     UefiDevicePathLib:DevicePathToText.obj
 0005:00000020       $unwind$DevPathToTextIPv6  0000000000156020     UefiDevicePathLib:DevicePathToText.obj
 0005:00000020       $unwind$DevPathToTextLogicalUnit 0000000000156020     UefiDevicePathLib:DevicePathToText.obj
 0005:00000020       $unwind$DevPathToTextMediaProtocol 0000000000156020     UefiDevicePathLib:DevicePathToText.obj
 0005:00000020       $unwind$DevPathToTextPccard 0000000000156020     UefiDevicePathLib:DevicePathToText.obj
 0005:00000020       $unwind$DevPathToTextPci   0000000000156020     UefiDevicePathLib:DevicePathToText.obj
 0005:00000020       $unwind$DevPathToTextScsi  0000000000156020     UefiDevicePathLib:DevicePathToText.obj
 0005:00000020       $unwind$DevPathToTextSd    0000000000156020     UefiDevicePathLib:DevicePathToText.obj
 0005:00000020       $unwind$DevPathToTextUfs   0000000000156020     UefiDevicePathLib:DevicePathToText.obj
 0005:00000020       $unwind$DevPathToTextUsb   0000000000156020     UefiDevicePathLib:DevicePathToText.obj
 0005:00000020       $unwind$DevPathToTextVlan  0000000000156020     UefiDevicePathLib:DevicePathToText.obj
 0005:00000020       $unwind$UefiDevicePathLibCatPrint 0000000000156020     UefiDevicePathLib:DevicePathToText.obj
 0005:00000020       $unwind$CatSPrint          0000000000156020     UefiLib:UefiLibPrint.obj
 0005:00000020       $unwind$Print              0000000000156020     UefiLib:UefiLibPrint.obj
 0005:00000020       $unwind$FileBasedSimpleTextOutQueryMode 0000000000156020     Shell:ConsoleWrappers.obj
 0005:00000020       $unwind$FileInterfaceFileOpen 0000000000156020     Shell:FileHandleWrappers.obj
 0005:00000020       $unwind$FileInterfaceMemGetInfo 0000000000156020     Shell:FileHandleWrappers.obj
 0005:00000020       $unwind$ShellFindEnvVarInList 0000000000156020     Shell:ShellEnvVar.obj
 0005:00000020       $unwind$GetNextParameter   0000000000156020     Shell:ShellParametersProtocol.obj
 0005:00000020       $unwind$RestoreStdInStdOutStdErr 0000000000156020     Shell:ShellParametersProtocol.obj
 0005:00000020       $unwind$UpdateArgcArgv     0000000000156020     Shell:ShellParametersProtocol.obj
 0005:00000020       $unwind$EfiShellSetAlias   0000000000156020     Shell:ShellProtocol.obj
 0005:00000020       $unwind$BuffernCatGrow     0000000000156020     UefiHandleParsingLib:UefiHandleParsingLib.obj
 0005:00000020       $unwind$FileBufferReadByte 0000000000156020     UefiShellDebug1CommandsLib:Comp.obj
 0005:00000020       $unwind$Compress           0000000000156020     UefiShellDebug1CommandsLib:Compress.obj
 0005:00000020       $unwind$HBufferImageRead   0000000000156020     UefiShellDebug1CommandsLib:BufferImage.obj
 0005:00000020       $unwind$HBufferImageSave   0000000000156020     UefiShellDebug1CommandsLib:BufferImage.obj
 0005:00000020       $unwind$PciConfigSpaceDumpHex 0000000000156020     UefiShellDebug1CommandsLib:Pci.obj
 0005:00000020       $unwind$InternalIsTimeLikeString 0000000000156020     UefiShellLevel2CommandsLib:TimeDate.obj
 0005:00000020       $unwind$ShellCopySearchAndReplace 0000000000156020     UefiShellLib:UefiShellLib.obj
 0005:00000020       $unwind$StrnCatGrow        0000000000156020     UefiShellLib:UefiShellLib.obj
 0005:00000028       $unwind$BasePrintLibValueToString 0000000000156028     BasePrintLib:PrintLibInternal.obj
 0005:00000028       $unwind$FileHandleFindNextFile 0000000000156028     UefiFileHandleLib:UefiFileHandleLib.obj
 0005:00000028       $unwind$CreateSimpleTextOutOnFile 0000000000156028     Shell:ConsoleWrappers.obj
 0005:00000028       $unwind$FileInterfaceMemRead 0000000000156028     Shell:FileHandleWrappers.obj
 0005:00000028       $unwind$FileInterfaceMemWrite 0000000000156028     Shell:FileHandleWrappers.obj
 0005:00000028       $unwind$FileInterfaceStdOutWrite 0000000000156028     Shell:FileHandleWrappers.obj
 0005:00000028       $unwind$FindNextInstance   0000000000156028     Shell:Shell.obj
 0005:00000028       $unwind$RestoreArgcArgv    0000000000156028     Shell:ShellParametersProtocol.obj
 0005:00000028       $unwind$AddNewGuidNameMapping 0000000000156028     UefiHandleParsingLib:UefiHandleParsingLib.obj
 0005:00000028       $unwind$GetProtocolInformationDump 0000000000156028     UefiHandleParsingLib:UefiHandleParsingLib.obj
 0005:00000028       $unwind$DevPathSerialAcpi  0000000000156028     UefiShellCommandLib:ConsistMapping.obj
 0005:00000028       $unwind$DevPathSerialAtapi 0000000000156028     UefiShellCommandLib:ConsistMapping.obj
 0005:00000028       $unwind$DevPathSerialCdRom 0000000000156028     UefiShellCommandLib:ConsistMapping.obj
 0005:00000028       $unwind$DevPathSerialFibre 0000000000156028     UefiShellCommandLib:ConsistMapping.obj
 0005:00000028       $unwind$DevPathSerialHardDrive 0000000000156028     UefiShellCommandLib:ConsistMapping.obj
 0005:00000028       $unwind$DevPathSerialI2O   0000000000156028     UefiShellCommandLib:ConsistMapping.obj
 0005:00000028       $unwind$DevPathSerialLun   0000000000156028     UefiShellCommandLib:ConsistMapping.obj
 0005:00000028       $unwind$DevPathSerialSata  0000000000156028     UefiShellCommandLib:ConsistMapping.obj
 0005:00000028       $unwind$DevPathSerialScsi  0000000000156028     UefiShellCommandLib:ConsistMapping.obj
 0005:00000028       $unwind$DevPathSerialUart  0000000000156028     UefiShellCommandLib:ConsistMapping.obj
 0005:00000028       $unwind$ShellCommandRunCommandHandler 0000000000156028     UefiShellCommandLib:UefiShellCommandLib.obj
 0005:00000028       $unwind$PciGetProtocolAndResource 0000000000156028     UefiShellDebug1CommandsLib:Pci.obj
 0005:00000028       $unwind$PrintPciExtendedCapabilityDetails 0000000000156028     UefiShellDebug1CommandsLib:Pci.obj
 0005:00000028       $unwind$CalculateSmbios64BitStructureCountAndLength 0000000000156028     UefiShellDebug1CommandsLib:SmbiosView.obj
 0005:00000028       $unwind$InternalUpdateAliasOnList 0000000000156028     UefiShellLevel1CommandsLib:For.obj
 0005:00000028       $unwind$IsNextFragment     0000000000156028     UefiShellLevel1CommandsLib:If.obj
 0005:00000028       $unwind$ExtractDriveAndPath 0000000000156028     UefiShellLevel2CommandsLib:Cd.obj
 0005:00000028       $unwind$CreateFullDestPath 0000000000156028     UefiShellLevel2CommandsLib:Mv.obj
 0005:00000028       $unwind$CopyListOfCommandNames 0000000000156028     UefiShellLevel3CommandsLib:Help.obj
 0005:00000028       $unwind$InternalIsOnCheckList 0000000000156028     UefiShellLib:UefiShellLib.obj
 0005:00000028       $unwind$InternalShellStrDecimalToUint64 0000000000156028     UefiShellLib:UefiShellLib.obj
 0005:00000028       $unwind$InternalShellStrHexToUint64 0000000000156028     UefiShellLib:UefiShellLib.obj
 0005:00000030       $unwind$UefiDevicePathLibCreateDeviceNode 0000000000156030     UefiDevicePathLib:DevicePathUtilities.obj
 0005:00000030       $unwind$InternalAllocateCopyPool 0000000000156030     UefiMemoryAllocationLib:MemoryAllocationLib.obj
 0005:00000030       $unwind$ConsoleLoggerDisplayHistory 0000000000156030     Shell:ConsoleLogger.obj
 0005:00000038       $unwind$EfiBootManagerFreeLoadOption 0000000000156038     UefiBootManagerLib:BmLoadOption.obj
 0005:00000038       $unwind$IoRead64           0000000000156038     BaseIoLibIntrinsic:IoLib.obj
 0005:00000038       $unwind$TdIoRead16         0000000000156038     BaseIoLibIntrinsic:IoLibInternalTdxNull.obj
 0005:00000038       $unwind$TdIoRead32         0000000000156038     BaseIoLibIntrinsic:IoLibInternalTdxNull.obj
 0005:00000038       $unwind$TdIoRead8          0000000000156038     BaseIoLibIntrinsic:IoLibInternalTdxNull.obj
 0005:00000038       $unwind$TdMmioRead16       0000000000156038     BaseIoLibIntrinsic:IoLibInternalTdxNull.obj
 0005:00000038       $unwind$TdMmioRead32       0000000000156038     BaseIoLibIntrinsic:IoLibInternalTdxNull.obj
 0005:00000038       $unwind$TdMmioRead64       0000000000156038     BaseIoLibIntrinsic:IoLibInternalTdxNull.obj
 0005:00000038       $unwind$TdMmioRead8        0000000000156038     BaseIoLibIntrinsic:IoLibInternalTdxNull.obj
 0005:00000038       $unwind$GetFirstNode       0000000000156038     BaseLib:LinkedList.obj
 0005:00000038       $unwind$InitializeListHead 0000000000156038     BaseLib:LinkedList.obj
 0005:00000038       $unwind$RemoveEntryList    0000000000156038     BaseLib:LinkedList.obj
 0005:00000038       $unwind$InternalAssertJumpBuffer 0000000000156038     BaseLib:SetJump.obj
 0005:00000038       $unwind$AsciiStrSize       0000000000156038     BaseLib:String.obj
 0005:00000038       $unwind$InternalHexCharToUintn 0000000000156038     BaseLib:String.obj
 0005:00000038       $unwind$StrSize            0000000000156038     BaseLib:String.obj
 0005:00000038       $unwind$SwapBytes64        0000000000156038     BaseLib:SwapBytes64.obj
 0005:00000038       $unwind$ReadUnaligned16    0000000000156038     BaseLib:Unaligned.obj
 0005:00000038       $unwind$ReadUnaligned32    0000000000156038     BaseLib:Unaligned.obj
 0005:00000038       $unwind$ReadUnaligned64    0000000000156038     BaseLib:Unaligned.obj
 0005:00000038       $unwind$OrderedCollectionUninit 0000000000156038     BaseOrderedCollectionRedBlackTreeLib:BaseOrderedCollectionRedBlackTreeLib.obj
 0005:00000038       $unwind$DevPathFromTextAcpiPath 0000000000156038     UefiDevicePathLib:DevicePathFromText.obj
 0005:00000038       $unwind$DevPathFromTextBbsPath 0000000000156038     UefiDevicePathLib:DevicePathFromText.obj
 0005:00000038       $unwind$DevPathFromTextFloppy 0000000000156038     UefiDevicePathLib:DevicePathFromText.obj
 0005:00000038       $unwind$DevPathFromTextHardwarePath 0000000000156038     UefiDevicePathLib:DevicePathFromText.obj
 0005:00000038       $unwind$DevPathFromTextKeyboard 0000000000156038     UefiDevicePathLib:DevicePathFromText.obj
 0005:00000038       $unwind$DevPathFromTextMediaPath 0000000000156038     UefiDevicePathLib:DevicePathFromText.obj
 0005:00000038       $unwind$DevPathFromTextMsg 0000000000156038     UefiDevicePathLib:DevicePathFromText.obj
 0005:00000038       $unwind$DevPathFromTextParallelPort 0000000000156038     UefiDevicePathLib:DevicePathFromText.obj
 0005:00000038       $unwind$DevPathFromTextPciRoot 0000000000156038     UefiDevicePathLib:DevicePathFromText.obj
 0005:00000038       $unwind$DevPathFromTextPcieRoot 0000000000156038     UefiDevicePathLib:DevicePathFromText.obj
 0005:00000038       $unwind$DevPathFromTextSerial 0000000000156038     UefiDevicePathLib:DevicePathFromText.obj
 0005:00000038       $unwind$DevPathFromTextVenHw 0000000000156038     UefiDevicePathLib:DevicePathFromText.obj
 0005:00000038       $unwind$DevPathFromTextVenMedia 0000000000156038     UefiDevicePathLib:DevicePathFromText.obj
 0005:00000038       $unwind$DevPathFromTextVenMsg 0000000000156038     UefiDevicePathLib:DevicePathFromText.obj
 0005:00000038       $unwind$GetNextParamStr    0000000000156038     UefiDevicePathLib:DevicePathFromText.obj
 0005:00000038       $unwind$NetworkProtocolFromText 0000000000156038     UefiDevicePathLib:DevicePathFromText.obj
 0005:00000038       $unwind$Strtoi             0000000000156038     UefiDevicePathLib:DevicePathFromText.obj
 0005:00000038       $unwind$UefiDevicePathLibStrDuplicate 0000000000156038     UefiDevicePathLib:DevicePathFromText.obj
 0005:00000038       $unwind$DevicePathNodeLength 0000000000156038     UefiDevicePathLib:DevicePathUtilities.obj
 0005:00000038       $unwind$DevicePathSubType  0000000000156038     UefiDevicePathLib:DevicePathUtilities.obj
 0005:00000038       $unwind$DevicePathType     0000000000156038     UefiDevicePathLib:DevicePathUtilities.obj
 0005:00000038       $unwind$NextDevicePathNode 0000000000156038     UefiDevicePathLib:DevicePathUtilities.obj
 0005:00000038       $unwind$SetDevicePathEndNode 0000000000156038     UefiDevicePathLib:DevicePathUtilities.obj
 0005:00000038       $unwind$ConvertTextToDevicePath 0000000000156038     UefiDevicePathLib:UefiDevicePathLib.obj
 0005:00000038       $unwind$DuplicateDevicePath 0000000000156038     UefiDevicePathLib:UefiDevicePathLib.obj
 0005:00000038       $unwind$GetDevicePathSize  0000000000156038     UefiDevicePathLib:UefiDevicePathLib.obj
 0005:00000038       $unwind$FileHandleFlush    0000000000156038     UefiFileHandleLib:UefiFileHandleLib.obj
 0005:00000038       $unwind$EfiGetNameGuidFromFwVolDevicePathNode 0000000000156038     UefiLib:UefiNotTiano.obj
 0005:00000038       $unwind$AllocatePool       0000000000156038     UefiMemoryAllocationLib:MemoryAllocationLib.obj
 0005:00000038       $unwind$AllocateZeroPool   0000000000156038     UefiMemoryAllocationLib:MemoryAllocationLib.obj
 0005:00000038       $unwind$ConsoleLoggerStopHistory 0000000000156038     Shell:ConsoleLogger.obj
 0005:00000038       $unwind$FileInterfaceFileFlush 0000000000156038     Shell:FileHandleWrappers.obj
 0005:00000038       $unwind$FileInterfaceMemClose 0000000000156038     Shell:FileHandleWrappers.obj
 0005:00000038       $unwind$IsScriptOnlyCommand 0000000000156038     Shell:Shell.obj
 0005:00000038       $unwind$RestoreBufferList  0000000000156038     Shell:Shell.obj
 0005:00000038       $unwind$RunCommand         0000000000156038     Shell:Shell.obj
 0005:00000038       $unwind$SaveBufferList     0000000000156038     Shell:Shell.obj
 0005:00000038       $unwind$TrimSpaces         0000000000156038     Shell:Shell.obj
 0005:00000038       $unwind$EfiShellClose      0000000000156038     Shell:ShellProtocol.obj
 0005:00000038       $unwind$EfiShellGetEnv     0000000000156038     Shell:ShellProtocol.obj
 0005:00000038       $unwind$InternalFreeShellFileInfoNode 0000000000156038     Shell:ShellProtocol.obj
 0005:00000038       $unwind$NotificationFunction 0000000000156038     Shell:ShellProtocol.obj
 0005:00000038       $unwind$InitBcfgStruct     0000000000156038     UefiShellBcfgCommandLib:UefiShellBcfgCommandLib.obj
 0005:00000038       $unwind$ShellCommandIsCommandOnList 0000000000156038     UefiShellCommandLib:UefiShellCommandLib.obj
 0005:00000038       $unwind$FileBufferInit     0000000000156038     UefiShellDebug1CommandsLib:Comp.obj
 0005:00000038       $unwind$FileBufferUninit   0000000000156038     UefiShellDebug1CommandsLib:Comp.obj
 0005:00000038       $unwind$InputBarSetPrompt  0000000000156038     UefiShellDebug1CommandsLib:EditInputBar.obj
 0005:00000038       $unwind$InputBarSetStringSize 0000000000156038     UefiShellDebug1CommandsLib:EditInputBar.obj
 0005:00000038       $unwind$StatusBarSetStatusString 0000000000156038     UefiShellDebug1CommandsLib:EditStatusBar.obj
 0005:00000038       $unwind$MainTitleBarInit   0000000000156038     UefiShellDebug1CommandsLib:EditTitleBar.obj
 0005:00000038       $unwind$FileBufferSetFileName 0000000000156038     UefiShellDebug1CommandsLib:FileBuffer.obj
 0005:00000038       $unwind$LineFree           0000000000156038     UefiShellDebug1CommandsLib:Misc.obj
 0005:00000038       $unwind$HFileImageSetFileName 0000000000156038     UefiShellDebug1CommandsLib:FileImage.obj
 0005:00000038       $unwind$HLineFree          0000000000156038     UefiShellDebug1CommandsLib:Misc.obj
 0005:00000038       $unwind$ExplainPcieDeviceStatus 0000000000156038     UefiShellDebug1CommandsLib:Pci.obj
 0005:00000038       $unwind$ExplainPcieRootCap 0000000000156038     UefiShellDebug1CommandsLib:Pci.obj
 0005:00000038       $unwind$ExplainPcieRootControl 0000000000156038     UefiShellDebug1CommandsLib:Pci.obj
 0005:00000038       $unwind$ExplainPcieRootStatus 0000000000156038     UefiShellDebug1CommandsLib:Pci.obj
 0005:00000038       $unwind$ExplainPcieSlotCap 0000000000156038     UefiShellDebug1CommandsLib:Pci.obj
 0005:00000038       $unwind$ExplainPcieSlotControl 0000000000156038     UefiShellDebug1CommandsLib:Pci.obj
 0005:00000038       $unwind$ExplainPcieSlotStatus 0000000000156038     UefiShellDebug1CommandsLib:Pci.obj
 0005:00000038       $unwind$TestDataType       0000000000156038     UefiShellDebug1CommandsLib:SetVar.obj
 0005:00000038       $unwind$IsValidGuidString  0000000000156038     UefiShellDriver1CommandsLib:Dh.obj
 0005:00000038       $unwind$ShellIsValidForNumber 0000000000156038     UefiShellLevel1CommandsLib:For.obj
 0005:00000038       $unwind$InternalShellHexCharToUintn 0000000000156038     UefiShellLib:UefiShellLib.obj
 0005:00000038       $unwind$ShellCloseFile     0000000000156038     UefiShellLib:UefiShellLib.obj
 0005:00000038       $unwind$ShellDeleteFile    0000000000156038     UefiShellLib:UefiShellLib.obj
 0005:00000038       $unwind$ShellGetCurrentDir 0000000000156038     UefiShellLib:UefiShellLib.obj
 0005:00000038       $unwind$ShellGetEnvironmentVariable 0000000000156038     UefiShellLib:UefiShellLib.obj
 0005:00000038       $unwind$ShellGetFileInfo   0000000000156038     UefiShellLib:UefiShellLib.obj
 0005:00000038       $unwind$PingFreeRttTimer   0000000000156038     UefiShellNetwork1CommandsLib:Ping.obj
 0005:00000040       $unwind$UpdateDisplayFromHistory 0000000000156040     Shell:ConsoleLogger.obj
 0005:00000048       $unwind$ConsoleLoggerEnableCursor 0000000000156048     Shell:ConsoleLogger.obj
 0005:00000048       $unwind$ConsoleLoggerReset 0000000000156048     Shell:ConsoleLogger.obj
 0005:00000048       $unwind$DriverEfiVersionProtocolDumpInformation 0000000000156048     UefiHandleParsingLib:UefiHandleParsingLib.obj
 0005:00000048       $unwind$DisplayCacheConfiguration 0000000000156048     UefiShellDebug1CommandsLib:PrintInfo.obj
 0005:00000048       $unwind$DisplayProcessorFamily2 0000000000156048     UefiShellDebug1CommandsLib:PrintInfo.obj
 0005:00000048       $unwind$DisplayCacheSRAMType 0000000000156048     UefiShellDebug1CommandsLib:QueryTable.obj
 0005:00000048       $unwind$DisplayFirmwareCharacteristics 0000000000156048     UefiShellDebug1CommandsLib:QueryTable.obj
 0005:00000048       $unwind$DisplayMcMemorySpeeds 0000000000156048     UefiShellDebug1CommandsLib:QueryTable.obj
 0005:00000048       $unwind$DisplayMemoryDeviceMemoryOperatingModeCapability 0000000000156048     UefiShellDebug1CommandsLib:QueryTable.obj
 0005:00000048       $unwind$DisplayMemoryDeviceTypeDetail 0000000000156048     UefiShellDebug1CommandsLib:QueryTable.obj
 0005:00000048       $unwind$DisplayMmMemoryType 0000000000156048     UefiShellDebug1CommandsLib:QueryTable.obj
 0005:00000048       $unwind$DisplayProcessorCharacteristics 0000000000156048     UefiShellDebug1CommandsLib:QueryTable.obj
 0005:00000048       $unwind$IfConfigPrintMacAddr 0000000000156048     UefiShellNetwork1CommandsLib:Ifconfig.obj
 0005:00000048       $unwind$PingDestroyTxInfo  0000000000156048     UefiShellNetwork1CommandsLib:Ping.obj
 0005:00000050       $unwind$InternalGetReportStatusCode 0000000000156050     DxeReportStatusCodeLib:ReportStatusCodeLib.obj
 0005:00000050       $unwind$CpuDeadLoop        0000000000156050     BaseLib:CpuDeadLoop.obj
 0005:00000050       $unwind$GetHobList         0000000000156050     DxeHobLib:HobLib.obj
 0005:00000050       $unwind$ConsoleLoggerDoPageBreak 0000000000156050     Shell:ConsoleLogger.obj
 0005:00000050       $unwind$ShellInitEnvVarList 0000000000156050     Shell:ShellEnvVar.obj
 0005:00000050       $unwind$ShellCommandGetCurrentScriptFile 0000000000156050     UefiShellCommandLib:UefiShellCommandLib.obj
 0005:00000050       $unwind$Encode             0000000000156050     UefiShellDebug1CommandsLib:Compress.obj
 0005:00000050       $unwind$GetNextMatch       0000000000156050     UefiShellDebug1CommandsLib:Compress.obj
 0005:00000050       $unwind$InitSlide          0000000000156050     UefiShellDebug1CommandsLib:Compress.obj
 0005:00000050       $unwind$WriteCLen          0000000000156050     UefiShellDebug1CommandsLib:Compress.obj
 0005:00000050       $unwind$FileBufferCleanup  0000000000156050     UefiShellDebug1CommandsLib:FileBuffer.obj
 0005:00000050       $unwind$FileBufferRestorePosition 0000000000156050     UefiShellDebug1CommandsLib:FileBuffer.obj
 0005:00000050       $unwind$MainCommandCutLine 0000000000156050     UefiShellDebug1CommandsLib:MainTextEditor.obj
 0005:00000050       $unwind$MainCommandExit    0000000000156050     UefiShellDebug1CommandsLib:MainTextEditor.obj
 0005:00000050       $unwind$MainCommandGotoLine 0000000000156050     UefiShellDebug1CommandsLib:MainTextEditor.obj
 0005:00000050       $unwind$MainCommandPasteLine 0000000000156050     UefiShellDebug1CommandsLib:MainTextEditor.obj
 0005:00000050       $unwind$HBufferImageBackup 0000000000156050     UefiShellDebug1CommandsLib:BufferImage.obj
 0005:00000050       $unwind$HBufferImageCleanup 0000000000156050     UefiShellDebug1CommandsLib:BufferImage.obj
 0005:00000050       $unwind$HBufferImageInit   0000000000156050     UefiShellDebug1CommandsLib:BufferImage.obj
 0005:00000050       $unwind$HBufferImageRestorePosition 0000000000156050     UefiShellDebug1CommandsLib:BufferImage.obj
 0005:00000050       $unwind$HMainCommandSelectEnd 0000000000156050     UefiShellDebug1CommandsLib:MainHexEditor.obj
 0005:00000050       $unwind$HMainCommandSelectStart 0000000000156050     UefiShellDebug1CommandsLib:MainHexEditor.obj
 0005:00000050       $unwind$HMemImageInit      0000000000156050     UefiShellDebug1CommandsLib:MemImage.obj
 0005:00000050       $unwind$ShellInitialize    0000000000156050     UefiShellLib:UefiShellLib.obj
 0005:00000058       $unwind$BmValidateOption   0000000000156058     UefiBootManagerLib:BmLoadOption.obj
 0005:00000058       $unwind$IsNodeInList       0000000000156058     BaseLib:LinkedList.obj
 0005:00000058       $unwind$OrderedCollectionFind 0000000000156058     BaseOrderedCollectionRedBlackTreeLib:BaseOrderedCollectionRedBlackTreeLib.obj
 0005:00000058       $unwind$GetParamByNodeName 0000000000156058     UefiDevicePathLib:DevicePathFromText.obj
 0005:00000058       $unwind$FileDevicePath     0000000000156058     UefiDevicePathLib:DevicePathUtilities.obj
 0005:00000058       $unwind$IsDevicePathValid  0000000000156058     UefiDevicePathLib:DevicePathUtilities.obj
 0005:00000058       $unwind$UefiDevicePathLibGetNextDevicePathInstance 0000000000156058     UefiDevicePathLib:DevicePathUtilities.obj
 0005:00000058       $unwind$NetLibGetSnpHandle 0000000000156058     DxeNetLib:DxeNetLib.obj
 0005:00000058       $unwind$ConsoleLoggerPrintWithPageBreak 0000000000156058     Shell:ConsoleLogger.obj
 0005:00000058       $unwind$ConsoleLoggerSetAttribute 0000000000156058     Shell:ConsoleLogger.obj
 0005:00000058       $unwind$ConsoleLoggerSetMode 0000000000156058     Shell:ConsoleLogger.obj
 0005:00000058       $unwind$ConsoleLoggerTestString 0000000000156058     Shell:ConsoleLogger.obj
 0005:00000058       $unwind$LocateStartupScript 0000000000156058     Shell:Shell.obj
 0005:00000058       $unwind$AppendCSDNum2      0000000000156058     UefiShellCommandLib:ConsistMapping.obj
 0005:00000058       $unwind$AppendCSDStr       0000000000156058     UefiShellCommandLib:ConsistMapping.obj
 0005:00000058       $unwind$GetDeviceConsistMappingInfo 0000000000156058     UefiShellCommandLib:ConsistMapping.obj
 0005:00000058       $unwind$ShellCommandLibDestructor 0000000000156058     UefiShellCommandLib:UefiShellCommandLib.obj
 0005:00000058       $unwind$ShellCommandRegisterAlias 0000000000156058     UefiShellCommandLib:UefiShellCommandLib.obj
 0005:00000058       $unwind$HBufferImageIsInSelectedArea 0000000000156058     UefiShellDebug1CommandsLib:BufferImage.obj
 0005:00000058       $unwind$HMemImageSave      0000000000156058     UefiShellDebug1CommandsLib:MemImage.obj
 0005:00000058       $unwind$HFreeLines         0000000000156058     UefiShellDebug1CommandsLib:Misc.obj
 0005:00000058       $unwind$PrintInterpretedExtendedCompatibilityECEA 0000000000156058     UefiShellDebug1CommandsLib:Pci.obj
 0005:00000058       $unwind$PrintInterpretedExtendedCompatibilitySerialNumber 0000000000156058     UefiShellDebug1CommandsLib:Pci.obj
 0005:00000058       $unwind$PrintInterpretedExtendedCompatibilityVendorSpecific 0000000000156058     UefiShellDebug1CommandsLib:Pci.obj
 0005:00000058       $unwind$UefiShellDebug1CommandsLibConstructor 0000000000156058     UefiShellDebug1CommandsLib:UefiShellDebug1CommandsLib.obj
 0005:00000058       $unwind$ConvertStrToGuid   0000000000156058     UefiShellDriver1CommandsLib:Dh.obj
 0005:00000058       $unwind$UefiShellDriver1CommandsLibConstructor 0000000000156058     UefiShellDriver1CommandsLib:UefiShellDriver1CommandsLib.obj
 0005:00000058       $unwind$IsSoucePathValid   0000000000156058     UefiShellLevel2CommandsLib:Mv.obj
 0005:00000058       $unwind$ShellLevel2CommandsLibConstructor 0000000000156058     UefiShellLevel2CommandsLib:UefiShellLevel2CommandsLib.obj
 0005:00000058       $unwind$CopyListOfCommandNamesWithDynamic 0000000000156058     UefiShellLevel3CommandsLib:Help.obj
 0005:00000058       $unwind$ShellLevel3CommandsLibConstructor 0000000000156058     UefiShellLevel3CommandsLib:UefiShellLevel3CommandsLib.obj
 0005:00000058       $unwind$ShellLibConstructorWorker 0000000000156058     UefiShellLib:UefiShellLib.obj
 0005:00000058       $unwind$SplitStrToList     0000000000156058     UefiShellNetwork1CommandsLib:Ifconfig.obj
 0005:00000058       $unwind$Ping6MatchEchoReply 0000000000156058     UefiShellNetwork1CommandsLib:Ping.obj
 0005:00000058       $unwind$ShellNetwork1CommandsLibConstructor 0000000000156058     UefiShellNetwork1CommandsLib:UefiShellNetwork1CommandsLib.obj
 0005:00000060       $unwind$ConsoleLoggerOutputString 0000000000156060     Shell:ConsoleLogger.obj
 0005:00000060       $unwind$GetBootOptionCrc   0000000000156060     UefiShellBcfgCommandLib:UefiShellBcfgCommandLib.obj
 0005:00000070       $unwind$PerformQuickSort   0000000000156070     UefiSortLib:UefiSortLib.obj
 0005:00000070       $unwind$BasePrintLibSPrint 0000000000156070     BasePrintLib:PrintLibInternal.obj
 0005:00000070       $unwind$DevPathToTextAcpiAdr 0000000000156070     UefiDevicePathLib:DevicePathToText.obj
 0005:00000070       $unwind$DevPathToTextBBS   0000000000156070     UefiDevicePathLib:DevicePathToText.obj
 0005:00000070       $unwind$DevPathToTextCDROM 0000000000156070     UefiDevicePathLib:DevicePathToText.obj
 0005:00000070       $unwind$DevPathToTextHardDrive 0000000000156070     UefiDevicePathLib:DevicePathToText.obj
 0005:00000070       $unwind$DevPathToTextMacAddr 0000000000156070     UefiDevicePathLib:DevicePathToText.obj
 0005:00000070       $unwind$DevPathToTextMemMap 0000000000156070     UefiDevicePathLib:DevicePathToText.obj
 0005:00000070       $unwind$DevPathToTextNodeGeneric 0000000000156070     UefiDevicePathLib:DevicePathToText.obj
 0005:00000070       $unwind$DevPathToTextSata  0000000000156070     UefiDevicePathLib:DevicePathToText.obj
 0005:00000070       $unwind$DevPathToTextUart  0000000000156070     UefiDevicePathLib:DevicePathToText.obj
 0005:00000070       $unwind$DevPathToTextUri   0000000000156070     UefiDevicePathLib:DevicePathToText.obj
 0005:00000070       $unwind$StrnCatGrowLeft    0000000000156070     UefiFileHandleLib:UefiFileHandleLib.obj
 0005:00000070       $unwind$GetVariable2       0000000000156070     UefiLib:UefiLib.obj
 0005:00000070       $unwind$ConsoleLoggerQueryMode 0000000000156070     Shell:ConsoleLogger.obj
 0005:00000070       $unwind$ShellAddEnvVarToList 0000000000156070     Shell:ShellEnvVar.obj
 0005:00000070       $unwind$CreateAndPopulateShellFileInfo 0000000000156070     Shell:ShellProtocol.obj
 0005:00000070       $unwind$CatPrint           0000000000156070     UefiShellCommandLib:ConsistMapping.obj
 0005:00000070       $unwind$ShellCommandRegisterCommandName 0000000000156070     UefiShellCommandLib:UefiShellCommandLib.obj
 0005:00000070       $unwind$PrintDifferentPoint 0000000000156070     UefiShellDebug1CommandsLib:Comp.obj
 0005:00000070       $unwind$BinaryToHexString  0000000000156070     UefiShellDebug1CommandsLib:DmpStore.obj
 0005:00000070       $unwind$LineStrInsert      0000000000156070     UefiShellDebug1CommandsLib:FileBuffer.obj
 0005:00000070       $unwind$QueryTable         0000000000156070     UefiShellDebug1CommandsLib:QueryTable.obj
 0005:00000070       $unwind$ConvertAndConnectControllers 0000000000156070     UefiShellDriver1CommandsLib:Connect.obj
 0005:00000070       $unwind$TestOperation      0000000000156070     UefiShellLevel1CommandsLib:If.obj
 0005:00000070       $unwind$TestNodeForMove    0000000000156070     UefiShellLevel1CommandsLib:UefiShellLevel1CommandsLib.obj
 0005:00000070       $unwind$SearchList         0000000000156070     UefiShellLevel2CommandsLib:Map.obj
 0005:00000070       $unwind$IsValidMove        0000000000156070     UefiShellLevel2CommandsLib:Mv.obj
 0005:00000070       $unwind$ShellCommandLineParseEx 0000000000156070     UefiShellLib:UefiShellLib.obj
 0005:00000070       $unwind$ShellConvertStringToUint64 0000000000156070     UefiShellLib:UefiShellLib.obj
 0005:00000070       $unwind$ShellOpenFileByDevicePath 0000000000156070     UefiShellLib:UefiShellLib.obj
 0005:00000078       $unwind$RedBlackTreeValidate 0000000000156078     BaseOrderedCollectionRedBlackTreeLib:BaseOrderedCollectionRedBlackTreeLib.obj
 0005:00000078       $unwind$DevPathFromTextHD  0000000000156078     UefiDevicePathLib:DevicePathFromText.obj
 0005:00000078       $unwind$DevPathFromTextIPv4 0000000000156078     UefiDevicePathLib:DevicePathFromText.obj
 0005:00000078       $unwind$DevPathFromTextIPv6 0000000000156078     UefiDevicePathLib:DevicePathFromText.obj
 0005:00000078       $unwind$DevPathFromTextRamDisk 0000000000156078     UefiDevicePathLib:DevicePathFromText.obj
 0005:00000078       $unwind$DevPathFromTextUart 0000000000156078     UefiDevicePathLib:DevicePathFromText.obj
 0005:00000078       $unwind$UefiDevicePathLibConvertTextToDevicePath 0000000000156078     UefiDevicePathLib:DevicePathFromText.obj
 0005:00000078       $unwind$ConsoleLoggerClearScreen 0000000000156078     Shell:ConsoleLogger.obj
 0005:00000078       $unwind$FileInterfaceEnvClose 0000000000156078     Shell:FileHandleWrappers.obj
 0005:00000078       $unwind$DoHelpUpdate       0000000000156078     Shell:Shell.obj
 0005:00000078       $unwind$SetEnvironmentVariables 0000000000156078     Shell:ShellEnvVar.obj
 0005:00000078       $unwind$CreatePopulateInstallShellProtocol 0000000000156078     Shell:ShellProtocol.obj
 0005:00000078       $unwind$DisplayConformanceProfiles 0000000000156078     UefiShellDebug1CommandsLib:Dmem.obj
 0005:00000078       $unwind$FileBufferCutLine  0000000000156078     UefiShellDebug1CommandsLib:FileBuffer.obj
 0005:00000078       $unwind$DisplaySysEventLogHeaderType1 0000000000156078     UefiShellDebug1CommandsLib:EventLogInfo.obj
 0005:00000078       $unwind$GetDevicePathTextForHandle 0000000000156078     UefiShellDriver1CommandsLib:Drivers.obj
 0005:00000078       $unwind$PerformMappingDelete 0000000000156078     UefiShellLevel2CommandsLib:Map.obj
 0005:00000078       $unwind$PrintSingleShellAlias 0000000000156078     UefiShellLevel3CommandsLib:Alias.obj
 0005:00000078       $unwind$FullyQualifyPath   0000000000156078     UefiShellLib:UefiShellLib.obj
 0005:00000078       $unwind$ShellFindFilePath  0000000000156078     UefiShellLib:UefiShellLib.obj
 0005:00000080       $unwind$StrDecimalToUint64S 0000000000156080     BaseLib:SafeString.obj
 0005:00000080       $unwind$StrDecimalToUintnS 0000000000156080     BaseLib:SafeString.obj
 0005:00000080       $unwind$InternalPrint      0000000000156080     UefiLib:UefiLibPrint.obj
 0005:00000080       $unwind$ConsoleLoggerSetCursorPosition 0000000000156080     Shell:ConsoleLogger.obj
 0005:00000080       $unwind$FileInterfaceEnvRead 0000000000156080     Shell:FileHandleWrappers.obj
 0005:00000080       $unwind$FileInterfaceFileWrite 0000000000156080     Shell:FileHandleWrappers.obj
 0005:00000080       $unwind$EfiShellCreateFile 0000000000156080     Shell:ShellProtocol.obj
 0005:00000080       $unwind$EfiShellOpenFileByName 0000000000156080     Shell:ShellProtocol.obj
 0005:00000080       $unwind$InternalShellExecute 0000000000156080     Shell:ShellProtocol.obj
 0005:00000080       $unwind$GetGuidFromStringName 0000000000156080     UefiHandleParsingLib:UefiHandleParsingLib.obj
 0005:00000080       $unwind$BcfgLibraryRegisterBcfgCommand 0000000000156080     UefiShellBcfgCommandLib:UefiShellBcfgCommandLib.obj
 0005:00000080       $unwind$InternalEditorMiscLineAdvance 0000000000156080     UefiShellDebug1CommandsLib:FileBuffer.obj
 0005:00000080       $unwind$InternalEditorMiscLineRetreat 0000000000156080     UefiShellDebug1CommandsLib:FileBuffer.obj
 0005:00000080       $unwind$ConvertHandleToHiiHandle 0000000000156080     UefiShellDriver1CommandsLib:DrvCfg.obj
 0005:00000080       $unwind$PrintNonSfoFooter  0000000000156080     UefiShellLevel2CommandsLib:Ls.obj
 0005:00000080       $unwind$IsBetweenFileSystem 0000000000156080     UefiShellLevel2CommandsLib:Mv.obj
 0005:00000080       $unwind$MoveBetweenFileSystems 0000000000156080     UefiShellLevel2CommandsLib:Mv.obj
 0005:00000080       $unwind$ShellOpenFileMetaArg 0000000000156080     UefiShellLib:UefiShellLib.obj
 0005:00000080       $unwind$ShellPrintHelp     0000000000156080     UefiShellLib:UefiShellLib.obj
 0005:00000088       $unwind$ShellConvertVariables 0000000000156088     Shell:Shell.obj
 0005:00000088       $unwind$GetExecuatableFileName 0000000000156088     Shell:ShellManParser.obj
 0005:00000088       $unwind$GetImageExecutionInfo 0000000000156088     UefiShellDebug1CommandsLib:Dmem.obj
 0005:00000088       $unwind$HFileImageSave     0000000000156088     UefiShellDebug1CommandsLib:FileImage.obj
 0005:00000088       $unwind$GetImageNameFromHandle 0000000000156088     UefiShellDriver1CommandsLib:Drivers.obj
 0005:00000088       $unwind$PrintSfoVolumeInfoTableEntry 0000000000156088     UefiShellLevel2CommandsLib:Ls.obj
 0005:00000090       $unwind$HiiAddPackages     0000000000156090     UefiHiiLib:HiiLib.obj
 0005:00000090       $unwind$HiiSetString       0000000000156090     UefiHiiLib:HiiString.obj
 0005:00000090       $unwind$CreateBasicVariablePolicy 0000000000156090     VariablePolicyHelperLib:VariablePolicyHelperLib.obj
 0005:00000090       $unwind$StrHexToBytes      0000000000156090     BaseLib:SafeString.obj
 0005:00000090       $unwind$StrnCatS           0000000000156090     BaseLib:SafeString.obj
 0005:00000090       $unwind$DevPathToTextSasEx 0000000000156090     UefiDevicePathLib:DevicePathToText.obj
 0005:00000090       $unwind$DevPathToTextUsbClass 0000000000156090     UefiDevicePathLib:DevicePathToText.obj
 0005:00000090       $unwind$GetBestLanguage    0000000000156090     UefiLib:UefiLib.obj
 0005:00000090       $unwind$RunInternalCommand 0000000000156090     Shell:Shell.obj
 0005:00000090       $unwind$ManFileFindSections 0000000000156090     Shell:ShellManParser.obj
 0005:00000090       $unwind$ManFileFindTitleSection 0000000000156090     Shell:ShellManParser.obj
 0005:00000090       $unwind$ParseHandleDatabaseByRelationship 0000000000156090     UefiHandleParsingLib:UefiHandleParsingLib.obj
 0005:00000090       $unwind$ProcessValidateAndCopyFiles 0000000000156090     UefiShellLevel2CommandsLib:Cp.obj
 0005:00000090       $unwind$DoTouchByHandle    0000000000156090     UefiShellLevel3CommandsLib:Touch.obj
 0005:00000098       $unwind$RegisterBasicVariablePolicy 0000000000156098     VariablePolicyHelperLib:VariablePolicyHelperLib.obj
 0005:00000098       $unwind$QuickSort          0000000000156098     BaseLib:QuickSort.obj
 0005:00000098       $unwind$AsciiStrnCpyS      0000000000156098     BaseLib:SafeString.obj
 0005:00000098       $unwind$StrnCpyS           0000000000156098     BaseLib:SafeString.obj
 0005:00000098       $unwind$DevPathToTextAtapi 0000000000156098     UefiDevicePathLib:DevicePathToText.obj
 0005:00000098       $unwind$DevPathToTextBluetooth 0000000000156098     UefiDevicePathLib:DevicePathToText.obj
 0005:00000098       $unwind$DevPathToTextInfiniBand 0000000000156098     UefiDevicePathLib:DevicePathToText.obj
 0005:00000098       $unwind$DevPathToTextUsbWWID 0000000000156098     UefiDevicePathLib:DevicePathToText.obj
 0005:00000098       $unwind$DevPathToTextiSCSI 0000000000156098     UefiDevicePathLib:DevicePathToText.obj
 0005:00000098       $unwind$RunScriptFile      0000000000156098     Shell:Shell.obj
 0005:00000098       $unwind$IsTitleHeader      0000000000156098     Shell:ShellManParser.obj
 0005:00000098       $unwind$EfiShellExecute    0000000000156098     Shell:ShellProtocol.obj
 0005:00000098       $unwind$ShellCommandAddMapItemAndUpdatePath 0000000000156098     UefiShellCommandLib:UefiShellCommandLib.obj
 0005:00000098       $unwind$AppendSingleVariableToFile 0000000000156098     UefiShellDebug1CommandsLib:DmpStore.obj
 0005:00000098       $unwind$ReadFileIntoBuffer 0000000000156098     UefiShellDebug1CommandsLib:UefiShellDebug1CommandsLib.obj
 0005:00000098       $unwind$ConnectConsoles    0000000000156098     UefiShellDriver1CommandsLib:Connect.obj
 0005:00000098       $unwind$GetDeviceHandleInfo 0000000000156098     UefiShellDriver1CommandsLib:Devices.obj
 0005:00000098       $unwind$ShellCmdDriverConfigurationProcessActionRequired 0000000000156098     UefiShellDriver1CommandsLib:DrvCfg.obj
 0005:00000098       $unwind$MappingListHasType 0000000000156098     UefiShellLevel2CommandsLib:Map.obj
 0005:00000098       $unwind$ShellLevel3CommandsLibSetAlias 0000000000156098     UefiShellLevel3CommandsLib:Alias.obj
 0005:00000098       $unwind$ShellFileHandleReadLine 0000000000156098     UefiShellLib:UefiShellLib.obj
 0005:00000098       $unwind$ShellOpenFileByName 0000000000156098     UefiShellLib:UefiShellLib.obj
 0005:000000a0       $unwind$ProcessManFile     00000000001560a0     Shell:ShellManParser.obj
 0005:000000a8       $unwind$FileHandleGetFileName 00000000001560a8     UefiFileHandleLib:UefiFileHandleLib.obj
 0005:000000a8       $unwind$RunShellCommand    00000000001560a8     Shell:Shell.obj
 0005:000000a8       $unwind$IsVolatileEnv      00000000001560a8     Shell:ShellEnvVar.obj
 0005:000000a8       $unwind$EfiShellGetAlias   00000000001560a8     Shell:ShellProtocol.obj
 0005:000000a8       $unwind$EfiShellGetEnvEx   00000000001560a8     Shell:ShellProtocol.obj
 0005:000000a8       $unwind$EfiShellSetCurDir  00000000001560a8     Shell:ShellProtocol.obj
 0005:000000a8       $unwind$DisplayMmioMemory  00000000001560a8     UefiShellDebug1CommandsLib:Dmem.obj
 0005:000000a8       $unwind$HBufferImageListToBuffer 00000000001560a8     UefiShellDebug1CommandsLib:BufferImage.obj
 0005:000000a8       $unwind$PrintInterpretedExtendedCompatibilityDesignatedVendorSpecific 00000000001560a8     UefiShellDebug1CommandsLib:Pci.obj
 0005:000000a8       $unwind$PrintInterpretedExtendedCompatibilityDynamicPowerAllocation 00000000001560a8     UefiShellDebug1CommandsLib:Pci.obj
 0005:000000a8       $unwind$PrintInterpretedExtendedCompatibilityLaneMargining 00000000001560a8     UefiShellDebug1CommandsLib:Pci.obj
 0005:000000a8       $unwind$PrintInterpretedExtendedCompatibilityRcrb 00000000001560a8     UefiShellDebug1CommandsLib:Pci.obj
 0005:000000a8       $unwind$ShellCommandRunReconnect 00000000001560a8     UefiShellDriver1CommandsLib:Reconnect.obj
 0005:000000a8       $unwind$ShellCommandRunEndFor 00000000001560a8     UefiShellLevel1CommandsLib:For.obj
 0005:000000a8       $unwind$ShellCommandRunEndIf 00000000001560a8     UefiShellLevel1CommandsLib:If.obj
 0005:000000a8       $unwind$AddMappingFromHandle 00000000001560a8     UefiShellLevel2CommandsLib:Map.obj
 0005:000000a8       $unwind$IfConfigClearInterfaceInfo 00000000001560a8     UefiShellNetwork1CommandsLib:Ifconfig.obj
 0005:000000a8       $unwind$Ping6OnTimerRoutine 00000000001560a8     UefiShellNetwork1CommandsLib:Ping.obj
 0005:000000b0       $unwind$GetEnvironmentVariableList 00000000001560b0     Shell:ShellEnvVar.obj
 0005:000000c0       $unwind$PeCoffLoaderGetPdbPointer 00000000001560c0     BasePeCoffGetEntryPointLib:PeCoffGetEntryPoint.obj
 0005:000000c0       $unwind$DevPathFromTextSAS 00000000001560c0     UefiDevicePathLib:DevicePathFromText.obj
 0005:000000c0       $unwind$SetEnvironmentVariableList 00000000001560c0     Shell:ShellEnvVar.obj
 0005:000000c0       $unwind$EfiShellGetFilePathFromDevicePath 00000000001560c0     Shell:ShellProtocol.obj
 0005:000000c0       $unwind$FindLoadedImageFileName 00000000001560c0     UefiHandleParsingLib:UefiHandleParsingLib.obj
 0005:000000c0       $unwind$GetHandleListByProtocolList 00000000001560c0     UefiHandleParsingLib:UefiHandleParsingLib.obj
 0005:000000c0       $unwind$MainEditorHandleMouseInput 00000000001560c0     UefiShellDebug1CommandsLib:MainTextEditor.obj
 0005:000000c0       $unwind$PciExplainCommand  00000000001560c0     UefiShellDebug1CommandsLib:Pci.obj
 0005:000000c8       $unwind$ShellFreeEnvVarList 00000000001560c8     Shell:ShellEnvVar.obj
 0005:000000c8       $unwind$EfiShellBatchIsActive 00000000001560c8     Shell:ShellProtocol.obj
 0005:000000c8       $unwind$HandleParsingHiiInit 00000000001560c8     UefiHandleParsingLib:UefiHandleParsingLib.obj
 0005:000000c8       $unwind$AllocateMemory     00000000001560c8     UefiShellDebug1CommandsLib:Compress.obj
 0005:000000c8       $unwind$FreeMemory         00000000001560c8     UefiShellDebug1CommandsLib:Compress.obj
 0005:000000c8       $unwind$HufEncodeEnd       00000000001560c8     UefiShellDebug1CommandsLib:Compress.obj
 0005:000000c8       $unwind$HufEncodeStart     00000000001560c8     UefiShellDebug1CommandsLib:Compress.obj
 0005:000000c8       $unwind$InputBarCleanup    00000000001560c8     UefiShellDebug1CommandsLib:EditInputBar.obj
 0005:000000c8       $unwind$MenuBarCleanup     00000000001560c8     UefiShellDebug1CommandsLib:EditMenuBar.obj
 0005:000000c8       $unwind$StatusBarCleanup   00000000001560c8     UefiShellDebug1CommandsLib:EditStatusBar.obj
 0005:000000c8       $unwind$StatusBarInit      00000000001560c8     UefiShellDebug1CommandsLib:EditStatusBar.obj
 0005:000000c8       $unwind$MainTitleBarCleanup 00000000001560c8     UefiShellDebug1CommandsLib:EditTitleBar.obj
 0005:000000c8       $unwind$FileBufferBackup   00000000001560c8     UefiShellDebug1CommandsLib:FileBuffer.obj
 0005:000000c8       $unwind$FileBufferFree     00000000001560c8     UefiShellDebug1CommandsLib:FileBuffer.obj
 0005:000000c8       $unwind$FileBufferInit     00000000001560c8     UefiShellDebug1CommandsLib:FileBuffer.obj
 0005:000000c8       $unwind$MainCommandSwitchFileType 00000000001560c8     UefiShellDebug1CommandsLib:MainTextEditor.obj
 0005:000000c8       $unwind$MainEditorBackup   00000000001560c8     UefiShellDebug1CommandsLib:MainTextEditor.obj
 0005:000000c8       $unwind$HBufferImageFree   00000000001560c8     UefiShellDebug1CommandsLib:BufferImage.obj
 0005:000000c8       $unwind$HBufferImageFreeLines 00000000001560c8     UefiShellDebug1CommandsLib:BufferImage.obj
 0005:000000c8       $unwind$HClipBoardCleanup  00000000001560c8     UefiShellDebug1CommandsLib:Clipboard.obj
 0005:000000c8       $unwind$HClipBoardInit     00000000001560c8     UefiShellDebug1CommandsLib:Clipboard.obj
 0005:000000c8       $unwind$HDiskImageBackup   00000000001560c8     UefiShellDebug1CommandsLib:DiskImage.obj
 0005:000000c8       $unwind$HDiskImageCleanup  00000000001560c8     UefiShellDebug1CommandsLib:DiskImage.obj
 0005:000000c8       $unwind$HDiskImageInit     00000000001560c8     UefiShellDebug1CommandsLib:DiskImage.obj
 0005:000000c8       $unwind$HFileImageBackup   00000000001560c8     UefiShellDebug1CommandsLib:FileImage.obj
 0005:000000c8       $unwind$HFileImageCleanup  00000000001560c8     UefiShellDebug1CommandsLib:FileImage.obj
 0005:000000c8       $unwind$HFileImageInit     00000000001560c8     UefiShellDebug1CommandsLib:FileImage.obj
 0005:000000c8       $unwind$HMainEditorBackup  00000000001560c8     UefiShellDebug1CommandsLib:MainHexEditor.obj
 0005:000000c8       $unwind$ConnectAllConsoles 00000000001560c8     UefiShellDriver1CommandsLib:Reconnect.obj
 0005:000000c8       $unwind$ShellGetExecutionBreakFlag 00000000001560c8     UefiShellLib:UefiShellLib.obj
 0005:000000d0       $unwind$DebugVPrint        00000000001560d0     PeiDxeDebugLibReportStatusCode:DebugLib.obj
 0005:000000d0       $unwind$HiiGetString       00000000001560d0     UefiHiiLib:HiiString.obj
 0005:000000d0       $unwind$DivU64x64Remainder 00000000001560d0     BaseLib:DivU64x64Remainder.obj
 0005:000000d0       $unwind$AsciiStrnCmp       00000000001560d0     BaseLib:String.obj
 0005:000000d0       $unwind$StrnCmp            00000000001560d0     BaseLib:String.obj
 0005:000000d0       $unwind$CompareMem         00000000001560d0     BaseMemoryLib:CompareMemWrapper.obj
 0005:000000d0       $unwind$CopyMem            00000000001560d0     BaseMemoryLib:CopyMemWrapper.obj
 0005:000000d0       $unwind$SetMem             00000000001560d0     BaseMemoryLib:SetMemWrapper.obj
 0005:000000d0       $unwind$FileHandleRead     00000000001560d0     UefiFileHandleLib:UefiFileHandleLib.obj
 0005:000000d0       $unwind$FileHandleWrite    00000000001560d0     UefiFileHandleLib:UefiFileHandleLib.obj
 0005:000000d0       $unwind$GetEfiGlobalVariable2 00000000001560d0     UefiLib:UefiLib.obj
 0005:000000d0       $unwind$ReallocatePool     00000000001560d0     UefiMemoryAllocationLib:MemoryAllocationLib.obj
 0005:000000d0       $unwind$FileInterfaceStdErrWrite 00000000001560d0     Shell:FileHandleWrappers.obj
 0005:000000d0       $unwind$EfiShellSetEnv     00000000001560d0     Shell:ShellProtocol.obj
 0005:000000d0       $unwind$InsertNewGuidNameMapping 00000000001560d0     UefiHandleParsingLib:UefiHandleParsingLib.obj
 0005:000000d0       $unwind$HDiskImageSetDiskNameOffsetSize 00000000001560d0     UefiShellDebug1CommandsLib:DiskImage.obj
 0005:000000d0       $unwind$MemToString        00000000001560d0     UefiShellDebug1CommandsLib:PrintInfo.obj
 0005:000000d0       $unwind$BuildNextStatement 00000000001560d0     UefiShellLevel1CommandsLib:If.obj
 0005:000000d0       $unwind$ShellReadFile      00000000001560d0     UefiShellLib:UefiShellLib.obj
 0005:000000d0       $unwind$ShellSetEnvironmentVariable 00000000001560d0     UefiShellLib:UefiShellLib.obj
 0005:000000d0       $unwind$ShellWriteFile     00000000001560d0     UefiShellLib:UefiShellLib.obj
 0005:000000d8       $unwind$DevPathToTextRamDisk 00000000001560d8     UefiDevicePathLib:DevicePathToText.obj
 0005:000000d8       $unwind$CreateTabCompletionList 00000000001560d8     Shell:FileHandleWrappers.obj
 0005:000000d8       $unwind$ShellSearchHandle  00000000001560d8     Shell:ShellProtocol.obj
 0005:000000d8       $unwind$HDiskImageRead     00000000001560d8     UefiShellDebug1CommandsLib:DiskImage.obj
 0005:000000d8       $unwind$PerformParsing     00000000001560d8     UefiShellLevel2CommandsLib:Parse.obj
 0005:000000e0       $unwind$FileInterfaceStdInRead 00000000001560e0     Shell:FileHandleWrappers.obj
 0005:000000e8       $unwind$EfiBootManagerIsValidLoadOptionVariableName 00000000001560e8     UefiBootManagerLib:BmLoadOption.obj
 0005:000000e8       $unwind$AsciiStrToUnicodeStrS 00000000001560e8     BaseLib:SafeString.obj
 0005:000000e8       $unwind$StrCpyS            00000000001560e8     BaseLib:SafeString.obj
 0005:000000e8       $unwind$StrHexToUint64S    00000000001560e8     BaseLib:SafeString.obj
 0005:000000e8       $unwind$StrHexToUintnS     00000000001560e8     BaseLib:SafeString.obj
 0005:000000e8       $unwind$UnicodeStrToAsciiStrS 00000000001560e8     BaseLib:SafeString.obj
 0005:000000e8       $unwind$InternalMemSetMem  00000000001560e8     BaseMemoryLib:SetMem.obj
 0005:000000e8       $unwind$CatVSPrint         00000000001560e8     UefiLib:UefiLibPrint.obj
 0005:000000e8       $unwind$FileInterfaceEnvNonVolWrite 00000000001560e8     Shell:FileHandleWrappers.obj
 0005:000000e8       $unwind$FileInterfaceEnvVolWrite 00000000001560e8     Shell:FileHandleWrappers.obj
 0005:000000e8       $unwind$FileInterfaceFileRead 00000000001560e8     Shell:FileHandleWrappers.obj
 0005:000000e8       $unwind$PrintCommandHistory 00000000001560e8     Shell:FileHandleWrappers.obj
 0005:000000e8       $unwind$EfiShellGetHelpText 00000000001560e8     Shell:ShellProtocol.obj
 0005:000000e8       $unwind$EfiShellOpenFileList 00000000001560e8     Shell:ShellProtocol.obj
 0005:000000e8       $unwind$InternalEfiShellSetEnv 00000000001560e8     Shell:ShellProtocol.obj
 0005:000000e8       $unwind$InternalSetAlias   00000000001560e8     Shell:ShellProtocol.obj
 0005:000000e8       $unwind$DevPathSerialIScsi 00000000001560e8     UefiShellCommandLib:ConsistMapping.obj
 0005:000000e8       $unwind$HBufferImageMovePosition 00000000001560e8     UefiShellDebug1CommandsLib:BufferImage.obj
 0005:000000e8       $unwind$PrintInterpretedExtendedCompatibilitySecondary 00000000001560e8     UefiShellDebug1CommandsLib:Pci.obj
 0005:000000e8       $unwind$LibGetSmbios64BitStructure 00000000001560e8     UefiShellDebug1CommandsLib:LibSmbiosView.obj
 0005:000000e8       $unwind$LibGetSmbiosStructure 00000000001560e8     UefiShellDebug1CommandsLib:LibSmbiosView.obj
 0005:000000e8       $unwind$PrintBitsInfo      00000000001560e8     UefiShellDebug1CommandsLib:QueryTable.obj
 0005:000000e8       $unwind$GetDriverName      00000000001560e8     UefiShellDriver1CommandsLib:Dh.obj
 0005:000000e8       $unwind$IsValidDeleteTarget 00000000001560e8     UefiShellLevel2CommandsLib:Rm.obj
 0005:000000e8       $unwind$LexicalInsertIntoList 00000000001560e8     UefiShellLevel3CommandsLib:Help.obj
 0005:000000f0       $unwind$HiiGetSupportedLanguages 00000000001560f0     UefiHiiLib:HiiLanguage.obj
 0005:000000f0       $unwind$PathCleanUpDirectories 00000000001560f0     BaseLib:FilePaths.obj
 0005:000000f0       $unwind$InternalBaseLibIsListValid 00000000001560f0     BaseLib:LinkedList.obj
 0005:000000f0       $unwind$DevPathFromTextAcpi 00000000001560f0     UefiDevicePathLib:DevicePathFromText.obj
 0005:000000f0       $unwind$DevPathFromTextAcpiAdr 00000000001560f0     UefiDevicePathLib:DevicePathFromText.obj
 0005:000000f0       $unwind$DevPathFromTextAta 00000000001560f0     UefiDevicePathLib:DevicePathFromText.obj
 0005:000000f0       $unwind$DevPathFromTextBluetoothLE 00000000001560f0     UefiDevicePathLib:DevicePathFromText.obj
 0005:000000f0       $unwind$DevPathFromTextBmc 00000000001560f0     UefiDevicePathLib:DevicePathFromText.obj
 0005:000000f0       $unwind$DevPathFromTextCDROM 00000000001560f0     UefiDevicePathLib:DevicePathFromText.obj
 0005:000000f0       $unwind$DevPathFromTextFibre 00000000001560f0     UefiDevicePathLib:DevicePathFromText.obj
 0005:000000f0       $unwind$DevPathFromTextFibreEx 00000000001560f0     UefiDevicePathLib:DevicePathFromText.obj
 0005:000000f0       $unwind$DevPathFromTextMAC 00000000001560f0     UefiDevicePathLib:DevicePathFromText.obj
 0005:000000f0       $unwind$DevPathFromTextMemoryMapped 00000000001560f0     UefiDevicePathLib:DevicePathFromText.obj
 0005:000000f0       $unwind$DevPathFromTextPci 00000000001560f0     UefiDevicePathLib:DevicePathFromText.obj
 0005:000000f0       $unwind$DevPathFromTextRelativeOffsetRange 00000000001560f0     UefiDevicePathLib:DevicePathFromText.obj
 0005:000000f0       $unwind$DevPathFromTextSata 00000000001560f0     UefiDevicePathLib:DevicePathFromText.obj
 0005:000000f0       $unwind$DevPathFromTextScsi 00000000001560f0     UefiDevicePathLib:DevicePathFromText.obj
 0005:000000f0       $unwind$DevPathFromTextUfs 00000000001560f0     UefiDevicePathLib:DevicePathFromText.obj
 0005:000000f0       $unwind$DevPathFromTextUri 00000000001560f0     UefiDevicePathLib:DevicePathFromText.obj
 0005:000000f0       $unwind$DevPathFromTextUsb 00000000001560f0     UefiDevicePathLib:DevicePathFromText.obj
 0005:000000f0       $unwind$FileHandleGetInfo  00000000001560f0     UefiFileHandleLib:UefiFileHandleLib.obj
 0005:000000f0       $unwind$CreateFileInterfaceEnv 00000000001560f0     Shell:FileHandleWrappers.obj
 0005:000000f0       $unwind$AddLineToCommandHistory 00000000001560f0     Shell:Shell.obj
 0005:000000f0       $unwind$ChangeMappedDrive  00000000001560f0     Shell:Shell.obj
 0005:000000f0       $unwind$ContainsSplit      00000000001560f0     Shell:Shell.obj
 0005:000000f0       $unwind$GetOperationType   00000000001560f0     Shell:Shell.obj
 0005:000000f0       $unwind$ProcessNewSplitCommandLine 00000000001560f0     Shell:Shell.obj
 0005:000000f0       $unwind$ShellSubstituteAliases 00000000001560f0     Shell:Shell.obj
 0005:000000f0       $unwind$WriteFileTag       00000000001560f0     Shell:ShellParametersProtocol.obj
 0005:000000f0       $unwind$CleanUpShellEnvironment 00000000001560f0     Shell:ShellProtocol.obj
 0005:000000f0       $unwind$EfiShellGetCurDir  00000000001560f0     Shell:ShellProtocol.obj
 0005:000000f0       $unwind$EfiShellGetDevicePathFromMap 00000000001560f0     Shell:ShellProtocol.obj
 0005:000000f0       $unwind$EfiShellGetMapFromDevicePath 00000000001560f0     Shell:ShellProtocol.obj
 0005:000000f0       $unwind$InternalShellProtocolIsBlockIoPresent 00000000001560f0     Shell:ShellProtocol.obj
 0005:000000f0       $unwind$InternalShellProtocolIsSimpleFileSystemPresent 00000000001560f0     Shell:ShellProtocol.obj
 0005:000000f0       $unwind$ConvertHandleIndexToHandle 00000000001560f0     UefiHandleParsingLib:UefiHandleParsingLib.obj
 0005:000000f0       $unwind$ConvertHandleToHandleIndex 00000000001560f0     UefiHandleParsingLib:UefiHandleParsingLib.obj
 0005:000000f0       $unwind$ShellCommandFindDynamicCommand 00000000001560f0     UefiShellCommandLib:UefiShellCommandLib.obj
 0005:000000f0       $unwind$ShellFileHandleEof 00000000001560f0     UefiShellCommandLib:UefiShellCommandLib.obj
 0005:000000f0       $unwind$DisplayImageExecutionEntries 00000000001560f0     UefiShellDebug1CommandsLib:Dmem.obj
 0005:000000f0       $unwind$MoveCurrentLine    00000000001560f0     UefiShellDebug1CommandsLib:FileBuffer.obj
 0005:000000f0       $unwind$MoveLine           00000000001560f0     UefiShellDebug1CommandsLib:FileBuffer.obj
 0005:000000f0       $unwind$HLineAdvance       00000000001560f0     UefiShellDebug1CommandsLib:Misc.obj
 0005:000000f0       $unwind$HLineRetreat       00000000001560f0     UefiShellDebug1CommandsLib:Misc.obj
 0005:000000f0       $unwind$HMoveCurrentLine   00000000001560f0     UefiShellDebug1CommandsLib:Misc.obj
 0005:000000f0       $unwind$HMoveLine          00000000001560f0     UefiShellDebug1CommandsLib:Misc.obj
 0005:000000f0       $unwind$ExplainPcieDeviceCap 00000000001560f0     UefiShellDebug1CommandsLib:Pci.obj
 0005:000000f0       $unwind$ExplainPcieLinkCap 00000000001560f0     UefiShellDebug1CommandsLib:Pci.obj
 0005:000000f0       $unwind$EditGetDefaultFileName 00000000001560f0     UefiShellDebug1CommandsLib:UefiShellDebug1CommandsLib.obj
 0005:000000f0       $unwind$ShellConnectDevicePath 00000000001560f0     UefiShellDriver1CommandsLib:Connect.obj
 0005:000000f0       $unwind$ReturnDriverConfig 00000000001560f0     UefiShellDriver1CommandsLib:Drivers.obj
 0005:000000f0       $unwind$ReturnDriverDiag   00000000001560f0     UefiShellDriver1CommandsLib:Drivers.obj
 0005:000000f0       $unwind$PrintNonSfoHeader  00000000001560f0     UefiShellLevel2CommandsLib:Ls.obj
 0005:000000f0       $unwind$HandleStringWithEscapeCharForParse 00000000001560f0     UefiShellLevel2CommandsLib:Parse.obj
 0005:000000f0       $unwind$IsDirectoryEmpty   00000000001560f0     UefiShellLevel2CommandsLib:Rm.obj
 0005:000000f0       $unwind$GetFullyQualifiedPath 00000000001560f0     UefiShellLevel2CommandsLib:UefiShellLevel2CommandsLib.obj
 0005:000000f0       $unwind$VerifyIntermediateDirectories 00000000001560f0     UefiShellLevel2CommandsLib:UefiShellLevel2CommandsLib.obj
 0005:000000f0       $unwind$ShellIsDirectory   00000000001560f0     UefiShellLib:UefiShellLib.obj
 0005:000000f0       $unwind$IfConfigCleanup    00000000001560f0     UefiShellNetwork1CommandsLib:Ifconfig.obj
 0005:000000f0       $unwind$Ping6DestroyIp6Instance 00000000001560f0     UefiShellNetwork1CommandsLib:Ping.obj
 0005:000000f0       $unwind$Ping6ReceiveEchoReply 00000000001560f0     UefiShellNetwork1CommandsLib:Ping.obj
 0005:000000f0       $unwind$PingInitRttTimer   00000000001560f0     UefiShellNetwork1CommandsLib:Ping.obj
 0005:000000f8       $unwind$SwapBytes32        00000000001560f8     BaseLib:SwapBytes32.obj
 0005:000000f8       $unwind$CreateFileInterfaceMem 00000000001560f8     Shell:FileHandleWrappers.obj
 0005:000000f8       $unwind$ConvertMemoryType  00000000001560f8     UefiHandleParsingLib:UefiHandleParsingLib.obj
 0005:000000f8       $unwind$ConvertPixelFormat 00000000001560f8     UefiHandleParsingLib:UefiHandleParsingLib.obj
 0005:000000f8       $unwind$CountLen           00000000001560f8     UefiShellDebug1CommandsLib:Compress.obj
 0005:000000f8       $unwind$EncodeP            00000000001560f8     UefiShellDebug1CommandsLib:Compress.obj
 0005:000000f8       $unwind$GetAttrType        00000000001560f8     UefiShellDebug1CommandsLib:DmpStore.obj
 0005:00000100       $unwind$EfiBootManagerInitializeLoadOption 0000000000156100     UefiBootManagerLib:BmLoadOption.obj
 0005:00000100       $unwind$PopulateCommonData 0000000000156100     VariablePolicyHelperLib:VariablePolicyHelperLib.obj
 0005:00000100       $unwind$DevPathToTextEndInstance 0000000000156100     UefiDevicePathLib:DevicePathToText.obj
 0005:00000100       $unwind$FileInterfaceFileGetInfo 0000000000156100     Shell:FileHandleWrappers.obj
 0005:00000100       $unwind$FileInterfaceFileSetInfo 0000000000156100     Shell:FileHandleWrappers.obj
 0005:00000108       $unwind$MmioWrite32        0000000000156108     BaseIoLibIntrinsic:IoLib.obj
 0005:00000108       $unwind$MmioWrite8         0000000000156108     BaseIoLibIntrinsic:IoLib.obj
 0005:00000108       $unwind$IoWrite32          0000000000156108     BaseIoLibIntrinsic:IoLibMsc.obj
 0005:00000108       $unwind$IoWrite8           0000000000156108     BaseIoLibIntrinsic:IoLibMsc.obj
 0005:00000108       $unwind$MultU64x32         0000000000156108     BaseLib:MultU64x32.obj
 0005:00000108       $unwind$ConvertFromTextAcpi 0000000000156108     UefiDevicePathLib:DevicePathFromText.obj
 0005:00000108       $unwind$InternalAllocatePool 0000000000156108     UefiMemoryAllocationLib:MemoryAllocationLib.obj
 0005:00000108       $unwind$InternalAllocateZeroPool 0000000000156108     UefiMemoryAllocationLib:MemoryAllocationLib.obj
 0005:00000108       $unwind$CreateFileInterfaceFile 0000000000156108     Shell:FileHandleWrappers.obj
 0005:00000108       $unwind$InternalDuplicateShellFileInfo 0000000000156108     Shell:ShellProtocol.obj
 0005:00000108       $unwind$DisplaySysEventLogHeader 0000000000156108     UefiShellDebug1CommandsLib:EventLogInfo.obj
 0005:00000108       $unwind$DisplayBiosCharacteristics 0000000000156108     UefiShellDebug1CommandsLib:PrintInfo.obj
 0005:00000108       $unwind$DisplayTpmDeviceCharacteristics 0000000000156108     UefiShellDebug1CommandsLib:PrintInfo.obj
 0005:00000110       $unwind$DevPathFromTextAcpiEx 0000000000156110     UefiDevicePathLib:DevicePathFromText.obj
 0005:00000110       $unwind$DevPathFromTextSasEx 0000000000156110     UefiDevicePathLib:DevicePathFromText.obj
 0005:00000110       $unwind$DevPathFromTextiSCSI 0000000000156110     UefiDevicePathLib:DevicePathFromText.obj
 0005:00000110       $unwind$EfiShellGetDevicePathFromFilePath 0000000000156110     Shell:ShellProtocol.obj
 0005:00000110       $unwind$ShellCommandConsistMappingInitialize 0000000000156110     UefiShellCommandLib:ConsistMapping.obj
 0005:00000110       $unwind$ShellConnectFromDevPaths 0000000000156110     UefiShellDriver1CommandsLib:Connect.obj
 0005:00000110       $unwind$IfConfigShowInterfaceInfo 0000000000156110     UefiShellNetwork1CommandsLib:Ifconfig.obj
 0005:00000118       $unwind$EfiShellGetDeviceName 0000000000156118     Shell:ShellProtocol.obj
 0005:00000120       $unwind$StrToIpv4Address   0000000000156120     BaseLib:SafeString.obj
 0005:00000120       $unwind$InternalOpenFileDevicePath 0000000000156120     Shell:ShellProtocol.obj
 0005:00000120       $unwind$ConnectControllers 0000000000156120     UefiShellDriver1CommandsLib:Connect.obj
 0005:00000120       $unwind$MoveToTag          0000000000156120     UefiShellLevel1CommandsLib:UefiShellLevel1CommandsLib.obj
 0005:00000120       $unwind$GetDestinationLocation 0000000000156120     UefiShellLevel2CommandsLib:Mv.obj
 0005:00000128       $unwind$InternalShellExecuteDevicePath 0000000000156128     Shell:ShellProtocol.obj
 0005:00000128       $unwind$HBufferImagePrintLine 0000000000156128     UefiShellDebug1CommandsLib:BufferImage.obj
 0005:00000128       $unwind$ValidateAndCopyFiles 0000000000156128     UefiShellLevel2CommandsLib:Cp.obj
 0005:00000130       $unwind$NestingEnabled     0000000000156130     Shell:ShellProtocol.obj
 0005:00000130       $unwind$ShellCommandUpdateMapping 0000000000156130     UefiShellCommandLib:UefiShellCommandLib.obj
 0005:00000130       $unwind$FileBufferDoReturn 0000000000156130     UefiShellDebug1CommandsLib:FileBuffer.obj
 0005:00000130       $unwind$MainEditorInit     0000000000156130     UefiShellDebug1CommandsLib:MainTextEditor.obj
 0005:00000130       $unwind$HMainCommandExit   0000000000156130     UefiShellDebug1CommandsLib:MainHexEditor.obj
 0005:00000130       $unwind$HMainEditorInit    0000000000156130     UefiShellDebug1CommandsLib:MainHexEditor.obj
 0005:00000130       $unwind$InitSmbiosTableStatistics 0000000000156130     UefiShellDebug1CommandsLib:SmbiosView.obj
 0005:00000130       $unwind$ProbeForMediaChange 0000000000156130     UefiShellLevel2CommandsLib:Map.obj
 0005:00000130       $unwind$GetTimerPeriod     0000000000156130     UefiShellNetwork1CommandsLib:Ping.obj
 0005:00000138       $unwind$DevPathFromTextAcpiExp 0000000000156138     UefiDevicePathLib:DevicePathFromText.obj
 0005:00000138       $unwind$DevPathFromTextBBS 0000000000156138     UefiDevicePathLib:DevicePathFromText.obj
 0005:00000138       $unwind$DevPathFromTextDns 0000000000156138     UefiDevicePathLib:DevicePathFromText.obj
 0005:00000138       $unwind$DevPathFromTextInfiniband 0000000000156138     UefiDevicePathLib:DevicePathFromText.obj
 0005:00000138       $unwind$DevPathFromTextNVMe 0000000000156138     UefiDevicePathLib:DevicePathFromText.obj
 0005:00000138       $unwind$DevPathFromTextPersistentVirtualCd 0000000000156138     UefiDevicePathLib:DevicePathFromText.obj
 0005:00000138       $unwind$DevPathFromTextPersistentVirtualDisk 0000000000156138     UefiDevicePathLib:DevicePathFromText.obj
 0005:00000138       $unwind$DevPathFromTextUsbWwid 0000000000156138     UefiDevicePathLib:DevicePathFromText.obj
 0005:00000138       $unwind$DevPathFromTextVirtualCd 0000000000156138     UefiDevicePathLib:DevicePathFromText.obj
 0005:00000138       $unwind$DevPathFromTextVirtualDisk 0000000000156138     UefiDevicePathLib:DevicePathFromText.obj
 0005:00000138       $unwind$UefiDevicePathLibConvertTextToDeviceNode 0000000000156138     UefiDevicePathLib:DevicePathFromText.obj
 0005:00000138       $unwind$IsValidSplit       0000000000156138     Shell:Shell.obj
 0005:00000138       $unwind$StripUnreplacedEnvironmentVariables 0000000000156138     Shell:Shell.obj
 0005:00000138       $unwind$IsUnicodeFile      0000000000156138     Shell:ShellParametersProtocol.obj
 0005:00000138       $unwind$EfiShellRemoveDupInFileList 0000000000156138     Shell:ShellProtocol.obj
 0005:00000138       $unwind$GetHandleListByProtocol 0000000000156138     UefiHandleParsingLib:UefiHandleParsingLib.obj
 0005:00000138       $unwind$HBufferImageAddChar 0000000000156138     UefiShellDebug1CommandsLib:BufferImage.obj
 0005:00000138       $unwind$ReturnDriverVersion 0000000000156138     UefiShellDriver1CommandsLib:Drivers.obj
 0005:00000138       $unwind$MoveToTagSpecial   0000000000156138     UefiShellLevel1CommandsLib:If.obj
 0005:00000138       $unwind$TouchFileByHandle  0000000000156138     UefiShellLevel3CommandsLib:Touch.obj
 0005:00000138       $unwind$ShellFindSE2       0000000000156138     UefiShellLib:UefiShellLib.obj
 0005:00000140       $unwind$UefiMain           0000000000156140     Shell:Shell.obj
 0005:00000140       $unwind$EfiShellFindFilesInDir 0000000000156140     Shell:ShellProtocol.obj
 0005:00000140       $unwind$ShellCommandRunDmem 0000000000156140     UefiShellDebug1CommandsLib:Dmem.obj
 0005:00000140       $unwind$FileBufferPrintLine 0000000000156140     UefiShellDebug1CommandsLib:FileBuffer.obj
 0005:00000140       $unwind$PrintInterpretedExtendedCompatibilityDevice3 0000000000156140     UefiShellDebug1CommandsLib:Pci.obj
 0005:00000140       $unwind$PrintInterpretedExtendedCompatibilityVirtualChannel 0000000000156140     UefiShellDebug1CommandsLib:Pci.obj
 0005:00000140       $unwind$ShellCommandRunSetSize 0000000000156140     UefiShellDebug1CommandsLib:SetSize.obj
 0005:00000140       $unwind$DisplaySysEventLogData 0000000000156140     UefiShellDebug1CommandsLib:EventLogInfo.obj
 0005:00000140       $unwind$ShellCommandRunSmbiosView 0000000000156140     UefiShellDebug1CommandsLib:SmbiosView.obj
 0005:00000140       $unwind$ConfigFromFile     0000000000156140     UefiShellDriver1CommandsLib:DrvCfg.obj
 0005:00000140       $unwind$ShellCommandRunOpenInfo 0000000000156140     UefiShellDriver1CommandsLib:OpenInfo.obj
 0005:00000140       $unwind$ShellCommandRunUnload 0000000000156140     UefiShellDriver1CommandsLib:Unload.obj
 0005:00000140       $unwind$ShellCommandRunGoto 0000000000156140     UefiShellLevel1CommandsLib:Goto.obj
 0005:00000140       $unwind$ShellCommandRunLoad 0000000000156140     UefiShellLevel2CommandsLib:Load.obj
 0005:00000140       $unwind$FileTimeToLocalTime 0000000000156140     UefiShellLevel2CommandsLib:Ls.obj
 0005:00000140       $unwind$ShellCommandRunRm  0000000000156140     UefiShellLevel2CommandsLib:Rm.obj
 0005:00000140       $unwind$ShellCommandRunEcho 0000000000156140     UefiShellLevel3CommandsLib:Echo.obj
 0005:00000140       $unwind$ShellCommandRunTouch 0000000000156140     UefiShellLevel3CommandsLib:Touch.obj
 0005:00000140       $unwind$ShellCommandRunType 0000000000156140     UefiShellLevel3CommandsLib:Type.obj
 0005:00000140       $unwind$ShellCommandRunIfconfig 0000000000156140     UefiShellNetwork1CommandsLib:Ifconfig.obj
 0005:00000148       $unwind$NetLibDetectMedia  0000000000156148     DxeNetLib:DxeNetLib.obj
 0005:00000148       $unwind$EfiShellFindFiles  0000000000156148     Shell:ShellProtocol.obj
 0005:00000148       $unwind$ShellCommandConsistMappingGenMappingName 0000000000156148     UefiShellCommandLib:ConsistMapping.obj
 0005:00000148       $unwind$FileBufferReplace  0000000000156148     UefiShellDebug1CommandsLib:FileBuffer.obj
 0005:00000148       $unwind$FileBufferSearch   0000000000156148     UefiShellDebug1CommandsLib:FileBuffer.obj
 0005:00000148       $unwind$HMainEditorHandleMouseInput 0000000000156148     UefiShellDebug1CommandsLib:MainHexEditor.obj
 0005:00000148       $unwind$PrintInterpretedExtendedCompatibilityFlitLogging 0000000000156148     UefiShellDebug1CommandsLib:Pci.obj
 0005:00000148       $unwind$PrintInterpretedExtendedCompatibilityPhysicalLayer16 0000000000156148     UefiShellDebug1CommandsLib:Pci.obj
 0005:00000148       $unwind$ConfigToFile       0000000000156148     UefiShellDriver1CommandsLib:DrvCfg.obj
 0005:00000148       $unwind$ShellCommandRunExit 0000000000156148     UefiShellLevel1CommandsLib:Exit.obj
 0005:00000148       $unwind$ShellCommandRunElse 0000000000156148     UefiShellLevel1CommandsLib:If.obj
 0005:00000148       $unwind$ShellCommandRunStall 0000000000156148     UefiShellLevel1CommandsLib:Stall.obj
 0005:00000148       $unwind$ShellLevel1CommandsLibConstructor 0000000000156148     UefiShellLevel1CommandsLib:UefiShellLevel1CommandsLib.obj
 0005:00000148       $unwind$ShellCommandRunSet 0000000000156148     UefiShellLevel2CommandsLib:Set.obj
 0005:00000148       $unwind$ShellCommandRunGetMtc 0000000000156148     UefiShellLevel3CommandsLib:GetMtc.obj
 0005:00000148       $unwind$ShellCommandRunPause 0000000000156148     UefiShellLevel3CommandsLib:Pause.obj
 0005:00000148       $unwind$ShellCommandRunVer 0000000000156148     UefiShellLevel3CommandsLib:Ver.obj
 0005:00000148       $unwind$IfConfigGetInterfaceInfo 0000000000156148     UefiShellNetwork1CommandsLib:Ifconfig.obj
 0005:00000150       $unwind$InternalEfiShellGetListAlias 0000000000156150     Shell:ShellProtocol.obj
 0005:00000160       $unwind$DebugPrintLevelEnabled 0000000000156160     PeiDxeDebugLibReportStatusCode:DebugLib.obj
 0005:00000160       $unwind$PathRemoveLastItem 0000000000156160     BaseLib:FilePaths.obj
 0005:00000160       $unwind$InternalIsDecimalDigitCharacter 0000000000156160     BaseLib:String.obj
 0005:00000160       $unwind$NodeIsNullOrBlack  0000000000156160     BaseOrderedCollectionRedBlackTreeLib:BaseOrderedCollectionRedBlackTreeLib.obj
 0005:00000160       $unwind$OrderedCollectionIsEmpty 0000000000156160     BaseOrderedCollectionRedBlackTreeLib:BaseOrderedCollectionRedBlackTreeLib.obj
 0005:00000160       $unwind$OrderedCollectionMax 0000000000156160     BaseOrderedCollectionRedBlackTreeLib:BaseOrderedCollectionRedBlackTreeLib.obj
 0005:00000160       $unwind$OrderedCollectionMin 0000000000156160     BaseOrderedCollectionRedBlackTreeLib:BaseOrderedCollectionRedBlackTreeLib.obj
 0005:00000160       $unwind$OrderedCollectionNext 0000000000156160     BaseOrderedCollectionRedBlackTreeLib:BaseOrderedCollectionRedBlackTreeLib.obj
 0005:00000160       $unwind$OrderedCollectionPrev 0000000000156160     BaseOrderedCollectionRedBlackTreeLib:BaseOrderedCollectionRedBlackTreeLib.obj
 0005:00000160       $unwind$IsHexStr           0000000000156160     UefiDevicePathLib:DevicePathFromText.obj
 0005:00000160       $unwind$StripQuotes        0000000000156160     Shell:ShellParametersProtocol.obj
 0005:00000160       $unwind$ToLower            0000000000156160     Shell:ShellProtocol.obj
 0005:00000160       $unwind$ShellIsDecimalDigitCharacter 0000000000156160     UefiShellLib:UefiShellLib.obj
 0005:00000160       $unwind$ShellIsHexaDecimalDigitCharacter 0000000000156160     UefiShellLib:UefiShellLib.obj
 0005:00000160       $unwind$PingNetIp4IsLinkLocalAddr 0000000000156160     UefiShellNetwork1CommandsLib:Ping.obj
 0005:00000168       $unwind$InternalEfiShellStartCtrlSMonitor 0000000000156168     Shell:Shell.obj
 0005:00000168       $unwind$InernalEfiShellStartMonitor 0000000000156168     Shell:ShellProtocol.obj
 0005:00000168       $unwind$MainCommandDisplayHelp 0000000000156168     UefiShellDebug1CommandsLib:MainTextEditor.obj
 0005:00000168       $unwind$HMainCommandDisplayHelp 0000000000156168     UefiShellDebug1CommandsLib:MainHexEditor.obj
 0005:00000178       $unwind$ParseCommandLineToArgs 0000000000156178     Shell:ShellParametersProtocol.obj
 0005:00000178       $unwind$MainTitleBarRefresh 0000000000156178     UefiShellDebug1CommandsLib:EditTitleBar.obj
 0005:00000180       $unwind$UpdateStdInStdOutStdErr 0000000000156180     Shell:ShellParametersProtocol.obj
 0005:00000188       $unwind$SetBuiltInAlias    0000000000156188     Shell:Shell.obj
 0005:00000188       $unwind$CountTFreq         0000000000156188     UefiShellDebug1CommandsLib:Compress.obj
 0005:00000188       $unwind$DeleteNode         0000000000156188     UefiShellDebug1CommandsLib:Compress.obj
 0005:00000188       $unwind$SendBlock          0000000000156188     UefiShellDebug1CommandsLib:Compress.obj
 0005:00000188       $unwind$FileBufferCreateLine 0000000000156188     UefiShellDebug1CommandsLib:FileBuffer.obj
 0005:00000188       $unwind$FileBufferEnd      0000000000156188     UefiShellDebug1CommandsLib:FileBuffer.obj
 0005:00000188       $unwind$FileBufferFreeLines 0000000000156188     UefiShellDebug1CommandsLib:FileBuffer.obj
 0005:00000188       $unwind$FileBufferPageDown 0000000000156188     UefiShellDebug1CommandsLib:FileBuffer.obj
 0005:00000188       $unwind$FileBufferScrollRight 0000000000156188     UefiShellDebug1CommandsLib:FileBuffer.obj
 0005:00000188       $unwind$MainCommandSearch  0000000000156188     UefiShellDebug1CommandsLib:MainTextEditor.obj
 0005:00000188       $unwind$MainEditorCleanup  0000000000156188     UefiShellDebug1CommandsLib:MainTextEditor.obj
 0005:00000188       $unwind$MainEditorRefresh  0000000000156188     UefiShellDebug1CommandsLib:MainTextEditor.obj
 0005:00000188       $unwind$HBufferImageCreateLine 0000000000156188     UefiShellDebug1CommandsLib:BufferImage.obj
 0005:00000188       $unwind$HBufferImageDoBackspace 0000000000156188     UefiShellDebug1CommandsLib:BufferImage.obj
 0005:00000188       $unwind$HBufferImageDoDelete 0000000000156188     UefiShellDebug1CommandsLib:BufferImage.obj
 0005:00000188       $unwind$HBufferImageEnd    0000000000156188     UefiShellDebug1CommandsLib:BufferImage.obj
 0005:00000188       $unwind$HBufferImageGetTotalSize 0000000000156188     UefiShellDebug1CommandsLib:BufferImage.obj
 0005:00000188       $unwind$HBufferImageHome   0000000000156188     UefiShellDebug1CommandsLib:BufferImage.obj
 0005:00000188       $unwind$HBufferImagePageUp 0000000000156188     UefiShellDebug1CommandsLib:BufferImage.obj
 0005:00000188       $unwind$HBufferImageScrollRight 0000000000156188     UefiShellDebug1CommandsLib:BufferImage.obj
 0005:00000188       $unwind$HBufferImageScrollUp 0000000000156188     UefiShellDebug1CommandsLib:BufferImage.obj
 0005:00000188       $unwind$HMainCommandCut    0000000000156188     UefiShellDebug1CommandsLib:MainHexEditor.obj
 0005:00000188       $unwind$HMainEditorCleanup 0000000000156188     UefiShellDebug1CommandsLib:MainHexEditor.obj
 0005:00000188       $unwind$LibSmbios64BitInit 0000000000156188     UefiShellDebug1CommandsLib:LibSmbiosView.obj
 0005:00000188       $unwind$LibSmbiosInit      0000000000156188     UefiShellDebug1CommandsLib:LibSmbiosView.obj
 0005:00000188       $unwind$ConnectFromEfiVariable 0000000000156188     UefiShellDriver1CommandsLib:Connect.obj
 0005:00000188       $unwind$PrintAllShellAlias 0000000000156188     UefiShellLevel3CommandsLib:Alias.obj
 0005:00000190       $unwind$ProcessCommandLine 0000000000156190     Shell:Shell.obj
 0005:00000190       $unwind$CommandInit        0000000000156190     UefiShellCommandLib:UefiShellCommandLib.obj
 0005:00000190       $unwind$FileBufferRestoreMousePosition 0000000000156190     UefiShellDebug1CommandsLib:FileBuffer.obj
 0005:00000190       $unwind$MainCommandSearchReplace 0000000000156190     UefiShellDebug1CommandsLib:MainTextEditor.obj
 0005:00000190       $unwind$HBufferImageRestoreMousePosition 0000000000156190     UefiShellDebug1CommandsLib:BufferImage.obj
 0005:00000190       $unwind$InitSmbios64BitTableStatistics 0000000000156190     UefiShellDebug1CommandsLib:SmbiosView.obj
 0005:00000198       $unwind$DoStartupScript    0000000000156198     Shell:Shell.obj
 0005:00000198       $unwind$ShellCommandRunDblk 0000000000156198     UefiShellDebug1CommandsLib:Dblk.obj
 0005:00000198       $unwind$ShellCommandRunEdit 0000000000156198     UefiShellDebug1CommandsLib:Edit.obj
 0005:00000198       $unwind$ShellCommandRunLoadPciRom 0000000000156198     UefiShellDebug1CommandsLib:LoadPciRom.obj
 0005:00000198       $unwind$ShellCommandRunMemMap 0000000000156198     UefiShellDebug1CommandsLib:MemMap.obj
 0005:00000198       $unwind$PrintInterpretedExtendedCompatibilityVfResizableBar 0000000000156198     UefiShellDebug1CommandsLib:Pci.obj
 0005:00000198       $unwind$ShellCommandRunDh  0000000000156198     UefiShellDriver1CommandsLib:Dh.obj
 0005:00000198       $unwind$ShellCommandRunIf  0000000000156198     UefiShellLevel1CommandsLib:If.obj
 0005:00000198       $unwind$ShellCommandRunMkDir 0000000000156198     UefiShellLevel2CommandsLib:MkDir.obj
 0005:00000198       $unwind$ShellCommandRunParse 0000000000156198     UefiShellLevel2CommandsLib:Parse.obj
 0005:00000198       $unwind$ShellCommandRunReset 0000000000156198     UefiShellLevel2CommandsLib:Reset.obj
 0005:00000198       $unwind$ShellCommandRunVol 0000000000156198     UefiShellLevel2CommandsLib:Vol.obj
 0005:00000198       $unwind$ShellCommandRunAlias 0000000000156198     UefiShellLevel3CommandsLib:Alias.obj
 0005:00000198       $unwind$ShellCommandRunHelp 0000000000156198     UefiShellLevel3CommandsLib:Help.obj
 0005:000001a0       $unwind$DoShellPrompt      00000000001561a0     Shell:Shell.obj
 0005:000001a0       $unwind$ShellCommandCreateInitialMappingsAndPaths 00000000001561a0     UefiShellCommandLib:UefiShellCommandLib.obj
 0005:000001a0       $unwind$HMainEditorRefresh 00000000001561a0     UefiShellDebug1CommandsLib:MainHexEditor.obj
 0005:000001a8       $unwind$StrCatS            00000000001561a8     BaseLib:SafeString.obj
 0005:000001a8       $unwind$OrderedCollectionInsert 00000000001561a8     BaseOrderedCollectionRedBlackTreeLib:BaseOrderedCollectionRedBlackTreeLib.obj
 0005:000001a8       $unwind$RunSplitCommand    00000000001561a8     Shell:Shell.obj
 0005:000001a8       $unwind$GetBestLanguageForDriver 00000000001561a8     UefiHandleParsingLib:UefiHandleParsingLib.obj
 0005:000001a8       $unwind$DevPathSerialVendor 00000000001561a8     UefiShellCommandLib:ConsistMapping.obj
 0005:000001a8       $unwind$HMemImageRead      00000000001561a8     UefiShellDebug1CommandsLib:MemImage.obj
 0005:000001a8       $unwind$PciExplainPci      00000000001561a8     UefiShellDebug1CommandsLib:Pci.obj
 0005:000001a8       $unwind$MoveWithinFileSystems 00000000001561a8     UefiShellLevel2CommandsLib:Mv.obj
 0005:000001a8       $unwind$StrniCmp           00000000001561a8     UefiShellLevel2CommandsLib:UefiShellLevel2CommandsLib.obj
 0005:000001a8       $unwind$PrintDynamicCommandHelp 00000000001561a8     UefiShellLevel3CommandsLib:Help.obj
 0005:000001b0       $unwind$SetLastError       00000000001561b0     Shell:Shell.obj
 0005:000001c0       $unwind$RunCommandOrFile   00000000001561c0     Shell:Shell.obj
 0005:000001c0       $unwind$SMBios64View       00000000001561c0     UefiShellDebug1CommandsLib:SmbiosView.obj
 0005:000001c0       $unwind$SMBiosView         00000000001561c0     UefiShellDebug1CommandsLib:SmbiosView.obj
 0005:000001c8       $unwind$SetupAndRunCommandOrFile 00000000001561c8     Shell:Shell.obj
 0005:000001c8       $unwind$DoDhByHandle       00000000001561c8     UefiShellDriver1CommandsLib:Dh.obj
 0005:000001d0       $unwind$RunScriptFileHandle 00000000001561d0     Shell:Shell.obj
 0005:000001e0       $unwind$FindFirstCharacter 00000000001561e0     Shell:Shell.obj
 0005:000001e8       $unwind$InternalReportStatusCode 00000000001561e8     DxeReportStatusCodeLib:ReportStatusCodeLib.obj
 0005:000001e8       $unwind$ShellPrintEx       00000000001561e8     UefiShellLib:UefiShellLib.obj
 0005:000001f0       $unwind$ReportStatusCodeEx 00000000001561f0     DxeReportStatusCodeLib:ReportStatusCodeLib.obj
 0005:00000200       $unwind$ReportDebugCodeEnabled 0000000000156200     DxeReportStatusCodeLib:ReportStatusCodeLib.obj
 0005:00000200       $unwind$ReportErrorCodeEnabled 0000000000156200     DxeReportStatusCodeLib:ReportStatusCodeLib.obj
 0005:00000200       $unwind$ReportProgressCodeEnabled 0000000000156200     DxeReportStatusCodeLib:ReportStatusCodeLib.obj
 0005:00000200       $unwind$DebugAssertEnabled 0000000000156200     PeiDxeDebugLibReportStatusCode:DebugLib.obj
 0005:00000200       $unwind$DebugCodeEnabled   0000000000156200     PeiDxeDebugLibReportStatusCode:DebugLib.obj
 0005:00000200       $unwind$DebugPrintEnabled  0000000000156200     PeiDxeDebugLibReportStatusCode:DebugLib.obj
 0005:00000200       $unwind$MakeCrcTable       0000000000156200     UefiShellDebug1CommandsLib:Compress.obj
 0005:00000208       $unwind$BasePrintLibFillBuffer 0000000000156208     BasePrintLib:PrintLibInternal.obj
 0005:00000210       $unwind$BasePrintLibConvertValueToStringS 0000000000156210     BasePrintLib:PrintLibInternal.obj
 0005:00000210       $unwind$ProcessStatement   0000000000156210     UefiShellLevel1CommandsLib:If.obj
 0005:00000220       $unwind$BasePrintLibSPrintMarker 0000000000156220     BasePrintLib:PrintLibInternal.obj
 0005:00000238       $unwind$InternalMemCopyMem 0000000000156238     BaseMemoryLib:CopyMem.obj
 0005:00000238       $unwind$ParseHandleDatabaseForChildDevices 0000000000156238     UefiHandleParsingLib:UefiHandleParsingLib.obj
 0005:00000238       $unwind$HDiskImageSave     0000000000156238     UefiShellDebug1CommandsLib:DiskImage.obj
 0005:00000238       $unwind$PrintInterpretedExtendedCompatibilityMulticast 0000000000156238     UefiShellDebug1CommandsLib:Pci.obj
 0005:00000238       $unwind$GetVariableDataFromParameter 0000000000156238     UefiShellDebug1CommandsLib:SetVar.obj
 0005:00000238       $unwind$ParseParameterData 0000000000156238     UefiShellDebug1CommandsLib:SetVar.obj
 0005:00000238       $unwind$PingGenerateToken  0000000000156238     UefiShellNetwork1CommandsLib:Ping.obj
 0005:00000240       $unwind$SetMem16           0000000000156240     BaseMemoryLib:SetMem16Wrapper.obj
 0005:00000248       $unwind$DivU64x32Remainder 0000000000156248     BaseLib:DivU64x32Remainder.obj
 0005:00000248       $unwind$ConvertDevicePathToText 0000000000156248     UefiDevicePathLib:UefiDevicePathLib.obj
 0005:00000248       $unwind$CreateDeviceNode   0000000000156248     UefiDevicePathLib:UefiDevicePathLib.obj
 0005:00000248       $unwind$InternalIsFlag     0000000000156248     UefiShellLib:UefiShellLib.obj
 0005:00000248       $unwind$ShellIsHexOrDecimalNumber 0000000000156248     UefiShellLib:UefiShellLib.obj
 0005:00000250       $unwind$AsciiStrnLenS      0000000000156250     BaseLib:SafeString.obj
 0005:00000250       $unwind$SafeUint64ToUint32 0000000000156250     BaseSafeIntLib:SafeIntLib.obj
 0005:00000250       $unwind$SplitStr           0000000000156250     UefiDevicePathLib:DevicePathFromText.obj
 0005:00000250       $unwind$StrToAscii         0000000000156250     UefiDevicePathLib:DevicePathFromText.obj
 0005:00000250       $unwind$NetAddChecksum     0000000000156250     DxeNetLib:NetBuffer.obj
 0005:00000250       $unwind$DevPathCompareAcpi 0000000000156250     UefiShellCommandLib:ConsistMapping.obj
 0005:00000250       $unwind$LineDeleteAt       0000000000156250     UefiShellDebug1CommandsLib:FileBuffer.obj
 0005:00000250       $unwind$IsNumberLetterOnly 0000000000156250     UefiShellLevel2CommandsLib:Map.obj
 0005:00000250       $unwind$RttTimerTickRoutine 0000000000156250     UefiShellNetwork1CommandsLib:Ping.obj
 0005:00000258       $unwind$DevPathFromTextGenericPath 0000000000156258     UefiDevicePathLib:DevicePathFromText.obj
 0005:00000258       $unwind$HFileImageRead     0000000000156258     UefiShellDebug1CommandsLib:FileImage.obj
 0005:00000258       $unwind$PciPrintClassCode  0000000000156258     UefiShellDebug1CommandsLib:Pci.obj
 0005:00000258       $unwind$DisplayElVdfInfo   0000000000156258     UefiShellDebug1CommandsLib:EventLogInfo.obj
 0005:00000258       $unwind$DisplaySPSCharacteristics 0000000000156258     UefiShellDebug1CommandsLib:PrintInfo.obj
 0005:00000260       $unwind$ConvertFromTextVendor 0000000000156260     UefiDevicePathLib:DevicePathFromText.obj
 0005:00000260       $unwind$ConvertDevicePathToShortText 0000000000156260     UefiHandleParsingLib:UefiHandleParsingLib.obj
 0005:00000260       $unwind$AddMemoryLength    0000000000156260     UefiShellDebug1CommandsLib:MemMap.obj
 0005:00000260       $unwind$DisplaySystemSlotId 0000000000156260     UefiShellDebug1CommandsLib:PrintInfo.obj
 0005:00000268       $unwind$DevPathFromTextWiFi 0000000000156268     UefiDevicePathLib:DevicePathFromText.obj
 0005:00000278       $unwind$HiiGetStringEx     0000000000156278     UefiHiiLib:HiiString.obj
 0005:00000278       $unwind$DevPathToTextVendor 0000000000156278     UefiDevicePathLib:DevicePathToText.obj
 0005:00000278       $unwind$EfiOpenFileByDevicePath 0000000000156278     UefiLib:UefiLib.obj
 0005:00000278       $unwind$ParseHandleDatabaseByRelationshipWithType 0000000000156278     UefiHandleParsingLib:UefiHandleParsingLib.obj
 0005:00000278       $unwind$BcfgMove           0000000000156278     UefiShellBcfgCommandLib:UefiShellBcfgCommandLib.obj
 0005:00000278       $unwind$DoDevTreeForHandle 0000000000156278     UefiShellDriver1CommandsLib:DevTree.obj
 0005:00000278       $unwind$ParseBufferConfig  0000000000156278     UefiShellDriver1CommandsLib:DrvCfg.obj
 0005:00000278       $unwind$InternalCommandLineParse 0000000000156278     UefiShellLib:UefiShellLib.obj
 0005:00000280       $unwind$DevPathToTextAcpiEx 0000000000156280     UefiDevicePathLib:DevicePathToText.obj
 0005:00000280       $unwind$BcfgDisplayDump    0000000000156280     UefiShellBcfgCommandLib:UefiShellBcfgCommandLib.obj
 0005:00000280       $unwind$DumpHex            0000000000156280     UefiShellCommandLib:UefiShellCommandLib.obj
 0005:00000290       $unwind$DevPathToTextNVMe  0000000000156290     UefiDevicePathLib:DevicePathToText.obj
 0005:0000029c       $unwind$CatIPv6Address     000000000015629c     UefiDevicePathLib:DevicePathToText.obj
 0005:000002b4       $unwind$DevPathToTextWiFi  00000000001562b4     UefiDevicePathLib:DevicePathToText.obj
 0005:000002c4       $unwind$DevPathToTextBluetoothLE 00000000001562c4     UefiDevicePathLib:DevicePathToText.obj
 0005:000002cc       $unwind$UefiDevicePathLibConvertDevicePathToText 00000000001562cc     UefiDevicePathLib:DevicePathToText.obj
 0005:000002cc       $unwind$DevicePathProtocolDumpInformationEx 00000000001562cc     UefiHandleParsingLib:UefiHandleParsingLib.obj
 0005:000002cc       $unwind$TypeFileByHandle   00000000001562cc     UefiShellLevel3CommandsLib:Type.obj
 0005:000002cc       $unwind$ShellPromptForResponse 00000000001562cc     UefiShellLib:UefiShellLib.obj
 0005:000002d4       $unwind$InternalReallocatePool 00000000001562d4     UefiMemoryAllocationLib:MemoryAllocationLib.obj
 0005:000002d4       $unwind$InternalShellIsHexOrDecimalNumber 00000000001562d4     UefiShellLib:UefiShellLib.obj
 0005:000002d4       $unwind$ShellPromptForResponseHii 00000000001562d4     UefiShellLib:UefiShellLib.obj
 0005:000002dc       $unwind$DebugPrintMarker   00000000001562dc     PeiDxeDebugLibReportStatusCode:DebugLib.obj
 0005:000002ec       $unwind$DebugAssert        00000000001562ec     PeiDxeDebugLibReportStatusCode:DebugLib.obj
 0005:000002fc       $unwind$TdIoWrite32        00000000001562fc     BaseIoLibIntrinsic:IoLibInternalTdxNull.obj
 0005:000002fc       $unwind$TdIoWrite8         00000000001562fc     BaseIoLibIntrinsic:IoLibInternalTdxNull.obj
 0005:000002fc       $unwind$TdMmioWrite32      00000000001562fc     BaseIoLibIntrinsic:IoLibInternalTdxNull.obj
 0005:000002fc       $unwind$TdMmioWrite8       00000000001562fc     BaseIoLibIntrinsic:IoLibInternalTdxNull.obj
 0005:000002fc       $unwind$DivU64x32          00000000001562fc     BaseLib:DivU64x32.obj
 0005:000002fc       $unwind$ModU64x32          00000000001562fc     BaseLib:ModU64x32.obj
 0005:000002fc       $unwind$WriteUnaligned32   00000000001562fc     BaseLib:Unaligned.obj
 0005:000002fc       $unwind$DevicePathProtocolDumpInformation 00000000001562fc     UefiHandleParsingLib:UefiHandleParsingLib.obj
 0005:000002fc       $unwind$LoadedImageDevicePathProtocolDumpInformation 00000000001562fc     UefiHandleParsingLib:UefiHandleParsingLib.obj
 0005:000002fc       $unwind$PciGetClassStrings 00000000001562fc     UefiShellDebug1CommandsLib:Pci.obj
 0005:000002fc       $unwind$NetChecksum        00000000001562fc     UefiShellNetwork1CommandsLib:Ping.obj
 0005:00000304       $unwind$InternalMathDivU64x32 0000000000156304     BaseLib:Math64.obj
 0005:00000304       $unwind$InternalMathModU64x32 0000000000156304     BaseLib:Math64.obj
 0005:00000304       $unwind$ShellCommandRegisterExit 0000000000156304     UefiShellCommandLib:UefiShellCommandLib.obj
 0005:00000304       $unwind$Child              0000000000156304     UefiShellDebug1CommandsLib:Compress.obj
 0005:00000304       $unwind$FreadCrc           0000000000156304     UefiShellDebug1CommandsLib:Compress.obj
 0005:00000304       $unwind$LocatePciCapability 0000000000156304     UefiShellDebug1CommandsLib:Pci.obj
 0005:0000030c       $unwind$InternalMathDivRemU64x32 000000000015630c     BaseLib:Math64.obj
 0005:0000030c       $unwind$GetNewLine         000000000015630c     UefiShellDebug1CommandsLib:FileBuffer.obj
 0005:00000314       $unwind$StrToIpv6Address   0000000000156314     BaseLib:SafeString.obj
 0005:00000314       $unwind$BcfgRemove         0000000000156314     UefiShellBcfgCommandLib:UefiShellBcfgCommandLib.obj
 0005:00000324       $unwind$StrToGuid          0000000000156324     BaseLib:SafeString.obj
 0005:00000334       $unwind$OrderedCollectionDelete 0000000000156334     BaseOrderedCollectionRedBlackTreeLib:BaseOrderedCollectionRedBlackTreeLib.obj
 0005:00000334       $unwind$NetLibDetectMediaWaitTimeout 0000000000156334     DxeNetLib:DxeNetLib.obj
 0005:00000334       $unwind$ParseHandleDatabaseForChildControllers 0000000000156334     UefiHandleParsingLib:UefiHandleParsingLib.obj
 0005:00000334       $unwind$DisplayTheBlocks   0000000000156334     UefiShellDebug1CommandsLib:Dblk.obj
 0005:00000334       $unwind$FindHiiHandleViaDevPath 0000000000156334     UefiShellDriver1CommandsLib:DrvCfg.obj
 0005:0000033c       $unwind$EncodeC            000000000015633c     UefiShellDebug1CommandsLib:Compress.obj
 0005:0000033c       $unwind$PerformResultOperation 000000000015633c     UefiShellLevel1CommandsLib:If.obj
 0005:0000033c       $unwind$ShellSetPageBreakMode 000000000015633c     UefiShellLib:UefiShellLib.obj
 0005:00000344       $unwind$InternalShellPrintWorker 0000000000156344     UefiShellLib:UefiShellLib.obj
 0005:0000034c       $unwind$MakeTree           000000000015634c     UefiShellDebug1CommandsLib:Compress.obj
 0005:0000034c       $unwind$DoDhForHandleList  000000000015634c     UefiShellDriver1CommandsLib:Dh.obj
 0005:0000034c       $unwind$ShellPrintHiiEx    000000000015634c     UefiShellLib:UefiShellLib.obj
 0005:00000354       $unwind$LoadedImageProtocolDumpInformation 0000000000156354     UefiHandleParsingLib:UefiHandleParsingLib.obj
 0005:0000035c       $unwind$GraphicsOutputProtocolDumpInformation 000000000015635c     UefiHandleParsingLib:UefiHandleParsingLib.obj
 0005:0000036c       $unwind$DebugSupportProtocolDumpInformation 000000000015636c     UefiHandleParsingLib:UefiHandleParsingLib.obj
 0005:0000036c       $unwind$EdidActiveProtocolDumpInformation 000000000015636c     UefiHandleParsingLib:UefiHandleParsingLib.obj
 0005:0000036c       $unwind$EdidDiscoveredProtocolDumpInformation 000000000015636c     UefiHandleParsingLib:UefiHandleParsingLib.obj
 0005:0000036c       $unwind$PartitionInfoProtocolDumpInformation 000000000015636c     UefiHandleParsingLib:UefiHandleParsingLib.obj
 0005:0000036c       $unwind$DisplaySBDSManufactureDate 000000000015636c     UefiShellDebug1CommandsLib:PrintInfo.obj
 0005:0000036c       $unwind$LoadDriver         000000000015636c     UefiShellLevel2CommandsLib:Load.obj
 0005:00000374       $unwind$BusSpecificDriverOverrideProtocolDumpInformation 0000000000156374     UefiHandleParsingLib:UefiHandleParsingLib.obj
 0005:00000374       $unwind$PciRootBridgeIoDumpInformation 0000000000156374     UefiHandleParsingLib:UefiHandleParsingLib.obj
 0005:00000374       $unwind$CascadeDelete      0000000000156374     UefiShellLevel2CommandsLib:Rm.obj
 0005:0000037c       $unwind$BlockIoProtocolDumpInformation 000000000015637c     UefiHandleParsingLib:UefiHandleParsingLib.obj
 0005:0000037c       $unwind$TxtOutProtocolDumpInformation 000000000015637c     UefiHandleParsingLib:UefiHandleParsingLib.obj
 0005:00000384       $unwind$PciIoProtocolDumpInformation 0000000000156384     UefiHandleParsingLib:UefiHandleParsingLib.obj
 0005:00000394       $unwind$UsbIoProtocolDumpInformation 0000000000156394     UefiHandleParsingLib:UefiHandleParsingLib.obj
 0005:000003a4       $unwind$AdapterInformationDumpInformation 00000000001563a4     UefiHandleParsingLib:UefiHandleParsingLib.obj
 0005:000003b0       $unwind$FirmwareManagementDumpInformation 00000000001563b0     UefiHandleParsingLib:UefiHandleParsingLib.obj
 0005:000003c8       $unwind$InternalShellInitHandleList 00000000001563c8     UefiHandleParsingLib:UefiHandleParsingLib.obj
 0005:000003c8       $unwind$InsertNode         00000000001563c8     UefiShellDebug1CommandsLib:Compress.obj
 0005:000003c8       $unwind$FileBufferDoBackspace 00000000001563c8     UefiShellDebug1CommandsLib:FileBuffer.obj
 0005:000003c8       $unwind$FileBufferDoDelete 00000000001563c8     UefiShellDebug1CommandsLib:FileBuffer.obj
 0005:000003c8       $unwind$FileBufferPageUp   00000000001563c8     UefiShellDebug1CommandsLib:FileBuffer.obj
 0005:000003c8       $unwind$FileBufferPasteLine 00000000001563c8     UefiShellDebug1CommandsLib:FileBuffer.obj
 0005:000003c8       $unwind$FileBufferRefresh  00000000001563c8     UefiShellDebug1CommandsLib:FileBuffer.obj
 0005:000003c8       $unwind$FileBufferScrollDown 00000000001563c8     UefiShellDebug1CommandsLib:FileBuffer.obj
 0005:000003c8       $unwind$FileBufferScrollLeft 00000000001563c8     UefiShellDebug1CommandsLib:FileBuffer.obj
 0005:000003c8       $unwind$FileBufferScrollUp 00000000001563c8     UefiShellDebug1CommandsLib:FileBuffer.obj
 0005:000003c8       $unwind$MainCommandOpenFile 00000000001563c8     UefiShellDebug1CommandsLib:MainTextEditor.obj
 0005:000003c8       $unwind$MainCommandSaveFile 00000000001563c8     UefiShellDebug1CommandsLib:MainTextEditor.obj
 0005:000003c8       $unwind$HBufferImagePageDown 00000000001563c8     UefiShellDebug1CommandsLib:BufferImage.obj
 0005:000003c8       $unwind$HBufferImageScrollDown 00000000001563c8     UefiShellDebug1CommandsLib:BufferImage.obj
 0005:000003c8       $unwind$HBufferImageScrollLeft 00000000001563c8     UefiShellDebug1CommandsLib:BufferImage.obj
 0005:000003c8       $unwind$HMainCommandGoToOffset 00000000001563c8     UefiShellDebug1CommandsLib:MainHexEditor.obj
 0005:000003c8       $unwind$HMainCommandPaste  00000000001563c8     UefiShellDebug1CommandsLib:MainHexEditor.obj
 0005:000003c8       $unwind$LoadPciRomConnectAllDriversToAllControllers 00000000001563c8     UefiShellDebug1CommandsLib:LoadPciRom.obj
 0005:000003c8       $unwind$ShellConnectPciRootBridge 00000000001563c8     UefiShellDriver1CommandsLib:Connect.obj
 0005:000003c8       $unwind$DisconnectAll      00000000001563c8     UefiShellDriver1CommandsLib:Disconnect.obj
 0005:000003c8       $unwind$ConnectAllEfi      00000000001563c8     UefiShellLevel2CommandsLib:Load.obj
 0005:000003c8       $unwind$IsStdInDataAvailable 00000000001563c8     UefiShellLevel2CommandsLib:Parse.obj
 0005:000003c8       $unwind$PrintAllShellEnvVars 00000000001563c8     UefiShellLevel2CommandsLib:Set.obj
 0005:000003d0       $unwind$EfiBootManagerLoadOptionToVariable 00000000001563d0     UefiBootManagerLib:BmLoadOption.obj
 0005:000003e0       $unwind$EfiBootManagerVariableToLoadOptionEx 00000000001563e0     UefiBootManagerLib:BmLoadOption.obj
 0005:000003e0       $unwind$FileBufferReplaceAll 00000000001563e0     UefiShellDebug1CommandsLib:FileBuffer.obj
 0005:000003e8       $unwind$AppendCSDGuid      00000000001563e8     UefiShellCommandLib:ConsistMapping.obj
 0005:000003e8       $unwind$ShellCommandRunPing 00000000001563e8     UefiShellNetwork1CommandsLib:Ping.obj
 0005:000003f8       $unwind$DevPathSerialIPv4  00000000001563f8     UefiShellCommandLib:ConsistMapping.obj
 0005:000003f8       $unwind$DevPathSerialUsb   00000000001563f8     UefiShellCommandLib:ConsistMapping.obj
 0005:00000408       $unwind$DevPathSerialIPv6  0000000000156408     UefiShellCommandLib:ConsistMapping.obj
 0005:00000408       $unwind$DevPathSerialInfiniBand 0000000000156408     UefiShellCommandLib:ConsistMapping.obj
 0005:00000408       $unwind$DevPathSerialMacAddr 0000000000156408     UefiShellCommandLib:ConsistMapping.obj
 0005:00000418       $unwind$DevPathSerial1394  0000000000156418     UefiShellCommandLib:ConsistMapping.obj
 0005:00000428       $unwind$GetHIDevicePath    0000000000156428     UefiShellCommandLib:ConsistMapping.obj
 0005:00000428       $unwind$CheckAndSetDate    0000000000156428     UefiShellLevel2CommandsLib:TimeDate.obj
 0005:00000428       $unwind$CheckAndSetTimeZone 0000000000156428     UefiShellLevel2CommandsLib:TimeDate.obj
 0005:00000438       $unwind$ShellCommandCreateNewMappingName 0000000000156438     UefiShellCommandLib:UefiShellCommandLib.obj
 0005:00000438       $unwind$MakeLen            0000000000156438     UefiShellDebug1CommandsLib:Compress.obj
 0005:00000440       $unwind$CatSDumpHex        0000000000156440     UefiShellCommandLib:UefiShellCommandLib.obj
 0005:00000450       $unwind$ShellSortFileList  0000000000156450     UefiShellCommandLib:UefiShellCommandLib.obj
 0005:00000450       $unwind$HBufferImageAddCharacterToBuffer 0000000000156450     UefiShellDebug1CommandsLib:BufferImage.obj
 0005:00000450       $unwind$HBufferImageDeleteCharacterFromBuffer 0000000000156450     UefiShellDebug1CommandsLib:BufferImage.obj
 0005:00000458       $unwind$UpdateOptionalData 0000000000156458     UefiShellBcfgCommandLib:UefiShellBcfgCommandLib.obj
 0005:00000468       $unwind$GetDevicePathByHandle 0000000000156468     UefiShellBcfgCommandLib:UefiShellBcfgCommandLib.obj
 0005:00000468       $unwind$PciExplainStatus   0000000000156468     UefiShellDebug1CommandsLib:Pci.obj
 0005:00000470       $unwind$BcfgMod            0000000000156470     UefiShellBcfgCommandLib:UefiShellBcfgCommandLib.obj
 0005:00000480       $unwind$BcfgAdd            0000000000156480     UefiShellBcfgCommandLib:UefiShellBcfgCommandLib.obj
 0005:00000490       $unwind$BcfgAddOpt         0000000000156490     UefiShellBcfgCommandLib:UefiShellBcfgCommandLib.obj
 0005:000004a0       $unwind$ShellCommandRunBcfg 00000000001564a0     UefiShellBcfgCommandLib:UefiShellBcfgCommandLib.obj
 0005:000004a8       $unwind$NetGetMaskLength   00000000001564a8     DxeNetLib:DxeNetLib.obj
 0005:000004a8       $unwind$DownHeap           00000000001564a8     UefiShellDebug1CommandsLib:Compress.obj
 0005:000004a8       $unwind$GetTextX           00000000001564a8     UefiShellDebug1CommandsLib:MainTextEditor.obj
 0005:000004a8       $unwind$GetTextY           00000000001564a8     UefiShellDebug1CommandsLib:MainTextEditor.obj
 0005:000004a8       $unwind$HGetTextX          00000000001564a8     UefiShellDebug1CommandsLib:Misc.obj
 0005:000004a8       $unwind$HGetTextY          00000000001564a8     UefiShellDebug1CommandsLib:Misc.obj
 0005:000004a8       $unwind$GetShowTypeString  00000000001564a8     UefiShellDebug1CommandsLib:SmbiosView.obj
 0005:000004b0       $unwind$NetIp4IsUnicast    00000000001564b0     DxeNetLib:DxeNetLib.obj
 0005:000004b0       $unwind$FileBufferAdjustMousePosition 00000000001564b0     UefiShellDebug1CommandsLib:FileBuffer.obj
 0005:000004b0       $unwind$DisplaySELLogHeaderLen 00000000001564b0     UefiShellDebug1CommandsLib:EventLogInfo.obj
 0005:000004b0       $unwind$DisplaySELLogStatus 00000000001564b0     UefiShellDebug1CommandsLib:EventLogInfo.obj
 0005:000004b0       $unwind$DisplaySysEventLogHeaderFormat 00000000001564b0     UefiShellDebug1CommandsLib:EventLogInfo.obj
 0005:000004b0       $unwind$DisplayBiosCharacteristicsExt1 00000000001564b0     UefiShellDebug1CommandsLib:PrintInfo.obj
 0005:000004b0       $unwind$DisplayBiosCharacteristicsExt2 00000000001564b0     UefiShellDebug1CommandsLib:PrintInfo.obj
 0005:000004b0       $unwind$DisplayOBRAConnections 00000000001564b0     UefiShellDebug1CommandsLib:PrintInfo.obj
 0005:000004b0       $unwind$DisplayProcessorVoltage 00000000001564b0     UefiShellDebug1CommandsLib:PrintInfo.obj
 0005:000004b0       $unwind$DisplaySystemBootStatus 00000000001564b0     UefiShellDebug1CommandsLib:PrintInfo.obj
 0005:000004b8       $unwind$HandleVol          00000000001564b8     UefiShellLevel2CommandsLib:Vol.obj
 0005:000004c0       $unwind$ShellCommandRunSerMode 00000000001564c0     UefiShellDebug1CommandsLib:SerMode.obj
 0005:000004c0       $unwind$ShellCommandRunAttrib 00000000001564c0     UefiShellLevel2CommandsLib:Attrib.obj
 0005:000004c8       $unwind$ValidateAndMoveFiles 00000000001564c8     UefiShellLevel2CommandsLib:Mv.obj
 0005:000004d0       $unwind$ShellCommandRunMode 00000000001564d0     UefiShellDebug1CommandsLib:Mode.obj
 0005:000004d0       $unwind$ShellCommandRunDevTree 00000000001564d0     UefiShellDriver1CommandsLib:DevTree.obj
 0005:000004d0       $unwind$ShellCommandRunDrvDiag 00000000001564d0     UefiShellDriver1CommandsLib:DrvDiag.obj
 0005:000004d0       $unwind$ShellCommandRunMv  00000000001564d0     UefiShellLevel2CommandsLib:Mv.obj
 0005:000004d8       $unwind$CascadeProcessVariables 00000000001564d8     UefiShellDebug1CommandsLib:DmpStore.obj
 0005:000004d8       $unwind$CopySingleFile     00000000001564d8     UefiShellLevel2CommandsLib:Cp.obj
 0005:000004e0       $unwind$ShellCommandRunHexEdit 00000000001564e0     UefiShellDebug1CommandsLib:HexEdit.obj
 0005:000004e0       $unwind$ShellCommandRunConnect 00000000001564e0     UefiShellDriver1CommandsLib:Connect.obj
 0005:000004e0       $unwind$ShellCommandRunCp  00000000001564e0     UefiShellLevel2CommandsLib:Cp.obj
 0005:000004e0       $unwind$ShellCommandRunMap 00000000001564e0     UefiShellLevel2CommandsLib:Map.obj
 0005:000004e0       $unwind$ShellCommandRunCls 00000000001564e0     UefiShellLevel3CommandsLib:Cls.obj
 0005:000004e0       $unwind$Ping6OnEchoReplyReceived 00000000001564e0     UefiShellNetwork1CommandsLib:Ping.obj
 0005:000004e8       $unwind$ShellCommandRunEfiCompress 00000000001564e8     UefiShellDebug1CommandsLib:EfiCompress.obj
 0005:000004e8       $unwind$ShellCommandRunMm  00000000001564e8     UefiShellDebug1CommandsLib:Mm.obj
 0005:000004e8       $unwind$ShellCommandRunDisconnect 00000000001564e8     UefiShellDriver1CommandsLib:Disconnect.obj
 0005:000004e8       $unwind$ShellCommandRunCd  00000000001564e8     UefiShellLevel2CommandsLib:Cd.obj
 0005:000004f0       $unwind$PerformSingleMappingDisplay 00000000001564f0     UefiShellLevel2CommandsLib:Map.obj
 0005:000004f8       $unwind$PerformMappingDisplay 00000000001564f8     UefiShellLevel2CommandsLib:Map.obj
 0005:00000500       $unwind$PerformMappingDisplay2 0000000000156500     UefiShellLevel2CommandsLib:Map.obj
 0005:00000508       $unwind$PrintFileInformation 0000000000156508     UefiShellLevel2CommandsLib:Ls.obj
 0005:00000520       $unwind$PrintLsOutput      0000000000156520     UefiShellLevel2CommandsLib:Ls.obj
 0005:00000530       $unwind$ShellCommandRunLs  0000000000156530     UefiShellLevel2CommandsLib:Ls.obj
 0005:00000540       $unwind$DoDecodeByProtocol 0000000000156540     UefiShellDriver1CommandsLib:Dh.obj
 0005:00000540       $unwind$ShellCommandRunDate 0000000000156540     UefiShellLevel2CommandsLib:TimeDate.obj
 0005:00000550       $unwind$CheckAndSetTime    0000000000156550     UefiShellLevel2CommandsLib:TimeDate.obj
 0005:00000560       $unwind$ShellCommandRunTime 0000000000156560     UefiShellLevel2CommandsLib:TimeDate.obj
 0005:00000570       $unwind$ShellCommandRunTimeZone 0000000000156570     UefiShellLevel2CommandsLib:TimeDate.obj
 0005:00000580       $unwind$ShellCommandRunEfiDecompress 0000000000156580     UefiShellDebug1CommandsLib:EfiDecompress.obj
 0005:00000580       $unwind$ShellCommandRunDrvCfg 0000000000156580     UefiShellDriver1CommandsLib:DrvCfg.obj
 0005:00000580       $unwind$ShellCommandRunFor 0000000000156580     UefiShellLevel1CommandsLib:For.obj
 0005:00000588       $unwind$PreHiiDrvCfg       0000000000156588     UefiShellDriver1CommandsLib:DrvCfg.obj
 0005:00000590       $unwind$PrintConfigInfoOnAll 0000000000156590     UefiShellDriver1CommandsLib:DrvCfg.obj
 0005:00000598       $unwind$ShellCommandRunDrivers 0000000000156598     UefiShellDriver1CommandsLib:Drivers.obj
 0005:000005a8       $unwind$GetProtocolInfoString 00000000001565a8     UefiShellDriver1CommandsLib:Dh.obj
 0005:000005b8       $unwind$DisplayDriverModelHandle 00000000001565b8     UefiShellDriver1CommandsLib:Dh.obj
 0005:000005c0       $unwind$StatusBarRefresh   00000000001565c0     UefiShellDebug1CommandsLib:EditStatusBar.obj
 0005:000005c0       $unwind$DoDhByProtocolGuid 00000000001565c0     UefiShellDriver1CommandsLib:Dh.obj
 0005:000005c8       $unwind$DoDhByProtocol     00000000001565c8     UefiShellDriver1CommandsLib:Dh.obj
 0005:000005d8       $unwind$DoDiagnostics      00000000001565d8     UefiShellDriver1CommandsLib:DrvDiag.obj
 0005:000005e0       $unwind$FileBufferSave     00000000001565e0     UefiShellDebug1CommandsLib:FileBuffer.obj
 0005:000005e0       $unwind$TraverseHandleDatabase 00000000001565e0     UefiShellDriver1CommandsLib:OpenInfo.obj
 0005:000005e8       $unwind$ShellCommandRunDevices 00000000001565e8     UefiShellDriver1CommandsLib:Devices.obj
 0005:000005f0       $unwind$HBufferImageRefresh 00000000001565f0     UefiShellDebug1CommandsLib:BufferImage.obj
 0005:000005f0       $unwind$HMainCommandSaveBuffer 00000000001565f0     UefiShellDebug1CommandsLib:MainHexEditor.obj
 0005:000005f8       $unwind$HMainCommandOpenFile 00000000001565f8     UefiShellDebug1CommandsLib:MainHexEditor.obj
 0005:00000600       $unwind$HMainCommandOpenDisk 0000000000156600     UefiShellDebug1CommandsLib:MainHexEditor.obj
 0005:00000600       $unwind$HMainCommandOpenMemory 0000000000156600     UefiShellDebug1CommandsLib:MainHexEditor.obj
 0005:00000608       $unwind$HMainEditorKeyInput 0000000000156608     UefiShellDebug1CommandsLib:MainHexEditor.obj
 0005:00000618       $unwind$CompressOutput     0000000000156618     UefiShellDebug1CommandsLib:Compress.obj
 0005:00000618       $unwind$HBufferImageAdjustMousePosition 0000000000156618     UefiShellDebug1CommandsLib:BufferImage.obj
 0005:00000620       $unwind$MainEditorKeyInput 0000000000156620     UefiShellDebug1CommandsLib:MainTextEditor.obj
 0005:00000630       $unwind$FileBufferRead     0000000000156630     UefiShellDebug1CommandsLib:FileBuffer.obj
 0005:00000638       $unwind$MakeChild          0000000000156638     UefiShellDebug1CommandsLib:Compress.obj
 0005:00000638       $unwind$UnicodeToAscii     0000000000156638     UefiShellDebug1CommandsLib:FileBuffer.obj
 0005:00000640       $unwind$InputBarRefresh    0000000000156640     UefiShellDebug1CommandsLib:EditInputBar.obj
 0005:00000650       $unwind$EditorClearLine    0000000000156650     UefiShellDebug1CommandsLib:UefiShellDebug1CommandsLib.obj
 0005:00000660       $unwind$DisplaySmbios64BitStatisticsTable 0000000000156660     UefiShellDebug1CommandsLib:SmbiosView.obj
 0005:00000660       $unwind$DisplayStatisticsTable 0000000000156660     UefiShellDebug1CommandsLib:SmbiosView.obj
 0005:00000668       $unwind$DisplayBaseBoardBoardType 0000000000156668     UefiShellDebug1CommandsLib:QueryTable.obj
 0005:00000668       $unwind$DisplayCacheAssociativity 0000000000156668     UefiShellDebug1CommandsLib:QueryTable.obj
 0005:00000668       $unwind$DisplayCacheErrCorrectingType 0000000000156668     UefiShellDebug1CommandsLib:QueryTable.obj
 0005:00000668       $unwind$DisplayCacheSystemCacheType 0000000000156668     UefiShellDebug1CommandsLib:QueryTable.obj
 0005:00000668       $unwind$DisplayCoolingDeviceStatus 0000000000156668     UefiShellDebug1CommandsLib:QueryTable.obj
 0005:00000668       $unwind$DisplayCoolingDeviceType 0000000000156668     UefiShellDebug1CommandsLib:QueryTable.obj
 0005:00000668       $unwind$DisplayECPLoc      0000000000156668     UefiShellDebug1CommandsLib:QueryTable.obj
 0005:00000668       $unwind$DisplayECPStatus   0000000000156668     UefiShellDebug1CommandsLib:QueryTable.obj
 0005:00000668       $unwind$DisplayFirmwareState 0000000000156668     UefiShellDebug1CommandsLib:QueryTable.obj
 0005:00000668       $unwind$DisplayIPMIDIBMCInterfaceType 0000000000156668     UefiShellDebug1CommandsLib:QueryTable.obj
 0005:00000668       $unwind$DisplayMCHostInterfaceType 0000000000156668     UefiShellDebug1CommandsLib:QueryTable.obj
 0005:00000668       $unwind$DisplayMDAddressType 0000000000156668     UefiShellDebug1CommandsLib:QueryTable.obj
 0005:00000668       $unwind$DisplayMDType      0000000000156668     UefiShellDebug1CommandsLib:QueryTable.obj
 0005:00000668       $unwind$DisplayMcErrorDetectMethod 0000000000156668     UefiShellDebug1CommandsLib:QueryTable.obj
 0005:00000668       $unwind$DisplayMcInterleaveSupport 0000000000156668     UefiShellDebug1CommandsLib:QueryTable.obj
 0005:00000668       $unwind$DisplayMemoryChannelType 0000000000156668     UefiShellDebug1CommandsLib:QueryTable.obj
 0005:00000668       $unwind$DisplayMemoryDeviceFormFactor 0000000000156668     UefiShellDebug1CommandsLib:QueryTable.obj
 0005:00000668       $unwind$DisplayMemoryDeviceMemoryTechnology 0000000000156668     UefiShellDebug1CommandsLib:QueryTable.obj
 0005:00000668       $unwind$DisplayMemoryDeviceType 0000000000156668     UefiShellDebug1CommandsLib:QueryTable.obj
 0005:00000668       $unwind$DisplayMemoryErrorGranularity 0000000000156668     UefiShellDebug1CommandsLib:QueryTable.obj
 0005:00000668       $unwind$DisplayMemoryErrorOperation 0000000000156668     UefiShellDebug1CommandsLib:QueryTable.obj
 0005:00000668       $unwind$DisplayMemoryErrorType 0000000000156668     UefiShellDebug1CommandsLib:QueryTable.obj
 0005:00000668       $unwind$DisplayOnboardDeviceTypes 0000000000156668     UefiShellDebug1CommandsLib:QueryTable.obj
 0005:00000668       $unwind$DisplayPBDeviceChemistry 0000000000156668     UefiShellDebug1CommandsLib:QueryTable.obj
 0005:00000668       $unwind$DisplayPMAErrorCorrectionTypes 0000000000156668     UefiShellDebug1CommandsLib:QueryTable.obj
 0005:00000668       $unwind$DisplayPMALocation 0000000000156668     UefiShellDebug1CommandsLib:QueryTable.obj
 0005:00000668       $unwind$DisplayPMAUse      0000000000156668     UefiShellDebug1CommandsLib:QueryTable.obj
 0005:00000668       $unwind$DisplayPointingDeviceInterface 0000000000156668     UefiShellDebug1CommandsLib:QueryTable.obj
 0005:00000668       $unwind$DisplayPointingDeviceType 0000000000156668     UefiShellDebug1CommandsLib:QueryTable.obj
 0005:00000668       $unwind$DisplayPortConnectorType 0000000000156668     UefiShellDebug1CommandsLib:QueryTable.obj
 0005:00000668       $unwind$DisplayPortType    0000000000156668     UefiShellDebug1CommandsLib:QueryTable.obj
 0005:00000668       $unwind$DisplayProcessorArchitectureType 0000000000156668     UefiShellDebug1CommandsLib:QueryTable.obj
 0005:00000668       $unwind$DisplayProcessorType 0000000000156668     UefiShellDebug1CommandsLib:QueryTable.obj
 0005:00000668       $unwind$DisplayProcessorUpgrade 0000000000156668     UefiShellDebug1CommandsLib:QueryTable.obj
 0005:00000668       $unwind$DisplaySELSysManagementTypes 0000000000156668     UefiShellDebug1CommandsLib:QueryTable.obj
 0005:00000668       $unwind$DisplaySELTypes    0000000000156668     UefiShellDebug1CommandsLib:QueryTable.obj
 0005:00000668       $unwind$DisplaySELVarDataFormatType 0000000000156668     UefiShellDebug1CommandsLib:QueryTable.obj
 0005:00000668       $unwind$DisplaySESecurityStatus 0000000000156668     UefiShellDebug1CommandsLib:QueryTable.obj
 0005:00000668       $unwind$DisplayStructureTypeInfo 0000000000156668     UefiShellDebug1CommandsLib:QueryTable.obj
 0005:00000668       $unwind$DisplaySystemEnclosureStatus 0000000000156668     UefiShellDebug1CommandsLib:QueryTable.obj
 0005:00000668       $unwind$DisplaySystemEnclosureType 0000000000156668     UefiShellDebug1CommandsLib:QueryTable.obj
 0005:00000668       $unwind$DisplaySystemSlotCurrentUsage 0000000000156668     UefiShellDebug1CommandsLib:QueryTable.obj
 0005:00000668       $unwind$DisplaySystemSlotDataBusWidth 0000000000156668     UefiShellDebug1CommandsLib:QueryTable.obj
 0005:00000668       $unwind$DisplaySystemSlotHeight 0000000000156668     UefiShellDebug1CommandsLib:QueryTable.obj
 0005:00000668       $unwind$DisplaySystemSlotInformation 0000000000156668     UefiShellDebug1CommandsLib:QueryTable.obj
 0005:00000668       $unwind$DisplaySystemSlotLength 0000000000156668     UefiShellDebug1CommandsLib:QueryTable.obj
 0005:00000668       $unwind$DisplaySystemSlotPhysicalWidth 0000000000156668     UefiShellDebug1CommandsLib:QueryTable.obj
 0005:00000668       $unwind$DisplaySystemSlotType 0000000000156668     UefiShellDebug1CommandsLib:QueryTable.obj
 0005:00000668       $unwind$DisplaySystemWakeupType 0000000000156668     UefiShellDebug1CommandsLib:QueryTable.obj
 0005:00000668       $unwind$DisplayTemperatureProbeLoc 0000000000156668     UefiShellDebug1CommandsLib:QueryTable.obj
 0005:00000668       $unwind$DisplayTemperatureProbeStatus 0000000000156668     UefiShellDebug1CommandsLib:QueryTable.obj
 0005:00000668       $unwind$DisplayVPLocation  0000000000156668     UefiShellDebug1CommandsLib:QueryTable.obj
 0005:00000668       $unwind$DisplayVPStatus    0000000000156668     UefiShellDebug1CommandsLib:QueryTable.obj
 0005:00000678       $unwind$DisplaySELAccessMethod 0000000000156678     UefiShellDebug1CommandsLib:EventLogInfo.obj
 0005:00000678       $unwind$DisplayMmMemorySize 0000000000156678     UefiShellDebug1CommandsLib:PrintInfo.obj
 0005:00000678       $unwind$DisplayProcessorFamily 0000000000156678     UefiShellDebug1CommandsLib:PrintInfo.obj
 0005:00000678       $unwind$DisplayProcessorStatus 0000000000156678     UefiShellDebug1CommandsLib:PrintInfo.obj
 0005:00000678       $unwind$DisplayBaseBoardFeatureFlags 0000000000156678     UefiShellDebug1CommandsLib:QueryTable.obj
 0005:00000678       $unwind$DisplayMcErrorCorrectCapability 0000000000156678     UefiShellDebug1CommandsLib:QueryTable.obj
 0005:00000678       $unwind$DisplayMemoryModuleVoltage 0000000000156678     UefiShellDebug1CommandsLib:QueryTable.obj
 0005:00000678       $unwind$DisplayMmErrorStatus 0000000000156678     UefiShellDebug1CommandsLib:QueryTable.obj
 0005:00000678       $unwind$DisplayPostResultsBitmapDw1 0000000000156678     UefiShellDebug1CommandsLib:QueryTable.obj
 0005:00000678       $unwind$DisplayPostResultsBitmapDw2 0000000000156678     UefiShellDebug1CommandsLib:QueryTable.obj
 0005:00000678       $unwind$DisplaySlotCharacteristics1 0000000000156678     UefiShellDebug1CommandsLib:QueryTable.obj
 0005:00000678       $unwind$DisplaySlotCharacteristics2 0000000000156678     UefiShellDebug1CommandsLib:QueryTable.obj
 0005:00000680       $unwind$SmbiosPrintEPSInfo 0000000000156680     UefiShellDebug1CommandsLib:PrintInfo.obj
 0005:00000690       $unwind$Smbios64BitPrintEPSInfo 0000000000156690     UefiShellDebug1CommandsLib:PrintInfo.obj
 0005:000006a0       $unwind$SmbiosPrintStructure 00000000001566a0     UefiShellDebug1CommandsLib:PrintInfo.obj
 0005:000006a8       $unwind$DisplayMaxMemoryModuleSize 00000000001566a8     UefiShellDebug1CommandsLib:PrintInfo.obj
 0005:000006b0       $unwind$DisplayMemoryModuleConfigHandles 00000000001566b0     UefiShellDebug1CommandsLib:PrintInfo.obj
 0005:000006b8       $unwind$DisplayHardwareSecuritySettings 00000000001566b8     UefiShellDebug1CommandsLib:PrintInfo.obj
 0005:000006b8       $unwind$DisplayMmBankConnections 00000000001566b8     UefiShellDebug1CommandsLib:PrintInfo.obj
 0005:000006c0       $unwind$DisplaySystemResetCapabilities 00000000001566c0     UefiShellDebug1CommandsLib:PrintInfo.obj
 0005:000006c8       $unwind$LoadVariablesFromFile 00000000001566c8     UefiShellDebug1CommandsLib:DmpStore.obj
 0005:000006d0       $unwind$ProcessVariables   00000000001566d0     UefiShellDebug1CommandsLib:DmpStore.obj
 0005:000006e0       $unwind$ShellCommandRunDmpStore 00000000001566e0     UefiShellDebug1CommandsLib:DmpStore.obj
 0005:000006e0       $unwind$IfConfigSetInterfaceInfo 00000000001566e0     UefiShellNetwork1CommandsLib:Ifconfig.obj
 0005:000006f0       $unwind$ShellCommandRunPci 00000000001566f0     UefiShellDebug1CommandsLib:Pci.obj
 0005:00000704       $unwind$PciFindProtocolInterface 0000000000156704     UefiShellDebug1CommandsLib:Pci.obj
 0005:0000070c       $unwind$PrintInterpretedExtendedCompatibilityAer 000000000015670c     UefiShellDebug1CommandsLib:Pci.obj
 0005:0000071c       $unwind$PrintInterpretedExtendedCompatibilityPhysicalLayer32 000000000015671c     UefiShellDebug1CommandsLib:Pci.obj
 0005:0000071c       $unwind$PrintInterpretedExtendedCompatibilitySriov 000000000015671c     UefiShellDebug1CommandsLib:Pci.obj
 0005:0000072c       $unwind$PrintInterpretedExtendedCompatibilityPhysicalLayer64 000000000015672c     UefiShellDebug1CommandsLib:Pci.obj
 0005:00000738       $unwind$PciExplainPciExpress 0000000000156738     UefiShellDebug1CommandsLib:Pci.obj
 0005:00000740       $unwind$DisplaySettings    0000000000156740     UefiShellDebug1CommandsLib:SerMode.obj
 0005:00000748       $unwind$ShellCommandRunSetVar 0000000000156748     UefiShellDebug1CommandsLib:SetVar.obj
 0005:00000758       $unwind$ShellMmDecodePciAddress 0000000000156758     UefiShellDebug1CommandsLib:Mm.obj
 0005:00000760       $unwind$ShellMmAccess      0000000000156760     UefiShellDebug1CommandsLib:Mm.obj
 0005:00000768       $unwind$ShellMmLocateIoProtocol 0000000000156768     UefiShellDebug1CommandsLib:Mm.obj
 0005:00000770       $unwind$LoadEfiDriversFromRomImage 0000000000156770     UefiShellDebug1CommandsLib:LoadPciRom.obj
 0005:00000780       $unwind$DisplayRtProperties 0000000000156780     UefiShellDebug1CommandsLib:Dmem.obj
 0005:00000788       $unwind$DisplaySystemTable 0000000000156788     UefiShellDebug1CommandsLib:Dmem.obj
 0005:000007a8       $unwind$MakeCode           00000000001567a8     UefiShellDebug1CommandsLib:Compress.obj
 0005:000007b8       $unwind$PutBits            00000000001567b8     UefiShellDebug1CommandsLib:Compress.obj
 0005:000007c0       $unwind$WritePTLen         00000000001567c0     UefiShellDebug1CommandsLib:Compress.obj
 0005:000007c8       $unwind$ParseMemoryDescriptors 00000000001567c8     UefiShellDebug1CommandsLib:MemMap.obj
 0005:000007e8       $unwind$ShellCommandRunComp 00000000001567e8     UefiShellDebug1CommandsLib:Comp.obj
 0005:000007f0       $unwind$IfConfigRetriveCheckListByName 00000000001567f0     UefiShellNetwork1CommandsLib:Ifconfig.obj
 0005:000007fc       $unwind$PingCreateIpInstance 00000000001567fc     UefiShellNetwork1CommandsLib:Ping.obj
 0005:0000080c       $unwind$ShellPing          000000000015680c     UefiShellNetwork1CommandsLib:Ping.obj
